ARM GAS  C:\Users\lenovo\AppData\Local\Temp\ccSXL9zI.s 			page 1


   1              		.cpu cortex-m4
   2              		.eabi_attribute 27, 1
   3              		.eabi_attribute 28, 1
   4              		.eabi_attribute 20, 1
   5              		.eabi_attribute 21, 1
   6              		.eabi_attribute 23, 3
   7              		.eabi_attribute 24, 1
   8              		.eabi_attribute 25, 1
   9              		.eabi_attribute 26, 1
  10              		.eabi_attribute 30, 6
  11              		.eabi_attribute 34, 1
  12              		.eabi_attribute 18, 4
  13              		.file	"cipher.c"
  14              		.text
  15              	.Ltext0:
  16              		.cfi_sections	.debug_frame
  17              		.section	.text.mbedtls_cipher_get_block_size,"ax",%progbits
  18              		.align	1
  19              		.arch armv7e-m
  20              		.syntax unified
  21              		.thumb
  22              		.thumb_func
  23              		.fpu fpv4-sp-d16
  25              	mbedtls_cipher_get_block_size:
  26              	.LFB0:
  27              		.file 1 "c:/Users/lenovo/Desktop/AIoT/first_day/firstday_afternoon/LiteOS_Lab_STM32_IoT/iot_link/n
   1:c:/Users/lenovo/Desktop/AIoT/first_day/firstday_afternoon/LiteOS_Lab_STM32_IoT/iot_link/network/dtls/mbedtls/mbedtls-2.16.2/include/mbedtls\cipher.h **** /**
   2:c:/Users/lenovo/Desktop/AIoT/first_day/firstday_afternoon/LiteOS_Lab_STM32_IoT/iot_link/network/dtls/mbedtls/mbedtls-2.16.2/include/mbedtls\cipher.h ****  * \file cipher.h
   3:c:/Users/lenovo/Desktop/AIoT/first_day/firstday_afternoon/LiteOS_Lab_STM32_IoT/iot_link/network/dtls/mbedtls/mbedtls-2.16.2/include/mbedtls\cipher.h ****  *
   4:c:/Users/lenovo/Desktop/AIoT/first_day/firstday_afternoon/LiteOS_Lab_STM32_IoT/iot_link/network/dtls/mbedtls/mbedtls-2.16.2/include/mbedtls\cipher.h ****  * \brief This file contains an abstraction interface for use with the cipher
   5:c:/Users/lenovo/Desktop/AIoT/first_day/firstday_afternoon/LiteOS_Lab_STM32_IoT/iot_link/network/dtls/mbedtls/mbedtls-2.16.2/include/mbedtls\cipher.h ****  * primitives provided by the library. It provides a common interface to all of
   6:c:/Users/lenovo/Desktop/AIoT/first_day/firstday_afternoon/LiteOS_Lab_STM32_IoT/iot_link/network/dtls/mbedtls/mbedtls-2.16.2/include/mbedtls\cipher.h ****  * the available cipher operations.
   7:c:/Users/lenovo/Desktop/AIoT/first_day/firstday_afternoon/LiteOS_Lab_STM32_IoT/iot_link/network/dtls/mbedtls/mbedtls-2.16.2/include/mbedtls\cipher.h ****  *
   8:c:/Users/lenovo/Desktop/AIoT/first_day/firstday_afternoon/LiteOS_Lab_STM32_IoT/iot_link/network/dtls/mbedtls/mbedtls-2.16.2/include/mbedtls\cipher.h ****  * \author Adriaan de Jong <dejong@fox-it.com>
   9:c:/Users/lenovo/Desktop/AIoT/first_day/firstday_afternoon/LiteOS_Lab_STM32_IoT/iot_link/network/dtls/mbedtls/mbedtls-2.16.2/include/mbedtls\cipher.h ****  */
  10:c:/Users/lenovo/Desktop/AIoT/first_day/firstday_afternoon/LiteOS_Lab_STM32_IoT/iot_link/network/dtls/mbedtls/mbedtls-2.16.2/include/mbedtls\cipher.h **** /*
  11:c:/Users/lenovo/Desktop/AIoT/first_day/firstday_afternoon/LiteOS_Lab_STM32_IoT/iot_link/network/dtls/mbedtls/mbedtls-2.16.2/include/mbedtls\cipher.h ****  *  Copyright (C) 2006-2018, Arm Limited (or its affiliates), All Rights Reserved
  12:c:/Users/lenovo/Desktop/AIoT/first_day/firstday_afternoon/LiteOS_Lab_STM32_IoT/iot_link/network/dtls/mbedtls/mbedtls-2.16.2/include/mbedtls\cipher.h ****  *  SPDX-License-Identifier: Apache-2.0
  13:c:/Users/lenovo/Desktop/AIoT/first_day/firstday_afternoon/LiteOS_Lab_STM32_IoT/iot_link/network/dtls/mbedtls/mbedtls-2.16.2/include/mbedtls\cipher.h ****  *
  14:c:/Users/lenovo/Desktop/AIoT/first_day/firstday_afternoon/LiteOS_Lab_STM32_IoT/iot_link/network/dtls/mbedtls/mbedtls-2.16.2/include/mbedtls\cipher.h ****  *  Licensed under the Apache License, Version 2.0 (the "License"); you may
  15:c:/Users/lenovo/Desktop/AIoT/first_day/firstday_afternoon/LiteOS_Lab_STM32_IoT/iot_link/network/dtls/mbedtls/mbedtls-2.16.2/include/mbedtls\cipher.h ****  *  not use this file except in compliance with the License.
  16:c:/Users/lenovo/Desktop/AIoT/first_day/firstday_afternoon/LiteOS_Lab_STM32_IoT/iot_link/network/dtls/mbedtls/mbedtls-2.16.2/include/mbedtls\cipher.h ****  *  You may obtain a copy of the License at
  17:c:/Users/lenovo/Desktop/AIoT/first_day/firstday_afternoon/LiteOS_Lab_STM32_IoT/iot_link/network/dtls/mbedtls/mbedtls-2.16.2/include/mbedtls\cipher.h ****  *
  18:c:/Users/lenovo/Desktop/AIoT/first_day/firstday_afternoon/LiteOS_Lab_STM32_IoT/iot_link/network/dtls/mbedtls/mbedtls-2.16.2/include/mbedtls\cipher.h ****  *  http://www.apache.org/licenses/LICENSE-2.0
  19:c:/Users/lenovo/Desktop/AIoT/first_day/firstday_afternoon/LiteOS_Lab_STM32_IoT/iot_link/network/dtls/mbedtls/mbedtls-2.16.2/include/mbedtls\cipher.h ****  *
  20:c:/Users/lenovo/Desktop/AIoT/first_day/firstday_afternoon/LiteOS_Lab_STM32_IoT/iot_link/network/dtls/mbedtls/mbedtls-2.16.2/include/mbedtls\cipher.h ****  *  Unless required by applicable law or agreed to in writing, software
  21:c:/Users/lenovo/Desktop/AIoT/first_day/firstday_afternoon/LiteOS_Lab_STM32_IoT/iot_link/network/dtls/mbedtls/mbedtls-2.16.2/include/mbedtls\cipher.h ****  *  distributed under the License is distributed on an "AS IS" BASIS, WITHOUT
  22:c:/Users/lenovo/Desktop/AIoT/first_day/firstday_afternoon/LiteOS_Lab_STM32_IoT/iot_link/network/dtls/mbedtls/mbedtls-2.16.2/include/mbedtls\cipher.h ****  *  WARRANTIES OR CONDITIONS OF ANY KIND, either express or implied.
  23:c:/Users/lenovo/Desktop/AIoT/first_day/firstday_afternoon/LiteOS_Lab_STM32_IoT/iot_link/network/dtls/mbedtls/mbedtls-2.16.2/include/mbedtls\cipher.h ****  *  See the License for the specific language governing permissions and
  24:c:/Users/lenovo/Desktop/AIoT/first_day/firstday_afternoon/LiteOS_Lab_STM32_IoT/iot_link/network/dtls/mbedtls/mbedtls-2.16.2/include/mbedtls\cipher.h ****  *  limitations under the License.
  25:c:/Users/lenovo/Desktop/AIoT/first_day/firstday_afternoon/LiteOS_Lab_STM32_IoT/iot_link/network/dtls/mbedtls/mbedtls-2.16.2/include/mbedtls\cipher.h ****  *
  26:c:/Users/lenovo/Desktop/AIoT/first_day/firstday_afternoon/LiteOS_Lab_STM32_IoT/iot_link/network/dtls/mbedtls/mbedtls-2.16.2/include/mbedtls\cipher.h ****  *  This file is part of Mbed TLS (https://tls.mbed.org)
  27:c:/Users/lenovo/Desktop/AIoT/first_day/firstday_afternoon/LiteOS_Lab_STM32_IoT/iot_link/network/dtls/mbedtls/mbedtls-2.16.2/include/mbedtls\cipher.h ****  */
  28:c:/Users/lenovo/Desktop/AIoT/first_day/firstday_afternoon/LiteOS_Lab_STM32_IoT/iot_link/network/dtls/mbedtls/mbedtls-2.16.2/include/mbedtls\cipher.h **** 
  29:c:/Users/lenovo/Desktop/AIoT/first_day/firstday_afternoon/LiteOS_Lab_STM32_IoT/iot_link/network/dtls/mbedtls/mbedtls-2.16.2/include/mbedtls\cipher.h **** #ifndef MBEDTLS_CIPHER_H
  30:c:/Users/lenovo/Desktop/AIoT/first_day/firstday_afternoon/LiteOS_Lab_STM32_IoT/iot_link/network/dtls/mbedtls/mbedtls-2.16.2/include/mbedtls\cipher.h **** #define MBEDTLS_CIPHER_H
  31:c:/Users/lenovo/Desktop/AIoT/first_day/firstday_afternoon/LiteOS_Lab_STM32_IoT/iot_link/network/dtls/mbedtls/mbedtls-2.16.2/include/mbedtls\cipher.h **** 
ARM GAS  C:\Users\lenovo\AppData\Local\Temp\ccSXL9zI.s 			page 2


  32:c:/Users/lenovo/Desktop/AIoT/first_day/firstday_afternoon/LiteOS_Lab_STM32_IoT/iot_link/network/dtls/mbedtls/mbedtls-2.16.2/include/mbedtls\cipher.h **** #if !defined(MBEDTLS_CONFIG_FILE)
  33:c:/Users/lenovo/Desktop/AIoT/first_day/firstday_afternoon/LiteOS_Lab_STM32_IoT/iot_link/network/dtls/mbedtls/mbedtls-2.16.2/include/mbedtls\cipher.h **** #include "config.h"
  34:c:/Users/lenovo/Desktop/AIoT/first_day/firstday_afternoon/LiteOS_Lab_STM32_IoT/iot_link/network/dtls/mbedtls/mbedtls-2.16.2/include/mbedtls\cipher.h **** #else
  35:c:/Users/lenovo/Desktop/AIoT/first_day/firstday_afternoon/LiteOS_Lab_STM32_IoT/iot_link/network/dtls/mbedtls/mbedtls-2.16.2/include/mbedtls\cipher.h **** #include MBEDTLS_CONFIG_FILE
  36:c:/Users/lenovo/Desktop/AIoT/first_day/firstday_afternoon/LiteOS_Lab_STM32_IoT/iot_link/network/dtls/mbedtls/mbedtls-2.16.2/include/mbedtls\cipher.h **** #endif
  37:c:/Users/lenovo/Desktop/AIoT/first_day/firstday_afternoon/LiteOS_Lab_STM32_IoT/iot_link/network/dtls/mbedtls/mbedtls-2.16.2/include/mbedtls\cipher.h **** 
  38:c:/Users/lenovo/Desktop/AIoT/first_day/firstday_afternoon/LiteOS_Lab_STM32_IoT/iot_link/network/dtls/mbedtls/mbedtls-2.16.2/include/mbedtls\cipher.h **** #include <stddef.h>
  39:c:/Users/lenovo/Desktop/AIoT/first_day/firstday_afternoon/LiteOS_Lab_STM32_IoT/iot_link/network/dtls/mbedtls/mbedtls-2.16.2/include/mbedtls\cipher.h **** #include "platform_util.h"
  40:c:/Users/lenovo/Desktop/AIoT/first_day/firstday_afternoon/LiteOS_Lab_STM32_IoT/iot_link/network/dtls/mbedtls/mbedtls-2.16.2/include/mbedtls\cipher.h **** 
  41:c:/Users/lenovo/Desktop/AIoT/first_day/firstday_afternoon/LiteOS_Lab_STM32_IoT/iot_link/network/dtls/mbedtls/mbedtls-2.16.2/include/mbedtls\cipher.h **** #if defined(MBEDTLS_GCM_C) || defined(MBEDTLS_CCM_C) || defined(MBEDTLS_CHACHAPOLY_C)
  42:c:/Users/lenovo/Desktop/AIoT/first_day/firstday_afternoon/LiteOS_Lab_STM32_IoT/iot_link/network/dtls/mbedtls/mbedtls-2.16.2/include/mbedtls\cipher.h **** #define MBEDTLS_CIPHER_MODE_AEAD
  43:c:/Users/lenovo/Desktop/AIoT/first_day/firstday_afternoon/LiteOS_Lab_STM32_IoT/iot_link/network/dtls/mbedtls/mbedtls-2.16.2/include/mbedtls\cipher.h **** #endif
  44:c:/Users/lenovo/Desktop/AIoT/first_day/firstday_afternoon/LiteOS_Lab_STM32_IoT/iot_link/network/dtls/mbedtls/mbedtls-2.16.2/include/mbedtls\cipher.h **** 
  45:c:/Users/lenovo/Desktop/AIoT/first_day/firstday_afternoon/LiteOS_Lab_STM32_IoT/iot_link/network/dtls/mbedtls/mbedtls-2.16.2/include/mbedtls\cipher.h **** #if defined(MBEDTLS_CIPHER_MODE_CBC)
  46:c:/Users/lenovo/Desktop/AIoT/first_day/firstday_afternoon/LiteOS_Lab_STM32_IoT/iot_link/network/dtls/mbedtls/mbedtls-2.16.2/include/mbedtls\cipher.h **** #define MBEDTLS_CIPHER_MODE_WITH_PADDING
  47:c:/Users/lenovo/Desktop/AIoT/first_day/firstday_afternoon/LiteOS_Lab_STM32_IoT/iot_link/network/dtls/mbedtls/mbedtls-2.16.2/include/mbedtls\cipher.h **** #endif
  48:c:/Users/lenovo/Desktop/AIoT/first_day/firstday_afternoon/LiteOS_Lab_STM32_IoT/iot_link/network/dtls/mbedtls/mbedtls-2.16.2/include/mbedtls\cipher.h **** 
  49:c:/Users/lenovo/Desktop/AIoT/first_day/firstday_afternoon/LiteOS_Lab_STM32_IoT/iot_link/network/dtls/mbedtls/mbedtls-2.16.2/include/mbedtls\cipher.h **** #if defined(MBEDTLS_ARC4_C) || defined(MBEDTLS_CIPHER_NULL_CIPHER) || \
  50:c:/Users/lenovo/Desktop/AIoT/first_day/firstday_afternoon/LiteOS_Lab_STM32_IoT/iot_link/network/dtls/mbedtls/mbedtls-2.16.2/include/mbedtls\cipher.h ****     defined(MBEDTLS_CHACHA20_C)
  51:c:/Users/lenovo/Desktop/AIoT/first_day/firstday_afternoon/LiteOS_Lab_STM32_IoT/iot_link/network/dtls/mbedtls/mbedtls-2.16.2/include/mbedtls\cipher.h **** #define MBEDTLS_CIPHER_MODE_STREAM
  52:c:/Users/lenovo/Desktop/AIoT/first_day/firstday_afternoon/LiteOS_Lab_STM32_IoT/iot_link/network/dtls/mbedtls/mbedtls-2.16.2/include/mbedtls\cipher.h **** #endif
  53:c:/Users/lenovo/Desktop/AIoT/first_day/firstday_afternoon/LiteOS_Lab_STM32_IoT/iot_link/network/dtls/mbedtls/mbedtls-2.16.2/include/mbedtls\cipher.h **** 
  54:c:/Users/lenovo/Desktop/AIoT/first_day/firstday_afternoon/LiteOS_Lab_STM32_IoT/iot_link/network/dtls/mbedtls/mbedtls-2.16.2/include/mbedtls\cipher.h **** #if ( defined(__ARMCC_VERSION) || defined(_MSC_VER) ) && \
  55:c:/Users/lenovo/Desktop/AIoT/first_day/firstday_afternoon/LiteOS_Lab_STM32_IoT/iot_link/network/dtls/mbedtls/mbedtls-2.16.2/include/mbedtls\cipher.h ****     !defined(inline) && !defined(__cplusplus)
  56:c:/Users/lenovo/Desktop/AIoT/first_day/firstday_afternoon/LiteOS_Lab_STM32_IoT/iot_link/network/dtls/mbedtls/mbedtls-2.16.2/include/mbedtls\cipher.h **** #define inline __inline
  57:c:/Users/lenovo/Desktop/AIoT/first_day/firstday_afternoon/LiteOS_Lab_STM32_IoT/iot_link/network/dtls/mbedtls/mbedtls-2.16.2/include/mbedtls\cipher.h **** #endif
  58:c:/Users/lenovo/Desktop/AIoT/first_day/firstday_afternoon/LiteOS_Lab_STM32_IoT/iot_link/network/dtls/mbedtls/mbedtls-2.16.2/include/mbedtls\cipher.h **** 
  59:c:/Users/lenovo/Desktop/AIoT/first_day/firstday_afternoon/LiteOS_Lab_STM32_IoT/iot_link/network/dtls/mbedtls/mbedtls-2.16.2/include/mbedtls\cipher.h **** #define MBEDTLS_ERR_CIPHER_FEATURE_UNAVAILABLE  -0x6080  /**< The selected feature is not available
  60:c:/Users/lenovo/Desktop/AIoT/first_day/firstday_afternoon/LiteOS_Lab_STM32_IoT/iot_link/network/dtls/mbedtls/mbedtls-2.16.2/include/mbedtls\cipher.h **** #define MBEDTLS_ERR_CIPHER_BAD_INPUT_DATA       -0x6100  /**< Bad input parameters. */
  61:c:/Users/lenovo/Desktop/AIoT/first_day/firstday_afternoon/LiteOS_Lab_STM32_IoT/iot_link/network/dtls/mbedtls/mbedtls-2.16.2/include/mbedtls\cipher.h **** #define MBEDTLS_ERR_CIPHER_ALLOC_FAILED         -0x6180  /**< Failed to allocate memory. */
  62:c:/Users/lenovo/Desktop/AIoT/first_day/firstday_afternoon/LiteOS_Lab_STM32_IoT/iot_link/network/dtls/mbedtls/mbedtls-2.16.2/include/mbedtls\cipher.h **** #define MBEDTLS_ERR_CIPHER_INVALID_PADDING      -0x6200  /**< Input data contains invalid padding a
  63:c:/Users/lenovo/Desktop/AIoT/first_day/firstday_afternoon/LiteOS_Lab_STM32_IoT/iot_link/network/dtls/mbedtls/mbedtls-2.16.2/include/mbedtls\cipher.h **** #define MBEDTLS_ERR_CIPHER_FULL_BLOCK_EXPECTED  -0x6280  /**< Decryption of block requires a full b
  64:c:/Users/lenovo/Desktop/AIoT/first_day/firstday_afternoon/LiteOS_Lab_STM32_IoT/iot_link/network/dtls/mbedtls/mbedtls-2.16.2/include/mbedtls\cipher.h **** #define MBEDTLS_ERR_CIPHER_AUTH_FAILED          -0x6300  /**< Authentication failed (for AEAD modes
  65:c:/Users/lenovo/Desktop/AIoT/first_day/firstday_afternoon/LiteOS_Lab_STM32_IoT/iot_link/network/dtls/mbedtls/mbedtls-2.16.2/include/mbedtls\cipher.h **** #define MBEDTLS_ERR_CIPHER_INVALID_CONTEXT      -0x6380  /**< The context is invalid. For example, 
  66:c:/Users/lenovo/Desktop/AIoT/first_day/firstday_afternoon/LiteOS_Lab_STM32_IoT/iot_link/network/dtls/mbedtls/mbedtls-2.16.2/include/mbedtls\cipher.h **** 
  67:c:/Users/lenovo/Desktop/AIoT/first_day/firstday_afternoon/LiteOS_Lab_STM32_IoT/iot_link/network/dtls/mbedtls/mbedtls-2.16.2/include/mbedtls\cipher.h **** /* MBEDTLS_ERR_CIPHER_HW_ACCEL_FAILED is deprecated and should not be used. */
  68:c:/Users/lenovo/Desktop/AIoT/first_day/firstday_afternoon/LiteOS_Lab_STM32_IoT/iot_link/network/dtls/mbedtls/mbedtls-2.16.2/include/mbedtls\cipher.h **** #define MBEDTLS_ERR_CIPHER_HW_ACCEL_FAILED      -0x6400  /**< Cipher hardware accelerator failed. *
  69:c:/Users/lenovo/Desktop/AIoT/first_day/firstday_afternoon/LiteOS_Lab_STM32_IoT/iot_link/network/dtls/mbedtls/mbedtls-2.16.2/include/mbedtls\cipher.h **** 
  70:c:/Users/lenovo/Desktop/AIoT/first_day/firstday_afternoon/LiteOS_Lab_STM32_IoT/iot_link/network/dtls/mbedtls/mbedtls-2.16.2/include/mbedtls\cipher.h **** #define MBEDTLS_CIPHER_VARIABLE_IV_LEN     0x01    /**< Cipher accepts IVs of variable length. */
  71:c:/Users/lenovo/Desktop/AIoT/first_day/firstday_afternoon/LiteOS_Lab_STM32_IoT/iot_link/network/dtls/mbedtls/mbedtls-2.16.2/include/mbedtls\cipher.h **** #define MBEDTLS_CIPHER_VARIABLE_KEY_LEN    0x02    /**< Cipher accepts keys of variable length. */
  72:c:/Users/lenovo/Desktop/AIoT/first_day/firstday_afternoon/LiteOS_Lab_STM32_IoT/iot_link/network/dtls/mbedtls/mbedtls-2.16.2/include/mbedtls\cipher.h **** 
  73:c:/Users/lenovo/Desktop/AIoT/first_day/firstday_afternoon/LiteOS_Lab_STM32_IoT/iot_link/network/dtls/mbedtls/mbedtls-2.16.2/include/mbedtls\cipher.h **** #ifdef __cplusplus
  74:c:/Users/lenovo/Desktop/AIoT/first_day/firstday_afternoon/LiteOS_Lab_STM32_IoT/iot_link/network/dtls/mbedtls/mbedtls-2.16.2/include/mbedtls\cipher.h **** extern "C" {
  75:c:/Users/lenovo/Desktop/AIoT/first_day/firstday_afternoon/LiteOS_Lab_STM32_IoT/iot_link/network/dtls/mbedtls/mbedtls-2.16.2/include/mbedtls\cipher.h **** #endif
  76:c:/Users/lenovo/Desktop/AIoT/first_day/firstday_afternoon/LiteOS_Lab_STM32_IoT/iot_link/network/dtls/mbedtls/mbedtls-2.16.2/include/mbedtls\cipher.h **** 
  77:c:/Users/lenovo/Desktop/AIoT/first_day/firstday_afternoon/LiteOS_Lab_STM32_IoT/iot_link/network/dtls/mbedtls/mbedtls-2.16.2/include/mbedtls\cipher.h **** /**
  78:c:/Users/lenovo/Desktop/AIoT/first_day/firstday_afternoon/LiteOS_Lab_STM32_IoT/iot_link/network/dtls/mbedtls/mbedtls-2.16.2/include/mbedtls\cipher.h ****  * \brief     Supported cipher types.
  79:c:/Users/lenovo/Desktop/AIoT/first_day/firstday_afternoon/LiteOS_Lab_STM32_IoT/iot_link/network/dtls/mbedtls/mbedtls-2.16.2/include/mbedtls\cipher.h ****  *
  80:c:/Users/lenovo/Desktop/AIoT/first_day/firstday_afternoon/LiteOS_Lab_STM32_IoT/iot_link/network/dtls/mbedtls/mbedtls-2.16.2/include/mbedtls\cipher.h ****  * \warning   RC4 and DES are considered weak ciphers and their use
  81:c:/Users/lenovo/Desktop/AIoT/first_day/firstday_afternoon/LiteOS_Lab_STM32_IoT/iot_link/network/dtls/mbedtls/mbedtls-2.16.2/include/mbedtls\cipher.h ****  *            constitutes a security risk. Arm recommends considering stronger
  82:c:/Users/lenovo/Desktop/AIoT/first_day/firstday_afternoon/LiteOS_Lab_STM32_IoT/iot_link/network/dtls/mbedtls/mbedtls-2.16.2/include/mbedtls\cipher.h ****  *            ciphers instead.
  83:c:/Users/lenovo/Desktop/AIoT/first_day/firstday_afternoon/LiteOS_Lab_STM32_IoT/iot_link/network/dtls/mbedtls/mbedtls-2.16.2/include/mbedtls\cipher.h ****  */
  84:c:/Users/lenovo/Desktop/AIoT/first_day/firstday_afternoon/LiteOS_Lab_STM32_IoT/iot_link/network/dtls/mbedtls/mbedtls-2.16.2/include/mbedtls\cipher.h **** typedef enum {
  85:c:/Users/lenovo/Desktop/AIoT/first_day/firstday_afternoon/LiteOS_Lab_STM32_IoT/iot_link/network/dtls/mbedtls/mbedtls-2.16.2/include/mbedtls\cipher.h ****     MBEDTLS_CIPHER_ID_NONE = 0,  /**< Placeholder to mark the end of cipher ID lists. */
  86:c:/Users/lenovo/Desktop/AIoT/first_day/firstday_afternoon/LiteOS_Lab_STM32_IoT/iot_link/network/dtls/mbedtls/mbedtls-2.16.2/include/mbedtls\cipher.h ****     MBEDTLS_CIPHER_ID_NULL,      /**< The identity cipher, treated as a stream cipher. */
  87:c:/Users/lenovo/Desktop/AIoT/first_day/firstday_afternoon/LiteOS_Lab_STM32_IoT/iot_link/network/dtls/mbedtls/mbedtls-2.16.2/include/mbedtls\cipher.h ****     MBEDTLS_CIPHER_ID_AES,       /**< The AES cipher. */
  88:c:/Users/lenovo/Desktop/AIoT/first_day/firstday_afternoon/LiteOS_Lab_STM32_IoT/iot_link/network/dtls/mbedtls/mbedtls-2.16.2/include/mbedtls\cipher.h ****     MBEDTLS_CIPHER_ID_DES,       /**< The DES cipher. */
ARM GAS  C:\Users\lenovo\AppData\Local\Temp\ccSXL9zI.s 			page 3


  89:c:/Users/lenovo/Desktop/AIoT/first_day/firstday_afternoon/LiteOS_Lab_STM32_IoT/iot_link/network/dtls/mbedtls/mbedtls-2.16.2/include/mbedtls\cipher.h ****     MBEDTLS_CIPHER_ID_3DES,      /**< The Triple DES cipher. */
  90:c:/Users/lenovo/Desktop/AIoT/first_day/firstday_afternoon/LiteOS_Lab_STM32_IoT/iot_link/network/dtls/mbedtls/mbedtls-2.16.2/include/mbedtls\cipher.h ****     MBEDTLS_CIPHER_ID_CAMELLIA,  /**< The Camellia cipher. */
  91:c:/Users/lenovo/Desktop/AIoT/first_day/firstday_afternoon/LiteOS_Lab_STM32_IoT/iot_link/network/dtls/mbedtls/mbedtls-2.16.2/include/mbedtls\cipher.h ****     MBEDTLS_CIPHER_ID_BLOWFISH,  /**< The Blowfish cipher. */
  92:c:/Users/lenovo/Desktop/AIoT/first_day/firstday_afternoon/LiteOS_Lab_STM32_IoT/iot_link/network/dtls/mbedtls/mbedtls-2.16.2/include/mbedtls\cipher.h ****     MBEDTLS_CIPHER_ID_ARC4,      /**< The RC4 cipher. */
  93:c:/Users/lenovo/Desktop/AIoT/first_day/firstday_afternoon/LiteOS_Lab_STM32_IoT/iot_link/network/dtls/mbedtls/mbedtls-2.16.2/include/mbedtls\cipher.h ****     MBEDTLS_CIPHER_ID_ARIA,      /**< The Aria cipher. */
  94:c:/Users/lenovo/Desktop/AIoT/first_day/firstday_afternoon/LiteOS_Lab_STM32_IoT/iot_link/network/dtls/mbedtls/mbedtls-2.16.2/include/mbedtls\cipher.h ****     MBEDTLS_CIPHER_ID_CHACHA20,  /**< The ChaCha20 cipher. */
  95:c:/Users/lenovo/Desktop/AIoT/first_day/firstday_afternoon/LiteOS_Lab_STM32_IoT/iot_link/network/dtls/mbedtls/mbedtls-2.16.2/include/mbedtls\cipher.h **** } mbedtls_cipher_id_t;
  96:c:/Users/lenovo/Desktop/AIoT/first_day/firstday_afternoon/LiteOS_Lab_STM32_IoT/iot_link/network/dtls/mbedtls/mbedtls-2.16.2/include/mbedtls\cipher.h **** 
  97:c:/Users/lenovo/Desktop/AIoT/first_day/firstday_afternoon/LiteOS_Lab_STM32_IoT/iot_link/network/dtls/mbedtls/mbedtls-2.16.2/include/mbedtls\cipher.h **** /**
  98:c:/Users/lenovo/Desktop/AIoT/first_day/firstday_afternoon/LiteOS_Lab_STM32_IoT/iot_link/network/dtls/mbedtls/mbedtls-2.16.2/include/mbedtls\cipher.h ****  * \brief     Supported {cipher type, cipher mode} pairs.
  99:c:/Users/lenovo/Desktop/AIoT/first_day/firstday_afternoon/LiteOS_Lab_STM32_IoT/iot_link/network/dtls/mbedtls/mbedtls-2.16.2/include/mbedtls\cipher.h ****  *
 100:c:/Users/lenovo/Desktop/AIoT/first_day/firstday_afternoon/LiteOS_Lab_STM32_IoT/iot_link/network/dtls/mbedtls/mbedtls-2.16.2/include/mbedtls\cipher.h ****  * \warning   RC4 and DES are considered weak ciphers and their use
 101:c:/Users/lenovo/Desktop/AIoT/first_day/firstday_afternoon/LiteOS_Lab_STM32_IoT/iot_link/network/dtls/mbedtls/mbedtls-2.16.2/include/mbedtls\cipher.h ****  *            constitutes a security risk. Arm recommends considering stronger
 102:c:/Users/lenovo/Desktop/AIoT/first_day/firstday_afternoon/LiteOS_Lab_STM32_IoT/iot_link/network/dtls/mbedtls/mbedtls-2.16.2/include/mbedtls\cipher.h ****  *            ciphers instead.
 103:c:/Users/lenovo/Desktop/AIoT/first_day/firstday_afternoon/LiteOS_Lab_STM32_IoT/iot_link/network/dtls/mbedtls/mbedtls-2.16.2/include/mbedtls\cipher.h ****  */
 104:c:/Users/lenovo/Desktop/AIoT/first_day/firstday_afternoon/LiteOS_Lab_STM32_IoT/iot_link/network/dtls/mbedtls/mbedtls-2.16.2/include/mbedtls\cipher.h **** typedef enum {
 105:c:/Users/lenovo/Desktop/AIoT/first_day/firstday_afternoon/LiteOS_Lab_STM32_IoT/iot_link/network/dtls/mbedtls/mbedtls-2.16.2/include/mbedtls\cipher.h ****     MBEDTLS_CIPHER_NONE = 0,             /**< Placeholder to mark the end of cipher-pair lists. */
 106:c:/Users/lenovo/Desktop/AIoT/first_day/firstday_afternoon/LiteOS_Lab_STM32_IoT/iot_link/network/dtls/mbedtls/mbedtls-2.16.2/include/mbedtls\cipher.h ****     MBEDTLS_CIPHER_NULL,                 /**< The identity stream cipher. */
 107:c:/Users/lenovo/Desktop/AIoT/first_day/firstday_afternoon/LiteOS_Lab_STM32_IoT/iot_link/network/dtls/mbedtls/mbedtls-2.16.2/include/mbedtls\cipher.h ****     MBEDTLS_CIPHER_AES_128_ECB,          /**< AES cipher with 128-bit ECB mode. */
 108:c:/Users/lenovo/Desktop/AIoT/first_day/firstday_afternoon/LiteOS_Lab_STM32_IoT/iot_link/network/dtls/mbedtls/mbedtls-2.16.2/include/mbedtls\cipher.h ****     MBEDTLS_CIPHER_AES_192_ECB,          /**< AES cipher with 192-bit ECB mode. */
 109:c:/Users/lenovo/Desktop/AIoT/first_day/firstday_afternoon/LiteOS_Lab_STM32_IoT/iot_link/network/dtls/mbedtls/mbedtls-2.16.2/include/mbedtls\cipher.h ****     MBEDTLS_CIPHER_AES_256_ECB,          /**< AES cipher with 256-bit ECB mode. */
 110:c:/Users/lenovo/Desktop/AIoT/first_day/firstday_afternoon/LiteOS_Lab_STM32_IoT/iot_link/network/dtls/mbedtls/mbedtls-2.16.2/include/mbedtls\cipher.h ****     MBEDTLS_CIPHER_AES_128_CBC,          /**< AES cipher with 128-bit CBC mode. */
 111:c:/Users/lenovo/Desktop/AIoT/first_day/firstday_afternoon/LiteOS_Lab_STM32_IoT/iot_link/network/dtls/mbedtls/mbedtls-2.16.2/include/mbedtls\cipher.h ****     MBEDTLS_CIPHER_AES_192_CBC,          /**< AES cipher with 192-bit CBC mode. */
 112:c:/Users/lenovo/Desktop/AIoT/first_day/firstday_afternoon/LiteOS_Lab_STM32_IoT/iot_link/network/dtls/mbedtls/mbedtls-2.16.2/include/mbedtls\cipher.h ****     MBEDTLS_CIPHER_AES_256_CBC,          /**< AES cipher with 256-bit CBC mode. */
 113:c:/Users/lenovo/Desktop/AIoT/first_day/firstday_afternoon/LiteOS_Lab_STM32_IoT/iot_link/network/dtls/mbedtls/mbedtls-2.16.2/include/mbedtls\cipher.h ****     MBEDTLS_CIPHER_AES_128_CFB128,       /**< AES cipher with 128-bit CFB128 mode. */
 114:c:/Users/lenovo/Desktop/AIoT/first_day/firstday_afternoon/LiteOS_Lab_STM32_IoT/iot_link/network/dtls/mbedtls/mbedtls-2.16.2/include/mbedtls\cipher.h ****     MBEDTLS_CIPHER_AES_192_CFB128,       /**< AES cipher with 192-bit CFB128 mode. */
 115:c:/Users/lenovo/Desktop/AIoT/first_day/firstday_afternoon/LiteOS_Lab_STM32_IoT/iot_link/network/dtls/mbedtls/mbedtls-2.16.2/include/mbedtls\cipher.h ****     MBEDTLS_CIPHER_AES_256_CFB128,       /**< AES cipher with 256-bit CFB128 mode. */
 116:c:/Users/lenovo/Desktop/AIoT/first_day/firstday_afternoon/LiteOS_Lab_STM32_IoT/iot_link/network/dtls/mbedtls/mbedtls-2.16.2/include/mbedtls\cipher.h ****     MBEDTLS_CIPHER_AES_128_CTR,          /**< AES cipher with 128-bit CTR mode. */
 117:c:/Users/lenovo/Desktop/AIoT/first_day/firstday_afternoon/LiteOS_Lab_STM32_IoT/iot_link/network/dtls/mbedtls/mbedtls-2.16.2/include/mbedtls\cipher.h ****     MBEDTLS_CIPHER_AES_192_CTR,          /**< AES cipher with 192-bit CTR mode. */
 118:c:/Users/lenovo/Desktop/AIoT/first_day/firstday_afternoon/LiteOS_Lab_STM32_IoT/iot_link/network/dtls/mbedtls/mbedtls-2.16.2/include/mbedtls\cipher.h ****     MBEDTLS_CIPHER_AES_256_CTR,          /**< AES cipher with 256-bit CTR mode. */
 119:c:/Users/lenovo/Desktop/AIoT/first_day/firstday_afternoon/LiteOS_Lab_STM32_IoT/iot_link/network/dtls/mbedtls/mbedtls-2.16.2/include/mbedtls\cipher.h ****     MBEDTLS_CIPHER_AES_128_GCM,          /**< AES cipher with 128-bit GCM mode. */
 120:c:/Users/lenovo/Desktop/AIoT/first_day/firstday_afternoon/LiteOS_Lab_STM32_IoT/iot_link/network/dtls/mbedtls/mbedtls-2.16.2/include/mbedtls\cipher.h ****     MBEDTLS_CIPHER_AES_192_GCM,          /**< AES cipher with 192-bit GCM mode. */
 121:c:/Users/lenovo/Desktop/AIoT/first_day/firstday_afternoon/LiteOS_Lab_STM32_IoT/iot_link/network/dtls/mbedtls/mbedtls-2.16.2/include/mbedtls\cipher.h ****     MBEDTLS_CIPHER_AES_256_GCM,          /**< AES cipher with 256-bit GCM mode. */
 122:c:/Users/lenovo/Desktop/AIoT/first_day/firstday_afternoon/LiteOS_Lab_STM32_IoT/iot_link/network/dtls/mbedtls/mbedtls-2.16.2/include/mbedtls\cipher.h ****     MBEDTLS_CIPHER_CAMELLIA_128_ECB,     /**< Camellia cipher with 128-bit ECB mode. */
 123:c:/Users/lenovo/Desktop/AIoT/first_day/firstday_afternoon/LiteOS_Lab_STM32_IoT/iot_link/network/dtls/mbedtls/mbedtls-2.16.2/include/mbedtls\cipher.h ****     MBEDTLS_CIPHER_CAMELLIA_192_ECB,     /**< Camellia cipher with 192-bit ECB mode. */
 124:c:/Users/lenovo/Desktop/AIoT/first_day/firstday_afternoon/LiteOS_Lab_STM32_IoT/iot_link/network/dtls/mbedtls/mbedtls-2.16.2/include/mbedtls\cipher.h ****     MBEDTLS_CIPHER_CAMELLIA_256_ECB,     /**< Camellia cipher with 256-bit ECB mode. */
 125:c:/Users/lenovo/Desktop/AIoT/first_day/firstday_afternoon/LiteOS_Lab_STM32_IoT/iot_link/network/dtls/mbedtls/mbedtls-2.16.2/include/mbedtls\cipher.h ****     MBEDTLS_CIPHER_CAMELLIA_128_CBC,     /**< Camellia cipher with 128-bit CBC mode. */
 126:c:/Users/lenovo/Desktop/AIoT/first_day/firstday_afternoon/LiteOS_Lab_STM32_IoT/iot_link/network/dtls/mbedtls/mbedtls-2.16.2/include/mbedtls\cipher.h ****     MBEDTLS_CIPHER_CAMELLIA_192_CBC,     /**< Camellia cipher with 192-bit CBC mode. */
 127:c:/Users/lenovo/Desktop/AIoT/first_day/firstday_afternoon/LiteOS_Lab_STM32_IoT/iot_link/network/dtls/mbedtls/mbedtls-2.16.2/include/mbedtls\cipher.h ****     MBEDTLS_CIPHER_CAMELLIA_256_CBC,     /**< Camellia cipher with 256-bit CBC mode. */
 128:c:/Users/lenovo/Desktop/AIoT/first_day/firstday_afternoon/LiteOS_Lab_STM32_IoT/iot_link/network/dtls/mbedtls/mbedtls-2.16.2/include/mbedtls\cipher.h ****     MBEDTLS_CIPHER_CAMELLIA_128_CFB128,  /**< Camellia cipher with 128-bit CFB128 mode. */
 129:c:/Users/lenovo/Desktop/AIoT/first_day/firstday_afternoon/LiteOS_Lab_STM32_IoT/iot_link/network/dtls/mbedtls/mbedtls-2.16.2/include/mbedtls\cipher.h ****     MBEDTLS_CIPHER_CAMELLIA_192_CFB128,  /**< Camellia cipher with 192-bit CFB128 mode. */
 130:c:/Users/lenovo/Desktop/AIoT/first_day/firstday_afternoon/LiteOS_Lab_STM32_IoT/iot_link/network/dtls/mbedtls/mbedtls-2.16.2/include/mbedtls\cipher.h ****     MBEDTLS_CIPHER_CAMELLIA_256_CFB128,  /**< Camellia cipher with 256-bit CFB128 mode. */
 131:c:/Users/lenovo/Desktop/AIoT/first_day/firstday_afternoon/LiteOS_Lab_STM32_IoT/iot_link/network/dtls/mbedtls/mbedtls-2.16.2/include/mbedtls\cipher.h ****     MBEDTLS_CIPHER_CAMELLIA_128_CTR,     /**< Camellia cipher with 128-bit CTR mode. */
 132:c:/Users/lenovo/Desktop/AIoT/first_day/firstday_afternoon/LiteOS_Lab_STM32_IoT/iot_link/network/dtls/mbedtls/mbedtls-2.16.2/include/mbedtls\cipher.h ****     MBEDTLS_CIPHER_CAMELLIA_192_CTR,     /**< Camellia cipher with 192-bit CTR mode. */
 133:c:/Users/lenovo/Desktop/AIoT/first_day/firstday_afternoon/LiteOS_Lab_STM32_IoT/iot_link/network/dtls/mbedtls/mbedtls-2.16.2/include/mbedtls\cipher.h ****     MBEDTLS_CIPHER_CAMELLIA_256_CTR,     /**< Camellia cipher with 256-bit CTR mode. */
 134:c:/Users/lenovo/Desktop/AIoT/first_day/firstday_afternoon/LiteOS_Lab_STM32_IoT/iot_link/network/dtls/mbedtls/mbedtls-2.16.2/include/mbedtls\cipher.h ****     MBEDTLS_CIPHER_CAMELLIA_128_GCM,     /**< Camellia cipher with 128-bit GCM mode. */
 135:c:/Users/lenovo/Desktop/AIoT/first_day/firstday_afternoon/LiteOS_Lab_STM32_IoT/iot_link/network/dtls/mbedtls/mbedtls-2.16.2/include/mbedtls\cipher.h ****     MBEDTLS_CIPHER_CAMELLIA_192_GCM,     /**< Camellia cipher with 192-bit GCM mode. */
 136:c:/Users/lenovo/Desktop/AIoT/first_day/firstday_afternoon/LiteOS_Lab_STM32_IoT/iot_link/network/dtls/mbedtls/mbedtls-2.16.2/include/mbedtls\cipher.h ****     MBEDTLS_CIPHER_CAMELLIA_256_GCM,     /**< Camellia cipher with 256-bit GCM mode. */
 137:c:/Users/lenovo/Desktop/AIoT/first_day/firstday_afternoon/LiteOS_Lab_STM32_IoT/iot_link/network/dtls/mbedtls/mbedtls-2.16.2/include/mbedtls\cipher.h ****     MBEDTLS_CIPHER_DES_ECB,              /**< DES cipher with ECB mode. */
 138:c:/Users/lenovo/Desktop/AIoT/first_day/firstday_afternoon/LiteOS_Lab_STM32_IoT/iot_link/network/dtls/mbedtls/mbedtls-2.16.2/include/mbedtls\cipher.h ****     MBEDTLS_CIPHER_DES_CBC,              /**< DES cipher with CBC mode. */
 139:c:/Users/lenovo/Desktop/AIoT/first_day/firstday_afternoon/LiteOS_Lab_STM32_IoT/iot_link/network/dtls/mbedtls/mbedtls-2.16.2/include/mbedtls\cipher.h ****     MBEDTLS_CIPHER_DES_EDE_ECB,          /**< DES cipher with EDE ECB mode. */
 140:c:/Users/lenovo/Desktop/AIoT/first_day/firstday_afternoon/LiteOS_Lab_STM32_IoT/iot_link/network/dtls/mbedtls/mbedtls-2.16.2/include/mbedtls\cipher.h ****     MBEDTLS_CIPHER_DES_EDE_CBC,          /**< DES cipher with EDE CBC mode. */
 141:c:/Users/lenovo/Desktop/AIoT/first_day/firstday_afternoon/LiteOS_Lab_STM32_IoT/iot_link/network/dtls/mbedtls/mbedtls-2.16.2/include/mbedtls\cipher.h ****     MBEDTLS_CIPHER_DES_EDE3_ECB,         /**< DES cipher with EDE3 ECB mode. */
 142:c:/Users/lenovo/Desktop/AIoT/first_day/firstday_afternoon/LiteOS_Lab_STM32_IoT/iot_link/network/dtls/mbedtls/mbedtls-2.16.2/include/mbedtls\cipher.h ****     MBEDTLS_CIPHER_DES_EDE3_CBC,         /**< DES cipher with EDE3 CBC mode. */
 143:c:/Users/lenovo/Desktop/AIoT/first_day/firstday_afternoon/LiteOS_Lab_STM32_IoT/iot_link/network/dtls/mbedtls/mbedtls-2.16.2/include/mbedtls\cipher.h ****     MBEDTLS_CIPHER_BLOWFISH_ECB,         /**< Blowfish cipher with ECB mode. */
 144:c:/Users/lenovo/Desktop/AIoT/first_day/firstday_afternoon/LiteOS_Lab_STM32_IoT/iot_link/network/dtls/mbedtls/mbedtls-2.16.2/include/mbedtls\cipher.h ****     MBEDTLS_CIPHER_BLOWFISH_CBC,         /**< Blowfish cipher with CBC mode. */
 145:c:/Users/lenovo/Desktop/AIoT/first_day/firstday_afternoon/LiteOS_Lab_STM32_IoT/iot_link/network/dtls/mbedtls/mbedtls-2.16.2/include/mbedtls\cipher.h ****     MBEDTLS_CIPHER_BLOWFISH_CFB64,       /**< Blowfish cipher with CFB64 mode. */
ARM GAS  C:\Users\lenovo\AppData\Local\Temp\ccSXL9zI.s 			page 4


 146:c:/Users/lenovo/Desktop/AIoT/first_day/firstday_afternoon/LiteOS_Lab_STM32_IoT/iot_link/network/dtls/mbedtls/mbedtls-2.16.2/include/mbedtls\cipher.h ****     MBEDTLS_CIPHER_BLOWFISH_CTR,         /**< Blowfish cipher with CTR mode. */
 147:c:/Users/lenovo/Desktop/AIoT/first_day/firstday_afternoon/LiteOS_Lab_STM32_IoT/iot_link/network/dtls/mbedtls/mbedtls-2.16.2/include/mbedtls\cipher.h ****     MBEDTLS_CIPHER_ARC4_128,             /**< RC4 cipher with 128-bit mode. */
 148:c:/Users/lenovo/Desktop/AIoT/first_day/firstday_afternoon/LiteOS_Lab_STM32_IoT/iot_link/network/dtls/mbedtls/mbedtls-2.16.2/include/mbedtls\cipher.h ****     MBEDTLS_CIPHER_AES_128_CCM,          /**< AES cipher with 128-bit CCM mode. */
 149:c:/Users/lenovo/Desktop/AIoT/first_day/firstday_afternoon/LiteOS_Lab_STM32_IoT/iot_link/network/dtls/mbedtls/mbedtls-2.16.2/include/mbedtls\cipher.h ****     MBEDTLS_CIPHER_AES_192_CCM,          /**< AES cipher with 192-bit CCM mode. */
 150:c:/Users/lenovo/Desktop/AIoT/first_day/firstday_afternoon/LiteOS_Lab_STM32_IoT/iot_link/network/dtls/mbedtls/mbedtls-2.16.2/include/mbedtls\cipher.h ****     MBEDTLS_CIPHER_AES_256_CCM,          /**< AES cipher with 256-bit CCM mode. */
 151:c:/Users/lenovo/Desktop/AIoT/first_day/firstday_afternoon/LiteOS_Lab_STM32_IoT/iot_link/network/dtls/mbedtls/mbedtls-2.16.2/include/mbedtls\cipher.h ****     MBEDTLS_CIPHER_CAMELLIA_128_CCM,     /**< Camellia cipher with 128-bit CCM mode. */
 152:c:/Users/lenovo/Desktop/AIoT/first_day/firstday_afternoon/LiteOS_Lab_STM32_IoT/iot_link/network/dtls/mbedtls/mbedtls-2.16.2/include/mbedtls\cipher.h ****     MBEDTLS_CIPHER_CAMELLIA_192_CCM,     /**< Camellia cipher with 192-bit CCM mode. */
 153:c:/Users/lenovo/Desktop/AIoT/first_day/firstday_afternoon/LiteOS_Lab_STM32_IoT/iot_link/network/dtls/mbedtls/mbedtls-2.16.2/include/mbedtls\cipher.h ****     MBEDTLS_CIPHER_CAMELLIA_256_CCM,     /**< Camellia cipher with 256-bit CCM mode. */
 154:c:/Users/lenovo/Desktop/AIoT/first_day/firstday_afternoon/LiteOS_Lab_STM32_IoT/iot_link/network/dtls/mbedtls/mbedtls-2.16.2/include/mbedtls\cipher.h ****     MBEDTLS_CIPHER_ARIA_128_ECB,         /**< Aria cipher with 128-bit key and ECB mode. */
 155:c:/Users/lenovo/Desktop/AIoT/first_day/firstday_afternoon/LiteOS_Lab_STM32_IoT/iot_link/network/dtls/mbedtls/mbedtls-2.16.2/include/mbedtls\cipher.h ****     MBEDTLS_CIPHER_ARIA_192_ECB,         /**< Aria cipher with 192-bit key and ECB mode. */
 156:c:/Users/lenovo/Desktop/AIoT/first_day/firstday_afternoon/LiteOS_Lab_STM32_IoT/iot_link/network/dtls/mbedtls/mbedtls-2.16.2/include/mbedtls\cipher.h ****     MBEDTLS_CIPHER_ARIA_256_ECB,         /**< Aria cipher with 256-bit key and ECB mode. */
 157:c:/Users/lenovo/Desktop/AIoT/first_day/firstday_afternoon/LiteOS_Lab_STM32_IoT/iot_link/network/dtls/mbedtls/mbedtls-2.16.2/include/mbedtls\cipher.h ****     MBEDTLS_CIPHER_ARIA_128_CBC,         /**< Aria cipher with 128-bit key and CBC mode. */
 158:c:/Users/lenovo/Desktop/AIoT/first_day/firstday_afternoon/LiteOS_Lab_STM32_IoT/iot_link/network/dtls/mbedtls/mbedtls-2.16.2/include/mbedtls\cipher.h ****     MBEDTLS_CIPHER_ARIA_192_CBC,         /**< Aria cipher with 192-bit key and CBC mode. */
 159:c:/Users/lenovo/Desktop/AIoT/first_day/firstday_afternoon/LiteOS_Lab_STM32_IoT/iot_link/network/dtls/mbedtls/mbedtls-2.16.2/include/mbedtls\cipher.h ****     MBEDTLS_CIPHER_ARIA_256_CBC,         /**< Aria cipher with 256-bit key and CBC mode. */
 160:c:/Users/lenovo/Desktop/AIoT/first_day/firstday_afternoon/LiteOS_Lab_STM32_IoT/iot_link/network/dtls/mbedtls/mbedtls-2.16.2/include/mbedtls\cipher.h ****     MBEDTLS_CIPHER_ARIA_128_CFB128,      /**< Aria cipher with 128-bit key and CFB-128 mode. */
 161:c:/Users/lenovo/Desktop/AIoT/first_day/firstday_afternoon/LiteOS_Lab_STM32_IoT/iot_link/network/dtls/mbedtls/mbedtls-2.16.2/include/mbedtls\cipher.h ****     MBEDTLS_CIPHER_ARIA_192_CFB128,      /**< Aria cipher with 192-bit key and CFB-128 mode. */
 162:c:/Users/lenovo/Desktop/AIoT/first_day/firstday_afternoon/LiteOS_Lab_STM32_IoT/iot_link/network/dtls/mbedtls/mbedtls-2.16.2/include/mbedtls\cipher.h ****     MBEDTLS_CIPHER_ARIA_256_CFB128,      /**< Aria cipher with 256-bit key and CFB-128 mode. */
 163:c:/Users/lenovo/Desktop/AIoT/first_day/firstday_afternoon/LiteOS_Lab_STM32_IoT/iot_link/network/dtls/mbedtls/mbedtls-2.16.2/include/mbedtls\cipher.h ****     MBEDTLS_CIPHER_ARIA_128_CTR,         /**< Aria cipher with 128-bit key and CTR mode. */
 164:c:/Users/lenovo/Desktop/AIoT/first_day/firstday_afternoon/LiteOS_Lab_STM32_IoT/iot_link/network/dtls/mbedtls/mbedtls-2.16.2/include/mbedtls\cipher.h ****     MBEDTLS_CIPHER_ARIA_192_CTR,         /**< Aria cipher with 192-bit key and CTR mode. */
 165:c:/Users/lenovo/Desktop/AIoT/first_day/firstday_afternoon/LiteOS_Lab_STM32_IoT/iot_link/network/dtls/mbedtls/mbedtls-2.16.2/include/mbedtls\cipher.h ****     MBEDTLS_CIPHER_ARIA_256_CTR,         /**< Aria cipher with 256-bit key and CTR mode. */
 166:c:/Users/lenovo/Desktop/AIoT/first_day/firstday_afternoon/LiteOS_Lab_STM32_IoT/iot_link/network/dtls/mbedtls/mbedtls-2.16.2/include/mbedtls\cipher.h ****     MBEDTLS_CIPHER_ARIA_128_GCM,         /**< Aria cipher with 128-bit key and GCM mode. */
 167:c:/Users/lenovo/Desktop/AIoT/first_day/firstday_afternoon/LiteOS_Lab_STM32_IoT/iot_link/network/dtls/mbedtls/mbedtls-2.16.2/include/mbedtls\cipher.h ****     MBEDTLS_CIPHER_ARIA_192_GCM,         /**< Aria cipher with 192-bit key and GCM mode. */
 168:c:/Users/lenovo/Desktop/AIoT/first_day/firstday_afternoon/LiteOS_Lab_STM32_IoT/iot_link/network/dtls/mbedtls/mbedtls-2.16.2/include/mbedtls\cipher.h ****     MBEDTLS_CIPHER_ARIA_256_GCM,         /**< Aria cipher with 256-bit key and GCM mode. */
 169:c:/Users/lenovo/Desktop/AIoT/first_day/firstday_afternoon/LiteOS_Lab_STM32_IoT/iot_link/network/dtls/mbedtls/mbedtls-2.16.2/include/mbedtls\cipher.h ****     MBEDTLS_CIPHER_ARIA_128_CCM,         /**< Aria cipher with 128-bit key and CCM mode. */
 170:c:/Users/lenovo/Desktop/AIoT/first_day/firstday_afternoon/LiteOS_Lab_STM32_IoT/iot_link/network/dtls/mbedtls/mbedtls-2.16.2/include/mbedtls\cipher.h ****     MBEDTLS_CIPHER_ARIA_192_CCM,         /**< Aria cipher with 192-bit key and CCM mode. */
 171:c:/Users/lenovo/Desktop/AIoT/first_day/firstday_afternoon/LiteOS_Lab_STM32_IoT/iot_link/network/dtls/mbedtls/mbedtls-2.16.2/include/mbedtls\cipher.h ****     MBEDTLS_CIPHER_ARIA_256_CCM,         /**< Aria cipher with 256-bit key and CCM mode. */
 172:c:/Users/lenovo/Desktop/AIoT/first_day/firstday_afternoon/LiteOS_Lab_STM32_IoT/iot_link/network/dtls/mbedtls/mbedtls-2.16.2/include/mbedtls\cipher.h ****     MBEDTLS_CIPHER_AES_128_OFB,          /**< AES 128-bit cipher in OFB mode. */
 173:c:/Users/lenovo/Desktop/AIoT/first_day/firstday_afternoon/LiteOS_Lab_STM32_IoT/iot_link/network/dtls/mbedtls/mbedtls-2.16.2/include/mbedtls\cipher.h ****     MBEDTLS_CIPHER_AES_192_OFB,          /**< AES 192-bit cipher in OFB mode. */
 174:c:/Users/lenovo/Desktop/AIoT/first_day/firstday_afternoon/LiteOS_Lab_STM32_IoT/iot_link/network/dtls/mbedtls/mbedtls-2.16.2/include/mbedtls\cipher.h ****     MBEDTLS_CIPHER_AES_256_OFB,          /**< AES 256-bit cipher in OFB mode. */
 175:c:/Users/lenovo/Desktop/AIoT/first_day/firstday_afternoon/LiteOS_Lab_STM32_IoT/iot_link/network/dtls/mbedtls/mbedtls-2.16.2/include/mbedtls\cipher.h ****     MBEDTLS_CIPHER_AES_128_XTS,          /**< AES 128-bit cipher in XTS block mode. */
 176:c:/Users/lenovo/Desktop/AIoT/first_day/firstday_afternoon/LiteOS_Lab_STM32_IoT/iot_link/network/dtls/mbedtls/mbedtls-2.16.2/include/mbedtls\cipher.h ****     MBEDTLS_CIPHER_AES_256_XTS,          /**< AES 256-bit cipher in XTS block mode. */
 177:c:/Users/lenovo/Desktop/AIoT/first_day/firstday_afternoon/LiteOS_Lab_STM32_IoT/iot_link/network/dtls/mbedtls/mbedtls-2.16.2/include/mbedtls\cipher.h ****     MBEDTLS_CIPHER_CHACHA20,             /**< ChaCha20 stream cipher. */
 178:c:/Users/lenovo/Desktop/AIoT/first_day/firstday_afternoon/LiteOS_Lab_STM32_IoT/iot_link/network/dtls/mbedtls/mbedtls-2.16.2/include/mbedtls\cipher.h ****     MBEDTLS_CIPHER_CHACHA20_POLY1305,    /**< ChaCha20-Poly1305 AEAD cipher. */
 179:c:/Users/lenovo/Desktop/AIoT/first_day/firstday_afternoon/LiteOS_Lab_STM32_IoT/iot_link/network/dtls/mbedtls/mbedtls-2.16.2/include/mbedtls\cipher.h **** } mbedtls_cipher_type_t;
 180:c:/Users/lenovo/Desktop/AIoT/first_day/firstday_afternoon/LiteOS_Lab_STM32_IoT/iot_link/network/dtls/mbedtls/mbedtls-2.16.2/include/mbedtls\cipher.h **** 
 181:c:/Users/lenovo/Desktop/AIoT/first_day/firstday_afternoon/LiteOS_Lab_STM32_IoT/iot_link/network/dtls/mbedtls/mbedtls-2.16.2/include/mbedtls\cipher.h **** /** Supported cipher modes. */
 182:c:/Users/lenovo/Desktop/AIoT/first_day/firstday_afternoon/LiteOS_Lab_STM32_IoT/iot_link/network/dtls/mbedtls/mbedtls-2.16.2/include/mbedtls\cipher.h **** typedef enum {
 183:c:/Users/lenovo/Desktop/AIoT/first_day/firstday_afternoon/LiteOS_Lab_STM32_IoT/iot_link/network/dtls/mbedtls/mbedtls-2.16.2/include/mbedtls\cipher.h ****     MBEDTLS_MODE_NONE = 0,               /**< None. */
 184:c:/Users/lenovo/Desktop/AIoT/first_day/firstday_afternoon/LiteOS_Lab_STM32_IoT/iot_link/network/dtls/mbedtls/mbedtls-2.16.2/include/mbedtls\cipher.h ****     MBEDTLS_MODE_ECB,                    /**< The ECB cipher mode. */
 185:c:/Users/lenovo/Desktop/AIoT/first_day/firstday_afternoon/LiteOS_Lab_STM32_IoT/iot_link/network/dtls/mbedtls/mbedtls-2.16.2/include/mbedtls\cipher.h ****     MBEDTLS_MODE_CBC,                    /**< The CBC cipher mode. */
 186:c:/Users/lenovo/Desktop/AIoT/first_day/firstday_afternoon/LiteOS_Lab_STM32_IoT/iot_link/network/dtls/mbedtls/mbedtls-2.16.2/include/mbedtls\cipher.h ****     MBEDTLS_MODE_CFB,                    /**< The CFB cipher mode. */
 187:c:/Users/lenovo/Desktop/AIoT/first_day/firstday_afternoon/LiteOS_Lab_STM32_IoT/iot_link/network/dtls/mbedtls/mbedtls-2.16.2/include/mbedtls\cipher.h ****     MBEDTLS_MODE_OFB,                    /**< The OFB cipher mode. */
 188:c:/Users/lenovo/Desktop/AIoT/first_day/firstday_afternoon/LiteOS_Lab_STM32_IoT/iot_link/network/dtls/mbedtls/mbedtls-2.16.2/include/mbedtls\cipher.h ****     MBEDTLS_MODE_CTR,                    /**< The CTR cipher mode. */
 189:c:/Users/lenovo/Desktop/AIoT/first_day/firstday_afternoon/LiteOS_Lab_STM32_IoT/iot_link/network/dtls/mbedtls/mbedtls-2.16.2/include/mbedtls\cipher.h ****     MBEDTLS_MODE_GCM,                    /**< The GCM cipher mode. */
 190:c:/Users/lenovo/Desktop/AIoT/first_day/firstday_afternoon/LiteOS_Lab_STM32_IoT/iot_link/network/dtls/mbedtls/mbedtls-2.16.2/include/mbedtls\cipher.h ****     MBEDTLS_MODE_STREAM,                 /**< The stream cipher mode. */
 191:c:/Users/lenovo/Desktop/AIoT/first_day/firstday_afternoon/LiteOS_Lab_STM32_IoT/iot_link/network/dtls/mbedtls/mbedtls-2.16.2/include/mbedtls\cipher.h ****     MBEDTLS_MODE_CCM,                    /**< The CCM cipher mode. */
 192:c:/Users/lenovo/Desktop/AIoT/first_day/firstday_afternoon/LiteOS_Lab_STM32_IoT/iot_link/network/dtls/mbedtls/mbedtls-2.16.2/include/mbedtls\cipher.h ****     MBEDTLS_MODE_XTS,                    /**< The XTS cipher mode. */
 193:c:/Users/lenovo/Desktop/AIoT/first_day/firstday_afternoon/LiteOS_Lab_STM32_IoT/iot_link/network/dtls/mbedtls/mbedtls-2.16.2/include/mbedtls\cipher.h ****     MBEDTLS_MODE_CHACHAPOLY,             /**< The ChaCha-Poly cipher mode. */
 194:c:/Users/lenovo/Desktop/AIoT/first_day/firstday_afternoon/LiteOS_Lab_STM32_IoT/iot_link/network/dtls/mbedtls/mbedtls-2.16.2/include/mbedtls\cipher.h **** } mbedtls_cipher_mode_t;
 195:c:/Users/lenovo/Desktop/AIoT/first_day/firstday_afternoon/LiteOS_Lab_STM32_IoT/iot_link/network/dtls/mbedtls/mbedtls-2.16.2/include/mbedtls\cipher.h **** 
 196:c:/Users/lenovo/Desktop/AIoT/first_day/firstday_afternoon/LiteOS_Lab_STM32_IoT/iot_link/network/dtls/mbedtls/mbedtls-2.16.2/include/mbedtls\cipher.h **** /** Supported cipher padding types. */
 197:c:/Users/lenovo/Desktop/AIoT/first_day/firstday_afternoon/LiteOS_Lab_STM32_IoT/iot_link/network/dtls/mbedtls/mbedtls-2.16.2/include/mbedtls\cipher.h **** typedef enum {
 198:c:/Users/lenovo/Desktop/AIoT/first_day/firstday_afternoon/LiteOS_Lab_STM32_IoT/iot_link/network/dtls/mbedtls/mbedtls-2.16.2/include/mbedtls\cipher.h ****     MBEDTLS_PADDING_PKCS7 = 0,     /**< PKCS7 padding (default).        */
 199:c:/Users/lenovo/Desktop/AIoT/first_day/firstday_afternoon/LiteOS_Lab_STM32_IoT/iot_link/network/dtls/mbedtls/mbedtls-2.16.2/include/mbedtls\cipher.h ****     MBEDTLS_PADDING_ONE_AND_ZEROS, /**< ISO/IEC 7816-4 padding.         */
 200:c:/Users/lenovo/Desktop/AIoT/first_day/firstday_afternoon/LiteOS_Lab_STM32_IoT/iot_link/network/dtls/mbedtls/mbedtls-2.16.2/include/mbedtls\cipher.h ****     MBEDTLS_PADDING_ZEROS_AND_LEN, /**< ANSI X.923 padding.             */
 201:c:/Users/lenovo/Desktop/AIoT/first_day/firstday_afternoon/LiteOS_Lab_STM32_IoT/iot_link/network/dtls/mbedtls/mbedtls-2.16.2/include/mbedtls\cipher.h ****     MBEDTLS_PADDING_ZEROS,         /**< Zero padding (not reversible). */
 202:c:/Users/lenovo/Desktop/AIoT/first_day/firstday_afternoon/LiteOS_Lab_STM32_IoT/iot_link/network/dtls/mbedtls/mbedtls-2.16.2/include/mbedtls\cipher.h ****     MBEDTLS_PADDING_NONE,          /**< Never pad (full blocks only).   */
ARM GAS  C:\Users\lenovo\AppData\Local\Temp\ccSXL9zI.s 			page 5


 203:c:/Users/lenovo/Desktop/AIoT/first_day/firstday_afternoon/LiteOS_Lab_STM32_IoT/iot_link/network/dtls/mbedtls/mbedtls-2.16.2/include/mbedtls\cipher.h **** } mbedtls_cipher_padding_t;
 204:c:/Users/lenovo/Desktop/AIoT/first_day/firstday_afternoon/LiteOS_Lab_STM32_IoT/iot_link/network/dtls/mbedtls/mbedtls-2.16.2/include/mbedtls\cipher.h **** 
 205:c:/Users/lenovo/Desktop/AIoT/first_day/firstday_afternoon/LiteOS_Lab_STM32_IoT/iot_link/network/dtls/mbedtls/mbedtls-2.16.2/include/mbedtls\cipher.h **** /** Type of operation. */
 206:c:/Users/lenovo/Desktop/AIoT/first_day/firstday_afternoon/LiteOS_Lab_STM32_IoT/iot_link/network/dtls/mbedtls/mbedtls-2.16.2/include/mbedtls\cipher.h **** typedef enum {
 207:c:/Users/lenovo/Desktop/AIoT/first_day/firstday_afternoon/LiteOS_Lab_STM32_IoT/iot_link/network/dtls/mbedtls/mbedtls-2.16.2/include/mbedtls\cipher.h ****     MBEDTLS_OPERATION_NONE = -1,
 208:c:/Users/lenovo/Desktop/AIoT/first_day/firstday_afternoon/LiteOS_Lab_STM32_IoT/iot_link/network/dtls/mbedtls/mbedtls-2.16.2/include/mbedtls\cipher.h ****     MBEDTLS_DECRYPT = 0,
 209:c:/Users/lenovo/Desktop/AIoT/first_day/firstday_afternoon/LiteOS_Lab_STM32_IoT/iot_link/network/dtls/mbedtls/mbedtls-2.16.2/include/mbedtls\cipher.h ****     MBEDTLS_ENCRYPT,
 210:c:/Users/lenovo/Desktop/AIoT/first_day/firstday_afternoon/LiteOS_Lab_STM32_IoT/iot_link/network/dtls/mbedtls/mbedtls-2.16.2/include/mbedtls\cipher.h **** } mbedtls_operation_t;
 211:c:/Users/lenovo/Desktop/AIoT/first_day/firstday_afternoon/LiteOS_Lab_STM32_IoT/iot_link/network/dtls/mbedtls/mbedtls-2.16.2/include/mbedtls\cipher.h **** 
 212:c:/Users/lenovo/Desktop/AIoT/first_day/firstday_afternoon/LiteOS_Lab_STM32_IoT/iot_link/network/dtls/mbedtls/mbedtls-2.16.2/include/mbedtls\cipher.h **** enum {
 213:c:/Users/lenovo/Desktop/AIoT/first_day/firstday_afternoon/LiteOS_Lab_STM32_IoT/iot_link/network/dtls/mbedtls/mbedtls-2.16.2/include/mbedtls\cipher.h ****     /** Undefined key length. */
 214:c:/Users/lenovo/Desktop/AIoT/first_day/firstday_afternoon/LiteOS_Lab_STM32_IoT/iot_link/network/dtls/mbedtls/mbedtls-2.16.2/include/mbedtls\cipher.h ****     MBEDTLS_KEY_LENGTH_NONE = 0,
 215:c:/Users/lenovo/Desktop/AIoT/first_day/firstday_afternoon/LiteOS_Lab_STM32_IoT/iot_link/network/dtls/mbedtls/mbedtls-2.16.2/include/mbedtls\cipher.h ****     /** Key length, in bits (including parity), for DES keys. */
 216:c:/Users/lenovo/Desktop/AIoT/first_day/firstday_afternoon/LiteOS_Lab_STM32_IoT/iot_link/network/dtls/mbedtls/mbedtls-2.16.2/include/mbedtls\cipher.h ****     MBEDTLS_KEY_LENGTH_DES  = 64,
 217:c:/Users/lenovo/Desktop/AIoT/first_day/firstday_afternoon/LiteOS_Lab_STM32_IoT/iot_link/network/dtls/mbedtls/mbedtls-2.16.2/include/mbedtls\cipher.h ****     /** Key length in bits, including parity, for DES in two-key EDE. */
 218:c:/Users/lenovo/Desktop/AIoT/first_day/firstday_afternoon/LiteOS_Lab_STM32_IoT/iot_link/network/dtls/mbedtls/mbedtls-2.16.2/include/mbedtls\cipher.h ****     MBEDTLS_KEY_LENGTH_DES_EDE = 128,
 219:c:/Users/lenovo/Desktop/AIoT/first_day/firstday_afternoon/LiteOS_Lab_STM32_IoT/iot_link/network/dtls/mbedtls/mbedtls-2.16.2/include/mbedtls\cipher.h ****     /** Key length in bits, including parity, for DES in three-key EDE. */
 220:c:/Users/lenovo/Desktop/AIoT/first_day/firstday_afternoon/LiteOS_Lab_STM32_IoT/iot_link/network/dtls/mbedtls/mbedtls-2.16.2/include/mbedtls\cipher.h ****     MBEDTLS_KEY_LENGTH_DES_EDE3 = 192,
 221:c:/Users/lenovo/Desktop/AIoT/first_day/firstday_afternoon/LiteOS_Lab_STM32_IoT/iot_link/network/dtls/mbedtls/mbedtls-2.16.2/include/mbedtls\cipher.h **** };
 222:c:/Users/lenovo/Desktop/AIoT/first_day/firstday_afternoon/LiteOS_Lab_STM32_IoT/iot_link/network/dtls/mbedtls/mbedtls-2.16.2/include/mbedtls\cipher.h **** 
 223:c:/Users/lenovo/Desktop/AIoT/first_day/firstday_afternoon/LiteOS_Lab_STM32_IoT/iot_link/network/dtls/mbedtls/mbedtls-2.16.2/include/mbedtls\cipher.h **** /** Maximum length of any IV, in Bytes. */
 224:c:/Users/lenovo/Desktop/AIoT/first_day/firstday_afternoon/LiteOS_Lab_STM32_IoT/iot_link/network/dtls/mbedtls/mbedtls-2.16.2/include/mbedtls\cipher.h **** #define MBEDTLS_MAX_IV_LENGTH      16
 225:c:/Users/lenovo/Desktop/AIoT/first_day/firstday_afternoon/LiteOS_Lab_STM32_IoT/iot_link/network/dtls/mbedtls/mbedtls-2.16.2/include/mbedtls\cipher.h **** /** Maximum block size of any cipher, in Bytes. */
 226:c:/Users/lenovo/Desktop/AIoT/first_day/firstday_afternoon/LiteOS_Lab_STM32_IoT/iot_link/network/dtls/mbedtls/mbedtls-2.16.2/include/mbedtls\cipher.h **** #define MBEDTLS_MAX_BLOCK_LENGTH   16
 227:c:/Users/lenovo/Desktop/AIoT/first_day/firstday_afternoon/LiteOS_Lab_STM32_IoT/iot_link/network/dtls/mbedtls/mbedtls-2.16.2/include/mbedtls\cipher.h **** 
 228:c:/Users/lenovo/Desktop/AIoT/first_day/firstday_afternoon/LiteOS_Lab_STM32_IoT/iot_link/network/dtls/mbedtls/mbedtls-2.16.2/include/mbedtls\cipher.h **** /**
 229:c:/Users/lenovo/Desktop/AIoT/first_day/firstday_afternoon/LiteOS_Lab_STM32_IoT/iot_link/network/dtls/mbedtls/mbedtls-2.16.2/include/mbedtls\cipher.h ****  * Base cipher information (opaque struct).
 230:c:/Users/lenovo/Desktop/AIoT/first_day/firstday_afternoon/LiteOS_Lab_STM32_IoT/iot_link/network/dtls/mbedtls/mbedtls-2.16.2/include/mbedtls\cipher.h ****  */
 231:c:/Users/lenovo/Desktop/AIoT/first_day/firstday_afternoon/LiteOS_Lab_STM32_IoT/iot_link/network/dtls/mbedtls/mbedtls-2.16.2/include/mbedtls\cipher.h **** typedef struct mbedtls_cipher_base_t mbedtls_cipher_base_t;
 232:c:/Users/lenovo/Desktop/AIoT/first_day/firstday_afternoon/LiteOS_Lab_STM32_IoT/iot_link/network/dtls/mbedtls/mbedtls-2.16.2/include/mbedtls\cipher.h **** 
 233:c:/Users/lenovo/Desktop/AIoT/first_day/firstday_afternoon/LiteOS_Lab_STM32_IoT/iot_link/network/dtls/mbedtls/mbedtls-2.16.2/include/mbedtls\cipher.h **** /**
 234:c:/Users/lenovo/Desktop/AIoT/first_day/firstday_afternoon/LiteOS_Lab_STM32_IoT/iot_link/network/dtls/mbedtls/mbedtls-2.16.2/include/mbedtls\cipher.h ****  * CMAC context (opaque struct).
 235:c:/Users/lenovo/Desktop/AIoT/first_day/firstday_afternoon/LiteOS_Lab_STM32_IoT/iot_link/network/dtls/mbedtls/mbedtls-2.16.2/include/mbedtls\cipher.h ****  */
 236:c:/Users/lenovo/Desktop/AIoT/first_day/firstday_afternoon/LiteOS_Lab_STM32_IoT/iot_link/network/dtls/mbedtls/mbedtls-2.16.2/include/mbedtls\cipher.h **** typedef struct mbedtls_cmac_context_t mbedtls_cmac_context_t;
 237:c:/Users/lenovo/Desktop/AIoT/first_day/firstday_afternoon/LiteOS_Lab_STM32_IoT/iot_link/network/dtls/mbedtls/mbedtls-2.16.2/include/mbedtls\cipher.h **** 
 238:c:/Users/lenovo/Desktop/AIoT/first_day/firstday_afternoon/LiteOS_Lab_STM32_IoT/iot_link/network/dtls/mbedtls/mbedtls-2.16.2/include/mbedtls\cipher.h **** /**
 239:c:/Users/lenovo/Desktop/AIoT/first_day/firstday_afternoon/LiteOS_Lab_STM32_IoT/iot_link/network/dtls/mbedtls/mbedtls-2.16.2/include/mbedtls\cipher.h ****  * Cipher information. Allows calling cipher functions
 240:c:/Users/lenovo/Desktop/AIoT/first_day/firstday_afternoon/LiteOS_Lab_STM32_IoT/iot_link/network/dtls/mbedtls/mbedtls-2.16.2/include/mbedtls\cipher.h ****  * in a generic way.
 241:c:/Users/lenovo/Desktop/AIoT/first_day/firstday_afternoon/LiteOS_Lab_STM32_IoT/iot_link/network/dtls/mbedtls/mbedtls-2.16.2/include/mbedtls\cipher.h ****  */
 242:c:/Users/lenovo/Desktop/AIoT/first_day/firstday_afternoon/LiteOS_Lab_STM32_IoT/iot_link/network/dtls/mbedtls/mbedtls-2.16.2/include/mbedtls\cipher.h **** typedef struct mbedtls_cipher_info_t
 243:c:/Users/lenovo/Desktop/AIoT/first_day/firstday_afternoon/LiteOS_Lab_STM32_IoT/iot_link/network/dtls/mbedtls/mbedtls-2.16.2/include/mbedtls\cipher.h **** {
 244:c:/Users/lenovo/Desktop/AIoT/first_day/firstday_afternoon/LiteOS_Lab_STM32_IoT/iot_link/network/dtls/mbedtls/mbedtls-2.16.2/include/mbedtls\cipher.h ****     /** Full cipher identifier. For example,
 245:c:/Users/lenovo/Desktop/AIoT/first_day/firstday_afternoon/LiteOS_Lab_STM32_IoT/iot_link/network/dtls/mbedtls/mbedtls-2.16.2/include/mbedtls\cipher.h ****      * MBEDTLS_CIPHER_AES_256_CBC.
 246:c:/Users/lenovo/Desktop/AIoT/first_day/firstday_afternoon/LiteOS_Lab_STM32_IoT/iot_link/network/dtls/mbedtls/mbedtls-2.16.2/include/mbedtls\cipher.h ****      */
 247:c:/Users/lenovo/Desktop/AIoT/first_day/firstday_afternoon/LiteOS_Lab_STM32_IoT/iot_link/network/dtls/mbedtls/mbedtls-2.16.2/include/mbedtls\cipher.h ****     mbedtls_cipher_type_t type;
 248:c:/Users/lenovo/Desktop/AIoT/first_day/firstday_afternoon/LiteOS_Lab_STM32_IoT/iot_link/network/dtls/mbedtls/mbedtls-2.16.2/include/mbedtls\cipher.h **** 
 249:c:/Users/lenovo/Desktop/AIoT/first_day/firstday_afternoon/LiteOS_Lab_STM32_IoT/iot_link/network/dtls/mbedtls/mbedtls-2.16.2/include/mbedtls\cipher.h ****     /** The cipher mode. For example, MBEDTLS_MODE_CBC. */
 250:c:/Users/lenovo/Desktop/AIoT/first_day/firstday_afternoon/LiteOS_Lab_STM32_IoT/iot_link/network/dtls/mbedtls/mbedtls-2.16.2/include/mbedtls\cipher.h ****     mbedtls_cipher_mode_t mode;
 251:c:/Users/lenovo/Desktop/AIoT/first_day/firstday_afternoon/LiteOS_Lab_STM32_IoT/iot_link/network/dtls/mbedtls/mbedtls-2.16.2/include/mbedtls\cipher.h **** 
 252:c:/Users/lenovo/Desktop/AIoT/first_day/firstday_afternoon/LiteOS_Lab_STM32_IoT/iot_link/network/dtls/mbedtls/mbedtls-2.16.2/include/mbedtls\cipher.h ****     /** The cipher key length, in bits. This is the
 253:c:/Users/lenovo/Desktop/AIoT/first_day/firstday_afternoon/LiteOS_Lab_STM32_IoT/iot_link/network/dtls/mbedtls/mbedtls-2.16.2/include/mbedtls\cipher.h ****      * default length for variable sized ciphers.
 254:c:/Users/lenovo/Desktop/AIoT/first_day/firstday_afternoon/LiteOS_Lab_STM32_IoT/iot_link/network/dtls/mbedtls/mbedtls-2.16.2/include/mbedtls\cipher.h ****      * Includes parity bits for ciphers like DES.
 255:c:/Users/lenovo/Desktop/AIoT/first_day/firstday_afternoon/LiteOS_Lab_STM32_IoT/iot_link/network/dtls/mbedtls/mbedtls-2.16.2/include/mbedtls\cipher.h ****      */
 256:c:/Users/lenovo/Desktop/AIoT/first_day/firstday_afternoon/LiteOS_Lab_STM32_IoT/iot_link/network/dtls/mbedtls/mbedtls-2.16.2/include/mbedtls\cipher.h ****     unsigned int key_bitlen;
 257:c:/Users/lenovo/Desktop/AIoT/first_day/firstday_afternoon/LiteOS_Lab_STM32_IoT/iot_link/network/dtls/mbedtls/mbedtls-2.16.2/include/mbedtls\cipher.h **** 
 258:c:/Users/lenovo/Desktop/AIoT/first_day/firstday_afternoon/LiteOS_Lab_STM32_IoT/iot_link/network/dtls/mbedtls/mbedtls-2.16.2/include/mbedtls\cipher.h ****     /** Name of the cipher. */
 259:c:/Users/lenovo/Desktop/AIoT/first_day/firstday_afternoon/LiteOS_Lab_STM32_IoT/iot_link/network/dtls/mbedtls/mbedtls-2.16.2/include/mbedtls\cipher.h ****     const char * name;
ARM GAS  C:\Users\lenovo\AppData\Local\Temp\ccSXL9zI.s 			page 6


 260:c:/Users/lenovo/Desktop/AIoT/first_day/firstday_afternoon/LiteOS_Lab_STM32_IoT/iot_link/network/dtls/mbedtls/mbedtls-2.16.2/include/mbedtls\cipher.h **** 
 261:c:/Users/lenovo/Desktop/AIoT/first_day/firstday_afternoon/LiteOS_Lab_STM32_IoT/iot_link/network/dtls/mbedtls/mbedtls-2.16.2/include/mbedtls\cipher.h ****     /** IV or nonce size, in Bytes.
 262:c:/Users/lenovo/Desktop/AIoT/first_day/firstday_afternoon/LiteOS_Lab_STM32_IoT/iot_link/network/dtls/mbedtls/mbedtls-2.16.2/include/mbedtls\cipher.h ****      * For ciphers that accept variable IV sizes,
 263:c:/Users/lenovo/Desktop/AIoT/first_day/firstday_afternoon/LiteOS_Lab_STM32_IoT/iot_link/network/dtls/mbedtls/mbedtls-2.16.2/include/mbedtls\cipher.h ****      * this is the recommended size.
 264:c:/Users/lenovo/Desktop/AIoT/first_day/firstday_afternoon/LiteOS_Lab_STM32_IoT/iot_link/network/dtls/mbedtls/mbedtls-2.16.2/include/mbedtls\cipher.h ****      */
 265:c:/Users/lenovo/Desktop/AIoT/first_day/firstday_afternoon/LiteOS_Lab_STM32_IoT/iot_link/network/dtls/mbedtls/mbedtls-2.16.2/include/mbedtls\cipher.h ****     unsigned int iv_size;
 266:c:/Users/lenovo/Desktop/AIoT/first_day/firstday_afternoon/LiteOS_Lab_STM32_IoT/iot_link/network/dtls/mbedtls/mbedtls-2.16.2/include/mbedtls\cipher.h **** 
 267:c:/Users/lenovo/Desktop/AIoT/first_day/firstday_afternoon/LiteOS_Lab_STM32_IoT/iot_link/network/dtls/mbedtls/mbedtls-2.16.2/include/mbedtls\cipher.h ****     /** Bitflag comprised of MBEDTLS_CIPHER_VARIABLE_IV_LEN and
 268:c:/Users/lenovo/Desktop/AIoT/first_day/firstday_afternoon/LiteOS_Lab_STM32_IoT/iot_link/network/dtls/mbedtls/mbedtls-2.16.2/include/mbedtls\cipher.h ****      *  MBEDTLS_CIPHER_VARIABLE_KEY_LEN indicating whether the
 269:c:/Users/lenovo/Desktop/AIoT/first_day/firstday_afternoon/LiteOS_Lab_STM32_IoT/iot_link/network/dtls/mbedtls/mbedtls-2.16.2/include/mbedtls\cipher.h ****      *  cipher supports variable IV or variable key sizes, respectively.
 270:c:/Users/lenovo/Desktop/AIoT/first_day/firstday_afternoon/LiteOS_Lab_STM32_IoT/iot_link/network/dtls/mbedtls/mbedtls-2.16.2/include/mbedtls\cipher.h ****      */
 271:c:/Users/lenovo/Desktop/AIoT/first_day/firstday_afternoon/LiteOS_Lab_STM32_IoT/iot_link/network/dtls/mbedtls/mbedtls-2.16.2/include/mbedtls\cipher.h ****     int flags;
 272:c:/Users/lenovo/Desktop/AIoT/first_day/firstday_afternoon/LiteOS_Lab_STM32_IoT/iot_link/network/dtls/mbedtls/mbedtls-2.16.2/include/mbedtls\cipher.h **** 
 273:c:/Users/lenovo/Desktop/AIoT/first_day/firstday_afternoon/LiteOS_Lab_STM32_IoT/iot_link/network/dtls/mbedtls/mbedtls-2.16.2/include/mbedtls\cipher.h ****     /** The block size, in Bytes. */
 274:c:/Users/lenovo/Desktop/AIoT/first_day/firstday_afternoon/LiteOS_Lab_STM32_IoT/iot_link/network/dtls/mbedtls/mbedtls-2.16.2/include/mbedtls\cipher.h ****     unsigned int block_size;
 275:c:/Users/lenovo/Desktop/AIoT/first_day/firstday_afternoon/LiteOS_Lab_STM32_IoT/iot_link/network/dtls/mbedtls/mbedtls-2.16.2/include/mbedtls\cipher.h **** 
 276:c:/Users/lenovo/Desktop/AIoT/first_day/firstday_afternoon/LiteOS_Lab_STM32_IoT/iot_link/network/dtls/mbedtls/mbedtls-2.16.2/include/mbedtls\cipher.h ****     /** Struct for base cipher information and functions. */
 277:c:/Users/lenovo/Desktop/AIoT/first_day/firstday_afternoon/LiteOS_Lab_STM32_IoT/iot_link/network/dtls/mbedtls/mbedtls-2.16.2/include/mbedtls\cipher.h ****     const mbedtls_cipher_base_t *base;
 278:c:/Users/lenovo/Desktop/AIoT/first_day/firstday_afternoon/LiteOS_Lab_STM32_IoT/iot_link/network/dtls/mbedtls/mbedtls-2.16.2/include/mbedtls\cipher.h **** 
 279:c:/Users/lenovo/Desktop/AIoT/first_day/firstday_afternoon/LiteOS_Lab_STM32_IoT/iot_link/network/dtls/mbedtls/mbedtls-2.16.2/include/mbedtls\cipher.h **** } mbedtls_cipher_info_t;
 280:c:/Users/lenovo/Desktop/AIoT/first_day/firstday_afternoon/LiteOS_Lab_STM32_IoT/iot_link/network/dtls/mbedtls/mbedtls-2.16.2/include/mbedtls\cipher.h **** 
 281:c:/Users/lenovo/Desktop/AIoT/first_day/firstday_afternoon/LiteOS_Lab_STM32_IoT/iot_link/network/dtls/mbedtls/mbedtls-2.16.2/include/mbedtls\cipher.h **** /**
 282:c:/Users/lenovo/Desktop/AIoT/first_day/firstday_afternoon/LiteOS_Lab_STM32_IoT/iot_link/network/dtls/mbedtls/mbedtls-2.16.2/include/mbedtls\cipher.h ****  * Generic cipher context.
 283:c:/Users/lenovo/Desktop/AIoT/first_day/firstday_afternoon/LiteOS_Lab_STM32_IoT/iot_link/network/dtls/mbedtls/mbedtls-2.16.2/include/mbedtls\cipher.h ****  */
 284:c:/Users/lenovo/Desktop/AIoT/first_day/firstday_afternoon/LiteOS_Lab_STM32_IoT/iot_link/network/dtls/mbedtls/mbedtls-2.16.2/include/mbedtls\cipher.h **** typedef struct mbedtls_cipher_context_t
 285:c:/Users/lenovo/Desktop/AIoT/first_day/firstday_afternoon/LiteOS_Lab_STM32_IoT/iot_link/network/dtls/mbedtls/mbedtls-2.16.2/include/mbedtls\cipher.h **** {
 286:c:/Users/lenovo/Desktop/AIoT/first_day/firstday_afternoon/LiteOS_Lab_STM32_IoT/iot_link/network/dtls/mbedtls/mbedtls-2.16.2/include/mbedtls\cipher.h ****     /** Information about the associated cipher. */
 287:c:/Users/lenovo/Desktop/AIoT/first_day/firstday_afternoon/LiteOS_Lab_STM32_IoT/iot_link/network/dtls/mbedtls/mbedtls-2.16.2/include/mbedtls\cipher.h ****     const mbedtls_cipher_info_t *cipher_info;
 288:c:/Users/lenovo/Desktop/AIoT/first_day/firstday_afternoon/LiteOS_Lab_STM32_IoT/iot_link/network/dtls/mbedtls/mbedtls-2.16.2/include/mbedtls\cipher.h **** 
 289:c:/Users/lenovo/Desktop/AIoT/first_day/firstday_afternoon/LiteOS_Lab_STM32_IoT/iot_link/network/dtls/mbedtls/mbedtls-2.16.2/include/mbedtls\cipher.h ****     /** Key length to use. */
 290:c:/Users/lenovo/Desktop/AIoT/first_day/firstday_afternoon/LiteOS_Lab_STM32_IoT/iot_link/network/dtls/mbedtls/mbedtls-2.16.2/include/mbedtls\cipher.h ****     int key_bitlen;
 291:c:/Users/lenovo/Desktop/AIoT/first_day/firstday_afternoon/LiteOS_Lab_STM32_IoT/iot_link/network/dtls/mbedtls/mbedtls-2.16.2/include/mbedtls\cipher.h **** 
 292:c:/Users/lenovo/Desktop/AIoT/first_day/firstday_afternoon/LiteOS_Lab_STM32_IoT/iot_link/network/dtls/mbedtls/mbedtls-2.16.2/include/mbedtls\cipher.h ****     /** Operation that the key of the context has been
 293:c:/Users/lenovo/Desktop/AIoT/first_day/firstday_afternoon/LiteOS_Lab_STM32_IoT/iot_link/network/dtls/mbedtls/mbedtls-2.16.2/include/mbedtls\cipher.h ****      * initialized for.
 294:c:/Users/lenovo/Desktop/AIoT/first_day/firstday_afternoon/LiteOS_Lab_STM32_IoT/iot_link/network/dtls/mbedtls/mbedtls-2.16.2/include/mbedtls\cipher.h ****      */
 295:c:/Users/lenovo/Desktop/AIoT/first_day/firstday_afternoon/LiteOS_Lab_STM32_IoT/iot_link/network/dtls/mbedtls/mbedtls-2.16.2/include/mbedtls\cipher.h ****     mbedtls_operation_t operation;
 296:c:/Users/lenovo/Desktop/AIoT/first_day/firstday_afternoon/LiteOS_Lab_STM32_IoT/iot_link/network/dtls/mbedtls/mbedtls-2.16.2/include/mbedtls\cipher.h **** 
 297:c:/Users/lenovo/Desktop/AIoT/first_day/firstday_afternoon/LiteOS_Lab_STM32_IoT/iot_link/network/dtls/mbedtls/mbedtls-2.16.2/include/mbedtls\cipher.h **** #if defined(MBEDTLS_CIPHER_MODE_WITH_PADDING)
 298:c:/Users/lenovo/Desktop/AIoT/first_day/firstday_afternoon/LiteOS_Lab_STM32_IoT/iot_link/network/dtls/mbedtls/mbedtls-2.16.2/include/mbedtls\cipher.h ****     /** Padding functions to use, if relevant for
 299:c:/Users/lenovo/Desktop/AIoT/first_day/firstday_afternoon/LiteOS_Lab_STM32_IoT/iot_link/network/dtls/mbedtls/mbedtls-2.16.2/include/mbedtls\cipher.h ****      * the specific cipher mode.
 300:c:/Users/lenovo/Desktop/AIoT/first_day/firstday_afternoon/LiteOS_Lab_STM32_IoT/iot_link/network/dtls/mbedtls/mbedtls-2.16.2/include/mbedtls\cipher.h ****      */
 301:c:/Users/lenovo/Desktop/AIoT/first_day/firstday_afternoon/LiteOS_Lab_STM32_IoT/iot_link/network/dtls/mbedtls/mbedtls-2.16.2/include/mbedtls\cipher.h ****     void (*add_padding)( unsigned char *output, size_t olen, size_t data_len );
 302:c:/Users/lenovo/Desktop/AIoT/first_day/firstday_afternoon/LiteOS_Lab_STM32_IoT/iot_link/network/dtls/mbedtls/mbedtls-2.16.2/include/mbedtls\cipher.h ****     int (*get_padding)( unsigned char *input, size_t ilen, size_t *data_len );
 303:c:/Users/lenovo/Desktop/AIoT/first_day/firstday_afternoon/LiteOS_Lab_STM32_IoT/iot_link/network/dtls/mbedtls/mbedtls-2.16.2/include/mbedtls\cipher.h **** #endif
 304:c:/Users/lenovo/Desktop/AIoT/first_day/firstday_afternoon/LiteOS_Lab_STM32_IoT/iot_link/network/dtls/mbedtls/mbedtls-2.16.2/include/mbedtls\cipher.h **** 
 305:c:/Users/lenovo/Desktop/AIoT/first_day/firstday_afternoon/LiteOS_Lab_STM32_IoT/iot_link/network/dtls/mbedtls/mbedtls-2.16.2/include/mbedtls\cipher.h ****     /** Buffer for input that has not been processed yet. */
 306:c:/Users/lenovo/Desktop/AIoT/first_day/firstday_afternoon/LiteOS_Lab_STM32_IoT/iot_link/network/dtls/mbedtls/mbedtls-2.16.2/include/mbedtls\cipher.h ****     unsigned char unprocessed_data[MBEDTLS_MAX_BLOCK_LENGTH];
 307:c:/Users/lenovo/Desktop/AIoT/first_day/firstday_afternoon/LiteOS_Lab_STM32_IoT/iot_link/network/dtls/mbedtls/mbedtls-2.16.2/include/mbedtls\cipher.h **** 
 308:c:/Users/lenovo/Desktop/AIoT/first_day/firstday_afternoon/LiteOS_Lab_STM32_IoT/iot_link/network/dtls/mbedtls/mbedtls-2.16.2/include/mbedtls\cipher.h ****     /** Number of Bytes that have not been processed yet. */
 309:c:/Users/lenovo/Desktop/AIoT/first_day/firstday_afternoon/LiteOS_Lab_STM32_IoT/iot_link/network/dtls/mbedtls/mbedtls-2.16.2/include/mbedtls\cipher.h ****     size_t unprocessed_len;
 310:c:/Users/lenovo/Desktop/AIoT/first_day/firstday_afternoon/LiteOS_Lab_STM32_IoT/iot_link/network/dtls/mbedtls/mbedtls-2.16.2/include/mbedtls\cipher.h **** 
 311:c:/Users/lenovo/Desktop/AIoT/first_day/firstday_afternoon/LiteOS_Lab_STM32_IoT/iot_link/network/dtls/mbedtls/mbedtls-2.16.2/include/mbedtls\cipher.h ****     /** Current IV or NONCE_COUNTER for CTR-mode, data unit (or sector) number
 312:c:/Users/lenovo/Desktop/AIoT/first_day/firstday_afternoon/LiteOS_Lab_STM32_IoT/iot_link/network/dtls/mbedtls/mbedtls-2.16.2/include/mbedtls\cipher.h ****      * for XTS-mode. */
 313:c:/Users/lenovo/Desktop/AIoT/first_day/firstday_afternoon/LiteOS_Lab_STM32_IoT/iot_link/network/dtls/mbedtls/mbedtls-2.16.2/include/mbedtls\cipher.h ****     unsigned char iv[MBEDTLS_MAX_IV_LENGTH];
 314:c:/Users/lenovo/Desktop/AIoT/first_day/firstday_afternoon/LiteOS_Lab_STM32_IoT/iot_link/network/dtls/mbedtls/mbedtls-2.16.2/include/mbedtls\cipher.h **** 
 315:c:/Users/lenovo/Desktop/AIoT/first_day/firstday_afternoon/LiteOS_Lab_STM32_IoT/iot_link/network/dtls/mbedtls/mbedtls-2.16.2/include/mbedtls\cipher.h ****     /** IV size in Bytes, for ciphers with variable-length IVs. */
 316:c:/Users/lenovo/Desktop/AIoT/first_day/firstday_afternoon/LiteOS_Lab_STM32_IoT/iot_link/network/dtls/mbedtls/mbedtls-2.16.2/include/mbedtls\cipher.h ****     size_t iv_size;
ARM GAS  C:\Users\lenovo\AppData\Local\Temp\ccSXL9zI.s 			page 7


 317:c:/Users/lenovo/Desktop/AIoT/first_day/firstday_afternoon/LiteOS_Lab_STM32_IoT/iot_link/network/dtls/mbedtls/mbedtls-2.16.2/include/mbedtls\cipher.h **** 
 318:c:/Users/lenovo/Desktop/AIoT/first_day/firstday_afternoon/LiteOS_Lab_STM32_IoT/iot_link/network/dtls/mbedtls/mbedtls-2.16.2/include/mbedtls\cipher.h ****     /** The cipher-specific context. */
 319:c:/Users/lenovo/Desktop/AIoT/first_day/firstday_afternoon/LiteOS_Lab_STM32_IoT/iot_link/network/dtls/mbedtls/mbedtls-2.16.2/include/mbedtls\cipher.h ****     void *cipher_ctx;
 320:c:/Users/lenovo/Desktop/AIoT/first_day/firstday_afternoon/LiteOS_Lab_STM32_IoT/iot_link/network/dtls/mbedtls/mbedtls-2.16.2/include/mbedtls\cipher.h **** 
 321:c:/Users/lenovo/Desktop/AIoT/first_day/firstday_afternoon/LiteOS_Lab_STM32_IoT/iot_link/network/dtls/mbedtls/mbedtls-2.16.2/include/mbedtls\cipher.h **** #if defined(MBEDTLS_CMAC_C)
 322:c:/Users/lenovo/Desktop/AIoT/first_day/firstday_afternoon/LiteOS_Lab_STM32_IoT/iot_link/network/dtls/mbedtls/mbedtls-2.16.2/include/mbedtls\cipher.h ****     /** CMAC-specific context. */
 323:c:/Users/lenovo/Desktop/AIoT/first_day/firstday_afternoon/LiteOS_Lab_STM32_IoT/iot_link/network/dtls/mbedtls/mbedtls-2.16.2/include/mbedtls\cipher.h ****     mbedtls_cmac_context_t *cmac_ctx;
 324:c:/Users/lenovo/Desktop/AIoT/first_day/firstday_afternoon/LiteOS_Lab_STM32_IoT/iot_link/network/dtls/mbedtls/mbedtls-2.16.2/include/mbedtls\cipher.h **** #endif
 325:c:/Users/lenovo/Desktop/AIoT/first_day/firstday_afternoon/LiteOS_Lab_STM32_IoT/iot_link/network/dtls/mbedtls/mbedtls-2.16.2/include/mbedtls\cipher.h **** } mbedtls_cipher_context_t;
 326:c:/Users/lenovo/Desktop/AIoT/first_day/firstday_afternoon/LiteOS_Lab_STM32_IoT/iot_link/network/dtls/mbedtls/mbedtls-2.16.2/include/mbedtls\cipher.h **** 
 327:c:/Users/lenovo/Desktop/AIoT/first_day/firstday_afternoon/LiteOS_Lab_STM32_IoT/iot_link/network/dtls/mbedtls/mbedtls-2.16.2/include/mbedtls\cipher.h **** /**
 328:c:/Users/lenovo/Desktop/AIoT/first_day/firstday_afternoon/LiteOS_Lab_STM32_IoT/iot_link/network/dtls/mbedtls/mbedtls-2.16.2/include/mbedtls\cipher.h ****  * \brief This function retrieves the list of ciphers supported by the generic
 329:c:/Users/lenovo/Desktop/AIoT/first_day/firstday_afternoon/LiteOS_Lab_STM32_IoT/iot_link/network/dtls/mbedtls/mbedtls-2.16.2/include/mbedtls\cipher.h ****  * cipher module.
 330:c:/Users/lenovo/Desktop/AIoT/first_day/firstday_afternoon/LiteOS_Lab_STM32_IoT/iot_link/network/dtls/mbedtls/mbedtls-2.16.2/include/mbedtls\cipher.h ****  *
 331:c:/Users/lenovo/Desktop/AIoT/first_day/firstday_afternoon/LiteOS_Lab_STM32_IoT/iot_link/network/dtls/mbedtls/mbedtls-2.16.2/include/mbedtls\cipher.h ****  * \return      A statically-allocated array of ciphers. The last entry
 332:c:/Users/lenovo/Desktop/AIoT/first_day/firstday_afternoon/LiteOS_Lab_STM32_IoT/iot_link/network/dtls/mbedtls/mbedtls-2.16.2/include/mbedtls\cipher.h ****  *              is zero.
 333:c:/Users/lenovo/Desktop/AIoT/first_day/firstday_afternoon/LiteOS_Lab_STM32_IoT/iot_link/network/dtls/mbedtls/mbedtls-2.16.2/include/mbedtls\cipher.h ****  */
 334:c:/Users/lenovo/Desktop/AIoT/first_day/firstday_afternoon/LiteOS_Lab_STM32_IoT/iot_link/network/dtls/mbedtls/mbedtls-2.16.2/include/mbedtls\cipher.h **** const int *mbedtls_cipher_list( void );
 335:c:/Users/lenovo/Desktop/AIoT/first_day/firstday_afternoon/LiteOS_Lab_STM32_IoT/iot_link/network/dtls/mbedtls/mbedtls-2.16.2/include/mbedtls\cipher.h **** 
 336:c:/Users/lenovo/Desktop/AIoT/first_day/firstday_afternoon/LiteOS_Lab_STM32_IoT/iot_link/network/dtls/mbedtls/mbedtls-2.16.2/include/mbedtls\cipher.h **** /**
 337:c:/Users/lenovo/Desktop/AIoT/first_day/firstday_afternoon/LiteOS_Lab_STM32_IoT/iot_link/network/dtls/mbedtls/mbedtls-2.16.2/include/mbedtls\cipher.h ****  * \brief               This function retrieves the cipher-information
 338:c:/Users/lenovo/Desktop/AIoT/first_day/firstday_afternoon/LiteOS_Lab_STM32_IoT/iot_link/network/dtls/mbedtls/mbedtls-2.16.2/include/mbedtls\cipher.h ****  *                      structure associated with the given cipher name.
 339:c:/Users/lenovo/Desktop/AIoT/first_day/firstday_afternoon/LiteOS_Lab_STM32_IoT/iot_link/network/dtls/mbedtls/mbedtls-2.16.2/include/mbedtls\cipher.h ****  *
 340:c:/Users/lenovo/Desktop/AIoT/first_day/firstday_afternoon/LiteOS_Lab_STM32_IoT/iot_link/network/dtls/mbedtls/mbedtls-2.16.2/include/mbedtls\cipher.h ****  * \param cipher_name   Name of the cipher to search for. This must not be
 341:c:/Users/lenovo/Desktop/AIoT/first_day/firstday_afternoon/LiteOS_Lab_STM32_IoT/iot_link/network/dtls/mbedtls/mbedtls-2.16.2/include/mbedtls\cipher.h ****  *                      \c NULL.
 342:c:/Users/lenovo/Desktop/AIoT/first_day/firstday_afternoon/LiteOS_Lab_STM32_IoT/iot_link/network/dtls/mbedtls/mbedtls-2.16.2/include/mbedtls\cipher.h ****  *
 343:c:/Users/lenovo/Desktop/AIoT/first_day/firstday_afternoon/LiteOS_Lab_STM32_IoT/iot_link/network/dtls/mbedtls/mbedtls-2.16.2/include/mbedtls\cipher.h ****  * \return              The cipher information structure associated with the
 344:c:/Users/lenovo/Desktop/AIoT/first_day/firstday_afternoon/LiteOS_Lab_STM32_IoT/iot_link/network/dtls/mbedtls/mbedtls-2.16.2/include/mbedtls\cipher.h ****  *                      given \p cipher_name.
 345:c:/Users/lenovo/Desktop/AIoT/first_day/firstday_afternoon/LiteOS_Lab_STM32_IoT/iot_link/network/dtls/mbedtls/mbedtls-2.16.2/include/mbedtls\cipher.h ****  * \return              \c NULL if the associated cipher information is not found.
 346:c:/Users/lenovo/Desktop/AIoT/first_day/firstday_afternoon/LiteOS_Lab_STM32_IoT/iot_link/network/dtls/mbedtls/mbedtls-2.16.2/include/mbedtls\cipher.h ****  */
 347:c:/Users/lenovo/Desktop/AIoT/first_day/firstday_afternoon/LiteOS_Lab_STM32_IoT/iot_link/network/dtls/mbedtls/mbedtls-2.16.2/include/mbedtls\cipher.h **** const mbedtls_cipher_info_t *mbedtls_cipher_info_from_string( const char *cipher_name );
 348:c:/Users/lenovo/Desktop/AIoT/first_day/firstday_afternoon/LiteOS_Lab_STM32_IoT/iot_link/network/dtls/mbedtls/mbedtls-2.16.2/include/mbedtls\cipher.h **** 
 349:c:/Users/lenovo/Desktop/AIoT/first_day/firstday_afternoon/LiteOS_Lab_STM32_IoT/iot_link/network/dtls/mbedtls/mbedtls-2.16.2/include/mbedtls\cipher.h **** /**
 350:c:/Users/lenovo/Desktop/AIoT/first_day/firstday_afternoon/LiteOS_Lab_STM32_IoT/iot_link/network/dtls/mbedtls/mbedtls-2.16.2/include/mbedtls\cipher.h ****  * \brief               This function retrieves the cipher-information
 351:c:/Users/lenovo/Desktop/AIoT/first_day/firstday_afternoon/LiteOS_Lab_STM32_IoT/iot_link/network/dtls/mbedtls/mbedtls-2.16.2/include/mbedtls\cipher.h ****  *                      structure associated with the given cipher type.
 352:c:/Users/lenovo/Desktop/AIoT/first_day/firstday_afternoon/LiteOS_Lab_STM32_IoT/iot_link/network/dtls/mbedtls/mbedtls-2.16.2/include/mbedtls\cipher.h ****  *
 353:c:/Users/lenovo/Desktop/AIoT/first_day/firstday_afternoon/LiteOS_Lab_STM32_IoT/iot_link/network/dtls/mbedtls/mbedtls-2.16.2/include/mbedtls\cipher.h ****  * \param cipher_type   Type of the cipher to search for.
 354:c:/Users/lenovo/Desktop/AIoT/first_day/firstday_afternoon/LiteOS_Lab_STM32_IoT/iot_link/network/dtls/mbedtls/mbedtls-2.16.2/include/mbedtls\cipher.h ****  *
 355:c:/Users/lenovo/Desktop/AIoT/first_day/firstday_afternoon/LiteOS_Lab_STM32_IoT/iot_link/network/dtls/mbedtls/mbedtls-2.16.2/include/mbedtls\cipher.h ****  * \return              The cipher information structure associated with the
 356:c:/Users/lenovo/Desktop/AIoT/first_day/firstday_afternoon/LiteOS_Lab_STM32_IoT/iot_link/network/dtls/mbedtls/mbedtls-2.16.2/include/mbedtls\cipher.h ****  *                      given \p cipher_type.
 357:c:/Users/lenovo/Desktop/AIoT/first_day/firstday_afternoon/LiteOS_Lab_STM32_IoT/iot_link/network/dtls/mbedtls/mbedtls-2.16.2/include/mbedtls\cipher.h ****  * \return              \c NULL if the associated cipher information is not found.
 358:c:/Users/lenovo/Desktop/AIoT/first_day/firstday_afternoon/LiteOS_Lab_STM32_IoT/iot_link/network/dtls/mbedtls/mbedtls-2.16.2/include/mbedtls\cipher.h ****  */
 359:c:/Users/lenovo/Desktop/AIoT/first_day/firstday_afternoon/LiteOS_Lab_STM32_IoT/iot_link/network/dtls/mbedtls/mbedtls-2.16.2/include/mbedtls\cipher.h **** const mbedtls_cipher_info_t *mbedtls_cipher_info_from_type( const mbedtls_cipher_type_t cipher_type
 360:c:/Users/lenovo/Desktop/AIoT/first_day/firstday_afternoon/LiteOS_Lab_STM32_IoT/iot_link/network/dtls/mbedtls/mbedtls-2.16.2/include/mbedtls\cipher.h **** 
 361:c:/Users/lenovo/Desktop/AIoT/first_day/firstday_afternoon/LiteOS_Lab_STM32_IoT/iot_link/network/dtls/mbedtls/mbedtls-2.16.2/include/mbedtls\cipher.h **** /**
 362:c:/Users/lenovo/Desktop/AIoT/first_day/firstday_afternoon/LiteOS_Lab_STM32_IoT/iot_link/network/dtls/mbedtls/mbedtls-2.16.2/include/mbedtls\cipher.h ****  * \brief               This function retrieves the cipher-information
 363:c:/Users/lenovo/Desktop/AIoT/first_day/firstday_afternoon/LiteOS_Lab_STM32_IoT/iot_link/network/dtls/mbedtls/mbedtls-2.16.2/include/mbedtls\cipher.h ****  *                      structure associated with the given cipher ID,
 364:c:/Users/lenovo/Desktop/AIoT/first_day/firstday_afternoon/LiteOS_Lab_STM32_IoT/iot_link/network/dtls/mbedtls/mbedtls-2.16.2/include/mbedtls\cipher.h ****  *                      key size and mode.
 365:c:/Users/lenovo/Desktop/AIoT/first_day/firstday_afternoon/LiteOS_Lab_STM32_IoT/iot_link/network/dtls/mbedtls/mbedtls-2.16.2/include/mbedtls\cipher.h ****  *
 366:c:/Users/lenovo/Desktop/AIoT/first_day/firstday_afternoon/LiteOS_Lab_STM32_IoT/iot_link/network/dtls/mbedtls/mbedtls-2.16.2/include/mbedtls\cipher.h ****  * \param cipher_id     The ID of the cipher to search for. For example,
 367:c:/Users/lenovo/Desktop/AIoT/first_day/firstday_afternoon/LiteOS_Lab_STM32_IoT/iot_link/network/dtls/mbedtls/mbedtls-2.16.2/include/mbedtls\cipher.h ****  *                      #MBEDTLS_CIPHER_ID_AES.
 368:c:/Users/lenovo/Desktop/AIoT/first_day/firstday_afternoon/LiteOS_Lab_STM32_IoT/iot_link/network/dtls/mbedtls/mbedtls-2.16.2/include/mbedtls\cipher.h ****  * \param key_bitlen    The length of the key in bits.
 369:c:/Users/lenovo/Desktop/AIoT/first_day/firstday_afternoon/LiteOS_Lab_STM32_IoT/iot_link/network/dtls/mbedtls/mbedtls-2.16.2/include/mbedtls\cipher.h ****  * \param mode          The cipher mode. For example, #MBEDTLS_MODE_CBC.
 370:c:/Users/lenovo/Desktop/AIoT/first_day/firstday_afternoon/LiteOS_Lab_STM32_IoT/iot_link/network/dtls/mbedtls/mbedtls-2.16.2/include/mbedtls\cipher.h ****  *
 371:c:/Users/lenovo/Desktop/AIoT/first_day/firstday_afternoon/LiteOS_Lab_STM32_IoT/iot_link/network/dtls/mbedtls/mbedtls-2.16.2/include/mbedtls\cipher.h ****  * \return              The cipher information structure associated with the
 372:c:/Users/lenovo/Desktop/AIoT/first_day/firstday_afternoon/LiteOS_Lab_STM32_IoT/iot_link/network/dtls/mbedtls/mbedtls-2.16.2/include/mbedtls\cipher.h ****  *                      given \p cipher_id.
 373:c:/Users/lenovo/Desktop/AIoT/first_day/firstday_afternoon/LiteOS_Lab_STM32_IoT/iot_link/network/dtls/mbedtls/mbedtls-2.16.2/include/mbedtls\cipher.h ****  * \return              \c NULL if the associated cipher information is not found.
ARM GAS  C:\Users\lenovo\AppData\Local\Temp\ccSXL9zI.s 			page 8


 374:c:/Users/lenovo/Desktop/AIoT/first_day/firstday_afternoon/LiteOS_Lab_STM32_IoT/iot_link/network/dtls/mbedtls/mbedtls-2.16.2/include/mbedtls\cipher.h ****  */
 375:c:/Users/lenovo/Desktop/AIoT/first_day/firstday_afternoon/LiteOS_Lab_STM32_IoT/iot_link/network/dtls/mbedtls/mbedtls-2.16.2/include/mbedtls\cipher.h **** const mbedtls_cipher_info_t *mbedtls_cipher_info_from_values( const mbedtls_cipher_id_t cipher_id,
 376:c:/Users/lenovo/Desktop/AIoT/first_day/firstday_afternoon/LiteOS_Lab_STM32_IoT/iot_link/network/dtls/mbedtls/mbedtls-2.16.2/include/mbedtls\cipher.h ****                                               int key_bitlen,
 377:c:/Users/lenovo/Desktop/AIoT/first_day/firstday_afternoon/LiteOS_Lab_STM32_IoT/iot_link/network/dtls/mbedtls/mbedtls-2.16.2/include/mbedtls\cipher.h ****                                               const mbedtls_cipher_mode_t mode );
 378:c:/Users/lenovo/Desktop/AIoT/first_day/firstday_afternoon/LiteOS_Lab_STM32_IoT/iot_link/network/dtls/mbedtls/mbedtls-2.16.2/include/mbedtls\cipher.h **** 
 379:c:/Users/lenovo/Desktop/AIoT/first_day/firstday_afternoon/LiteOS_Lab_STM32_IoT/iot_link/network/dtls/mbedtls/mbedtls-2.16.2/include/mbedtls\cipher.h **** /**
 380:c:/Users/lenovo/Desktop/AIoT/first_day/firstday_afternoon/LiteOS_Lab_STM32_IoT/iot_link/network/dtls/mbedtls/mbedtls-2.16.2/include/mbedtls\cipher.h ****  * \brief               This function initializes a \p cipher_context as NONE.
 381:c:/Users/lenovo/Desktop/AIoT/first_day/firstday_afternoon/LiteOS_Lab_STM32_IoT/iot_link/network/dtls/mbedtls/mbedtls-2.16.2/include/mbedtls\cipher.h ****  *
 382:c:/Users/lenovo/Desktop/AIoT/first_day/firstday_afternoon/LiteOS_Lab_STM32_IoT/iot_link/network/dtls/mbedtls/mbedtls-2.16.2/include/mbedtls\cipher.h ****  * \param ctx           The context to be initialized. This must not be \c NULL.
 383:c:/Users/lenovo/Desktop/AIoT/first_day/firstday_afternoon/LiteOS_Lab_STM32_IoT/iot_link/network/dtls/mbedtls/mbedtls-2.16.2/include/mbedtls\cipher.h ****  */
 384:c:/Users/lenovo/Desktop/AIoT/first_day/firstday_afternoon/LiteOS_Lab_STM32_IoT/iot_link/network/dtls/mbedtls/mbedtls-2.16.2/include/mbedtls\cipher.h **** void mbedtls_cipher_init( mbedtls_cipher_context_t *ctx );
 385:c:/Users/lenovo/Desktop/AIoT/first_day/firstday_afternoon/LiteOS_Lab_STM32_IoT/iot_link/network/dtls/mbedtls/mbedtls-2.16.2/include/mbedtls\cipher.h **** 
 386:c:/Users/lenovo/Desktop/AIoT/first_day/firstday_afternoon/LiteOS_Lab_STM32_IoT/iot_link/network/dtls/mbedtls/mbedtls-2.16.2/include/mbedtls\cipher.h **** /**
 387:c:/Users/lenovo/Desktop/AIoT/first_day/firstday_afternoon/LiteOS_Lab_STM32_IoT/iot_link/network/dtls/mbedtls/mbedtls-2.16.2/include/mbedtls\cipher.h ****  * \brief               This function frees and clears the cipher-specific
 388:c:/Users/lenovo/Desktop/AIoT/first_day/firstday_afternoon/LiteOS_Lab_STM32_IoT/iot_link/network/dtls/mbedtls/mbedtls-2.16.2/include/mbedtls\cipher.h ****  *                      context of \p ctx. Freeing \p ctx itself remains the
 389:c:/Users/lenovo/Desktop/AIoT/first_day/firstday_afternoon/LiteOS_Lab_STM32_IoT/iot_link/network/dtls/mbedtls/mbedtls-2.16.2/include/mbedtls\cipher.h ****  *                      responsibility of the caller.
 390:c:/Users/lenovo/Desktop/AIoT/first_day/firstday_afternoon/LiteOS_Lab_STM32_IoT/iot_link/network/dtls/mbedtls/mbedtls-2.16.2/include/mbedtls\cipher.h ****  *
 391:c:/Users/lenovo/Desktop/AIoT/first_day/firstday_afternoon/LiteOS_Lab_STM32_IoT/iot_link/network/dtls/mbedtls/mbedtls-2.16.2/include/mbedtls\cipher.h ****  * \param ctx           The context to be freed. If this is \c NULL, the
 392:c:/Users/lenovo/Desktop/AIoT/first_day/firstday_afternoon/LiteOS_Lab_STM32_IoT/iot_link/network/dtls/mbedtls/mbedtls-2.16.2/include/mbedtls\cipher.h ****  *                      function has no effect, otherwise this must point to an
 393:c:/Users/lenovo/Desktop/AIoT/first_day/firstday_afternoon/LiteOS_Lab_STM32_IoT/iot_link/network/dtls/mbedtls/mbedtls-2.16.2/include/mbedtls\cipher.h ****  *                      initialized context.
 394:c:/Users/lenovo/Desktop/AIoT/first_day/firstday_afternoon/LiteOS_Lab_STM32_IoT/iot_link/network/dtls/mbedtls/mbedtls-2.16.2/include/mbedtls\cipher.h ****  */
 395:c:/Users/lenovo/Desktop/AIoT/first_day/firstday_afternoon/LiteOS_Lab_STM32_IoT/iot_link/network/dtls/mbedtls/mbedtls-2.16.2/include/mbedtls\cipher.h **** void mbedtls_cipher_free( mbedtls_cipher_context_t *ctx );
 396:c:/Users/lenovo/Desktop/AIoT/first_day/firstday_afternoon/LiteOS_Lab_STM32_IoT/iot_link/network/dtls/mbedtls/mbedtls-2.16.2/include/mbedtls\cipher.h **** 
 397:c:/Users/lenovo/Desktop/AIoT/first_day/firstday_afternoon/LiteOS_Lab_STM32_IoT/iot_link/network/dtls/mbedtls/mbedtls-2.16.2/include/mbedtls\cipher.h **** 
 398:c:/Users/lenovo/Desktop/AIoT/first_day/firstday_afternoon/LiteOS_Lab_STM32_IoT/iot_link/network/dtls/mbedtls/mbedtls-2.16.2/include/mbedtls\cipher.h **** /**
 399:c:/Users/lenovo/Desktop/AIoT/first_day/firstday_afternoon/LiteOS_Lab_STM32_IoT/iot_link/network/dtls/mbedtls/mbedtls-2.16.2/include/mbedtls\cipher.h ****  * \brief               This function initializes and fills the cipher-context
 400:c:/Users/lenovo/Desktop/AIoT/first_day/firstday_afternoon/LiteOS_Lab_STM32_IoT/iot_link/network/dtls/mbedtls/mbedtls-2.16.2/include/mbedtls\cipher.h ****  *                      structure with the appropriate values. It also clears
 401:c:/Users/lenovo/Desktop/AIoT/first_day/firstday_afternoon/LiteOS_Lab_STM32_IoT/iot_link/network/dtls/mbedtls/mbedtls-2.16.2/include/mbedtls\cipher.h ****  *                      the structure.
 402:c:/Users/lenovo/Desktop/AIoT/first_day/firstday_afternoon/LiteOS_Lab_STM32_IoT/iot_link/network/dtls/mbedtls/mbedtls-2.16.2/include/mbedtls\cipher.h ****  *
 403:c:/Users/lenovo/Desktop/AIoT/first_day/firstday_afternoon/LiteOS_Lab_STM32_IoT/iot_link/network/dtls/mbedtls/mbedtls-2.16.2/include/mbedtls\cipher.h ****  * \param ctx           The context to initialize. This must be initialized.
 404:c:/Users/lenovo/Desktop/AIoT/first_day/firstday_afternoon/LiteOS_Lab_STM32_IoT/iot_link/network/dtls/mbedtls/mbedtls-2.16.2/include/mbedtls\cipher.h ****  * \param cipher_info   The cipher to use.
 405:c:/Users/lenovo/Desktop/AIoT/first_day/firstday_afternoon/LiteOS_Lab_STM32_IoT/iot_link/network/dtls/mbedtls/mbedtls-2.16.2/include/mbedtls\cipher.h ****  *
 406:c:/Users/lenovo/Desktop/AIoT/first_day/firstday_afternoon/LiteOS_Lab_STM32_IoT/iot_link/network/dtls/mbedtls/mbedtls-2.16.2/include/mbedtls\cipher.h ****  * \return              \c 0 on success.
 407:c:/Users/lenovo/Desktop/AIoT/first_day/firstday_afternoon/LiteOS_Lab_STM32_IoT/iot_link/network/dtls/mbedtls/mbedtls-2.16.2/include/mbedtls\cipher.h ****  * \return              #MBEDTLS_ERR_CIPHER_BAD_INPUT_DATA on
 408:c:/Users/lenovo/Desktop/AIoT/first_day/firstday_afternoon/LiteOS_Lab_STM32_IoT/iot_link/network/dtls/mbedtls/mbedtls-2.16.2/include/mbedtls\cipher.h ****  *                      parameter-verification failure.
 409:c:/Users/lenovo/Desktop/AIoT/first_day/firstday_afternoon/LiteOS_Lab_STM32_IoT/iot_link/network/dtls/mbedtls/mbedtls-2.16.2/include/mbedtls\cipher.h ****  * \return              #MBEDTLS_ERR_CIPHER_ALLOC_FAILED if allocation of the
 410:c:/Users/lenovo/Desktop/AIoT/first_day/firstday_afternoon/LiteOS_Lab_STM32_IoT/iot_link/network/dtls/mbedtls/mbedtls-2.16.2/include/mbedtls\cipher.h ****  *                      cipher-specific context fails.
 411:c:/Users/lenovo/Desktop/AIoT/first_day/firstday_afternoon/LiteOS_Lab_STM32_IoT/iot_link/network/dtls/mbedtls/mbedtls-2.16.2/include/mbedtls\cipher.h ****  *
 412:c:/Users/lenovo/Desktop/AIoT/first_day/firstday_afternoon/LiteOS_Lab_STM32_IoT/iot_link/network/dtls/mbedtls/mbedtls-2.16.2/include/mbedtls\cipher.h ****  * \internal Currently, the function also clears the structure.
 413:c:/Users/lenovo/Desktop/AIoT/first_day/firstday_afternoon/LiteOS_Lab_STM32_IoT/iot_link/network/dtls/mbedtls/mbedtls-2.16.2/include/mbedtls\cipher.h ****  * In future versions, the caller will be required to call
 414:c:/Users/lenovo/Desktop/AIoT/first_day/firstday_afternoon/LiteOS_Lab_STM32_IoT/iot_link/network/dtls/mbedtls/mbedtls-2.16.2/include/mbedtls\cipher.h ****  * mbedtls_cipher_init() on the structure first.
 415:c:/Users/lenovo/Desktop/AIoT/first_day/firstday_afternoon/LiteOS_Lab_STM32_IoT/iot_link/network/dtls/mbedtls/mbedtls-2.16.2/include/mbedtls\cipher.h ****  */
 416:c:/Users/lenovo/Desktop/AIoT/first_day/firstday_afternoon/LiteOS_Lab_STM32_IoT/iot_link/network/dtls/mbedtls/mbedtls-2.16.2/include/mbedtls\cipher.h **** int mbedtls_cipher_setup( mbedtls_cipher_context_t *ctx,
 417:c:/Users/lenovo/Desktop/AIoT/first_day/firstday_afternoon/LiteOS_Lab_STM32_IoT/iot_link/network/dtls/mbedtls/mbedtls-2.16.2/include/mbedtls\cipher.h ****                           const mbedtls_cipher_info_t *cipher_info );
 418:c:/Users/lenovo/Desktop/AIoT/first_day/firstday_afternoon/LiteOS_Lab_STM32_IoT/iot_link/network/dtls/mbedtls/mbedtls-2.16.2/include/mbedtls\cipher.h **** 
 419:c:/Users/lenovo/Desktop/AIoT/first_day/firstday_afternoon/LiteOS_Lab_STM32_IoT/iot_link/network/dtls/mbedtls/mbedtls-2.16.2/include/mbedtls\cipher.h **** /**
 420:c:/Users/lenovo/Desktop/AIoT/first_day/firstday_afternoon/LiteOS_Lab_STM32_IoT/iot_link/network/dtls/mbedtls/mbedtls-2.16.2/include/mbedtls\cipher.h ****  * \brief        This function returns the block size of the given cipher.
 421:c:/Users/lenovo/Desktop/AIoT/first_day/firstday_afternoon/LiteOS_Lab_STM32_IoT/iot_link/network/dtls/mbedtls/mbedtls-2.16.2/include/mbedtls\cipher.h ****  *
 422:c:/Users/lenovo/Desktop/AIoT/first_day/firstday_afternoon/LiteOS_Lab_STM32_IoT/iot_link/network/dtls/mbedtls/mbedtls-2.16.2/include/mbedtls\cipher.h ****  * \param ctx    The context of the cipher. This must be initialized.
 423:c:/Users/lenovo/Desktop/AIoT/first_day/firstday_afternoon/LiteOS_Lab_STM32_IoT/iot_link/network/dtls/mbedtls/mbedtls-2.16.2/include/mbedtls\cipher.h ****  *
 424:c:/Users/lenovo/Desktop/AIoT/first_day/firstday_afternoon/LiteOS_Lab_STM32_IoT/iot_link/network/dtls/mbedtls/mbedtls-2.16.2/include/mbedtls\cipher.h ****  * \return       The block size of the underlying cipher.
 425:c:/Users/lenovo/Desktop/AIoT/first_day/firstday_afternoon/LiteOS_Lab_STM32_IoT/iot_link/network/dtls/mbedtls/mbedtls-2.16.2/include/mbedtls\cipher.h ****  * \return       \c 0 if \p ctx has not been initialized.
 426:c:/Users/lenovo/Desktop/AIoT/first_day/firstday_afternoon/LiteOS_Lab_STM32_IoT/iot_link/network/dtls/mbedtls/mbedtls-2.16.2/include/mbedtls\cipher.h ****  */
 427:c:/Users/lenovo/Desktop/AIoT/first_day/firstday_afternoon/LiteOS_Lab_STM32_IoT/iot_link/network/dtls/mbedtls/mbedtls-2.16.2/include/mbedtls\cipher.h **** static inline unsigned int mbedtls_cipher_get_block_size(
 428:c:/Users/lenovo/Desktop/AIoT/first_day/firstday_afternoon/LiteOS_Lab_STM32_IoT/iot_link/network/dtls/mbedtls/mbedtls-2.16.2/include/mbedtls\cipher.h ****     const mbedtls_cipher_context_t *ctx )
 429:c:/Users/lenovo/Desktop/AIoT/first_day/firstday_afternoon/LiteOS_Lab_STM32_IoT/iot_link/network/dtls/mbedtls/mbedtls-2.16.2/include/mbedtls\cipher.h **** {
  28              		.loc 1 429 1
ARM GAS  C:\Users\lenovo\AppData\Local\Temp\ccSXL9zI.s 			page 9


  29              		.cfi_startproc
  30              		@ args = 0, pretend = 0, frame = 8
  31              		@ frame_needed = 1, uses_anonymous_args = 0
  32              		@ link register save eliminated.
  33 0000 80B4     		push	{r7}
  34              	.LCFI0:
  35              		.cfi_def_cfa_offset 4
  36              		.cfi_offset 7, -4
  37 0002 83B0     		sub	sp, sp, #12
  38              	.LCFI1:
  39              		.cfi_def_cfa_offset 16
  40 0004 00AF     		add	r7, sp, #0
  41              	.LCFI2:
  42              		.cfi_def_cfa_register 7
  43 0006 7860     		str	r0, [r7, #4]
 430:c:/Users/lenovo/Desktop/AIoT/first_day/firstday_afternoon/LiteOS_Lab_STM32_IoT/iot_link/network/dtls/mbedtls/mbedtls-2.16.2/include/mbedtls\cipher.h ****     MBEDTLS_INTERNAL_VALIDATE_RET( ctx != NULL, 0 );
 431:c:/Users/lenovo/Desktop/AIoT/first_day/firstday_afternoon/LiteOS_Lab_STM32_IoT/iot_link/network/dtls/mbedtls/mbedtls-2.16.2/include/mbedtls\cipher.h ****     if( ctx->cipher_info == NULL )
  44              		.loc 1 431 12
  45 0008 7B68     		ldr	r3, [r7, #4]
  46 000a 1B68     		ldr	r3, [r3]
  47              		.loc 1 431 7
  48 000c 002B     		cmp	r3, #0
  49 000e 01D1     		bne	.L2
 432:c:/Users/lenovo/Desktop/AIoT/first_day/firstday_afternoon/LiteOS_Lab_STM32_IoT/iot_link/network/dtls/mbedtls/mbedtls-2.16.2/include/mbedtls\cipher.h ****         return 0;
  50              		.loc 1 432 16
  51 0010 0023     		movs	r3, #0
  52 0012 02E0     		b	.L3
  53              	.L2:
 433:c:/Users/lenovo/Desktop/AIoT/first_day/firstday_afternoon/LiteOS_Lab_STM32_IoT/iot_link/network/dtls/mbedtls/mbedtls-2.16.2/include/mbedtls\cipher.h **** 
 434:c:/Users/lenovo/Desktop/AIoT/first_day/firstday_afternoon/LiteOS_Lab_STM32_IoT/iot_link/network/dtls/mbedtls/mbedtls-2.16.2/include/mbedtls\cipher.h ****     return ctx->cipher_info->block_size;
  54              		.loc 1 434 15
  55 0014 7B68     		ldr	r3, [r7, #4]
  56 0016 1B68     		ldr	r3, [r3]
  57              		.loc 1 434 28
  58 0018 5B69     		ldr	r3, [r3, #20]
  59              	.L3:
 435:c:/Users/lenovo/Desktop/AIoT/first_day/firstday_afternoon/LiteOS_Lab_STM32_IoT/iot_link/network/dtls/mbedtls/mbedtls-2.16.2/include/mbedtls\cipher.h **** }
  60              		.loc 1 435 1
  61 001a 1846     		mov	r0, r3
  62 001c 0C37     		adds	r7, r7, #12
  63              	.LCFI3:
  64              		.cfi_def_cfa_offset 4
  65 001e BD46     		mov	sp, r7
  66              	.LCFI4:
  67              		.cfi_def_cfa_register 13
  68              		@ sp needed
  69 0020 5DF8047B 		ldr	r7, [sp], #4
  70              	.LCFI5:
  71              		.cfi_restore 7
  72              		.cfi_def_cfa_offset 0
  73 0024 7047     		bx	lr
  74              		.cfi_endproc
  75              	.LFE0:
  77              		.section	.text.mbedtls_cipher_get_iv_size,"ax",%progbits
  78              		.align	1
  79              		.syntax unified
  80              		.thumb
ARM GAS  C:\Users\lenovo\AppData\Local\Temp\ccSXL9zI.s 			page 10


  81              		.thumb_func
  82              		.fpu fpv4-sp-d16
  84              	mbedtls_cipher_get_iv_size:
  85              	.LFB2:
 436:c:/Users/lenovo/Desktop/AIoT/first_day/firstday_afternoon/LiteOS_Lab_STM32_IoT/iot_link/network/dtls/mbedtls/mbedtls-2.16.2/include/mbedtls\cipher.h **** 
 437:c:/Users/lenovo/Desktop/AIoT/first_day/firstday_afternoon/LiteOS_Lab_STM32_IoT/iot_link/network/dtls/mbedtls/mbedtls-2.16.2/include/mbedtls\cipher.h **** /**
 438:c:/Users/lenovo/Desktop/AIoT/first_day/firstday_afternoon/LiteOS_Lab_STM32_IoT/iot_link/network/dtls/mbedtls/mbedtls-2.16.2/include/mbedtls\cipher.h ****  * \brief        This function returns the mode of operation for
 439:c:/Users/lenovo/Desktop/AIoT/first_day/firstday_afternoon/LiteOS_Lab_STM32_IoT/iot_link/network/dtls/mbedtls/mbedtls-2.16.2/include/mbedtls\cipher.h ****  *               the cipher. For example, MBEDTLS_MODE_CBC.
 440:c:/Users/lenovo/Desktop/AIoT/first_day/firstday_afternoon/LiteOS_Lab_STM32_IoT/iot_link/network/dtls/mbedtls/mbedtls-2.16.2/include/mbedtls\cipher.h ****  *
 441:c:/Users/lenovo/Desktop/AIoT/first_day/firstday_afternoon/LiteOS_Lab_STM32_IoT/iot_link/network/dtls/mbedtls/mbedtls-2.16.2/include/mbedtls\cipher.h ****  * \param ctx    The context of the cipher. This must be initialized.
 442:c:/Users/lenovo/Desktop/AIoT/first_day/firstday_afternoon/LiteOS_Lab_STM32_IoT/iot_link/network/dtls/mbedtls/mbedtls-2.16.2/include/mbedtls\cipher.h ****  *
 443:c:/Users/lenovo/Desktop/AIoT/first_day/firstday_afternoon/LiteOS_Lab_STM32_IoT/iot_link/network/dtls/mbedtls/mbedtls-2.16.2/include/mbedtls\cipher.h ****  * \return       The mode of operation.
 444:c:/Users/lenovo/Desktop/AIoT/first_day/firstday_afternoon/LiteOS_Lab_STM32_IoT/iot_link/network/dtls/mbedtls/mbedtls-2.16.2/include/mbedtls\cipher.h ****  * \return       #MBEDTLS_MODE_NONE if \p ctx has not been initialized.
 445:c:/Users/lenovo/Desktop/AIoT/first_day/firstday_afternoon/LiteOS_Lab_STM32_IoT/iot_link/network/dtls/mbedtls/mbedtls-2.16.2/include/mbedtls\cipher.h ****  */
 446:c:/Users/lenovo/Desktop/AIoT/first_day/firstday_afternoon/LiteOS_Lab_STM32_IoT/iot_link/network/dtls/mbedtls/mbedtls-2.16.2/include/mbedtls\cipher.h **** static inline mbedtls_cipher_mode_t mbedtls_cipher_get_cipher_mode(
 447:c:/Users/lenovo/Desktop/AIoT/first_day/firstday_afternoon/LiteOS_Lab_STM32_IoT/iot_link/network/dtls/mbedtls/mbedtls-2.16.2/include/mbedtls\cipher.h ****     const mbedtls_cipher_context_t *ctx )
 448:c:/Users/lenovo/Desktop/AIoT/first_day/firstday_afternoon/LiteOS_Lab_STM32_IoT/iot_link/network/dtls/mbedtls/mbedtls-2.16.2/include/mbedtls\cipher.h **** {
 449:c:/Users/lenovo/Desktop/AIoT/first_day/firstday_afternoon/LiteOS_Lab_STM32_IoT/iot_link/network/dtls/mbedtls/mbedtls-2.16.2/include/mbedtls\cipher.h ****     MBEDTLS_INTERNAL_VALIDATE_RET( ctx != NULL, MBEDTLS_MODE_NONE );
 450:c:/Users/lenovo/Desktop/AIoT/first_day/firstday_afternoon/LiteOS_Lab_STM32_IoT/iot_link/network/dtls/mbedtls/mbedtls-2.16.2/include/mbedtls\cipher.h ****     if( ctx->cipher_info == NULL )
 451:c:/Users/lenovo/Desktop/AIoT/first_day/firstday_afternoon/LiteOS_Lab_STM32_IoT/iot_link/network/dtls/mbedtls/mbedtls-2.16.2/include/mbedtls\cipher.h ****         return MBEDTLS_MODE_NONE;
 452:c:/Users/lenovo/Desktop/AIoT/first_day/firstday_afternoon/LiteOS_Lab_STM32_IoT/iot_link/network/dtls/mbedtls/mbedtls-2.16.2/include/mbedtls\cipher.h **** 
 453:c:/Users/lenovo/Desktop/AIoT/first_day/firstday_afternoon/LiteOS_Lab_STM32_IoT/iot_link/network/dtls/mbedtls/mbedtls-2.16.2/include/mbedtls\cipher.h ****     return ctx->cipher_info->mode;
 454:c:/Users/lenovo/Desktop/AIoT/first_day/firstday_afternoon/LiteOS_Lab_STM32_IoT/iot_link/network/dtls/mbedtls/mbedtls-2.16.2/include/mbedtls\cipher.h **** }
 455:c:/Users/lenovo/Desktop/AIoT/first_day/firstday_afternoon/LiteOS_Lab_STM32_IoT/iot_link/network/dtls/mbedtls/mbedtls-2.16.2/include/mbedtls\cipher.h **** 
 456:c:/Users/lenovo/Desktop/AIoT/first_day/firstday_afternoon/LiteOS_Lab_STM32_IoT/iot_link/network/dtls/mbedtls/mbedtls-2.16.2/include/mbedtls\cipher.h **** /**
 457:c:/Users/lenovo/Desktop/AIoT/first_day/firstday_afternoon/LiteOS_Lab_STM32_IoT/iot_link/network/dtls/mbedtls/mbedtls-2.16.2/include/mbedtls\cipher.h ****  * \brief       This function returns the size of the IV or nonce
 458:c:/Users/lenovo/Desktop/AIoT/first_day/firstday_afternoon/LiteOS_Lab_STM32_IoT/iot_link/network/dtls/mbedtls/mbedtls-2.16.2/include/mbedtls\cipher.h ****  *              of the cipher, in Bytes.
 459:c:/Users/lenovo/Desktop/AIoT/first_day/firstday_afternoon/LiteOS_Lab_STM32_IoT/iot_link/network/dtls/mbedtls/mbedtls-2.16.2/include/mbedtls\cipher.h ****  *
 460:c:/Users/lenovo/Desktop/AIoT/first_day/firstday_afternoon/LiteOS_Lab_STM32_IoT/iot_link/network/dtls/mbedtls/mbedtls-2.16.2/include/mbedtls\cipher.h ****  * \param ctx   The context of the cipher. This must be initialized.
 461:c:/Users/lenovo/Desktop/AIoT/first_day/firstday_afternoon/LiteOS_Lab_STM32_IoT/iot_link/network/dtls/mbedtls/mbedtls-2.16.2/include/mbedtls\cipher.h ****  *
 462:c:/Users/lenovo/Desktop/AIoT/first_day/firstday_afternoon/LiteOS_Lab_STM32_IoT/iot_link/network/dtls/mbedtls/mbedtls-2.16.2/include/mbedtls\cipher.h ****  * \return      The recommended IV size if no IV has been set.
 463:c:/Users/lenovo/Desktop/AIoT/first_day/firstday_afternoon/LiteOS_Lab_STM32_IoT/iot_link/network/dtls/mbedtls/mbedtls-2.16.2/include/mbedtls\cipher.h ****  * \return      \c 0 for ciphers not using an IV or a nonce.
 464:c:/Users/lenovo/Desktop/AIoT/first_day/firstday_afternoon/LiteOS_Lab_STM32_IoT/iot_link/network/dtls/mbedtls/mbedtls-2.16.2/include/mbedtls\cipher.h ****  * \return      The actual size if an IV has been set.
 465:c:/Users/lenovo/Desktop/AIoT/first_day/firstday_afternoon/LiteOS_Lab_STM32_IoT/iot_link/network/dtls/mbedtls/mbedtls-2.16.2/include/mbedtls\cipher.h ****  */
 466:c:/Users/lenovo/Desktop/AIoT/first_day/firstday_afternoon/LiteOS_Lab_STM32_IoT/iot_link/network/dtls/mbedtls/mbedtls-2.16.2/include/mbedtls\cipher.h **** static inline int mbedtls_cipher_get_iv_size(
 467:c:/Users/lenovo/Desktop/AIoT/first_day/firstday_afternoon/LiteOS_Lab_STM32_IoT/iot_link/network/dtls/mbedtls/mbedtls-2.16.2/include/mbedtls\cipher.h ****     const mbedtls_cipher_context_t *ctx )
 468:c:/Users/lenovo/Desktop/AIoT/first_day/firstday_afternoon/LiteOS_Lab_STM32_IoT/iot_link/network/dtls/mbedtls/mbedtls-2.16.2/include/mbedtls\cipher.h **** {
  86              		.loc 1 468 1
  87              		.cfi_startproc
  88              		@ args = 0, pretend = 0, frame = 8
  89              		@ frame_needed = 1, uses_anonymous_args = 0
  90              		@ link register save eliminated.
  91 0000 80B4     		push	{r7}
  92              	.LCFI6:
  93              		.cfi_def_cfa_offset 4
  94              		.cfi_offset 7, -4
  95 0002 83B0     		sub	sp, sp, #12
  96              	.LCFI7:
  97              		.cfi_def_cfa_offset 16
  98 0004 00AF     		add	r7, sp, #0
  99              	.LCFI8:
 100              		.cfi_def_cfa_register 7
 101 0006 7860     		str	r0, [r7, #4]
 469:c:/Users/lenovo/Desktop/AIoT/first_day/firstday_afternoon/LiteOS_Lab_STM32_IoT/iot_link/network/dtls/mbedtls/mbedtls-2.16.2/include/mbedtls\cipher.h ****     MBEDTLS_INTERNAL_VALIDATE_RET( ctx != NULL, 0 );
 470:c:/Users/lenovo/Desktop/AIoT/first_day/firstday_afternoon/LiteOS_Lab_STM32_IoT/iot_link/network/dtls/mbedtls/mbedtls-2.16.2/include/mbedtls\cipher.h ****     if( ctx->cipher_info == NULL )
 102              		.loc 1 470 12
 103 0008 7B68     		ldr	r3, [r7, #4]
ARM GAS  C:\Users\lenovo\AppData\Local\Temp\ccSXL9zI.s 			page 11


 104 000a 1B68     		ldr	r3, [r3]
 105              		.loc 1 470 7
 106 000c 002B     		cmp	r3, #0
 107 000e 01D1     		bne	.L5
 471:c:/Users/lenovo/Desktop/AIoT/first_day/firstday_afternoon/LiteOS_Lab_STM32_IoT/iot_link/network/dtls/mbedtls/mbedtls-2.16.2/include/mbedtls\cipher.h ****         return 0;
 108              		.loc 1 471 16
 109 0010 0023     		movs	r3, #0
 110 0012 09E0     		b	.L6
 111              	.L5:
 472:c:/Users/lenovo/Desktop/AIoT/first_day/firstday_afternoon/LiteOS_Lab_STM32_IoT/iot_link/network/dtls/mbedtls/mbedtls-2.16.2/include/mbedtls\cipher.h **** 
 473:c:/Users/lenovo/Desktop/AIoT/first_day/firstday_afternoon/LiteOS_Lab_STM32_IoT/iot_link/network/dtls/mbedtls/mbedtls-2.16.2/include/mbedtls\cipher.h ****     if( ctx->iv_size != 0 )
 112              		.loc 1 473 12
 113 0014 7B68     		ldr	r3, [r7, #4]
 114 0016 9B6B     		ldr	r3, [r3, #56]
 115              		.loc 1 473 7
 116 0018 002B     		cmp	r3, #0
 117 001a 02D0     		beq	.L7
 474:c:/Users/lenovo/Desktop/AIoT/first_day/firstday_afternoon/LiteOS_Lab_STM32_IoT/iot_link/network/dtls/mbedtls/mbedtls-2.16.2/include/mbedtls\cipher.h ****         return (int) ctx->iv_size;
 118              		.loc 1 474 25
 119 001c 7B68     		ldr	r3, [r7, #4]
 120 001e 9B6B     		ldr	r3, [r3, #56]
 121              		.loc 1 474 16
 122 0020 02E0     		b	.L6
 123              	.L7:
 475:c:/Users/lenovo/Desktop/AIoT/first_day/firstday_afternoon/LiteOS_Lab_STM32_IoT/iot_link/network/dtls/mbedtls/mbedtls-2.16.2/include/mbedtls\cipher.h **** 
 476:c:/Users/lenovo/Desktop/AIoT/first_day/firstday_afternoon/LiteOS_Lab_STM32_IoT/iot_link/network/dtls/mbedtls/mbedtls-2.16.2/include/mbedtls\cipher.h ****     return (int) ctx->cipher_info->iv_size;
 124              		.loc 1 476 21
 125 0022 7B68     		ldr	r3, [r7, #4]
 126 0024 1B68     		ldr	r3, [r3]
 127              		.loc 1 476 34
 128 0026 DB68     		ldr	r3, [r3, #12]
 129              	.L6:
 477:c:/Users/lenovo/Desktop/AIoT/first_day/firstday_afternoon/LiteOS_Lab_STM32_IoT/iot_link/network/dtls/mbedtls/mbedtls-2.16.2/include/mbedtls\cipher.h **** }
 130              		.loc 1 477 1
 131 0028 1846     		mov	r0, r3
 132 002a 0C37     		adds	r7, r7, #12
 133              	.LCFI9:
 134              		.cfi_def_cfa_offset 4
 135 002c BD46     		mov	sp, r7
 136              	.LCFI10:
 137              		.cfi_def_cfa_register 13
 138              		@ sp needed
 139 002e 5DF8047B 		ldr	r7, [sp], #4
 140              	.LCFI11:
 141              		.cfi_restore 7
 142              		.cfi_def_cfa_offset 0
 143 0032 7047     		bx	lr
 144              		.cfi_endproc
 145              	.LFE2:
 147              		.section	.bss.supported_init,"aw",%nobits
 148              		.align	2
 151              	supported_init:
 152 0000 00000000 		.space	4
 153              		.section	.text.mbedtls_cipher_list,"ax",%progbits
 154              		.align	1
 155              		.global	mbedtls_cipher_list
 156              		.syntax unified
ARM GAS  C:\Users\lenovo\AppData\Local\Temp\ccSXL9zI.s 			page 12


 157              		.thumb
 158              		.thumb_func
 159              		.fpu fpv4-sp-d16
 161              	mbedtls_cipher_list:
 162              	.LFB10:
 163              		.file 2 "c:/Users/lenovo/Desktop/AIoT/first_day/firstday_afternoon/LiteOS_Lab_STM32_IoT/iot_link/n
   1:c:/Users/lenovo/Desktop/AIoT/first_day/firstday_afternoon/LiteOS_Lab_STM32_IoT/iot_link/network/dtls/mbedtls/mbedtls-2.16.2/library\cipher.c **** /**
   2:c:/Users/lenovo/Desktop/AIoT/first_day/firstday_afternoon/LiteOS_Lab_STM32_IoT/iot_link/network/dtls/mbedtls/mbedtls-2.16.2/library\cipher.c ****  * \file cipher.c
   3:c:/Users/lenovo/Desktop/AIoT/first_day/firstday_afternoon/LiteOS_Lab_STM32_IoT/iot_link/network/dtls/mbedtls/mbedtls-2.16.2/library\cipher.c ****  *
   4:c:/Users/lenovo/Desktop/AIoT/first_day/firstday_afternoon/LiteOS_Lab_STM32_IoT/iot_link/network/dtls/mbedtls/mbedtls-2.16.2/library\cipher.c ****  * \brief Generic cipher wrapper for mbed TLS
   5:c:/Users/lenovo/Desktop/AIoT/first_day/firstday_afternoon/LiteOS_Lab_STM32_IoT/iot_link/network/dtls/mbedtls/mbedtls-2.16.2/library\cipher.c ****  *
   6:c:/Users/lenovo/Desktop/AIoT/first_day/firstday_afternoon/LiteOS_Lab_STM32_IoT/iot_link/network/dtls/mbedtls/mbedtls-2.16.2/library\cipher.c ****  * \author Adriaan de Jong <dejong@fox-it.com>
   7:c:/Users/lenovo/Desktop/AIoT/first_day/firstday_afternoon/LiteOS_Lab_STM32_IoT/iot_link/network/dtls/mbedtls/mbedtls-2.16.2/library\cipher.c ****  *
   8:c:/Users/lenovo/Desktop/AIoT/first_day/firstday_afternoon/LiteOS_Lab_STM32_IoT/iot_link/network/dtls/mbedtls/mbedtls-2.16.2/library\cipher.c ****  *  Copyright (C) 2006-2015, ARM Limited, All Rights Reserved
   9:c:/Users/lenovo/Desktop/AIoT/first_day/firstday_afternoon/LiteOS_Lab_STM32_IoT/iot_link/network/dtls/mbedtls/mbedtls-2.16.2/library\cipher.c ****  *  SPDX-License-Identifier: Apache-2.0
  10:c:/Users/lenovo/Desktop/AIoT/first_day/firstday_afternoon/LiteOS_Lab_STM32_IoT/iot_link/network/dtls/mbedtls/mbedtls-2.16.2/library\cipher.c ****  *
  11:c:/Users/lenovo/Desktop/AIoT/first_day/firstday_afternoon/LiteOS_Lab_STM32_IoT/iot_link/network/dtls/mbedtls/mbedtls-2.16.2/library\cipher.c ****  *  Licensed under the Apache License, Version 2.0 (the "License"); you may
  12:c:/Users/lenovo/Desktop/AIoT/first_day/firstday_afternoon/LiteOS_Lab_STM32_IoT/iot_link/network/dtls/mbedtls/mbedtls-2.16.2/library\cipher.c ****  *  not use this file except in compliance with the License.
  13:c:/Users/lenovo/Desktop/AIoT/first_day/firstday_afternoon/LiteOS_Lab_STM32_IoT/iot_link/network/dtls/mbedtls/mbedtls-2.16.2/library\cipher.c ****  *  You may obtain a copy of the License at
  14:c:/Users/lenovo/Desktop/AIoT/first_day/firstday_afternoon/LiteOS_Lab_STM32_IoT/iot_link/network/dtls/mbedtls/mbedtls-2.16.2/library\cipher.c ****  *
  15:c:/Users/lenovo/Desktop/AIoT/first_day/firstday_afternoon/LiteOS_Lab_STM32_IoT/iot_link/network/dtls/mbedtls/mbedtls-2.16.2/library\cipher.c ****  *  http://www.apache.org/licenses/LICENSE-2.0
  16:c:/Users/lenovo/Desktop/AIoT/first_day/firstday_afternoon/LiteOS_Lab_STM32_IoT/iot_link/network/dtls/mbedtls/mbedtls-2.16.2/library\cipher.c ****  *
  17:c:/Users/lenovo/Desktop/AIoT/first_day/firstday_afternoon/LiteOS_Lab_STM32_IoT/iot_link/network/dtls/mbedtls/mbedtls-2.16.2/library\cipher.c ****  *  Unless required by applicable law or agreed to in writing, software
  18:c:/Users/lenovo/Desktop/AIoT/first_day/firstday_afternoon/LiteOS_Lab_STM32_IoT/iot_link/network/dtls/mbedtls/mbedtls-2.16.2/library\cipher.c ****  *  distributed under the License is distributed on an "AS IS" BASIS, WITHOUT
  19:c:/Users/lenovo/Desktop/AIoT/first_day/firstday_afternoon/LiteOS_Lab_STM32_IoT/iot_link/network/dtls/mbedtls/mbedtls-2.16.2/library\cipher.c ****  *  WARRANTIES OR CONDITIONS OF ANY KIND, either express or implied.
  20:c:/Users/lenovo/Desktop/AIoT/first_day/firstday_afternoon/LiteOS_Lab_STM32_IoT/iot_link/network/dtls/mbedtls/mbedtls-2.16.2/library\cipher.c ****  *  See the License for the specific language governing permissions and
  21:c:/Users/lenovo/Desktop/AIoT/first_day/firstday_afternoon/LiteOS_Lab_STM32_IoT/iot_link/network/dtls/mbedtls/mbedtls-2.16.2/library\cipher.c ****  *  limitations under the License.
  22:c:/Users/lenovo/Desktop/AIoT/first_day/firstday_afternoon/LiteOS_Lab_STM32_IoT/iot_link/network/dtls/mbedtls/mbedtls-2.16.2/library\cipher.c ****  *
  23:c:/Users/lenovo/Desktop/AIoT/first_day/firstday_afternoon/LiteOS_Lab_STM32_IoT/iot_link/network/dtls/mbedtls/mbedtls-2.16.2/library\cipher.c ****  *  This file is part of mbed TLS (https://tls.mbed.org)
  24:c:/Users/lenovo/Desktop/AIoT/first_day/firstday_afternoon/LiteOS_Lab_STM32_IoT/iot_link/network/dtls/mbedtls/mbedtls-2.16.2/library\cipher.c ****  */
  25:c:/Users/lenovo/Desktop/AIoT/first_day/firstday_afternoon/LiteOS_Lab_STM32_IoT/iot_link/network/dtls/mbedtls/mbedtls-2.16.2/library\cipher.c **** 
  26:c:/Users/lenovo/Desktop/AIoT/first_day/firstday_afternoon/LiteOS_Lab_STM32_IoT/iot_link/network/dtls/mbedtls/mbedtls-2.16.2/library\cipher.c **** #if !defined(MBEDTLS_CONFIG_FILE)
  27:c:/Users/lenovo/Desktop/AIoT/first_day/firstday_afternoon/LiteOS_Lab_STM32_IoT/iot_link/network/dtls/mbedtls/mbedtls-2.16.2/library\cipher.c **** #include "mbedtls/config.h"
  28:c:/Users/lenovo/Desktop/AIoT/first_day/firstday_afternoon/LiteOS_Lab_STM32_IoT/iot_link/network/dtls/mbedtls/mbedtls-2.16.2/library\cipher.c **** #else
  29:c:/Users/lenovo/Desktop/AIoT/first_day/firstday_afternoon/LiteOS_Lab_STM32_IoT/iot_link/network/dtls/mbedtls/mbedtls-2.16.2/library\cipher.c **** #include MBEDTLS_CONFIG_FILE
  30:c:/Users/lenovo/Desktop/AIoT/first_day/firstday_afternoon/LiteOS_Lab_STM32_IoT/iot_link/network/dtls/mbedtls/mbedtls-2.16.2/library\cipher.c **** #endif
  31:c:/Users/lenovo/Desktop/AIoT/first_day/firstday_afternoon/LiteOS_Lab_STM32_IoT/iot_link/network/dtls/mbedtls/mbedtls-2.16.2/library\cipher.c **** 
  32:c:/Users/lenovo/Desktop/AIoT/first_day/firstday_afternoon/LiteOS_Lab_STM32_IoT/iot_link/network/dtls/mbedtls/mbedtls-2.16.2/library\cipher.c **** #if defined(MBEDTLS_CIPHER_C)
  33:c:/Users/lenovo/Desktop/AIoT/first_day/firstday_afternoon/LiteOS_Lab_STM32_IoT/iot_link/network/dtls/mbedtls/mbedtls-2.16.2/library\cipher.c **** 
  34:c:/Users/lenovo/Desktop/AIoT/first_day/firstday_afternoon/LiteOS_Lab_STM32_IoT/iot_link/network/dtls/mbedtls/mbedtls-2.16.2/library\cipher.c **** #include "mbedtls/cipher.h"
  35:c:/Users/lenovo/Desktop/AIoT/first_day/firstday_afternoon/LiteOS_Lab_STM32_IoT/iot_link/network/dtls/mbedtls/mbedtls-2.16.2/library\cipher.c **** #include "mbedtls/cipher_internal.h"
  36:c:/Users/lenovo/Desktop/AIoT/first_day/firstday_afternoon/LiteOS_Lab_STM32_IoT/iot_link/network/dtls/mbedtls/mbedtls-2.16.2/library\cipher.c **** #include "mbedtls/platform_util.h"
  37:c:/Users/lenovo/Desktop/AIoT/first_day/firstday_afternoon/LiteOS_Lab_STM32_IoT/iot_link/network/dtls/mbedtls/mbedtls-2.16.2/library\cipher.c **** 
  38:c:/Users/lenovo/Desktop/AIoT/first_day/firstday_afternoon/LiteOS_Lab_STM32_IoT/iot_link/network/dtls/mbedtls/mbedtls-2.16.2/library\cipher.c **** #include <stdlib.h>
  39:c:/Users/lenovo/Desktop/AIoT/first_day/firstday_afternoon/LiteOS_Lab_STM32_IoT/iot_link/network/dtls/mbedtls/mbedtls-2.16.2/library\cipher.c **** #include <string.h>
  40:c:/Users/lenovo/Desktop/AIoT/first_day/firstday_afternoon/LiteOS_Lab_STM32_IoT/iot_link/network/dtls/mbedtls/mbedtls-2.16.2/library\cipher.c **** 
  41:c:/Users/lenovo/Desktop/AIoT/first_day/firstday_afternoon/LiteOS_Lab_STM32_IoT/iot_link/network/dtls/mbedtls/mbedtls-2.16.2/library\cipher.c **** #if defined(MBEDTLS_CHACHAPOLY_C)
  42:c:/Users/lenovo/Desktop/AIoT/first_day/firstday_afternoon/LiteOS_Lab_STM32_IoT/iot_link/network/dtls/mbedtls/mbedtls-2.16.2/library\cipher.c **** #include "mbedtls/chachapoly.h"
  43:c:/Users/lenovo/Desktop/AIoT/first_day/firstday_afternoon/LiteOS_Lab_STM32_IoT/iot_link/network/dtls/mbedtls/mbedtls-2.16.2/library\cipher.c **** #endif
  44:c:/Users/lenovo/Desktop/AIoT/first_day/firstday_afternoon/LiteOS_Lab_STM32_IoT/iot_link/network/dtls/mbedtls/mbedtls-2.16.2/library\cipher.c **** 
  45:c:/Users/lenovo/Desktop/AIoT/first_day/firstday_afternoon/LiteOS_Lab_STM32_IoT/iot_link/network/dtls/mbedtls/mbedtls-2.16.2/library\cipher.c **** #if defined(MBEDTLS_GCM_C)
  46:c:/Users/lenovo/Desktop/AIoT/first_day/firstday_afternoon/LiteOS_Lab_STM32_IoT/iot_link/network/dtls/mbedtls/mbedtls-2.16.2/library\cipher.c **** #include "mbedtls/gcm.h"
  47:c:/Users/lenovo/Desktop/AIoT/first_day/firstday_afternoon/LiteOS_Lab_STM32_IoT/iot_link/network/dtls/mbedtls/mbedtls-2.16.2/library\cipher.c **** #endif
  48:c:/Users/lenovo/Desktop/AIoT/first_day/firstday_afternoon/LiteOS_Lab_STM32_IoT/iot_link/network/dtls/mbedtls/mbedtls-2.16.2/library\cipher.c **** 
  49:c:/Users/lenovo/Desktop/AIoT/first_day/firstday_afternoon/LiteOS_Lab_STM32_IoT/iot_link/network/dtls/mbedtls/mbedtls-2.16.2/library\cipher.c **** #if defined(MBEDTLS_CCM_C)
  50:c:/Users/lenovo/Desktop/AIoT/first_day/firstday_afternoon/LiteOS_Lab_STM32_IoT/iot_link/network/dtls/mbedtls/mbedtls-2.16.2/library\cipher.c **** #include "mbedtls/ccm.h"
  51:c:/Users/lenovo/Desktop/AIoT/first_day/firstday_afternoon/LiteOS_Lab_STM32_IoT/iot_link/network/dtls/mbedtls/mbedtls-2.16.2/library\cipher.c **** #endif
ARM GAS  C:\Users\lenovo\AppData\Local\Temp\ccSXL9zI.s 			page 13


  52:c:/Users/lenovo/Desktop/AIoT/first_day/firstday_afternoon/LiteOS_Lab_STM32_IoT/iot_link/network/dtls/mbedtls/mbedtls-2.16.2/library\cipher.c **** 
  53:c:/Users/lenovo/Desktop/AIoT/first_day/firstday_afternoon/LiteOS_Lab_STM32_IoT/iot_link/network/dtls/mbedtls/mbedtls-2.16.2/library\cipher.c **** #if defined(MBEDTLS_CHACHA20_C)
  54:c:/Users/lenovo/Desktop/AIoT/first_day/firstday_afternoon/LiteOS_Lab_STM32_IoT/iot_link/network/dtls/mbedtls/mbedtls-2.16.2/library\cipher.c **** #include "mbedtls/chacha20.h"
  55:c:/Users/lenovo/Desktop/AIoT/first_day/firstday_afternoon/LiteOS_Lab_STM32_IoT/iot_link/network/dtls/mbedtls/mbedtls-2.16.2/library\cipher.c **** #endif
  56:c:/Users/lenovo/Desktop/AIoT/first_day/firstday_afternoon/LiteOS_Lab_STM32_IoT/iot_link/network/dtls/mbedtls/mbedtls-2.16.2/library\cipher.c **** 
  57:c:/Users/lenovo/Desktop/AIoT/first_day/firstday_afternoon/LiteOS_Lab_STM32_IoT/iot_link/network/dtls/mbedtls/mbedtls-2.16.2/library\cipher.c **** #if defined(MBEDTLS_CMAC_C)
  58:c:/Users/lenovo/Desktop/AIoT/first_day/firstday_afternoon/LiteOS_Lab_STM32_IoT/iot_link/network/dtls/mbedtls/mbedtls-2.16.2/library\cipher.c **** #include "mbedtls/cmac.h"
  59:c:/Users/lenovo/Desktop/AIoT/first_day/firstday_afternoon/LiteOS_Lab_STM32_IoT/iot_link/network/dtls/mbedtls/mbedtls-2.16.2/library\cipher.c **** #endif
  60:c:/Users/lenovo/Desktop/AIoT/first_day/firstday_afternoon/LiteOS_Lab_STM32_IoT/iot_link/network/dtls/mbedtls/mbedtls-2.16.2/library\cipher.c **** 
  61:c:/Users/lenovo/Desktop/AIoT/first_day/firstday_afternoon/LiteOS_Lab_STM32_IoT/iot_link/network/dtls/mbedtls/mbedtls-2.16.2/library\cipher.c **** #if defined(MBEDTLS_PLATFORM_C)
  62:c:/Users/lenovo/Desktop/AIoT/first_day/firstday_afternoon/LiteOS_Lab_STM32_IoT/iot_link/network/dtls/mbedtls/mbedtls-2.16.2/library\cipher.c **** #include "mbedtls/platform.h"
  63:c:/Users/lenovo/Desktop/AIoT/first_day/firstday_afternoon/LiteOS_Lab_STM32_IoT/iot_link/network/dtls/mbedtls/mbedtls-2.16.2/library\cipher.c **** #else
  64:c:/Users/lenovo/Desktop/AIoT/first_day/firstday_afternoon/LiteOS_Lab_STM32_IoT/iot_link/network/dtls/mbedtls/mbedtls-2.16.2/library\cipher.c **** #define mbedtls_calloc calloc
  65:c:/Users/lenovo/Desktop/AIoT/first_day/firstday_afternoon/LiteOS_Lab_STM32_IoT/iot_link/network/dtls/mbedtls/mbedtls-2.16.2/library\cipher.c **** #define mbedtls_free   free
  66:c:/Users/lenovo/Desktop/AIoT/first_day/firstday_afternoon/LiteOS_Lab_STM32_IoT/iot_link/network/dtls/mbedtls/mbedtls-2.16.2/library\cipher.c **** #endif
  67:c:/Users/lenovo/Desktop/AIoT/first_day/firstday_afternoon/LiteOS_Lab_STM32_IoT/iot_link/network/dtls/mbedtls/mbedtls-2.16.2/library\cipher.c **** 
  68:c:/Users/lenovo/Desktop/AIoT/first_day/firstday_afternoon/LiteOS_Lab_STM32_IoT/iot_link/network/dtls/mbedtls/mbedtls-2.16.2/library\cipher.c **** #define CIPHER_VALIDATE_RET( cond )    \
  69:c:/Users/lenovo/Desktop/AIoT/first_day/firstday_afternoon/LiteOS_Lab_STM32_IoT/iot_link/network/dtls/mbedtls/mbedtls-2.16.2/library\cipher.c ****     MBEDTLS_INTERNAL_VALIDATE_RET( cond, MBEDTLS_ERR_CIPHER_BAD_INPUT_DATA )
  70:c:/Users/lenovo/Desktop/AIoT/first_day/firstday_afternoon/LiteOS_Lab_STM32_IoT/iot_link/network/dtls/mbedtls/mbedtls-2.16.2/library\cipher.c **** #define CIPHER_VALIDATE( cond )        \
  71:c:/Users/lenovo/Desktop/AIoT/first_day/firstday_afternoon/LiteOS_Lab_STM32_IoT/iot_link/network/dtls/mbedtls/mbedtls-2.16.2/library\cipher.c ****     MBEDTLS_INTERNAL_VALIDATE( cond )
  72:c:/Users/lenovo/Desktop/AIoT/first_day/firstday_afternoon/LiteOS_Lab_STM32_IoT/iot_link/network/dtls/mbedtls/mbedtls-2.16.2/library\cipher.c **** 
  73:c:/Users/lenovo/Desktop/AIoT/first_day/firstday_afternoon/LiteOS_Lab_STM32_IoT/iot_link/network/dtls/mbedtls/mbedtls-2.16.2/library\cipher.c **** #if defined(MBEDTLS_GCM_C) || defined(MBEDTLS_CHACHAPOLY_C)
  74:c:/Users/lenovo/Desktop/AIoT/first_day/firstday_afternoon/LiteOS_Lab_STM32_IoT/iot_link/network/dtls/mbedtls/mbedtls-2.16.2/library\cipher.c **** /* Compare the contents of two buffers in constant time.
  75:c:/Users/lenovo/Desktop/AIoT/first_day/firstday_afternoon/LiteOS_Lab_STM32_IoT/iot_link/network/dtls/mbedtls/mbedtls-2.16.2/library\cipher.c ****  * Returns 0 if the contents are bitwise identical, otherwise returns
  76:c:/Users/lenovo/Desktop/AIoT/first_day/firstday_afternoon/LiteOS_Lab_STM32_IoT/iot_link/network/dtls/mbedtls/mbedtls-2.16.2/library\cipher.c ****  * a non-zero value.
  77:c:/Users/lenovo/Desktop/AIoT/first_day/firstday_afternoon/LiteOS_Lab_STM32_IoT/iot_link/network/dtls/mbedtls/mbedtls-2.16.2/library\cipher.c ****  * This is currently only used by GCM and ChaCha20+Poly1305.
  78:c:/Users/lenovo/Desktop/AIoT/first_day/firstday_afternoon/LiteOS_Lab_STM32_IoT/iot_link/network/dtls/mbedtls/mbedtls-2.16.2/library\cipher.c ****  */
  79:c:/Users/lenovo/Desktop/AIoT/first_day/firstday_afternoon/LiteOS_Lab_STM32_IoT/iot_link/network/dtls/mbedtls/mbedtls-2.16.2/library\cipher.c **** static int mbedtls_constant_time_memcmp( const void *v1, const void *v2, size_t len )
  80:c:/Users/lenovo/Desktop/AIoT/first_day/firstday_afternoon/LiteOS_Lab_STM32_IoT/iot_link/network/dtls/mbedtls/mbedtls-2.16.2/library\cipher.c **** {
  81:c:/Users/lenovo/Desktop/AIoT/first_day/firstday_afternoon/LiteOS_Lab_STM32_IoT/iot_link/network/dtls/mbedtls/mbedtls-2.16.2/library\cipher.c ****     const unsigned char *p1 = (const unsigned char*) v1;
  82:c:/Users/lenovo/Desktop/AIoT/first_day/firstday_afternoon/LiteOS_Lab_STM32_IoT/iot_link/network/dtls/mbedtls/mbedtls-2.16.2/library\cipher.c ****     const unsigned char *p2 = (const unsigned char*) v2;
  83:c:/Users/lenovo/Desktop/AIoT/first_day/firstday_afternoon/LiteOS_Lab_STM32_IoT/iot_link/network/dtls/mbedtls/mbedtls-2.16.2/library\cipher.c ****     size_t i;
  84:c:/Users/lenovo/Desktop/AIoT/first_day/firstday_afternoon/LiteOS_Lab_STM32_IoT/iot_link/network/dtls/mbedtls/mbedtls-2.16.2/library\cipher.c ****     unsigned char diff;
  85:c:/Users/lenovo/Desktop/AIoT/first_day/firstday_afternoon/LiteOS_Lab_STM32_IoT/iot_link/network/dtls/mbedtls/mbedtls-2.16.2/library\cipher.c **** 
  86:c:/Users/lenovo/Desktop/AIoT/first_day/firstday_afternoon/LiteOS_Lab_STM32_IoT/iot_link/network/dtls/mbedtls/mbedtls-2.16.2/library\cipher.c ****     for( diff = 0, i = 0; i < len; i++ )
  87:c:/Users/lenovo/Desktop/AIoT/first_day/firstday_afternoon/LiteOS_Lab_STM32_IoT/iot_link/network/dtls/mbedtls/mbedtls-2.16.2/library\cipher.c ****         diff |= p1[i] ^ p2[i];
  88:c:/Users/lenovo/Desktop/AIoT/first_day/firstday_afternoon/LiteOS_Lab_STM32_IoT/iot_link/network/dtls/mbedtls/mbedtls-2.16.2/library\cipher.c **** 
  89:c:/Users/lenovo/Desktop/AIoT/first_day/firstday_afternoon/LiteOS_Lab_STM32_IoT/iot_link/network/dtls/mbedtls/mbedtls-2.16.2/library\cipher.c ****     return( (int)diff );
  90:c:/Users/lenovo/Desktop/AIoT/first_day/firstday_afternoon/LiteOS_Lab_STM32_IoT/iot_link/network/dtls/mbedtls/mbedtls-2.16.2/library\cipher.c **** }
  91:c:/Users/lenovo/Desktop/AIoT/first_day/firstday_afternoon/LiteOS_Lab_STM32_IoT/iot_link/network/dtls/mbedtls/mbedtls-2.16.2/library\cipher.c **** #endif /* MBEDTLS_GCM_C || MBEDTLS_CHACHAPOLY_C */
  92:c:/Users/lenovo/Desktop/AIoT/first_day/firstday_afternoon/LiteOS_Lab_STM32_IoT/iot_link/network/dtls/mbedtls/mbedtls-2.16.2/library\cipher.c **** 
  93:c:/Users/lenovo/Desktop/AIoT/first_day/firstday_afternoon/LiteOS_Lab_STM32_IoT/iot_link/network/dtls/mbedtls/mbedtls-2.16.2/library\cipher.c **** static int supported_init = 0;
  94:c:/Users/lenovo/Desktop/AIoT/first_day/firstday_afternoon/LiteOS_Lab_STM32_IoT/iot_link/network/dtls/mbedtls/mbedtls-2.16.2/library\cipher.c **** 
  95:c:/Users/lenovo/Desktop/AIoT/first_day/firstday_afternoon/LiteOS_Lab_STM32_IoT/iot_link/network/dtls/mbedtls/mbedtls-2.16.2/library\cipher.c **** const int *mbedtls_cipher_list( void )
  96:c:/Users/lenovo/Desktop/AIoT/first_day/firstday_afternoon/LiteOS_Lab_STM32_IoT/iot_link/network/dtls/mbedtls/mbedtls-2.16.2/library\cipher.c **** {
 164              		.loc 2 96 1
 165              		.cfi_startproc
 166              		@ args = 0, pretend = 0, frame = 8
 167              		@ frame_needed = 1, uses_anonymous_args = 0
 168              		@ link register save eliminated.
 169 0000 80B4     		push	{r7}
 170              	.LCFI12:
 171              		.cfi_def_cfa_offset 4
 172              		.cfi_offset 7, -4
 173 0002 83B0     		sub	sp, sp, #12
 174              	.LCFI13:
 175              		.cfi_def_cfa_offset 16
ARM GAS  C:\Users\lenovo\AppData\Local\Temp\ccSXL9zI.s 			page 14


 176 0004 00AF     		add	r7, sp, #0
 177              	.LCFI14:
 178              		.cfi_def_cfa_register 7
  97:c:/Users/lenovo/Desktop/AIoT/first_day/firstday_afternoon/LiteOS_Lab_STM32_IoT/iot_link/network/dtls/mbedtls/mbedtls-2.16.2/library\cipher.c ****     const mbedtls_cipher_definition_t *def;
  98:c:/Users/lenovo/Desktop/AIoT/first_day/firstday_afternoon/LiteOS_Lab_STM32_IoT/iot_link/network/dtls/mbedtls/mbedtls-2.16.2/library\cipher.c ****     int *type;
  99:c:/Users/lenovo/Desktop/AIoT/first_day/firstday_afternoon/LiteOS_Lab_STM32_IoT/iot_link/network/dtls/mbedtls/mbedtls-2.16.2/library\cipher.c **** 
 100:c:/Users/lenovo/Desktop/AIoT/first_day/firstday_afternoon/LiteOS_Lab_STM32_IoT/iot_link/network/dtls/mbedtls/mbedtls-2.16.2/library\cipher.c ****     if( ! supported_init )
 179              		.loc 2 100 9
 180 0006 124B     		ldr	r3, .L13
 181 0008 1B68     		ldr	r3, [r3]
 182              		.loc 2 100 7
 183 000a 002B     		cmp	r3, #0
 184 000c 18D1     		bne	.L9
 101:c:/Users/lenovo/Desktop/AIoT/first_day/firstday_afternoon/LiteOS_Lab_STM32_IoT/iot_link/network/dtls/mbedtls/mbedtls-2.16.2/library\cipher.c ****     {
 102:c:/Users/lenovo/Desktop/AIoT/first_day/firstday_afternoon/LiteOS_Lab_STM32_IoT/iot_link/network/dtls/mbedtls/mbedtls-2.16.2/library\cipher.c ****         def = mbedtls_cipher_definitions;
 185              		.loc 2 102 13
 186 000e 114B     		ldr	r3, .L13+4
 187 0010 7B60     		str	r3, [r7, #4]
 103:c:/Users/lenovo/Desktop/AIoT/first_day/firstday_afternoon/LiteOS_Lab_STM32_IoT/iot_link/network/dtls/mbedtls/mbedtls-2.16.2/library\cipher.c ****         type = mbedtls_cipher_supported;
 188              		.loc 2 103 14
 189 0012 114B     		ldr	r3, .L13+8
 190 0014 3B60     		str	r3, [r7]
 104:c:/Users/lenovo/Desktop/AIoT/first_day/firstday_afternoon/LiteOS_Lab_STM32_IoT/iot_link/network/dtls/mbedtls/mbedtls-2.16.2/library\cipher.c **** 
 105:c:/Users/lenovo/Desktop/AIoT/first_day/firstday_afternoon/LiteOS_Lab_STM32_IoT/iot_link/network/dtls/mbedtls/mbedtls-2.16.2/library\cipher.c ****         while( def->type != 0 )
 191              		.loc 2 105 14
 192 0016 09E0     		b	.L10
 193              	.L11:
 106:c:/Users/lenovo/Desktop/AIoT/first_day/firstday_afternoon/LiteOS_Lab_STM32_IoT/iot_link/network/dtls/mbedtls/mbedtls-2.16.2/library\cipher.c ****             *type++ = (*def++).type;
 194              		.loc 2 106 28
 195 0018 7B68     		ldr	r3, [r7, #4]
 196 001a 03F10802 		add	r2, r3, #8
 197 001e 7A60     		str	r2, [r7, #4]
 198              		.loc 2 106 31
 199 0020 1978     		ldrb	r1, [r3]	@ zero_extendqisi2
 200              		.loc 2 106 18
 201 0022 3B68     		ldr	r3, [r7]
 202 0024 1A1D     		adds	r2, r3, #4
 203 0026 3A60     		str	r2, [r7]
 204              		.loc 2 106 31
 205 0028 0A46     		mov	r2, r1
 206              		.loc 2 106 21
 207 002a 1A60     		str	r2, [r3]
 208              	.L10:
 105:c:/Users/lenovo/Desktop/AIoT/first_day/firstday_afternoon/LiteOS_Lab_STM32_IoT/iot_link/network/dtls/mbedtls/mbedtls-2.16.2/library\cipher.c ****             *type++ = (*def++).type;
 209              		.loc 2 105 19
 210 002c 7B68     		ldr	r3, [r7, #4]
 211 002e 1B78     		ldrb	r3, [r3]	@ zero_extendqisi2
 105:c:/Users/lenovo/Desktop/AIoT/first_day/firstday_afternoon/LiteOS_Lab_STM32_IoT/iot_link/network/dtls/mbedtls/mbedtls-2.16.2/library\cipher.c ****             *type++ = (*def++).type;
 212              		.loc 2 105 14
 213 0030 002B     		cmp	r3, #0
 214 0032 F1D1     		bne	.L11
 107:c:/Users/lenovo/Desktop/AIoT/first_day/firstday_afternoon/LiteOS_Lab_STM32_IoT/iot_link/network/dtls/mbedtls/mbedtls-2.16.2/library\cipher.c **** 
 108:c:/Users/lenovo/Desktop/AIoT/first_day/firstday_afternoon/LiteOS_Lab_STM32_IoT/iot_link/network/dtls/mbedtls/mbedtls-2.16.2/library\cipher.c ****         *type = 0;
 215              		.loc 2 108 15
 216 0034 3B68     		ldr	r3, [r7]
 217 0036 0022     		movs	r2, #0
 218 0038 1A60     		str	r2, [r3]
ARM GAS  C:\Users\lenovo\AppData\Local\Temp\ccSXL9zI.s 			page 15


 109:c:/Users/lenovo/Desktop/AIoT/first_day/firstday_afternoon/LiteOS_Lab_STM32_IoT/iot_link/network/dtls/mbedtls/mbedtls-2.16.2/library\cipher.c **** 
 110:c:/Users/lenovo/Desktop/AIoT/first_day/firstday_afternoon/LiteOS_Lab_STM32_IoT/iot_link/network/dtls/mbedtls/mbedtls-2.16.2/library\cipher.c ****         supported_init = 1;
 219              		.loc 2 110 24
 220 003a 054B     		ldr	r3, .L13
 221 003c 0122     		movs	r2, #1
 222 003e 1A60     		str	r2, [r3]
 223              	.L9:
 111:c:/Users/lenovo/Desktop/AIoT/first_day/firstday_afternoon/LiteOS_Lab_STM32_IoT/iot_link/network/dtls/mbedtls/mbedtls-2.16.2/library\cipher.c ****     }
 112:c:/Users/lenovo/Desktop/AIoT/first_day/firstday_afternoon/LiteOS_Lab_STM32_IoT/iot_link/network/dtls/mbedtls/mbedtls-2.16.2/library\cipher.c **** 
 113:c:/Users/lenovo/Desktop/AIoT/first_day/firstday_afternoon/LiteOS_Lab_STM32_IoT/iot_link/network/dtls/mbedtls/mbedtls-2.16.2/library\cipher.c ****     return( mbedtls_cipher_supported );
 224              		.loc 2 113 11
 225 0040 054B     		ldr	r3, .L13+8
 114:c:/Users/lenovo/Desktop/AIoT/first_day/firstday_afternoon/LiteOS_Lab_STM32_IoT/iot_link/network/dtls/mbedtls/mbedtls-2.16.2/library\cipher.c **** }
 226              		.loc 2 114 1
 227 0042 1846     		mov	r0, r3
 228 0044 0C37     		adds	r7, r7, #12
 229              	.LCFI15:
 230              		.cfi_def_cfa_offset 4
 231 0046 BD46     		mov	sp, r7
 232              	.LCFI16:
 233              		.cfi_def_cfa_register 13
 234              		@ sp needed
 235 0048 5DF8047B 		ldr	r7, [sp], #4
 236              	.LCFI17:
 237              		.cfi_restore 7
 238              		.cfi_def_cfa_offset 0
 239 004c 7047     		bx	lr
 240              	.L14:
 241 004e 00BF     		.align	2
 242              	.L13:
 243 0050 00000000 		.word	supported_init
 244 0054 00000000 		.word	mbedtls_cipher_definitions
 245 0058 00000000 		.word	mbedtls_cipher_supported
 246              		.cfi_endproc
 247              	.LFE10:
 249              		.section	.text.mbedtls_cipher_info_from_type,"ax",%progbits
 250              		.align	1
 251              		.global	mbedtls_cipher_info_from_type
 252              		.syntax unified
 253              		.thumb
 254              		.thumb_func
 255              		.fpu fpv4-sp-d16
 257              	mbedtls_cipher_info_from_type:
 258              	.LFB11:
 115:c:/Users/lenovo/Desktop/AIoT/first_day/firstday_afternoon/LiteOS_Lab_STM32_IoT/iot_link/network/dtls/mbedtls/mbedtls-2.16.2/library\cipher.c **** 
 116:c:/Users/lenovo/Desktop/AIoT/first_day/firstday_afternoon/LiteOS_Lab_STM32_IoT/iot_link/network/dtls/mbedtls/mbedtls-2.16.2/library\cipher.c **** const mbedtls_cipher_info_t *mbedtls_cipher_info_from_type( const mbedtls_cipher_type_t cipher_type
 117:c:/Users/lenovo/Desktop/AIoT/first_day/firstday_afternoon/LiteOS_Lab_STM32_IoT/iot_link/network/dtls/mbedtls/mbedtls-2.16.2/library\cipher.c **** {
 259              		.loc 2 117 1
 260              		.cfi_startproc
 261              		@ args = 0, pretend = 0, frame = 16
 262              		@ frame_needed = 1, uses_anonymous_args = 0
 263              		@ link register save eliminated.
 264 0000 80B4     		push	{r7}
 265              	.LCFI18:
 266              		.cfi_def_cfa_offset 4
 267              		.cfi_offset 7, -4
 268 0002 85B0     		sub	sp, sp, #20
ARM GAS  C:\Users\lenovo\AppData\Local\Temp\ccSXL9zI.s 			page 16


 269              	.LCFI19:
 270              		.cfi_def_cfa_offset 24
 271 0004 00AF     		add	r7, sp, #0
 272              	.LCFI20:
 273              		.cfi_def_cfa_register 7
 274 0006 0346     		mov	r3, r0
 275 0008 FB71     		strb	r3, [r7, #7]
 118:c:/Users/lenovo/Desktop/AIoT/first_day/firstday_afternoon/LiteOS_Lab_STM32_IoT/iot_link/network/dtls/mbedtls/mbedtls-2.16.2/library\cipher.c ****     const mbedtls_cipher_definition_t *def;
 119:c:/Users/lenovo/Desktop/AIoT/first_day/firstday_afternoon/LiteOS_Lab_STM32_IoT/iot_link/network/dtls/mbedtls/mbedtls-2.16.2/library\cipher.c **** 
 120:c:/Users/lenovo/Desktop/AIoT/first_day/firstday_afternoon/LiteOS_Lab_STM32_IoT/iot_link/network/dtls/mbedtls/mbedtls-2.16.2/library\cipher.c ****     for( def = mbedtls_cipher_definitions; def->info != NULL; def++ )
 276              		.loc 2 120 14
 277 000a 0C4B     		ldr	r3, .L20
 278 000c FB60     		str	r3, [r7, #12]
 279              		.loc 2 120 5
 280 000e 0AE0     		b	.L16
 281              	.L19:
 121:c:/Users/lenovo/Desktop/AIoT/first_day/firstday_afternoon/LiteOS_Lab_STM32_IoT/iot_link/network/dtls/mbedtls/mbedtls-2.16.2/library\cipher.c ****         if( def->type == cipher_type )
 282              		.loc 2 121 16
 283 0010 FB68     		ldr	r3, [r7, #12]
 284 0012 1B78     		ldrb	r3, [r3]	@ zero_extendqisi2
 285              		.loc 2 121 11
 286 0014 FA79     		ldrb	r2, [r7, #7]	@ zero_extendqisi2
 287 0016 9A42     		cmp	r2, r3
 288 0018 02D1     		bne	.L17
 122:c:/Users/lenovo/Desktop/AIoT/first_day/firstday_afternoon/LiteOS_Lab_STM32_IoT/iot_link/network/dtls/mbedtls/mbedtls-2.16.2/library\cipher.c ****             return( def->info );
 289              		.loc 2 122 24
 290 001a FB68     		ldr	r3, [r7, #12]
 291 001c 5B68     		ldr	r3, [r3, #4]
 292 001e 07E0     		b	.L18
 293              	.L17:
 120:c:/Users/lenovo/Desktop/AIoT/first_day/firstday_afternoon/LiteOS_Lab_STM32_IoT/iot_link/network/dtls/mbedtls/mbedtls-2.16.2/library\cipher.c ****         if( def->type == cipher_type )
 294              		.loc 2 120 66 discriminator 2
 295 0020 FB68     		ldr	r3, [r7, #12]
 296 0022 0833     		adds	r3, r3, #8
 297 0024 FB60     		str	r3, [r7, #12]
 298              	.L16:
 120:c:/Users/lenovo/Desktop/AIoT/first_day/firstday_afternoon/LiteOS_Lab_STM32_IoT/iot_link/network/dtls/mbedtls/mbedtls-2.16.2/library\cipher.c ****         if( def->type == cipher_type )
 299              		.loc 2 120 47 discriminator 1
 300 0026 FB68     		ldr	r3, [r7, #12]
 301 0028 5B68     		ldr	r3, [r3, #4]
 120:c:/Users/lenovo/Desktop/AIoT/first_day/firstday_afternoon/LiteOS_Lab_STM32_IoT/iot_link/network/dtls/mbedtls/mbedtls-2.16.2/library\cipher.c ****         if( def->type == cipher_type )
 302              		.loc 2 120 5 discriminator 1
 303 002a 002B     		cmp	r3, #0
 304 002c F0D1     		bne	.L19
 123:c:/Users/lenovo/Desktop/AIoT/first_day/firstday_afternoon/LiteOS_Lab_STM32_IoT/iot_link/network/dtls/mbedtls/mbedtls-2.16.2/library\cipher.c **** 
 124:c:/Users/lenovo/Desktop/AIoT/first_day/firstday_afternoon/LiteOS_Lab_STM32_IoT/iot_link/network/dtls/mbedtls/mbedtls-2.16.2/library\cipher.c ****     return( NULL );
 305              		.loc 2 124 11
 306 002e 0023     		movs	r3, #0
 307              	.L18:
 125:c:/Users/lenovo/Desktop/AIoT/first_day/firstday_afternoon/LiteOS_Lab_STM32_IoT/iot_link/network/dtls/mbedtls/mbedtls-2.16.2/library\cipher.c **** }
 308              		.loc 2 125 1
 309 0030 1846     		mov	r0, r3
 310 0032 1437     		adds	r7, r7, #20
 311              	.LCFI21:
 312              		.cfi_def_cfa_offset 4
 313 0034 BD46     		mov	sp, r7
 314              	.LCFI22:
ARM GAS  C:\Users\lenovo\AppData\Local\Temp\ccSXL9zI.s 			page 17


 315              		.cfi_def_cfa_register 13
 316              		@ sp needed
 317 0036 5DF8047B 		ldr	r7, [sp], #4
 318              	.LCFI23:
 319              		.cfi_restore 7
 320              		.cfi_def_cfa_offset 0
 321 003a 7047     		bx	lr
 322              	.L21:
 323              		.align	2
 324              	.L20:
 325 003c 00000000 		.word	mbedtls_cipher_definitions
 326              		.cfi_endproc
 327              	.LFE11:
 329              		.section	.text.mbedtls_cipher_info_from_string,"ax",%progbits
 330              		.align	1
 331              		.global	mbedtls_cipher_info_from_string
 332              		.syntax unified
 333              		.thumb
 334              		.thumb_func
 335              		.fpu fpv4-sp-d16
 337              	mbedtls_cipher_info_from_string:
 338              	.LFB12:
 126:c:/Users/lenovo/Desktop/AIoT/first_day/firstday_afternoon/LiteOS_Lab_STM32_IoT/iot_link/network/dtls/mbedtls/mbedtls-2.16.2/library\cipher.c **** 
 127:c:/Users/lenovo/Desktop/AIoT/first_day/firstday_afternoon/LiteOS_Lab_STM32_IoT/iot_link/network/dtls/mbedtls/mbedtls-2.16.2/library\cipher.c **** const mbedtls_cipher_info_t *mbedtls_cipher_info_from_string( const char *cipher_name )
 128:c:/Users/lenovo/Desktop/AIoT/first_day/firstday_afternoon/LiteOS_Lab_STM32_IoT/iot_link/network/dtls/mbedtls/mbedtls-2.16.2/library\cipher.c **** {
 339              		.loc 2 128 1
 340              		.cfi_startproc
 341              		@ args = 0, pretend = 0, frame = 16
 342              		@ frame_needed = 1, uses_anonymous_args = 0
 343 0000 80B5     		push	{r7, lr}
 344              	.LCFI24:
 345              		.cfi_def_cfa_offset 8
 346              		.cfi_offset 7, -8
 347              		.cfi_offset 14, -4
 348 0002 84B0     		sub	sp, sp, #16
 349              	.LCFI25:
 350              		.cfi_def_cfa_offset 24
 351 0004 00AF     		add	r7, sp, #0
 352              	.LCFI26:
 353              		.cfi_def_cfa_register 7
 354 0006 7860     		str	r0, [r7, #4]
 129:c:/Users/lenovo/Desktop/AIoT/first_day/firstday_afternoon/LiteOS_Lab_STM32_IoT/iot_link/network/dtls/mbedtls/mbedtls-2.16.2/library\cipher.c ****     const mbedtls_cipher_definition_t *def;
 130:c:/Users/lenovo/Desktop/AIoT/first_day/firstday_afternoon/LiteOS_Lab_STM32_IoT/iot_link/network/dtls/mbedtls/mbedtls-2.16.2/library\cipher.c **** 
 131:c:/Users/lenovo/Desktop/AIoT/first_day/firstday_afternoon/LiteOS_Lab_STM32_IoT/iot_link/network/dtls/mbedtls/mbedtls-2.16.2/library\cipher.c ****     if( NULL == cipher_name )
 355              		.loc 2 131 7
 356 0008 7B68     		ldr	r3, [r7, #4]
 357 000a 002B     		cmp	r3, #0
 358 000c 01D1     		bne	.L23
 132:c:/Users/lenovo/Desktop/AIoT/first_day/firstday_afternoon/LiteOS_Lab_STM32_IoT/iot_link/network/dtls/mbedtls/mbedtls-2.16.2/library\cipher.c ****         return( NULL );
 359              		.loc 2 132 15
 360 000e 0023     		movs	r3, #0
 361 0010 17E0     		b	.L24
 362              	.L23:
 133:c:/Users/lenovo/Desktop/AIoT/first_day/firstday_afternoon/LiteOS_Lab_STM32_IoT/iot_link/network/dtls/mbedtls/mbedtls-2.16.2/library\cipher.c **** 
 134:c:/Users/lenovo/Desktop/AIoT/first_day/firstday_afternoon/LiteOS_Lab_STM32_IoT/iot_link/network/dtls/mbedtls/mbedtls-2.16.2/library\cipher.c ****     for( def = mbedtls_cipher_definitions; def->info != NULL; def++ )
 363              		.loc 2 134 14
 364 0012 0E4B     		ldr	r3, .L28
ARM GAS  C:\Users\lenovo\AppData\Local\Temp\ccSXL9zI.s 			page 18


 365 0014 FB60     		str	r3, [r7, #12]
 366              		.loc 2 134 5
 367 0016 0FE0     		b	.L25
 368              	.L27:
 135:c:/Users/lenovo/Desktop/AIoT/first_day/firstday_afternoon/LiteOS_Lab_STM32_IoT/iot_link/network/dtls/mbedtls/mbedtls-2.16.2/library\cipher.c ****         if( !  strcmp( def->info->name, cipher_name ) )
 369              		.loc 2 135 27
 370 0018 FB68     		ldr	r3, [r7, #12]
 371 001a 5B68     		ldr	r3, [r3, #4]
 372              		.loc 2 135 16
 373 001c 9B68     		ldr	r3, [r3, #8]
 374 001e 7968     		ldr	r1, [r7, #4]
 375 0020 1846     		mov	r0, r3
 376 0022 FFF7FEFF 		bl	strcmp
 377 0026 0346     		mov	r3, r0
 378              		.loc 2 135 11
 379 0028 002B     		cmp	r3, #0
 380 002a 02D1     		bne	.L26
 136:c:/Users/lenovo/Desktop/AIoT/first_day/firstday_afternoon/LiteOS_Lab_STM32_IoT/iot_link/network/dtls/mbedtls/mbedtls-2.16.2/library\cipher.c ****             return( def->info );
 381              		.loc 2 136 24
 382 002c FB68     		ldr	r3, [r7, #12]
 383 002e 5B68     		ldr	r3, [r3, #4]
 384 0030 07E0     		b	.L24
 385              	.L26:
 134:c:/Users/lenovo/Desktop/AIoT/first_day/firstday_afternoon/LiteOS_Lab_STM32_IoT/iot_link/network/dtls/mbedtls/mbedtls-2.16.2/library\cipher.c ****         if( !  strcmp( def->info->name, cipher_name ) )
 386              		.loc 2 134 66 discriminator 2
 387 0032 FB68     		ldr	r3, [r7, #12]
 388 0034 0833     		adds	r3, r3, #8
 389 0036 FB60     		str	r3, [r7, #12]
 390              	.L25:
 134:c:/Users/lenovo/Desktop/AIoT/first_day/firstday_afternoon/LiteOS_Lab_STM32_IoT/iot_link/network/dtls/mbedtls/mbedtls-2.16.2/library\cipher.c ****         if( !  strcmp( def->info->name, cipher_name ) )
 391              		.loc 2 134 47 discriminator 1
 392 0038 FB68     		ldr	r3, [r7, #12]
 393 003a 5B68     		ldr	r3, [r3, #4]
 134:c:/Users/lenovo/Desktop/AIoT/first_day/firstday_afternoon/LiteOS_Lab_STM32_IoT/iot_link/network/dtls/mbedtls/mbedtls-2.16.2/library\cipher.c ****         if( !  strcmp( def->info->name, cipher_name ) )
 394              		.loc 2 134 5 discriminator 1
 395 003c 002B     		cmp	r3, #0
 396 003e EBD1     		bne	.L27
 137:c:/Users/lenovo/Desktop/AIoT/first_day/firstday_afternoon/LiteOS_Lab_STM32_IoT/iot_link/network/dtls/mbedtls/mbedtls-2.16.2/library\cipher.c **** 
 138:c:/Users/lenovo/Desktop/AIoT/first_day/firstday_afternoon/LiteOS_Lab_STM32_IoT/iot_link/network/dtls/mbedtls/mbedtls-2.16.2/library\cipher.c ****     return( NULL );
 397              		.loc 2 138 11
 398 0040 0023     		movs	r3, #0
 399              	.L24:
 139:c:/Users/lenovo/Desktop/AIoT/first_day/firstday_afternoon/LiteOS_Lab_STM32_IoT/iot_link/network/dtls/mbedtls/mbedtls-2.16.2/library\cipher.c **** }
 400              		.loc 2 139 1
 401 0042 1846     		mov	r0, r3
 402 0044 1037     		adds	r7, r7, #16
 403              	.LCFI27:
 404              		.cfi_def_cfa_offset 8
 405 0046 BD46     		mov	sp, r7
 406              	.LCFI28:
 407              		.cfi_def_cfa_register 13
 408              		@ sp needed
 409 0048 80BD     		pop	{r7, pc}
 410              	.L29:
 411 004a 00BF     		.align	2
 412              	.L28:
 413 004c 00000000 		.word	mbedtls_cipher_definitions
ARM GAS  C:\Users\lenovo\AppData\Local\Temp\ccSXL9zI.s 			page 19


 414              		.cfi_endproc
 415              	.LFE12:
 417              		.section	.text.mbedtls_cipher_info_from_values,"ax",%progbits
 418              		.align	1
 419              		.global	mbedtls_cipher_info_from_values
 420              		.syntax unified
 421              		.thumb
 422              		.thumb_func
 423              		.fpu fpv4-sp-d16
 425              	mbedtls_cipher_info_from_values:
 426              	.LFB13:
 140:c:/Users/lenovo/Desktop/AIoT/first_day/firstday_afternoon/LiteOS_Lab_STM32_IoT/iot_link/network/dtls/mbedtls/mbedtls-2.16.2/library\cipher.c **** 
 141:c:/Users/lenovo/Desktop/AIoT/first_day/firstday_afternoon/LiteOS_Lab_STM32_IoT/iot_link/network/dtls/mbedtls/mbedtls-2.16.2/library\cipher.c **** const mbedtls_cipher_info_t *mbedtls_cipher_info_from_values( const mbedtls_cipher_id_t cipher_id,
 142:c:/Users/lenovo/Desktop/AIoT/first_day/firstday_afternoon/LiteOS_Lab_STM32_IoT/iot_link/network/dtls/mbedtls/mbedtls-2.16.2/library\cipher.c ****                                               int key_bitlen,
 143:c:/Users/lenovo/Desktop/AIoT/first_day/firstday_afternoon/LiteOS_Lab_STM32_IoT/iot_link/network/dtls/mbedtls/mbedtls-2.16.2/library\cipher.c ****                                               const mbedtls_cipher_mode_t mode )
 144:c:/Users/lenovo/Desktop/AIoT/first_day/firstday_afternoon/LiteOS_Lab_STM32_IoT/iot_link/network/dtls/mbedtls/mbedtls-2.16.2/library\cipher.c **** {
 427              		.loc 2 144 1
 428              		.cfi_startproc
 429              		@ args = 0, pretend = 0, frame = 16
 430              		@ frame_needed = 1, uses_anonymous_args = 0
 431              		@ link register save eliminated.
 432 0000 80B4     		push	{r7}
 433              	.LCFI29:
 434              		.cfi_def_cfa_offset 4
 435              		.cfi_offset 7, -4
 436 0002 85B0     		sub	sp, sp, #20
 437              	.LCFI30:
 438              		.cfi_def_cfa_offset 24
 439 0004 00AF     		add	r7, sp, #0
 440              	.LCFI31:
 441              		.cfi_def_cfa_register 7
 442 0006 0346     		mov	r3, r0
 443 0008 3960     		str	r1, [r7]
 444 000a FB71     		strb	r3, [r7, #7]
 445 000c 1346     		mov	r3, r2
 446 000e BB71     		strb	r3, [r7, #6]
 145:c:/Users/lenovo/Desktop/AIoT/first_day/firstday_afternoon/LiteOS_Lab_STM32_IoT/iot_link/network/dtls/mbedtls/mbedtls-2.16.2/library\cipher.c ****     const mbedtls_cipher_definition_t *def;
 146:c:/Users/lenovo/Desktop/AIoT/first_day/firstday_afternoon/LiteOS_Lab_STM32_IoT/iot_link/network/dtls/mbedtls/mbedtls-2.16.2/library\cipher.c **** 
 147:c:/Users/lenovo/Desktop/AIoT/first_day/firstday_afternoon/LiteOS_Lab_STM32_IoT/iot_link/network/dtls/mbedtls/mbedtls-2.16.2/library\cipher.c ****     for( def = mbedtls_cipher_definitions; def->info != NULL; def++ )
 447              		.loc 2 147 14
 448 0010 134B     		ldr	r3, .L35
 449 0012 FB60     		str	r3, [r7, #12]
 450              		.loc 2 147 5
 451 0014 18E0     		b	.L31
 452              	.L34:
 148:c:/Users/lenovo/Desktop/AIoT/first_day/firstday_afternoon/LiteOS_Lab_STM32_IoT/iot_link/network/dtls/mbedtls/mbedtls-2.16.2/library\cipher.c ****         if( def->info->base->cipher == cipher_id &&
 453              		.loc 2 148 16
 454 0016 FB68     		ldr	r3, [r7, #12]
 455 0018 5B68     		ldr	r3, [r3, #4]
 456              		.loc 2 148 22
 457 001a 9B69     		ldr	r3, [r3, #24]
 458              		.loc 2 148 28
 459 001c 1B78     		ldrb	r3, [r3]	@ zero_extendqisi2
 460              		.loc 2 148 11
 461 001e FA79     		ldrb	r2, [r7, #7]	@ zero_extendqisi2
 462 0020 9A42     		cmp	r2, r3
 463 0022 0ED1     		bne	.L32
ARM GAS  C:\Users\lenovo\AppData\Local\Temp\ccSXL9zI.s 			page 20


 149:c:/Users/lenovo/Desktop/AIoT/first_day/firstday_afternoon/LiteOS_Lab_STM32_IoT/iot_link/network/dtls/mbedtls/mbedtls-2.16.2/library\cipher.c ****             def->info->key_bitlen == (unsigned) key_bitlen &&
 464              		.loc 2 149 16 discriminator 1
 465 0024 FB68     		ldr	r3, [r7, #12]
 466 0026 5B68     		ldr	r3, [r3, #4]
 467              		.loc 2 149 22 discriminator 1
 468 0028 5A68     		ldr	r2, [r3, #4]
 469              		.loc 2 149 35 discriminator 1
 470 002a 3B68     		ldr	r3, [r7]
 148:c:/Users/lenovo/Desktop/AIoT/first_day/firstday_afternoon/LiteOS_Lab_STM32_IoT/iot_link/network/dtls/mbedtls/mbedtls-2.16.2/library\cipher.c ****         if( def->info->base->cipher == cipher_id &&
 471              		.loc 2 148 50 discriminator 1
 472 002c 9A42     		cmp	r2, r3
 473 002e 08D1     		bne	.L32
 150:c:/Users/lenovo/Desktop/AIoT/first_day/firstday_afternoon/LiteOS_Lab_STM32_IoT/iot_link/network/dtls/mbedtls/mbedtls-2.16.2/library\cipher.c ****             def->info->mode == mode )
 474              		.loc 2 150 16
 475 0030 FB68     		ldr	r3, [r7, #12]
 476 0032 5B68     		ldr	r3, [r3, #4]
 477              		.loc 2 150 22
 478 0034 5B78     		ldrb	r3, [r3, #1]	@ zero_extendqisi2
 149:c:/Users/lenovo/Desktop/AIoT/first_day/firstday_afternoon/LiteOS_Lab_STM32_IoT/iot_link/network/dtls/mbedtls/mbedtls-2.16.2/library\cipher.c ****             def->info->key_bitlen == (unsigned) key_bitlen &&
 479              		.loc 2 149 60
 480 0036 BA79     		ldrb	r2, [r7, #6]	@ zero_extendqisi2
 481 0038 9A42     		cmp	r2, r3
 482 003a 02D1     		bne	.L32
 151:c:/Users/lenovo/Desktop/AIoT/first_day/firstday_afternoon/LiteOS_Lab_STM32_IoT/iot_link/network/dtls/mbedtls/mbedtls-2.16.2/library\cipher.c ****             return( def->info );
 483              		.loc 2 151 24
 484 003c FB68     		ldr	r3, [r7, #12]
 485 003e 5B68     		ldr	r3, [r3, #4]
 486 0040 07E0     		b	.L33
 487              	.L32:
 147:c:/Users/lenovo/Desktop/AIoT/first_day/firstday_afternoon/LiteOS_Lab_STM32_IoT/iot_link/network/dtls/mbedtls/mbedtls-2.16.2/library\cipher.c ****         if( def->info->base->cipher == cipher_id &&
 488              		.loc 2 147 66 discriminator 2
 489 0042 FB68     		ldr	r3, [r7, #12]
 490 0044 0833     		adds	r3, r3, #8
 491 0046 FB60     		str	r3, [r7, #12]
 492              	.L31:
 147:c:/Users/lenovo/Desktop/AIoT/first_day/firstday_afternoon/LiteOS_Lab_STM32_IoT/iot_link/network/dtls/mbedtls/mbedtls-2.16.2/library\cipher.c ****         if( def->info->base->cipher == cipher_id &&
 493              		.loc 2 147 47 discriminator 1
 494 0048 FB68     		ldr	r3, [r7, #12]
 495 004a 5B68     		ldr	r3, [r3, #4]
 147:c:/Users/lenovo/Desktop/AIoT/first_day/firstday_afternoon/LiteOS_Lab_STM32_IoT/iot_link/network/dtls/mbedtls/mbedtls-2.16.2/library\cipher.c ****         if( def->info->base->cipher == cipher_id &&
 496              		.loc 2 147 5 discriminator 1
 497 004c 002B     		cmp	r3, #0
 498 004e E2D1     		bne	.L34
 152:c:/Users/lenovo/Desktop/AIoT/first_day/firstday_afternoon/LiteOS_Lab_STM32_IoT/iot_link/network/dtls/mbedtls/mbedtls-2.16.2/library\cipher.c **** 
 153:c:/Users/lenovo/Desktop/AIoT/first_day/firstday_afternoon/LiteOS_Lab_STM32_IoT/iot_link/network/dtls/mbedtls/mbedtls-2.16.2/library\cipher.c ****     return( NULL );
 499              		.loc 2 153 11
 500 0050 0023     		movs	r3, #0
 501              	.L33:
 154:c:/Users/lenovo/Desktop/AIoT/first_day/firstday_afternoon/LiteOS_Lab_STM32_IoT/iot_link/network/dtls/mbedtls/mbedtls-2.16.2/library\cipher.c **** }
 502              		.loc 2 154 1
 503 0052 1846     		mov	r0, r3
 504 0054 1437     		adds	r7, r7, #20
 505              	.LCFI32:
 506              		.cfi_def_cfa_offset 4
 507 0056 BD46     		mov	sp, r7
 508              	.LCFI33:
 509              		.cfi_def_cfa_register 13
ARM GAS  C:\Users\lenovo\AppData\Local\Temp\ccSXL9zI.s 			page 21


 510              		@ sp needed
 511 0058 5DF8047B 		ldr	r7, [sp], #4
 512              	.LCFI34:
 513              		.cfi_restore 7
 514              		.cfi_def_cfa_offset 0
 515 005c 7047     		bx	lr
 516              	.L36:
 517 005e 00BF     		.align	2
 518              	.L35:
 519 0060 00000000 		.word	mbedtls_cipher_definitions
 520              		.cfi_endproc
 521              	.LFE13:
 523              		.section	.text.mbedtls_cipher_init,"ax",%progbits
 524              		.align	1
 525              		.global	mbedtls_cipher_init
 526              		.syntax unified
 527              		.thumb
 528              		.thumb_func
 529              		.fpu fpv4-sp-d16
 531              	mbedtls_cipher_init:
 532              	.LFB14:
 155:c:/Users/lenovo/Desktop/AIoT/first_day/firstday_afternoon/LiteOS_Lab_STM32_IoT/iot_link/network/dtls/mbedtls/mbedtls-2.16.2/library\cipher.c **** 
 156:c:/Users/lenovo/Desktop/AIoT/first_day/firstday_afternoon/LiteOS_Lab_STM32_IoT/iot_link/network/dtls/mbedtls/mbedtls-2.16.2/library\cipher.c **** void mbedtls_cipher_init( mbedtls_cipher_context_t *ctx )
 157:c:/Users/lenovo/Desktop/AIoT/first_day/firstday_afternoon/LiteOS_Lab_STM32_IoT/iot_link/network/dtls/mbedtls/mbedtls-2.16.2/library\cipher.c **** {
 533              		.loc 2 157 1
 534              		.cfi_startproc
 535              		@ args = 0, pretend = 0, frame = 8
 536              		@ frame_needed = 1, uses_anonymous_args = 0
 537 0000 80B5     		push	{r7, lr}
 538              	.LCFI35:
 539              		.cfi_def_cfa_offset 8
 540              		.cfi_offset 7, -8
 541              		.cfi_offset 14, -4
 542 0002 82B0     		sub	sp, sp, #8
 543              	.LCFI36:
 544              		.cfi_def_cfa_offset 16
 545 0004 00AF     		add	r7, sp, #0
 546              	.LCFI37:
 547              		.cfi_def_cfa_register 7
 548 0006 7860     		str	r0, [r7, #4]
 158:c:/Users/lenovo/Desktop/AIoT/first_day/firstday_afternoon/LiteOS_Lab_STM32_IoT/iot_link/network/dtls/mbedtls/mbedtls-2.16.2/library\cipher.c ****     CIPHER_VALIDATE( ctx != NULL );
 159:c:/Users/lenovo/Desktop/AIoT/first_day/firstday_afternoon/LiteOS_Lab_STM32_IoT/iot_link/network/dtls/mbedtls/mbedtls-2.16.2/library\cipher.c ****     memset( ctx, 0, sizeof( mbedtls_cipher_context_t ) );
 549              		.loc 2 159 5
 550 0008 4022     		movs	r2, #64
 551 000a 0021     		movs	r1, #0
 552 000c 7868     		ldr	r0, [r7, #4]
 553 000e FFF7FEFF 		bl	memset
 160:c:/Users/lenovo/Desktop/AIoT/first_day/firstday_afternoon/LiteOS_Lab_STM32_IoT/iot_link/network/dtls/mbedtls/mbedtls-2.16.2/library\cipher.c **** }
 554              		.loc 2 160 1
 555 0012 00BF     		nop
 556 0014 0837     		adds	r7, r7, #8
 557              	.LCFI38:
 558              		.cfi_def_cfa_offset 8
 559 0016 BD46     		mov	sp, r7
 560              	.LCFI39:
 561              		.cfi_def_cfa_register 13
 562              		@ sp needed
ARM GAS  C:\Users\lenovo\AppData\Local\Temp\ccSXL9zI.s 			page 22


 563 0018 80BD     		pop	{r7, pc}
 564              		.cfi_endproc
 565              	.LFE14:
 567              		.section	.text.mbedtls_cipher_free,"ax",%progbits
 568              		.align	1
 569              		.global	mbedtls_cipher_free
 570              		.syntax unified
 571              		.thumb
 572              		.thumb_func
 573              		.fpu fpv4-sp-d16
 575              	mbedtls_cipher_free:
 576              	.LFB15:
 161:c:/Users/lenovo/Desktop/AIoT/first_day/firstday_afternoon/LiteOS_Lab_STM32_IoT/iot_link/network/dtls/mbedtls/mbedtls-2.16.2/library\cipher.c **** 
 162:c:/Users/lenovo/Desktop/AIoT/first_day/firstday_afternoon/LiteOS_Lab_STM32_IoT/iot_link/network/dtls/mbedtls/mbedtls-2.16.2/library\cipher.c **** void mbedtls_cipher_free( mbedtls_cipher_context_t *ctx )
 163:c:/Users/lenovo/Desktop/AIoT/first_day/firstday_afternoon/LiteOS_Lab_STM32_IoT/iot_link/network/dtls/mbedtls/mbedtls-2.16.2/library\cipher.c **** {
 577              		.loc 2 163 1
 578              		.cfi_startproc
 579              		@ args = 0, pretend = 0, frame = 8
 580              		@ frame_needed = 1, uses_anonymous_args = 0
 581 0000 80B5     		push	{r7, lr}
 582              	.LCFI40:
 583              		.cfi_def_cfa_offset 8
 584              		.cfi_offset 7, -8
 585              		.cfi_offset 14, -4
 586 0002 82B0     		sub	sp, sp, #8
 587              	.LCFI41:
 588              		.cfi_def_cfa_offset 16
 589 0004 00AF     		add	r7, sp, #0
 590              	.LCFI42:
 591              		.cfi_def_cfa_register 7
 592 0006 7860     		str	r0, [r7, #4]
 164:c:/Users/lenovo/Desktop/AIoT/first_day/firstday_afternoon/LiteOS_Lab_STM32_IoT/iot_link/network/dtls/mbedtls/mbedtls-2.16.2/library\cipher.c ****     if( ctx == NULL )
 593              		.loc 2 164 7
 594 0008 7B68     		ldr	r3, [r7, #4]
 595 000a 002B     		cmp	r3, #0
 596 000c 10D0     		beq	.L42
 165:c:/Users/lenovo/Desktop/AIoT/first_day/firstday_afternoon/LiteOS_Lab_STM32_IoT/iot_link/network/dtls/mbedtls/mbedtls-2.16.2/library\cipher.c ****         return;
 166:c:/Users/lenovo/Desktop/AIoT/first_day/firstday_afternoon/LiteOS_Lab_STM32_IoT/iot_link/network/dtls/mbedtls/mbedtls-2.16.2/library\cipher.c **** 
 167:c:/Users/lenovo/Desktop/AIoT/first_day/firstday_afternoon/LiteOS_Lab_STM32_IoT/iot_link/network/dtls/mbedtls/mbedtls-2.16.2/library\cipher.c **** #if defined(MBEDTLS_CMAC_C)
 168:c:/Users/lenovo/Desktop/AIoT/first_day/firstday_afternoon/LiteOS_Lab_STM32_IoT/iot_link/network/dtls/mbedtls/mbedtls-2.16.2/library\cipher.c ****     if( ctx->cmac_ctx )
 169:c:/Users/lenovo/Desktop/AIoT/first_day/firstday_afternoon/LiteOS_Lab_STM32_IoT/iot_link/network/dtls/mbedtls/mbedtls-2.16.2/library\cipher.c ****     {
 170:c:/Users/lenovo/Desktop/AIoT/first_day/firstday_afternoon/LiteOS_Lab_STM32_IoT/iot_link/network/dtls/mbedtls/mbedtls-2.16.2/library\cipher.c ****        mbedtls_platform_zeroize( ctx->cmac_ctx,
 171:c:/Users/lenovo/Desktop/AIoT/first_day/firstday_afternoon/LiteOS_Lab_STM32_IoT/iot_link/network/dtls/mbedtls/mbedtls-2.16.2/library\cipher.c ****                                  sizeof( mbedtls_cmac_context_t ) );
 172:c:/Users/lenovo/Desktop/AIoT/first_day/firstday_afternoon/LiteOS_Lab_STM32_IoT/iot_link/network/dtls/mbedtls/mbedtls-2.16.2/library\cipher.c ****        mbedtls_free( ctx->cmac_ctx );
 173:c:/Users/lenovo/Desktop/AIoT/first_day/firstday_afternoon/LiteOS_Lab_STM32_IoT/iot_link/network/dtls/mbedtls/mbedtls-2.16.2/library\cipher.c ****     }
 174:c:/Users/lenovo/Desktop/AIoT/first_day/firstday_afternoon/LiteOS_Lab_STM32_IoT/iot_link/network/dtls/mbedtls/mbedtls-2.16.2/library\cipher.c **** #endif
 175:c:/Users/lenovo/Desktop/AIoT/first_day/firstday_afternoon/LiteOS_Lab_STM32_IoT/iot_link/network/dtls/mbedtls/mbedtls-2.16.2/library\cipher.c **** 
 176:c:/Users/lenovo/Desktop/AIoT/first_day/firstday_afternoon/LiteOS_Lab_STM32_IoT/iot_link/network/dtls/mbedtls/mbedtls-2.16.2/library\cipher.c ****     if( ctx->cipher_ctx )
 597              		.loc 2 176 12
 598 000e 7B68     		ldr	r3, [r7, #4]
 599 0010 DB6B     		ldr	r3, [r3, #60]
 600              		.loc 2 176 7
 601 0012 002B     		cmp	r3, #0
 602 0014 07D0     		beq	.L41
 177:c:/Users/lenovo/Desktop/AIoT/first_day/firstday_afternoon/LiteOS_Lab_STM32_IoT/iot_link/network/dtls/mbedtls/mbedtls-2.16.2/library\cipher.c ****         ctx->cipher_info->base->ctx_free_func( ctx->cipher_ctx );
 603              		.loc 2 177 12
 604 0016 7B68     		ldr	r3, [r7, #4]
ARM GAS  C:\Users\lenovo\AppData\Local\Temp\ccSXL9zI.s 			page 23


 605 0018 1B68     		ldr	r3, [r3]
 606              		.loc 2 177 25
 607 001a 9B69     		ldr	r3, [r3, #24]
 608              		.loc 2 177 31
 609 001c 9B69     		ldr	r3, [r3, #24]
 610              		.loc 2 177 9
 611 001e 7A68     		ldr	r2, [r7, #4]
 612 0020 D26B     		ldr	r2, [r2, #60]
 613 0022 1046     		mov	r0, r2
 614 0024 9847     		blx	r3
 615              	.LVL0:
 616              	.L41:
 178:c:/Users/lenovo/Desktop/AIoT/first_day/firstday_afternoon/LiteOS_Lab_STM32_IoT/iot_link/network/dtls/mbedtls/mbedtls-2.16.2/library\cipher.c **** 
 179:c:/Users/lenovo/Desktop/AIoT/first_day/firstday_afternoon/LiteOS_Lab_STM32_IoT/iot_link/network/dtls/mbedtls/mbedtls-2.16.2/library\cipher.c ****     mbedtls_platform_zeroize( ctx, sizeof(mbedtls_cipher_context_t) );
 617              		.loc 2 179 5
 618 0026 4021     		movs	r1, #64
 619 0028 7868     		ldr	r0, [r7, #4]
 620 002a FFF7FEFF 		bl	mbedtls_platform_zeroize
 621 002e 00E0     		b	.L38
 622              	.L42:
 165:c:/Users/lenovo/Desktop/AIoT/first_day/firstday_afternoon/LiteOS_Lab_STM32_IoT/iot_link/network/dtls/mbedtls/mbedtls-2.16.2/library\cipher.c **** 
 623              		.loc 2 165 9
 624 0030 00BF     		nop
 625              	.L38:
 180:c:/Users/lenovo/Desktop/AIoT/first_day/firstday_afternoon/LiteOS_Lab_STM32_IoT/iot_link/network/dtls/mbedtls/mbedtls-2.16.2/library\cipher.c **** }
 626              		.loc 2 180 1
 627 0032 0837     		adds	r7, r7, #8
 628              	.LCFI43:
 629              		.cfi_def_cfa_offset 8
 630 0034 BD46     		mov	sp, r7
 631              	.LCFI44:
 632              		.cfi_def_cfa_register 13
 633              		@ sp needed
 634 0036 80BD     		pop	{r7, pc}
 635              		.cfi_endproc
 636              	.LFE15:
 638              		.section	.text.mbedtls_cipher_setup,"ax",%progbits
 639              		.align	1
 640              		.global	mbedtls_cipher_setup
 641              		.syntax unified
 642              		.thumb
 643              		.thumb_func
 644              		.fpu fpv4-sp-d16
 646              	mbedtls_cipher_setup:
 647              	.LFB16:
 181:c:/Users/lenovo/Desktop/AIoT/first_day/firstday_afternoon/LiteOS_Lab_STM32_IoT/iot_link/network/dtls/mbedtls/mbedtls-2.16.2/library\cipher.c **** 
 182:c:/Users/lenovo/Desktop/AIoT/first_day/firstday_afternoon/LiteOS_Lab_STM32_IoT/iot_link/network/dtls/mbedtls/mbedtls-2.16.2/library\cipher.c **** int mbedtls_cipher_setup( mbedtls_cipher_context_t *ctx, const mbedtls_cipher_info_t *cipher_info )
 183:c:/Users/lenovo/Desktop/AIoT/first_day/firstday_afternoon/LiteOS_Lab_STM32_IoT/iot_link/network/dtls/mbedtls/mbedtls-2.16.2/library\cipher.c **** {
 648              		.loc 2 183 1
 649              		.cfi_startproc
 650              		@ args = 0, pretend = 0, frame = 8
 651              		@ frame_needed = 1, uses_anonymous_args = 0
 652 0000 80B5     		push	{r7, lr}
 653              	.LCFI45:
 654              		.cfi_def_cfa_offset 8
 655              		.cfi_offset 7, -8
 656              		.cfi_offset 14, -4
ARM GAS  C:\Users\lenovo\AppData\Local\Temp\ccSXL9zI.s 			page 24


 657 0002 82B0     		sub	sp, sp, #8
 658              	.LCFI46:
 659              		.cfi_def_cfa_offset 16
 660 0004 00AF     		add	r7, sp, #0
 661              	.LCFI47:
 662              		.cfi_def_cfa_register 7
 663 0006 7860     		str	r0, [r7, #4]
 664 0008 3960     		str	r1, [r7]
 184:c:/Users/lenovo/Desktop/AIoT/first_day/firstday_afternoon/LiteOS_Lab_STM32_IoT/iot_link/network/dtls/mbedtls/mbedtls-2.16.2/library\cipher.c ****     CIPHER_VALIDATE_RET( ctx != NULL );
 185:c:/Users/lenovo/Desktop/AIoT/first_day/firstday_afternoon/LiteOS_Lab_STM32_IoT/iot_link/network/dtls/mbedtls/mbedtls-2.16.2/library\cipher.c ****     if( cipher_info == NULL )
 665              		.loc 2 185 7
 666 000a 3B68     		ldr	r3, [r7]
 667 000c 002B     		cmp	r3, #0
 668 000e 01D1     		bne	.L44
 186:c:/Users/lenovo/Desktop/AIoT/first_day/firstday_afternoon/LiteOS_Lab_STM32_IoT/iot_link/network/dtls/mbedtls/mbedtls-2.16.2/library\cipher.c ****         return( MBEDTLS_ERR_CIPHER_BAD_INPUT_DATA );
 669              		.loc 2 186 15
 670 0010 0F4B     		ldr	r3, .L47
 671 0012 19E0     		b	.L45
 672              	.L44:
 187:c:/Users/lenovo/Desktop/AIoT/first_day/firstday_afternoon/LiteOS_Lab_STM32_IoT/iot_link/network/dtls/mbedtls/mbedtls-2.16.2/library\cipher.c **** 
 188:c:/Users/lenovo/Desktop/AIoT/first_day/firstday_afternoon/LiteOS_Lab_STM32_IoT/iot_link/network/dtls/mbedtls/mbedtls-2.16.2/library\cipher.c ****     memset( ctx, 0, sizeof( mbedtls_cipher_context_t ) );
 673              		.loc 2 188 5
 674 0014 4022     		movs	r2, #64
 675 0016 0021     		movs	r1, #0
 676 0018 7868     		ldr	r0, [r7, #4]
 677 001a FFF7FEFF 		bl	memset
 189:c:/Users/lenovo/Desktop/AIoT/first_day/firstday_afternoon/LiteOS_Lab_STM32_IoT/iot_link/network/dtls/mbedtls/mbedtls-2.16.2/library\cipher.c **** 
 190:c:/Users/lenovo/Desktop/AIoT/first_day/firstday_afternoon/LiteOS_Lab_STM32_IoT/iot_link/network/dtls/mbedtls/mbedtls-2.16.2/library\cipher.c ****     if( NULL == ( ctx->cipher_ctx = cipher_info->base->ctx_alloc_func() ) )
 678              		.loc 2 190 48
 679 001e 3B68     		ldr	r3, [r7]
 680 0020 9B69     		ldr	r3, [r3, #24]
 681              		.loc 2 190 54
 682 0022 5B69     		ldr	r3, [r3, #20]
 683              		.loc 2 190 37
 684 0024 9847     		blx	r3
 685              	.LVL1:
 686 0026 0246     		mov	r2, r0
 687              		.loc 2 190 35
 688 0028 7B68     		ldr	r3, [r7, #4]
 689 002a DA63     		str	r2, [r3, #60]
 690              		.loc 2 190 22
 691 002c 7B68     		ldr	r3, [r7, #4]
 692 002e DB6B     		ldr	r3, [r3, #60]
 693              		.loc 2 190 7
 694 0030 002B     		cmp	r3, #0
 695 0032 01D1     		bne	.L46
 191:c:/Users/lenovo/Desktop/AIoT/first_day/firstday_afternoon/LiteOS_Lab_STM32_IoT/iot_link/network/dtls/mbedtls/mbedtls-2.16.2/library\cipher.c ****         return( MBEDTLS_ERR_CIPHER_ALLOC_FAILED );
 696              		.loc 2 191 15
 697 0034 074B     		ldr	r3, .L47+4
 698 0036 07E0     		b	.L45
 699              	.L46:
 192:c:/Users/lenovo/Desktop/AIoT/first_day/firstday_afternoon/LiteOS_Lab_STM32_IoT/iot_link/network/dtls/mbedtls/mbedtls-2.16.2/library\cipher.c **** 
 193:c:/Users/lenovo/Desktop/AIoT/first_day/firstday_afternoon/LiteOS_Lab_STM32_IoT/iot_link/network/dtls/mbedtls/mbedtls-2.16.2/library\cipher.c ****     ctx->cipher_info = cipher_info;
 700              		.loc 2 193 22
 701 0038 7B68     		ldr	r3, [r7, #4]
 702 003a 3A68     		ldr	r2, [r7]
 703 003c 1A60     		str	r2, [r3]
ARM GAS  C:\Users\lenovo\AppData\Local\Temp\ccSXL9zI.s 			page 25


 194:c:/Users/lenovo/Desktop/AIoT/first_day/firstday_afternoon/LiteOS_Lab_STM32_IoT/iot_link/network/dtls/mbedtls/mbedtls-2.16.2/library\cipher.c **** 
 195:c:/Users/lenovo/Desktop/AIoT/first_day/firstday_afternoon/LiteOS_Lab_STM32_IoT/iot_link/network/dtls/mbedtls/mbedtls-2.16.2/library\cipher.c **** #if defined(MBEDTLS_CIPHER_MODE_WITH_PADDING)
 196:c:/Users/lenovo/Desktop/AIoT/first_day/firstday_afternoon/LiteOS_Lab_STM32_IoT/iot_link/network/dtls/mbedtls/mbedtls-2.16.2/library\cipher.c ****     /*
 197:c:/Users/lenovo/Desktop/AIoT/first_day/firstday_afternoon/LiteOS_Lab_STM32_IoT/iot_link/network/dtls/mbedtls/mbedtls-2.16.2/library\cipher.c ****      * Ignore possible errors caused by a cipher mode that doesn't use padding
 198:c:/Users/lenovo/Desktop/AIoT/first_day/firstday_afternoon/LiteOS_Lab_STM32_IoT/iot_link/network/dtls/mbedtls/mbedtls-2.16.2/library\cipher.c ****      */
 199:c:/Users/lenovo/Desktop/AIoT/first_day/firstday_afternoon/LiteOS_Lab_STM32_IoT/iot_link/network/dtls/mbedtls/mbedtls-2.16.2/library\cipher.c **** #if defined(MBEDTLS_CIPHER_PADDING_PKCS7)
 200:c:/Users/lenovo/Desktop/AIoT/first_day/firstday_afternoon/LiteOS_Lab_STM32_IoT/iot_link/network/dtls/mbedtls/mbedtls-2.16.2/library\cipher.c ****     (void) mbedtls_cipher_set_padding_mode( ctx, MBEDTLS_PADDING_PKCS7 );
 201:c:/Users/lenovo/Desktop/AIoT/first_day/firstday_afternoon/LiteOS_Lab_STM32_IoT/iot_link/network/dtls/mbedtls/mbedtls-2.16.2/library\cipher.c **** #else
 202:c:/Users/lenovo/Desktop/AIoT/first_day/firstday_afternoon/LiteOS_Lab_STM32_IoT/iot_link/network/dtls/mbedtls/mbedtls-2.16.2/library\cipher.c ****     (void) mbedtls_cipher_set_padding_mode( ctx, MBEDTLS_PADDING_NONE );
 704              		.loc 2 202 12
 705 003e 0421     		movs	r1, #4
 706 0040 7868     		ldr	r0, [r7, #4]
 707 0042 FFF7FEFF 		bl	mbedtls_cipher_set_padding_mode
 203:c:/Users/lenovo/Desktop/AIoT/first_day/firstday_afternoon/LiteOS_Lab_STM32_IoT/iot_link/network/dtls/mbedtls/mbedtls-2.16.2/library\cipher.c **** #endif
 204:c:/Users/lenovo/Desktop/AIoT/first_day/firstday_afternoon/LiteOS_Lab_STM32_IoT/iot_link/network/dtls/mbedtls/mbedtls-2.16.2/library\cipher.c **** #endif /* MBEDTLS_CIPHER_MODE_WITH_PADDING */
 205:c:/Users/lenovo/Desktop/AIoT/first_day/firstday_afternoon/LiteOS_Lab_STM32_IoT/iot_link/network/dtls/mbedtls/mbedtls-2.16.2/library\cipher.c **** 
 206:c:/Users/lenovo/Desktop/AIoT/first_day/firstday_afternoon/LiteOS_Lab_STM32_IoT/iot_link/network/dtls/mbedtls/mbedtls-2.16.2/library\cipher.c ****     return( 0 );
 708              		.loc 2 206 11
 709 0046 0023     		movs	r3, #0
 710              	.L45:
 207:c:/Users/lenovo/Desktop/AIoT/first_day/firstday_afternoon/LiteOS_Lab_STM32_IoT/iot_link/network/dtls/mbedtls/mbedtls-2.16.2/library\cipher.c **** }
 711              		.loc 2 207 1
 712 0048 1846     		mov	r0, r3
 713 004a 0837     		adds	r7, r7, #8
 714              	.LCFI48:
 715              		.cfi_def_cfa_offset 8
 716 004c BD46     		mov	sp, r7
 717              	.LCFI49:
 718              		.cfi_def_cfa_register 13
 719              		@ sp needed
 720 004e 80BD     		pop	{r7, pc}
 721              	.L48:
 722              		.align	2
 723              	.L47:
 724 0050 009FFFFF 		.word	-24832
 725 0054 809EFFFF 		.word	-24960
 726              		.cfi_endproc
 727              	.LFE16:
 729              		.section	.text.mbedtls_cipher_setkey,"ax",%progbits
 730              		.align	1
 731              		.global	mbedtls_cipher_setkey
 732              		.syntax unified
 733              		.thumb
 734              		.thumb_func
 735              		.fpu fpv4-sp-d16
 737              	mbedtls_cipher_setkey:
 738              	.LFB17:
 208:c:/Users/lenovo/Desktop/AIoT/first_day/firstday_afternoon/LiteOS_Lab_STM32_IoT/iot_link/network/dtls/mbedtls/mbedtls-2.16.2/library\cipher.c **** 
 209:c:/Users/lenovo/Desktop/AIoT/first_day/firstday_afternoon/LiteOS_Lab_STM32_IoT/iot_link/network/dtls/mbedtls/mbedtls-2.16.2/library\cipher.c **** int mbedtls_cipher_setkey( mbedtls_cipher_context_t *ctx,
 210:c:/Users/lenovo/Desktop/AIoT/first_day/firstday_afternoon/LiteOS_Lab_STM32_IoT/iot_link/network/dtls/mbedtls/mbedtls-2.16.2/library\cipher.c ****                            const unsigned char *key,
 211:c:/Users/lenovo/Desktop/AIoT/first_day/firstday_afternoon/LiteOS_Lab_STM32_IoT/iot_link/network/dtls/mbedtls/mbedtls-2.16.2/library\cipher.c ****                            int key_bitlen,
 212:c:/Users/lenovo/Desktop/AIoT/first_day/firstday_afternoon/LiteOS_Lab_STM32_IoT/iot_link/network/dtls/mbedtls/mbedtls-2.16.2/library\cipher.c ****                            const mbedtls_operation_t operation )
 213:c:/Users/lenovo/Desktop/AIoT/first_day/firstday_afternoon/LiteOS_Lab_STM32_IoT/iot_link/network/dtls/mbedtls/mbedtls-2.16.2/library\cipher.c **** {
 739              		.loc 2 213 1
 740              		.cfi_startproc
 741              		@ args = 0, pretend = 0, frame = 16
 742              		@ frame_needed = 1, uses_anonymous_args = 0
ARM GAS  C:\Users\lenovo\AppData\Local\Temp\ccSXL9zI.s 			page 26


 743 0000 80B5     		push	{r7, lr}
 744              	.LCFI50:
 745              		.cfi_def_cfa_offset 8
 746              		.cfi_offset 7, -8
 747              		.cfi_offset 14, -4
 748 0002 84B0     		sub	sp, sp, #16
 749              	.LCFI51:
 750              		.cfi_def_cfa_offset 24
 751 0004 00AF     		add	r7, sp, #0
 752              	.LCFI52:
 753              		.cfi_def_cfa_register 7
 754 0006 F860     		str	r0, [r7, #12]
 755 0008 B960     		str	r1, [r7, #8]
 756 000a 7A60     		str	r2, [r7, #4]
 757 000c FB70     		strb	r3, [r7, #3]
 214:c:/Users/lenovo/Desktop/AIoT/first_day/firstday_afternoon/LiteOS_Lab_STM32_IoT/iot_link/network/dtls/mbedtls/mbedtls-2.16.2/library\cipher.c ****     CIPHER_VALIDATE_RET( ctx != NULL );
 215:c:/Users/lenovo/Desktop/AIoT/first_day/firstday_afternoon/LiteOS_Lab_STM32_IoT/iot_link/network/dtls/mbedtls/mbedtls-2.16.2/library\cipher.c ****     CIPHER_VALIDATE_RET( key != NULL );
 216:c:/Users/lenovo/Desktop/AIoT/first_day/firstday_afternoon/LiteOS_Lab_STM32_IoT/iot_link/network/dtls/mbedtls/mbedtls-2.16.2/library\cipher.c ****     CIPHER_VALIDATE_RET( operation == MBEDTLS_ENCRYPT ||
 217:c:/Users/lenovo/Desktop/AIoT/first_day/firstday_afternoon/LiteOS_Lab_STM32_IoT/iot_link/network/dtls/mbedtls/mbedtls-2.16.2/library\cipher.c ****                          operation == MBEDTLS_DECRYPT );
 218:c:/Users/lenovo/Desktop/AIoT/first_day/firstday_afternoon/LiteOS_Lab_STM32_IoT/iot_link/network/dtls/mbedtls/mbedtls-2.16.2/library\cipher.c ****     if( ctx->cipher_info == NULL )
 758              		.loc 2 218 12
 759 000e FB68     		ldr	r3, [r7, #12]
 760 0010 1B68     		ldr	r3, [r3]
 761              		.loc 2 218 7
 762 0012 002B     		cmp	r3, #0
 763 0014 01D1     		bne	.L50
 219:c:/Users/lenovo/Desktop/AIoT/first_day/firstday_afternoon/LiteOS_Lab_STM32_IoT/iot_link/network/dtls/mbedtls/mbedtls-2.16.2/library\cipher.c ****         return( MBEDTLS_ERR_CIPHER_BAD_INPUT_DATA );
 764              		.loc 2 219 15
 765 0016 264B     		ldr	r3, .L56
 766 0018 45E0     		b	.L51
 767              	.L50:
 220:c:/Users/lenovo/Desktop/AIoT/first_day/firstday_afternoon/LiteOS_Lab_STM32_IoT/iot_link/network/dtls/mbedtls/mbedtls-2.16.2/library\cipher.c **** 
 221:c:/Users/lenovo/Desktop/AIoT/first_day/firstday_afternoon/LiteOS_Lab_STM32_IoT/iot_link/network/dtls/mbedtls/mbedtls-2.16.2/library\cipher.c ****     if( ( ctx->cipher_info->flags & MBEDTLS_CIPHER_VARIABLE_KEY_LEN ) == 0 &&
 768              		.loc 2 221 14
 769 001a FB68     		ldr	r3, [r7, #12]
 770 001c 1B68     		ldr	r3, [r3]
 771              		.loc 2 221 27
 772 001e 1B69     		ldr	r3, [r3, #16]
 773              		.loc 2 221 35
 774 0020 03F00203 		and	r3, r3, #2
 775              		.loc 2 221 7
 776 0024 002B     		cmp	r3, #0
 777 0026 08D1     		bne	.L52
 222:c:/Users/lenovo/Desktop/AIoT/first_day/firstday_afternoon/LiteOS_Lab_STM32_IoT/iot_link/network/dtls/mbedtls/mbedtls-2.16.2/library\cipher.c ****         (int) ctx->cipher_info->key_bitlen != key_bitlen )
 778              		.loc 2 222 18 discriminator 1
 779 0028 FB68     		ldr	r3, [r7, #12]
 780 002a 1B68     		ldr	r3, [r3]
 781              		.loc 2 222 31 discriminator 1
 782 002c 5B68     		ldr	r3, [r3, #4]
 783              		.loc 2 222 9 discriminator 1
 784 002e 1A46     		mov	r2, r3
 221:c:/Users/lenovo/Desktop/AIoT/first_day/firstday_afternoon/LiteOS_Lab_STM32_IoT/iot_link/network/dtls/mbedtls/mbedtls-2.16.2/library\cipher.c ****         (int) ctx->cipher_info->key_bitlen != key_bitlen )
 785              		.loc 2 221 76 discriminator 1
 786 0030 7B68     		ldr	r3, [r7, #4]
 787 0032 9342     		cmp	r3, r2
 788 0034 01D0     		beq	.L52
 223:c:/Users/lenovo/Desktop/AIoT/first_day/firstday_afternoon/LiteOS_Lab_STM32_IoT/iot_link/network/dtls/mbedtls/mbedtls-2.16.2/library\cipher.c ****     {
ARM GAS  C:\Users\lenovo\AppData\Local\Temp\ccSXL9zI.s 			page 27


 224:c:/Users/lenovo/Desktop/AIoT/first_day/firstday_afternoon/LiteOS_Lab_STM32_IoT/iot_link/network/dtls/mbedtls/mbedtls-2.16.2/library\cipher.c ****         return( MBEDTLS_ERR_CIPHER_BAD_INPUT_DATA );
 789              		.loc 2 224 15
 790 0036 1E4B     		ldr	r3, .L56
 791 0038 35E0     		b	.L51
 792              	.L52:
 225:c:/Users/lenovo/Desktop/AIoT/first_day/firstday_afternoon/LiteOS_Lab_STM32_IoT/iot_link/network/dtls/mbedtls/mbedtls-2.16.2/library\cipher.c ****     }
 226:c:/Users/lenovo/Desktop/AIoT/first_day/firstday_afternoon/LiteOS_Lab_STM32_IoT/iot_link/network/dtls/mbedtls/mbedtls-2.16.2/library\cipher.c **** 
 227:c:/Users/lenovo/Desktop/AIoT/first_day/firstday_afternoon/LiteOS_Lab_STM32_IoT/iot_link/network/dtls/mbedtls/mbedtls-2.16.2/library\cipher.c ****     ctx->key_bitlen = key_bitlen;
 793              		.loc 2 227 21
 794 003a FB68     		ldr	r3, [r7, #12]
 795 003c 7A68     		ldr	r2, [r7, #4]
 796 003e 5A60     		str	r2, [r3, #4]
 228:c:/Users/lenovo/Desktop/AIoT/first_day/firstday_afternoon/LiteOS_Lab_STM32_IoT/iot_link/network/dtls/mbedtls/mbedtls-2.16.2/library\cipher.c ****     ctx->operation = operation;
 797              		.loc 2 228 20
 798 0040 FB68     		ldr	r3, [r7, #12]
 799 0042 FA78     		ldrb	r2, [r7, #3]
 800 0044 1A72     		strb	r2, [r3, #8]
 229:c:/Users/lenovo/Desktop/AIoT/first_day/firstday_afternoon/LiteOS_Lab_STM32_IoT/iot_link/network/dtls/mbedtls/mbedtls-2.16.2/library\cipher.c **** 
 230:c:/Users/lenovo/Desktop/AIoT/first_day/firstday_afternoon/LiteOS_Lab_STM32_IoT/iot_link/network/dtls/mbedtls/mbedtls-2.16.2/library\cipher.c ****     /*
 231:c:/Users/lenovo/Desktop/AIoT/first_day/firstday_afternoon/LiteOS_Lab_STM32_IoT/iot_link/network/dtls/mbedtls/mbedtls-2.16.2/library\cipher.c ****      * For OFB, CFB and CTR mode always use the encryption key schedule
 232:c:/Users/lenovo/Desktop/AIoT/first_day/firstday_afternoon/LiteOS_Lab_STM32_IoT/iot_link/network/dtls/mbedtls/mbedtls-2.16.2/library\cipher.c ****      */
 233:c:/Users/lenovo/Desktop/AIoT/first_day/firstday_afternoon/LiteOS_Lab_STM32_IoT/iot_link/network/dtls/mbedtls/mbedtls-2.16.2/library\cipher.c ****     if( MBEDTLS_ENCRYPT == operation ||
 801              		.loc 2 233 7
 802 0046 97F90330 		ldrsb	r3, [r7, #3]
 803 004a 012B     		cmp	r3, #1
 804 004c 0ED0     		beq	.L53
 234:c:/Users/lenovo/Desktop/AIoT/first_day/firstday_afternoon/LiteOS_Lab_STM32_IoT/iot_link/network/dtls/mbedtls/mbedtls-2.16.2/library\cipher.c ****         MBEDTLS_MODE_CFB == ctx->cipher_info->mode ||
 805              		.loc 2 234 32 discriminator 1
 806 004e FB68     		ldr	r3, [r7, #12]
 807 0050 1B68     		ldr	r3, [r3]
 808              		.loc 2 234 45 discriminator 1
 809 0052 5B78     		ldrb	r3, [r3, #1]	@ zero_extendqisi2
 233:c:/Users/lenovo/Desktop/AIoT/first_day/firstday_afternoon/LiteOS_Lab_STM32_IoT/iot_link/network/dtls/mbedtls/mbedtls-2.16.2/library\cipher.c ****         MBEDTLS_MODE_CFB == ctx->cipher_info->mode ||
 810              		.loc 2 233 38 discriminator 1
 811 0054 032B     		cmp	r3, #3
 812 0056 09D0     		beq	.L53
 235:c:/Users/lenovo/Desktop/AIoT/first_day/firstday_afternoon/LiteOS_Lab_STM32_IoT/iot_link/network/dtls/mbedtls/mbedtls-2.16.2/library\cipher.c ****         MBEDTLS_MODE_OFB == ctx->cipher_info->mode ||
 813              		.loc 2 235 32
 814 0058 FB68     		ldr	r3, [r7, #12]
 815 005a 1B68     		ldr	r3, [r3]
 816              		.loc 2 235 45
 817 005c 5B78     		ldrb	r3, [r3, #1]	@ zero_extendqisi2
 234:c:/Users/lenovo/Desktop/AIoT/first_day/firstday_afternoon/LiteOS_Lab_STM32_IoT/iot_link/network/dtls/mbedtls/mbedtls-2.16.2/library\cipher.c ****         MBEDTLS_MODE_CFB == ctx->cipher_info->mode ||
 818              		.loc 2 234 52
 819 005e 042B     		cmp	r3, #4
 820 0060 04D0     		beq	.L53
 236:c:/Users/lenovo/Desktop/AIoT/first_day/firstday_afternoon/LiteOS_Lab_STM32_IoT/iot_link/network/dtls/mbedtls/mbedtls-2.16.2/library\cipher.c ****         MBEDTLS_MODE_CTR == ctx->cipher_info->mode )
 821              		.loc 2 236 32
 822 0062 FB68     		ldr	r3, [r7, #12]
 823 0064 1B68     		ldr	r3, [r3]
 824              		.loc 2 236 45
 825 0066 5B78     		ldrb	r3, [r3, #1]	@ zero_extendqisi2
 235:c:/Users/lenovo/Desktop/AIoT/first_day/firstday_afternoon/LiteOS_Lab_STM32_IoT/iot_link/network/dtls/mbedtls/mbedtls-2.16.2/library\cipher.c ****         MBEDTLS_MODE_OFB == ctx->cipher_info->mode ||
 826              		.loc 2 235 52
 827 0068 052B     		cmp	r3, #5
 828 006a 0BD1     		bne	.L54
 829              	.L53:
ARM GAS  C:\Users\lenovo\AppData\Local\Temp\ccSXL9zI.s 			page 28


 237:c:/Users/lenovo/Desktop/AIoT/first_day/firstday_afternoon/LiteOS_Lab_STM32_IoT/iot_link/network/dtls/mbedtls/mbedtls-2.16.2/library\cipher.c ****     {
 238:c:/Users/lenovo/Desktop/AIoT/first_day/firstday_afternoon/LiteOS_Lab_STM32_IoT/iot_link/network/dtls/mbedtls/mbedtls-2.16.2/library\cipher.c ****         return( ctx->cipher_info->base->setkey_enc_func( ctx->cipher_ctx, key,
 830              		.loc 2 238 20
 831 006c FB68     		ldr	r3, [r7, #12]
 832 006e 1B68     		ldr	r3, [r3]
 833              		.loc 2 238 33
 834 0070 9B69     		ldr	r3, [r3, #24]
 835              		.loc 2 238 39
 836 0072 DB68     		ldr	r3, [r3, #12]
 837              		.loc 2 238 17
 838 0074 FA68     		ldr	r2, [r7, #12]
 839 0076 D06B     		ldr	r0, [r2, #60]
 239:c:/Users/lenovo/Desktop/AIoT/first_day/firstday_afternoon/LiteOS_Lab_STM32_IoT/iot_link/network/dtls/mbedtls/mbedtls-2.16.2/library\cipher.c ****                                                          ctx->key_bitlen ) );
 840              		.loc 2 239 61
 841 0078 FA68     		ldr	r2, [r7, #12]
 842 007a 5268     		ldr	r2, [r2, #4]
 238:c:/Users/lenovo/Desktop/AIoT/first_day/firstday_afternoon/LiteOS_Lab_STM32_IoT/iot_link/network/dtls/mbedtls/mbedtls-2.16.2/library\cipher.c ****                                                          ctx->key_bitlen ) );
 843              		.loc 2 238 17
 844 007c B968     		ldr	r1, [r7, #8]
 845 007e 9847     		blx	r3
 846              	.LVL2:
 847 0080 0346     		mov	r3, r0
 848 0082 10E0     		b	.L51
 849              	.L54:
 240:c:/Users/lenovo/Desktop/AIoT/first_day/firstday_afternoon/LiteOS_Lab_STM32_IoT/iot_link/network/dtls/mbedtls/mbedtls-2.16.2/library\cipher.c ****     }
 241:c:/Users/lenovo/Desktop/AIoT/first_day/firstday_afternoon/LiteOS_Lab_STM32_IoT/iot_link/network/dtls/mbedtls/mbedtls-2.16.2/library\cipher.c **** 
 242:c:/Users/lenovo/Desktop/AIoT/first_day/firstday_afternoon/LiteOS_Lab_STM32_IoT/iot_link/network/dtls/mbedtls/mbedtls-2.16.2/library\cipher.c ****     if( MBEDTLS_DECRYPT == operation )
 850              		.loc 2 242 7
 851 0084 97F90330 		ldrsb	r3, [r7, #3]
 852 0088 002B     		cmp	r3, #0
 853 008a 0BD1     		bne	.L55
 243:c:/Users/lenovo/Desktop/AIoT/first_day/firstday_afternoon/LiteOS_Lab_STM32_IoT/iot_link/network/dtls/mbedtls/mbedtls-2.16.2/library\cipher.c ****         return( ctx->cipher_info->base->setkey_dec_func( ctx->cipher_ctx, key,
 854              		.loc 2 243 20
 855 008c FB68     		ldr	r3, [r7, #12]
 856 008e 1B68     		ldr	r3, [r3]
 857              		.loc 2 243 33
 858 0090 9B69     		ldr	r3, [r3, #24]
 859              		.loc 2 243 39
 860 0092 1B69     		ldr	r3, [r3, #16]
 861              		.loc 2 243 17
 862 0094 FA68     		ldr	r2, [r7, #12]
 863 0096 D06B     		ldr	r0, [r2, #60]
 244:c:/Users/lenovo/Desktop/AIoT/first_day/firstday_afternoon/LiteOS_Lab_STM32_IoT/iot_link/network/dtls/mbedtls/mbedtls-2.16.2/library\cipher.c ****                                                          ctx->key_bitlen ) );
 864              		.loc 2 244 61
 865 0098 FA68     		ldr	r2, [r7, #12]
 866 009a 5268     		ldr	r2, [r2, #4]
 243:c:/Users/lenovo/Desktop/AIoT/first_day/firstday_afternoon/LiteOS_Lab_STM32_IoT/iot_link/network/dtls/mbedtls/mbedtls-2.16.2/library\cipher.c ****         return( ctx->cipher_info->base->setkey_dec_func( ctx->cipher_ctx, key,
 867              		.loc 2 243 17
 868 009c B968     		ldr	r1, [r7, #8]
 869 009e 9847     		blx	r3
 870              	.LVL3:
 871 00a0 0346     		mov	r3, r0
 872 00a2 00E0     		b	.L51
 873              	.L55:
 245:c:/Users/lenovo/Desktop/AIoT/first_day/firstday_afternoon/LiteOS_Lab_STM32_IoT/iot_link/network/dtls/mbedtls/mbedtls-2.16.2/library\cipher.c **** 
 246:c:/Users/lenovo/Desktop/AIoT/first_day/firstday_afternoon/LiteOS_Lab_STM32_IoT/iot_link/network/dtls/mbedtls/mbedtls-2.16.2/library\cipher.c ****     return( MBEDTLS_ERR_CIPHER_BAD_INPUT_DATA );
 874              		.loc 2 246 11
ARM GAS  C:\Users\lenovo\AppData\Local\Temp\ccSXL9zI.s 			page 29


 875 00a4 024B     		ldr	r3, .L56
 876              	.L51:
 247:c:/Users/lenovo/Desktop/AIoT/first_day/firstday_afternoon/LiteOS_Lab_STM32_IoT/iot_link/network/dtls/mbedtls/mbedtls-2.16.2/library\cipher.c **** }
 877              		.loc 2 247 1
 878 00a6 1846     		mov	r0, r3
 879 00a8 1037     		adds	r7, r7, #16
 880              	.LCFI53:
 881              		.cfi_def_cfa_offset 8
 882 00aa BD46     		mov	sp, r7
 883              	.LCFI54:
 884              		.cfi_def_cfa_register 13
 885              		@ sp needed
 886 00ac 80BD     		pop	{r7, pc}
 887              	.L57:
 888 00ae 00BF     		.align	2
 889              	.L56:
 890 00b0 009FFFFF 		.word	-24832
 891              		.cfi_endproc
 892              	.LFE17:
 894              		.section	.text.mbedtls_cipher_set_iv,"ax",%progbits
 895              		.align	1
 896              		.global	mbedtls_cipher_set_iv
 897              		.syntax unified
 898              		.thumb
 899              		.thumb_func
 900              		.fpu fpv4-sp-d16
 902              	mbedtls_cipher_set_iv:
 903              	.LFB18:
 248:c:/Users/lenovo/Desktop/AIoT/first_day/firstday_afternoon/LiteOS_Lab_STM32_IoT/iot_link/network/dtls/mbedtls/mbedtls-2.16.2/library\cipher.c **** 
 249:c:/Users/lenovo/Desktop/AIoT/first_day/firstday_afternoon/LiteOS_Lab_STM32_IoT/iot_link/network/dtls/mbedtls/mbedtls-2.16.2/library\cipher.c **** int mbedtls_cipher_set_iv( mbedtls_cipher_context_t *ctx,
 250:c:/Users/lenovo/Desktop/AIoT/first_day/firstday_afternoon/LiteOS_Lab_STM32_IoT/iot_link/network/dtls/mbedtls/mbedtls-2.16.2/library\cipher.c ****                            const unsigned char *iv,
 251:c:/Users/lenovo/Desktop/AIoT/first_day/firstday_afternoon/LiteOS_Lab_STM32_IoT/iot_link/network/dtls/mbedtls/mbedtls-2.16.2/library\cipher.c ****                            size_t iv_len )
 252:c:/Users/lenovo/Desktop/AIoT/first_day/firstday_afternoon/LiteOS_Lab_STM32_IoT/iot_link/network/dtls/mbedtls/mbedtls-2.16.2/library\cipher.c **** {
 904              		.loc 2 252 1
 905              		.cfi_startproc
 906              		@ args = 0, pretend = 0, frame = 24
 907              		@ frame_needed = 1, uses_anonymous_args = 0
 908 0000 80B5     		push	{r7, lr}
 909              	.LCFI55:
 910              		.cfi_def_cfa_offset 8
 911              		.cfi_offset 7, -8
 912              		.cfi_offset 14, -4
 913 0002 86B0     		sub	sp, sp, #24
 914              	.LCFI56:
 915              		.cfi_def_cfa_offset 32
 916 0004 00AF     		add	r7, sp, #0
 917              	.LCFI57:
 918              		.cfi_def_cfa_register 7
 919 0006 F860     		str	r0, [r7, #12]
 920 0008 B960     		str	r1, [r7, #8]
 921 000a 7A60     		str	r2, [r7, #4]
 253:c:/Users/lenovo/Desktop/AIoT/first_day/firstday_afternoon/LiteOS_Lab_STM32_IoT/iot_link/network/dtls/mbedtls/mbedtls-2.16.2/library\cipher.c ****     size_t actual_iv_size;
 254:c:/Users/lenovo/Desktop/AIoT/first_day/firstday_afternoon/LiteOS_Lab_STM32_IoT/iot_link/network/dtls/mbedtls/mbedtls-2.16.2/library\cipher.c **** 
 255:c:/Users/lenovo/Desktop/AIoT/first_day/firstday_afternoon/LiteOS_Lab_STM32_IoT/iot_link/network/dtls/mbedtls/mbedtls-2.16.2/library\cipher.c ****     CIPHER_VALIDATE_RET( ctx != NULL );
 256:c:/Users/lenovo/Desktop/AIoT/first_day/firstday_afternoon/LiteOS_Lab_STM32_IoT/iot_link/network/dtls/mbedtls/mbedtls-2.16.2/library\cipher.c ****     CIPHER_VALIDATE_RET( iv_len == 0 || iv != NULL );
 257:c:/Users/lenovo/Desktop/AIoT/first_day/firstday_afternoon/LiteOS_Lab_STM32_IoT/iot_link/network/dtls/mbedtls/mbedtls-2.16.2/library\cipher.c ****     if( ctx->cipher_info == NULL )
 922              		.loc 2 257 12
ARM GAS  C:\Users\lenovo\AppData\Local\Temp\ccSXL9zI.s 			page 30


 923 000c FB68     		ldr	r3, [r7, #12]
 924 000e 1B68     		ldr	r3, [r3]
 925              		.loc 2 257 7
 926 0010 002B     		cmp	r3, #0
 927 0012 01D1     		bne	.L59
 258:c:/Users/lenovo/Desktop/AIoT/first_day/firstday_afternoon/LiteOS_Lab_STM32_IoT/iot_link/network/dtls/mbedtls/mbedtls-2.16.2/library\cipher.c ****         return( MBEDTLS_ERR_CIPHER_BAD_INPUT_DATA );
 928              		.loc 2 258 15
 929 0014 164B     		ldr	r3, .L65
 930 0016 26E0     		b	.L60
 931              	.L59:
 259:c:/Users/lenovo/Desktop/AIoT/first_day/firstday_afternoon/LiteOS_Lab_STM32_IoT/iot_link/network/dtls/mbedtls/mbedtls-2.16.2/library\cipher.c **** 
 260:c:/Users/lenovo/Desktop/AIoT/first_day/firstday_afternoon/LiteOS_Lab_STM32_IoT/iot_link/network/dtls/mbedtls/mbedtls-2.16.2/library\cipher.c ****     /* avoid buffer overflow in ctx->iv */
 261:c:/Users/lenovo/Desktop/AIoT/first_day/firstday_afternoon/LiteOS_Lab_STM32_IoT/iot_link/network/dtls/mbedtls/mbedtls-2.16.2/library\cipher.c ****     if( iv_len > MBEDTLS_MAX_IV_LENGTH )
 932              		.loc 2 261 7
 933 0018 7B68     		ldr	r3, [r7, #4]
 934 001a 102B     		cmp	r3, #16
 935 001c 01D9     		bls	.L61
 262:c:/Users/lenovo/Desktop/AIoT/first_day/firstday_afternoon/LiteOS_Lab_STM32_IoT/iot_link/network/dtls/mbedtls/mbedtls-2.16.2/library\cipher.c ****         return( MBEDTLS_ERR_CIPHER_FEATURE_UNAVAILABLE );
 936              		.loc 2 262 15
 937 001e 154B     		ldr	r3, .L65+4
 938 0020 21E0     		b	.L60
 939              	.L61:
 263:c:/Users/lenovo/Desktop/AIoT/first_day/firstday_afternoon/LiteOS_Lab_STM32_IoT/iot_link/network/dtls/mbedtls/mbedtls-2.16.2/library\cipher.c **** 
 264:c:/Users/lenovo/Desktop/AIoT/first_day/firstday_afternoon/LiteOS_Lab_STM32_IoT/iot_link/network/dtls/mbedtls/mbedtls-2.16.2/library\cipher.c ****     if( ( ctx->cipher_info->flags & MBEDTLS_CIPHER_VARIABLE_IV_LEN ) != 0 )
 940              		.loc 2 264 14
 941 0022 FB68     		ldr	r3, [r7, #12]
 942 0024 1B68     		ldr	r3, [r3]
 943              		.loc 2 264 27
 944 0026 1B69     		ldr	r3, [r3, #16]
 945              		.loc 2 264 35
 946 0028 03F00103 		and	r3, r3, #1
 947              		.loc 2 264 7
 948 002c 002B     		cmp	r3, #0
 949 002e 02D0     		beq	.L62
 265:c:/Users/lenovo/Desktop/AIoT/first_day/firstday_afternoon/LiteOS_Lab_STM32_IoT/iot_link/network/dtls/mbedtls/mbedtls-2.16.2/library\cipher.c ****         actual_iv_size = iv_len;
 950              		.loc 2 265 24
 951 0030 7B68     		ldr	r3, [r7, #4]
 952 0032 7B61     		str	r3, [r7, #20]
 953 0034 09E0     		b	.L63
 954              	.L62:
 266:c:/Users/lenovo/Desktop/AIoT/first_day/firstday_afternoon/LiteOS_Lab_STM32_IoT/iot_link/network/dtls/mbedtls/mbedtls-2.16.2/library\cipher.c ****     else
 267:c:/Users/lenovo/Desktop/AIoT/first_day/firstday_afternoon/LiteOS_Lab_STM32_IoT/iot_link/network/dtls/mbedtls/mbedtls-2.16.2/library\cipher.c ****     {
 268:c:/Users/lenovo/Desktop/AIoT/first_day/firstday_afternoon/LiteOS_Lab_STM32_IoT/iot_link/network/dtls/mbedtls/mbedtls-2.16.2/library\cipher.c ****         actual_iv_size = ctx->cipher_info->iv_size;
 955              		.loc 2 268 29
 956 0036 FB68     		ldr	r3, [r7, #12]
 957 0038 1B68     		ldr	r3, [r3]
 958              		.loc 2 268 24
 959 003a DB68     		ldr	r3, [r3, #12]
 960 003c 7B61     		str	r3, [r7, #20]
 269:c:/Users/lenovo/Desktop/AIoT/first_day/firstday_afternoon/LiteOS_Lab_STM32_IoT/iot_link/network/dtls/mbedtls/mbedtls-2.16.2/library\cipher.c **** 
 270:c:/Users/lenovo/Desktop/AIoT/first_day/firstday_afternoon/LiteOS_Lab_STM32_IoT/iot_link/network/dtls/mbedtls/mbedtls-2.16.2/library\cipher.c ****         /* avoid reading past the end of input buffer */
 271:c:/Users/lenovo/Desktop/AIoT/first_day/firstday_afternoon/LiteOS_Lab_STM32_IoT/iot_link/network/dtls/mbedtls/mbedtls-2.16.2/library\cipher.c ****         if( actual_iv_size > iv_len )
 961              		.loc 2 271 11
 962 003e 7A69     		ldr	r2, [r7, #20]
 963 0040 7B68     		ldr	r3, [r7, #4]
 964 0042 9A42     		cmp	r2, r3
 965 0044 01D9     		bls	.L63
ARM GAS  C:\Users\lenovo\AppData\Local\Temp\ccSXL9zI.s 			page 31


 272:c:/Users/lenovo/Desktop/AIoT/first_day/firstday_afternoon/LiteOS_Lab_STM32_IoT/iot_link/network/dtls/mbedtls/mbedtls-2.16.2/library\cipher.c ****             return( MBEDTLS_ERR_CIPHER_BAD_INPUT_DATA );
 966              		.loc 2 272 19
 967 0046 0A4B     		ldr	r3, .L65
 968 0048 0DE0     		b	.L60
 969              	.L63:
 273:c:/Users/lenovo/Desktop/AIoT/first_day/firstday_afternoon/LiteOS_Lab_STM32_IoT/iot_link/network/dtls/mbedtls/mbedtls-2.16.2/library\cipher.c ****     }
 274:c:/Users/lenovo/Desktop/AIoT/first_day/firstday_afternoon/LiteOS_Lab_STM32_IoT/iot_link/network/dtls/mbedtls/mbedtls-2.16.2/library\cipher.c **** 
 275:c:/Users/lenovo/Desktop/AIoT/first_day/firstday_afternoon/LiteOS_Lab_STM32_IoT/iot_link/network/dtls/mbedtls/mbedtls-2.16.2/library\cipher.c **** #if defined(MBEDTLS_CHACHA20_C)
 276:c:/Users/lenovo/Desktop/AIoT/first_day/firstday_afternoon/LiteOS_Lab_STM32_IoT/iot_link/network/dtls/mbedtls/mbedtls-2.16.2/library\cipher.c ****     if ( ctx->cipher_info->type == MBEDTLS_CIPHER_CHACHA20 )
 277:c:/Users/lenovo/Desktop/AIoT/first_day/firstday_afternoon/LiteOS_Lab_STM32_IoT/iot_link/network/dtls/mbedtls/mbedtls-2.16.2/library\cipher.c ****     {
 278:c:/Users/lenovo/Desktop/AIoT/first_day/firstday_afternoon/LiteOS_Lab_STM32_IoT/iot_link/network/dtls/mbedtls/mbedtls-2.16.2/library\cipher.c ****         if ( 0 != mbedtls_chacha20_starts( (mbedtls_chacha20_context*)ctx->cipher_ctx,
 279:c:/Users/lenovo/Desktop/AIoT/first_day/firstday_afternoon/LiteOS_Lab_STM32_IoT/iot_link/network/dtls/mbedtls/mbedtls-2.16.2/library\cipher.c ****                                            iv,
 280:c:/Users/lenovo/Desktop/AIoT/first_day/firstday_afternoon/LiteOS_Lab_STM32_IoT/iot_link/network/dtls/mbedtls/mbedtls-2.16.2/library\cipher.c ****                                            0U ) ) /* Initial counter value */
 281:c:/Users/lenovo/Desktop/AIoT/first_day/firstday_afternoon/LiteOS_Lab_STM32_IoT/iot_link/network/dtls/mbedtls/mbedtls-2.16.2/library\cipher.c ****         {
 282:c:/Users/lenovo/Desktop/AIoT/first_day/firstday_afternoon/LiteOS_Lab_STM32_IoT/iot_link/network/dtls/mbedtls/mbedtls-2.16.2/library\cipher.c ****             return( MBEDTLS_ERR_CIPHER_BAD_INPUT_DATA );
 283:c:/Users/lenovo/Desktop/AIoT/first_day/firstday_afternoon/LiteOS_Lab_STM32_IoT/iot_link/network/dtls/mbedtls/mbedtls-2.16.2/library\cipher.c ****         }
 284:c:/Users/lenovo/Desktop/AIoT/first_day/firstday_afternoon/LiteOS_Lab_STM32_IoT/iot_link/network/dtls/mbedtls/mbedtls-2.16.2/library\cipher.c ****     }
 285:c:/Users/lenovo/Desktop/AIoT/first_day/firstday_afternoon/LiteOS_Lab_STM32_IoT/iot_link/network/dtls/mbedtls/mbedtls-2.16.2/library\cipher.c **** #endif
 286:c:/Users/lenovo/Desktop/AIoT/first_day/firstday_afternoon/LiteOS_Lab_STM32_IoT/iot_link/network/dtls/mbedtls/mbedtls-2.16.2/library\cipher.c **** 
 287:c:/Users/lenovo/Desktop/AIoT/first_day/firstday_afternoon/LiteOS_Lab_STM32_IoT/iot_link/network/dtls/mbedtls/mbedtls-2.16.2/library\cipher.c ****     if ( actual_iv_size != 0 )
 970              		.loc 2 287 8
 971 004a 7B69     		ldr	r3, [r7, #20]
 972 004c 002B     		cmp	r3, #0
 973 004e 09D0     		beq	.L64
 288:c:/Users/lenovo/Desktop/AIoT/first_day/firstday_afternoon/LiteOS_Lab_STM32_IoT/iot_link/network/dtls/mbedtls/mbedtls-2.16.2/library\cipher.c ****     {
 289:c:/Users/lenovo/Desktop/AIoT/first_day/firstday_afternoon/LiteOS_Lab_STM32_IoT/iot_link/network/dtls/mbedtls/mbedtls-2.16.2/library\cipher.c ****         memcpy( ctx->iv, iv, actual_iv_size );
 974              		.loc 2 289 20
 975 0050 FB68     		ldr	r3, [r7, #12]
 976 0052 2833     		adds	r3, r3, #40
 977              		.loc 2 289 9
 978 0054 7A69     		ldr	r2, [r7, #20]
 979 0056 B968     		ldr	r1, [r7, #8]
 980 0058 1846     		mov	r0, r3
 981 005a FFF7FEFF 		bl	memcpy
 290:c:/Users/lenovo/Desktop/AIoT/first_day/firstday_afternoon/LiteOS_Lab_STM32_IoT/iot_link/network/dtls/mbedtls/mbedtls-2.16.2/library\cipher.c ****         ctx->iv_size = actual_iv_size;
 982              		.loc 2 290 22
 983 005e FB68     		ldr	r3, [r7, #12]
 984 0060 7A69     		ldr	r2, [r7, #20]
 985 0062 9A63     		str	r2, [r3, #56]
 986              	.L64:
 291:c:/Users/lenovo/Desktop/AIoT/first_day/firstday_afternoon/LiteOS_Lab_STM32_IoT/iot_link/network/dtls/mbedtls/mbedtls-2.16.2/library\cipher.c ****     }
 292:c:/Users/lenovo/Desktop/AIoT/first_day/firstday_afternoon/LiteOS_Lab_STM32_IoT/iot_link/network/dtls/mbedtls/mbedtls-2.16.2/library\cipher.c **** 
 293:c:/Users/lenovo/Desktop/AIoT/first_day/firstday_afternoon/LiteOS_Lab_STM32_IoT/iot_link/network/dtls/mbedtls/mbedtls-2.16.2/library\cipher.c ****     return( 0 );
 987              		.loc 2 293 11
 988 0064 0023     		movs	r3, #0
 989              	.L60:
 294:c:/Users/lenovo/Desktop/AIoT/first_day/firstday_afternoon/LiteOS_Lab_STM32_IoT/iot_link/network/dtls/mbedtls/mbedtls-2.16.2/library\cipher.c **** }
 990              		.loc 2 294 1
 991 0066 1846     		mov	r0, r3
 992 0068 1837     		adds	r7, r7, #24
 993              	.LCFI58:
 994              		.cfi_def_cfa_offset 8
 995 006a BD46     		mov	sp, r7
 996              	.LCFI59:
 997              		.cfi_def_cfa_register 13
 998              		@ sp needed
 999 006c 80BD     		pop	{r7, pc}
ARM GAS  C:\Users\lenovo\AppData\Local\Temp\ccSXL9zI.s 			page 32


 1000              	.L66:
 1001 006e 00BF     		.align	2
 1002              	.L65:
 1003 0070 009FFFFF 		.word	-24832
 1004 0074 809FFFFF 		.word	-24704
 1005              		.cfi_endproc
 1006              	.LFE18:
 1008              		.section	.text.mbedtls_cipher_reset,"ax",%progbits
 1009              		.align	1
 1010              		.global	mbedtls_cipher_reset
 1011              		.syntax unified
 1012              		.thumb
 1013              		.thumb_func
 1014              		.fpu fpv4-sp-d16
 1016              	mbedtls_cipher_reset:
 1017              	.LFB19:
 295:c:/Users/lenovo/Desktop/AIoT/first_day/firstday_afternoon/LiteOS_Lab_STM32_IoT/iot_link/network/dtls/mbedtls/mbedtls-2.16.2/library\cipher.c **** 
 296:c:/Users/lenovo/Desktop/AIoT/first_day/firstday_afternoon/LiteOS_Lab_STM32_IoT/iot_link/network/dtls/mbedtls/mbedtls-2.16.2/library\cipher.c **** int mbedtls_cipher_reset( mbedtls_cipher_context_t *ctx )
 297:c:/Users/lenovo/Desktop/AIoT/first_day/firstday_afternoon/LiteOS_Lab_STM32_IoT/iot_link/network/dtls/mbedtls/mbedtls-2.16.2/library\cipher.c **** {
 1018              		.loc 2 297 1
 1019              		.cfi_startproc
 1020              		@ args = 0, pretend = 0, frame = 8
 1021              		@ frame_needed = 1, uses_anonymous_args = 0
 1022              		@ link register save eliminated.
 1023 0000 80B4     		push	{r7}
 1024              	.LCFI60:
 1025              		.cfi_def_cfa_offset 4
 1026              		.cfi_offset 7, -4
 1027 0002 83B0     		sub	sp, sp, #12
 1028              	.LCFI61:
 1029              		.cfi_def_cfa_offset 16
 1030 0004 00AF     		add	r7, sp, #0
 1031              	.LCFI62:
 1032              		.cfi_def_cfa_register 7
 1033 0006 7860     		str	r0, [r7, #4]
 298:c:/Users/lenovo/Desktop/AIoT/first_day/firstday_afternoon/LiteOS_Lab_STM32_IoT/iot_link/network/dtls/mbedtls/mbedtls-2.16.2/library\cipher.c ****     CIPHER_VALIDATE_RET( ctx != NULL );
 299:c:/Users/lenovo/Desktop/AIoT/first_day/firstday_afternoon/LiteOS_Lab_STM32_IoT/iot_link/network/dtls/mbedtls/mbedtls-2.16.2/library\cipher.c ****     if( ctx->cipher_info == NULL )
 1034              		.loc 2 299 12
 1035 0008 7B68     		ldr	r3, [r7, #4]
 1036 000a 1B68     		ldr	r3, [r3]
 1037              		.loc 2 299 7
 1038 000c 002B     		cmp	r3, #0
 1039 000e 01D1     		bne	.L68
 300:c:/Users/lenovo/Desktop/AIoT/first_day/firstday_afternoon/LiteOS_Lab_STM32_IoT/iot_link/network/dtls/mbedtls/mbedtls-2.16.2/library\cipher.c ****         return( MBEDTLS_ERR_CIPHER_BAD_INPUT_DATA );
 1040              		.loc 2 300 15
 1041 0010 054B     		ldr	r3, .L70
 1042 0012 03E0     		b	.L69
 1043              	.L68:
 301:c:/Users/lenovo/Desktop/AIoT/first_day/firstday_afternoon/LiteOS_Lab_STM32_IoT/iot_link/network/dtls/mbedtls/mbedtls-2.16.2/library\cipher.c **** 
 302:c:/Users/lenovo/Desktop/AIoT/first_day/firstday_afternoon/LiteOS_Lab_STM32_IoT/iot_link/network/dtls/mbedtls/mbedtls-2.16.2/library\cipher.c ****     ctx->unprocessed_len = 0;
 1044              		.loc 2 302 26
 1045 0014 7B68     		ldr	r3, [r7, #4]
 1046 0016 0022     		movs	r2, #0
 1047 0018 5A62     		str	r2, [r3, #36]
 303:c:/Users/lenovo/Desktop/AIoT/first_day/firstday_afternoon/LiteOS_Lab_STM32_IoT/iot_link/network/dtls/mbedtls/mbedtls-2.16.2/library\cipher.c **** 
 304:c:/Users/lenovo/Desktop/AIoT/first_day/firstday_afternoon/LiteOS_Lab_STM32_IoT/iot_link/network/dtls/mbedtls/mbedtls-2.16.2/library\cipher.c ****     return( 0 );
 1048              		.loc 2 304 11
ARM GAS  C:\Users\lenovo\AppData\Local\Temp\ccSXL9zI.s 			page 33


 1049 001a 0023     		movs	r3, #0
 1050              	.L69:
 305:c:/Users/lenovo/Desktop/AIoT/first_day/firstday_afternoon/LiteOS_Lab_STM32_IoT/iot_link/network/dtls/mbedtls/mbedtls-2.16.2/library\cipher.c **** }
 1051              		.loc 2 305 1
 1052 001c 1846     		mov	r0, r3
 1053 001e 0C37     		adds	r7, r7, #12
 1054              	.LCFI63:
 1055              		.cfi_def_cfa_offset 4
 1056 0020 BD46     		mov	sp, r7
 1057              	.LCFI64:
 1058              		.cfi_def_cfa_register 13
 1059              		@ sp needed
 1060 0022 5DF8047B 		ldr	r7, [sp], #4
 1061              	.LCFI65:
 1062              		.cfi_restore 7
 1063              		.cfi_def_cfa_offset 0
 1064 0026 7047     		bx	lr
 1065              	.L71:
 1066              		.align	2
 1067              	.L70:
 1068 0028 009FFFFF 		.word	-24832
 1069              		.cfi_endproc
 1070              	.LFE19:
 1072              		.section	.text.mbedtls_cipher_update,"ax",%progbits
 1073              		.align	1
 1074              		.global	mbedtls_cipher_update
 1075              		.syntax unified
 1076              		.thumb
 1077              		.thumb_func
 1078              		.fpu fpv4-sp-d16
 1080              	mbedtls_cipher_update:
 1081              	.LFB20:
 306:c:/Users/lenovo/Desktop/AIoT/first_day/firstday_afternoon/LiteOS_Lab_STM32_IoT/iot_link/network/dtls/mbedtls/mbedtls-2.16.2/library\cipher.c **** 
 307:c:/Users/lenovo/Desktop/AIoT/first_day/firstday_afternoon/LiteOS_Lab_STM32_IoT/iot_link/network/dtls/mbedtls/mbedtls-2.16.2/library\cipher.c **** #if defined(MBEDTLS_GCM_C) || defined(MBEDTLS_CHACHAPOLY_C)
 308:c:/Users/lenovo/Desktop/AIoT/first_day/firstday_afternoon/LiteOS_Lab_STM32_IoT/iot_link/network/dtls/mbedtls/mbedtls-2.16.2/library\cipher.c **** int mbedtls_cipher_update_ad( mbedtls_cipher_context_t *ctx,
 309:c:/Users/lenovo/Desktop/AIoT/first_day/firstday_afternoon/LiteOS_Lab_STM32_IoT/iot_link/network/dtls/mbedtls/mbedtls-2.16.2/library\cipher.c ****                       const unsigned char *ad, size_t ad_len )
 310:c:/Users/lenovo/Desktop/AIoT/first_day/firstday_afternoon/LiteOS_Lab_STM32_IoT/iot_link/network/dtls/mbedtls/mbedtls-2.16.2/library\cipher.c **** {
 311:c:/Users/lenovo/Desktop/AIoT/first_day/firstday_afternoon/LiteOS_Lab_STM32_IoT/iot_link/network/dtls/mbedtls/mbedtls-2.16.2/library\cipher.c ****     CIPHER_VALIDATE_RET( ctx != NULL );
 312:c:/Users/lenovo/Desktop/AIoT/first_day/firstday_afternoon/LiteOS_Lab_STM32_IoT/iot_link/network/dtls/mbedtls/mbedtls-2.16.2/library\cipher.c ****     CIPHER_VALIDATE_RET( ad_len == 0 || ad != NULL );
 313:c:/Users/lenovo/Desktop/AIoT/first_day/firstday_afternoon/LiteOS_Lab_STM32_IoT/iot_link/network/dtls/mbedtls/mbedtls-2.16.2/library\cipher.c ****     if( ctx->cipher_info == NULL )
 314:c:/Users/lenovo/Desktop/AIoT/first_day/firstday_afternoon/LiteOS_Lab_STM32_IoT/iot_link/network/dtls/mbedtls/mbedtls-2.16.2/library\cipher.c ****         return( MBEDTLS_ERR_CIPHER_BAD_INPUT_DATA );
 315:c:/Users/lenovo/Desktop/AIoT/first_day/firstday_afternoon/LiteOS_Lab_STM32_IoT/iot_link/network/dtls/mbedtls/mbedtls-2.16.2/library\cipher.c **** 
 316:c:/Users/lenovo/Desktop/AIoT/first_day/firstday_afternoon/LiteOS_Lab_STM32_IoT/iot_link/network/dtls/mbedtls/mbedtls-2.16.2/library\cipher.c **** #if defined(MBEDTLS_GCM_C)
 317:c:/Users/lenovo/Desktop/AIoT/first_day/firstday_afternoon/LiteOS_Lab_STM32_IoT/iot_link/network/dtls/mbedtls/mbedtls-2.16.2/library\cipher.c ****     if( MBEDTLS_MODE_GCM == ctx->cipher_info->mode )
 318:c:/Users/lenovo/Desktop/AIoT/first_day/firstday_afternoon/LiteOS_Lab_STM32_IoT/iot_link/network/dtls/mbedtls/mbedtls-2.16.2/library\cipher.c ****     {
 319:c:/Users/lenovo/Desktop/AIoT/first_day/firstday_afternoon/LiteOS_Lab_STM32_IoT/iot_link/network/dtls/mbedtls/mbedtls-2.16.2/library\cipher.c ****         return( mbedtls_gcm_starts( (mbedtls_gcm_context *) ctx->cipher_ctx, ctx->operation,
 320:c:/Users/lenovo/Desktop/AIoT/first_day/firstday_afternoon/LiteOS_Lab_STM32_IoT/iot_link/network/dtls/mbedtls/mbedtls-2.16.2/library\cipher.c ****                                     ctx->iv, ctx->iv_size, ad, ad_len ) );
 321:c:/Users/lenovo/Desktop/AIoT/first_day/firstday_afternoon/LiteOS_Lab_STM32_IoT/iot_link/network/dtls/mbedtls/mbedtls-2.16.2/library\cipher.c ****     }
 322:c:/Users/lenovo/Desktop/AIoT/first_day/firstday_afternoon/LiteOS_Lab_STM32_IoT/iot_link/network/dtls/mbedtls/mbedtls-2.16.2/library\cipher.c **** #endif
 323:c:/Users/lenovo/Desktop/AIoT/first_day/firstday_afternoon/LiteOS_Lab_STM32_IoT/iot_link/network/dtls/mbedtls/mbedtls-2.16.2/library\cipher.c **** 
 324:c:/Users/lenovo/Desktop/AIoT/first_day/firstday_afternoon/LiteOS_Lab_STM32_IoT/iot_link/network/dtls/mbedtls/mbedtls-2.16.2/library\cipher.c **** #if defined(MBEDTLS_CHACHAPOLY_C)
 325:c:/Users/lenovo/Desktop/AIoT/first_day/firstday_afternoon/LiteOS_Lab_STM32_IoT/iot_link/network/dtls/mbedtls/mbedtls-2.16.2/library\cipher.c ****     if (MBEDTLS_CIPHER_CHACHA20_POLY1305 == ctx->cipher_info->type )
 326:c:/Users/lenovo/Desktop/AIoT/first_day/firstday_afternoon/LiteOS_Lab_STM32_IoT/iot_link/network/dtls/mbedtls/mbedtls-2.16.2/library\cipher.c ****     {
 327:c:/Users/lenovo/Desktop/AIoT/first_day/firstday_afternoon/LiteOS_Lab_STM32_IoT/iot_link/network/dtls/mbedtls/mbedtls-2.16.2/library\cipher.c ****         int result;
 328:c:/Users/lenovo/Desktop/AIoT/first_day/firstday_afternoon/LiteOS_Lab_STM32_IoT/iot_link/network/dtls/mbedtls/mbedtls-2.16.2/library\cipher.c ****         mbedtls_chachapoly_mode_t mode;
 329:c:/Users/lenovo/Desktop/AIoT/first_day/firstday_afternoon/LiteOS_Lab_STM32_IoT/iot_link/network/dtls/mbedtls/mbedtls-2.16.2/library\cipher.c **** 
 330:c:/Users/lenovo/Desktop/AIoT/first_day/firstday_afternoon/LiteOS_Lab_STM32_IoT/iot_link/network/dtls/mbedtls/mbedtls-2.16.2/library\cipher.c ****         mode = ( ctx->operation == MBEDTLS_ENCRYPT )
ARM GAS  C:\Users\lenovo\AppData\Local\Temp\ccSXL9zI.s 			page 34


 331:c:/Users/lenovo/Desktop/AIoT/first_day/firstday_afternoon/LiteOS_Lab_STM32_IoT/iot_link/network/dtls/mbedtls/mbedtls-2.16.2/library\cipher.c ****                 ? MBEDTLS_CHACHAPOLY_ENCRYPT
 332:c:/Users/lenovo/Desktop/AIoT/first_day/firstday_afternoon/LiteOS_Lab_STM32_IoT/iot_link/network/dtls/mbedtls/mbedtls-2.16.2/library\cipher.c ****                 : MBEDTLS_CHACHAPOLY_DECRYPT;
 333:c:/Users/lenovo/Desktop/AIoT/first_day/firstday_afternoon/LiteOS_Lab_STM32_IoT/iot_link/network/dtls/mbedtls/mbedtls-2.16.2/library\cipher.c **** 
 334:c:/Users/lenovo/Desktop/AIoT/first_day/firstday_afternoon/LiteOS_Lab_STM32_IoT/iot_link/network/dtls/mbedtls/mbedtls-2.16.2/library\cipher.c ****         result = mbedtls_chachapoly_starts( (mbedtls_chachapoly_context*) ctx->cipher_ctx,
 335:c:/Users/lenovo/Desktop/AIoT/first_day/firstday_afternoon/LiteOS_Lab_STM32_IoT/iot_link/network/dtls/mbedtls/mbedtls-2.16.2/library\cipher.c ****                                                         ctx->iv,
 336:c:/Users/lenovo/Desktop/AIoT/first_day/firstday_afternoon/LiteOS_Lab_STM32_IoT/iot_link/network/dtls/mbedtls/mbedtls-2.16.2/library\cipher.c ****                                                         mode );
 337:c:/Users/lenovo/Desktop/AIoT/first_day/firstday_afternoon/LiteOS_Lab_STM32_IoT/iot_link/network/dtls/mbedtls/mbedtls-2.16.2/library\cipher.c ****         if ( result != 0 )
 338:c:/Users/lenovo/Desktop/AIoT/first_day/firstday_afternoon/LiteOS_Lab_STM32_IoT/iot_link/network/dtls/mbedtls/mbedtls-2.16.2/library\cipher.c ****             return( result );
 339:c:/Users/lenovo/Desktop/AIoT/first_day/firstday_afternoon/LiteOS_Lab_STM32_IoT/iot_link/network/dtls/mbedtls/mbedtls-2.16.2/library\cipher.c **** 
 340:c:/Users/lenovo/Desktop/AIoT/first_day/firstday_afternoon/LiteOS_Lab_STM32_IoT/iot_link/network/dtls/mbedtls/mbedtls-2.16.2/library\cipher.c ****         return( mbedtls_chachapoly_update_aad( (mbedtls_chachapoly_context*) ctx->cipher_ctx,
 341:c:/Users/lenovo/Desktop/AIoT/first_day/firstday_afternoon/LiteOS_Lab_STM32_IoT/iot_link/network/dtls/mbedtls/mbedtls-2.16.2/library\cipher.c ****                                                ad, ad_len ) );
 342:c:/Users/lenovo/Desktop/AIoT/first_day/firstday_afternoon/LiteOS_Lab_STM32_IoT/iot_link/network/dtls/mbedtls/mbedtls-2.16.2/library\cipher.c ****     }
 343:c:/Users/lenovo/Desktop/AIoT/first_day/firstday_afternoon/LiteOS_Lab_STM32_IoT/iot_link/network/dtls/mbedtls/mbedtls-2.16.2/library\cipher.c **** #endif
 344:c:/Users/lenovo/Desktop/AIoT/first_day/firstday_afternoon/LiteOS_Lab_STM32_IoT/iot_link/network/dtls/mbedtls/mbedtls-2.16.2/library\cipher.c **** 
 345:c:/Users/lenovo/Desktop/AIoT/first_day/firstday_afternoon/LiteOS_Lab_STM32_IoT/iot_link/network/dtls/mbedtls/mbedtls-2.16.2/library\cipher.c ****     return( 0 );
 346:c:/Users/lenovo/Desktop/AIoT/first_day/firstday_afternoon/LiteOS_Lab_STM32_IoT/iot_link/network/dtls/mbedtls/mbedtls-2.16.2/library\cipher.c **** }
 347:c:/Users/lenovo/Desktop/AIoT/first_day/firstday_afternoon/LiteOS_Lab_STM32_IoT/iot_link/network/dtls/mbedtls/mbedtls-2.16.2/library\cipher.c **** #endif /* MBEDTLS_GCM_C || MBEDTLS_CHACHAPOLY_C */
 348:c:/Users/lenovo/Desktop/AIoT/first_day/firstday_afternoon/LiteOS_Lab_STM32_IoT/iot_link/network/dtls/mbedtls/mbedtls-2.16.2/library\cipher.c **** 
 349:c:/Users/lenovo/Desktop/AIoT/first_day/firstday_afternoon/LiteOS_Lab_STM32_IoT/iot_link/network/dtls/mbedtls/mbedtls-2.16.2/library\cipher.c **** int mbedtls_cipher_update( mbedtls_cipher_context_t *ctx, const unsigned char *input,
 350:c:/Users/lenovo/Desktop/AIoT/first_day/firstday_afternoon/LiteOS_Lab_STM32_IoT/iot_link/network/dtls/mbedtls/mbedtls-2.16.2/library\cipher.c ****                    size_t ilen, unsigned char *output, size_t *olen )
 351:c:/Users/lenovo/Desktop/AIoT/first_day/firstday_afternoon/LiteOS_Lab_STM32_IoT/iot_link/network/dtls/mbedtls/mbedtls-2.16.2/library\cipher.c **** {
 1082              		.loc 2 351 1
 1083              		.cfi_startproc
 1084              		@ args = 4, pretend = 0, frame = 32
 1085              		@ frame_needed = 1, uses_anonymous_args = 0
 1086 0000 B0B5     		push	{r4, r5, r7, lr}
 1087              	.LCFI66:
 1088              		.cfi_def_cfa_offset 16
 1089              		.cfi_offset 4, -16
 1090              		.cfi_offset 5, -12
 1091              		.cfi_offset 7, -8
 1092              		.cfi_offset 14, -4
 1093 0002 8AB0     		sub	sp, sp, #40
 1094              	.LCFI67:
 1095              		.cfi_def_cfa_offset 56
 1096 0004 02AF     		add	r7, sp, #8
 1097              	.LCFI68:
 1098              		.cfi_def_cfa 7, 48
 1099 0006 F860     		str	r0, [r7, #12]
 1100 0008 B960     		str	r1, [r7, #8]
 1101 000a 7A60     		str	r2, [r7, #4]
 1102 000c 3B60     		str	r3, [r7]
 352:c:/Users/lenovo/Desktop/AIoT/first_day/firstday_afternoon/LiteOS_Lab_STM32_IoT/iot_link/network/dtls/mbedtls/mbedtls-2.16.2/library\cipher.c ****     int ret;
 353:c:/Users/lenovo/Desktop/AIoT/first_day/firstday_afternoon/LiteOS_Lab_STM32_IoT/iot_link/network/dtls/mbedtls/mbedtls-2.16.2/library\cipher.c ****     size_t block_size;
 354:c:/Users/lenovo/Desktop/AIoT/first_day/firstday_afternoon/LiteOS_Lab_STM32_IoT/iot_link/network/dtls/mbedtls/mbedtls-2.16.2/library\cipher.c **** 
 355:c:/Users/lenovo/Desktop/AIoT/first_day/firstday_afternoon/LiteOS_Lab_STM32_IoT/iot_link/network/dtls/mbedtls/mbedtls-2.16.2/library\cipher.c ****     CIPHER_VALIDATE_RET( ctx != NULL );
 356:c:/Users/lenovo/Desktop/AIoT/first_day/firstday_afternoon/LiteOS_Lab_STM32_IoT/iot_link/network/dtls/mbedtls/mbedtls-2.16.2/library\cipher.c ****     CIPHER_VALIDATE_RET( ilen == 0 || input != NULL );
 357:c:/Users/lenovo/Desktop/AIoT/first_day/firstday_afternoon/LiteOS_Lab_STM32_IoT/iot_link/network/dtls/mbedtls/mbedtls-2.16.2/library\cipher.c ****     CIPHER_VALIDATE_RET( output != NULL );
 358:c:/Users/lenovo/Desktop/AIoT/first_day/firstday_afternoon/LiteOS_Lab_STM32_IoT/iot_link/network/dtls/mbedtls/mbedtls-2.16.2/library\cipher.c ****     CIPHER_VALIDATE_RET( olen != NULL );
 359:c:/Users/lenovo/Desktop/AIoT/first_day/firstday_afternoon/LiteOS_Lab_STM32_IoT/iot_link/network/dtls/mbedtls/mbedtls-2.16.2/library\cipher.c ****     if( ctx->cipher_info == NULL )
 1103              		.loc 2 359 12
 1104 000e FB68     		ldr	r3, [r7, #12]
 1105 0010 1B68     		ldr	r3, [r3]
 1106              		.loc 2 359 7
 1107 0012 002B     		cmp	r3, #0
 1108 0014 01D1     		bne	.L73
 360:c:/Users/lenovo/Desktop/AIoT/first_day/firstday_afternoon/LiteOS_Lab_STM32_IoT/iot_link/network/dtls/mbedtls/mbedtls-2.16.2/library\cipher.c ****         return( MBEDTLS_ERR_CIPHER_BAD_INPUT_DATA );
ARM GAS  C:\Users\lenovo\AppData\Local\Temp\ccSXL9zI.s 			page 35


 1109              		.loc 2 360 15
 1110 0016 964B     		ldr	r3, .L93
 1111 0018 25E1     		b	.L74
 1112              	.L73:
 361:c:/Users/lenovo/Desktop/AIoT/first_day/firstday_afternoon/LiteOS_Lab_STM32_IoT/iot_link/network/dtls/mbedtls/mbedtls-2.16.2/library\cipher.c **** 
 362:c:/Users/lenovo/Desktop/AIoT/first_day/firstday_afternoon/LiteOS_Lab_STM32_IoT/iot_link/network/dtls/mbedtls/mbedtls-2.16.2/library\cipher.c ****     *olen = 0;
 1113              		.loc 2 362 11
 1114 001a 3B6B     		ldr	r3, [r7, #48]
 1115 001c 0022     		movs	r2, #0
 1116 001e 1A60     		str	r2, [r3]
 363:c:/Users/lenovo/Desktop/AIoT/first_day/firstday_afternoon/LiteOS_Lab_STM32_IoT/iot_link/network/dtls/mbedtls/mbedtls-2.16.2/library\cipher.c ****     block_size = mbedtls_cipher_get_block_size( ctx );
 1117              		.loc 2 363 18
 1118 0020 F868     		ldr	r0, [r7, #12]
 1119 0022 FFF7FEFF 		bl	mbedtls_cipher_get_block_size
 1120 0026 B861     		str	r0, [r7, #24]
 364:c:/Users/lenovo/Desktop/AIoT/first_day/firstday_afternoon/LiteOS_Lab_STM32_IoT/iot_link/network/dtls/mbedtls/mbedtls-2.16.2/library\cipher.c **** 
 365:c:/Users/lenovo/Desktop/AIoT/first_day/firstday_afternoon/LiteOS_Lab_STM32_IoT/iot_link/network/dtls/mbedtls/mbedtls-2.16.2/library\cipher.c ****     if( ctx->cipher_info->mode == MBEDTLS_MODE_ECB )
 1121              		.loc 2 365 12
 1122 0028 FB68     		ldr	r3, [r7, #12]
 1123 002a 1B68     		ldr	r3, [r3]
 1124              		.loc 2 365 25
 1125 002c 5B78     		ldrb	r3, [r3, #1]	@ zero_extendqisi2
 1126              		.loc 2 365 7
 1127 002e 012B     		cmp	r3, #1
 1128 0030 1CD1     		bne	.L75
 366:c:/Users/lenovo/Desktop/AIoT/first_day/firstday_afternoon/LiteOS_Lab_STM32_IoT/iot_link/network/dtls/mbedtls/mbedtls-2.16.2/library\cipher.c ****     {
 367:c:/Users/lenovo/Desktop/AIoT/first_day/firstday_afternoon/LiteOS_Lab_STM32_IoT/iot_link/network/dtls/mbedtls/mbedtls-2.16.2/library\cipher.c ****         if( ilen != block_size )
 1129              		.loc 2 367 11
 1130 0032 7A68     		ldr	r2, [r7, #4]
 1131 0034 BB69     		ldr	r3, [r7, #24]
 1132 0036 9A42     		cmp	r2, r3
 1133 0038 01D0     		beq	.L76
 368:c:/Users/lenovo/Desktop/AIoT/first_day/firstday_afternoon/LiteOS_Lab_STM32_IoT/iot_link/network/dtls/mbedtls/mbedtls-2.16.2/library\cipher.c ****             return( MBEDTLS_ERR_CIPHER_FULL_BLOCK_EXPECTED );
 1134              		.loc 2 368 19
 1135 003a 8E4B     		ldr	r3, .L93+4
 1136 003c 13E1     		b	.L74
 1137              	.L76:
 369:c:/Users/lenovo/Desktop/AIoT/first_day/firstday_afternoon/LiteOS_Lab_STM32_IoT/iot_link/network/dtls/mbedtls/mbedtls-2.16.2/library\cipher.c **** 
 370:c:/Users/lenovo/Desktop/AIoT/first_day/firstday_afternoon/LiteOS_Lab_STM32_IoT/iot_link/network/dtls/mbedtls/mbedtls-2.16.2/library\cipher.c ****         *olen = ilen;
 1138              		.loc 2 370 15
 1139 003e 3B6B     		ldr	r3, [r7, #48]
 1140 0040 7A68     		ldr	r2, [r7, #4]
 1141 0042 1A60     		str	r2, [r3]
 371:c:/Users/lenovo/Desktop/AIoT/first_day/firstday_afternoon/LiteOS_Lab_STM32_IoT/iot_link/network/dtls/mbedtls/mbedtls-2.16.2/library\cipher.c **** 
 372:c:/Users/lenovo/Desktop/AIoT/first_day/firstday_afternoon/LiteOS_Lab_STM32_IoT/iot_link/network/dtls/mbedtls/mbedtls-2.16.2/library\cipher.c ****         if( 0 != ( ret = ctx->cipher_info->base->ecb_func( ctx->cipher_ctx,
 1142              		.loc 2 372 29
 1143 0044 FB68     		ldr	r3, [r7, #12]
 1144 0046 1B68     		ldr	r3, [r3]
 1145              		.loc 2 372 42
 1146 0048 9B69     		ldr	r3, [r3, #24]
 1147              		.loc 2 372 48
 1148 004a 5C68     		ldr	r4, [r3, #4]
 1149              		.loc 2 372 26
 1150 004c FB68     		ldr	r3, [r7, #12]
 1151 004e D86B     		ldr	r0, [r3, #60]
 1152 0050 FB68     		ldr	r3, [r7, #12]
 1153 0052 93F90810 		ldrsb	r1, [r3, #8]
ARM GAS  C:\Users\lenovo\AppData\Local\Temp\ccSXL9zI.s 			page 36


 1154 0056 3B68     		ldr	r3, [r7]
 1155 0058 BA68     		ldr	r2, [r7, #8]
 1156 005a A047     		blx	r4
 1157              	.LVL4:
 1158 005c 7861     		str	r0, [r7, #20]
 1159              		.loc 2 372 11
 1160 005e 7B69     		ldr	r3, [r7, #20]
 1161 0060 002B     		cmp	r3, #0
 1162 0062 01D0     		beq	.L77
 373:c:/Users/lenovo/Desktop/AIoT/first_day/firstday_afternoon/LiteOS_Lab_STM32_IoT/iot_link/network/dtls/mbedtls/mbedtls-2.16.2/library\cipher.c ****                     ctx->operation, input, output ) ) )
 374:c:/Users/lenovo/Desktop/AIoT/first_day/firstday_afternoon/LiteOS_Lab_STM32_IoT/iot_link/network/dtls/mbedtls/mbedtls-2.16.2/library\cipher.c ****         {
 375:c:/Users/lenovo/Desktop/AIoT/first_day/firstday_afternoon/LiteOS_Lab_STM32_IoT/iot_link/network/dtls/mbedtls/mbedtls-2.16.2/library\cipher.c ****             return( ret );
 1163              		.loc 2 375 19
 1164 0064 7B69     		ldr	r3, [r7, #20]
 1165 0066 FEE0     		b	.L74
 1166              	.L77:
 376:c:/Users/lenovo/Desktop/AIoT/first_day/firstday_afternoon/LiteOS_Lab_STM32_IoT/iot_link/network/dtls/mbedtls/mbedtls-2.16.2/library\cipher.c ****         }
 377:c:/Users/lenovo/Desktop/AIoT/first_day/firstday_afternoon/LiteOS_Lab_STM32_IoT/iot_link/network/dtls/mbedtls/mbedtls-2.16.2/library\cipher.c **** 
 378:c:/Users/lenovo/Desktop/AIoT/first_day/firstday_afternoon/LiteOS_Lab_STM32_IoT/iot_link/network/dtls/mbedtls/mbedtls-2.16.2/library\cipher.c ****         return( 0 );
 1167              		.loc 2 378 15
 1168 0068 0023     		movs	r3, #0
 1169 006a FCE0     		b	.L74
 1170              	.L75:
 379:c:/Users/lenovo/Desktop/AIoT/first_day/firstday_afternoon/LiteOS_Lab_STM32_IoT/iot_link/network/dtls/mbedtls/mbedtls-2.16.2/library\cipher.c ****     }
 380:c:/Users/lenovo/Desktop/AIoT/first_day/firstday_afternoon/LiteOS_Lab_STM32_IoT/iot_link/network/dtls/mbedtls/mbedtls-2.16.2/library\cipher.c **** 
 381:c:/Users/lenovo/Desktop/AIoT/first_day/firstday_afternoon/LiteOS_Lab_STM32_IoT/iot_link/network/dtls/mbedtls/mbedtls-2.16.2/library\cipher.c **** #if defined(MBEDTLS_GCM_C)
 382:c:/Users/lenovo/Desktop/AIoT/first_day/firstday_afternoon/LiteOS_Lab_STM32_IoT/iot_link/network/dtls/mbedtls/mbedtls-2.16.2/library\cipher.c ****     if( ctx->cipher_info->mode == MBEDTLS_MODE_GCM )
 383:c:/Users/lenovo/Desktop/AIoT/first_day/firstday_afternoon/LiteOS_Lab_STM32_IoT/iot_link/network/dtls/mbedtls/mbedtls-2.16.2/library\cipher.c ****     {
 384:c:/Users/lenovo/Desktop/AIoT/first_day/firstday_afternoon/LiteOS_Lab_STM32_IoT/iot_link/network/dtls/mbedtls/mbedtls-2.16.2/library\cipher.c ****         *olen = ilen;
 385:c:/Users/lenovo/Desktop/AIoT/first_day/firstday_afternoon/LiteOS_Lab_STM32_IoT/iot_link/network/dtls/mbedtls/mbedtls-2.16.2/library\cipher.c ****         return( mbedtls_gcm_update( (mbedtls_gcm_context *) ctx->cipher_ctx, ilen, input,
 386:c:/Users/lenovo/Desktop/AIoT/first_day/firstday_afternoon/LiteOS_Lab_STM32_IoT/iot_link/network/dtls/mbedtls/mbedtls-2.16.2/library\cipher.c ****                                     output ) );
 387:c:/Users/lenovo/Desktop/AIoT/first_day/firstday_afternoon/LiteOS_Lab_STM32_IoT/iot_link/network/dtls/mbedtls/mbedtls-2.16.2/library\cipher.c ****     }
 388:c:/Users/lenovo/Desktop/AIoT/first_day/firstday_afternoon/LiteOS_Lab_STM32_IoT/iot_link/network/dtls/mbedtls/mbedtls-2.16.2/library\cipher.c **** #endif
 389:c:/Users/lenovo/Desktop/AIoT/first_day/firstday_afternoon/LiteOS_Lab_STM32_IoT/iot_link/network/dtls/mbedtls/mbedtls-2.16.2/library\cipher.c **** 
 390:c:/Users/lenovo/Desktop/AIoT/first_day/firstday_afternoon/LiteOS_Lab_STM32_IoT/iot_link/network/dtls/mbedtls/mbedtls-2.16.2/library\cipher.c **** #if defined(MBEDTLS_CHACHAPOLY_C)
 391:c:/Users/lenovo/Desktop/AIoT/first_day/firstday_afternoon/LiteOS_Lab_STM32_IoT/iot_link/network/dtls/mbedtls/mbedtls-2.16.2/library\cipher.c ****     if ( ctx->cipher_info->type == MBEDTLS_CIPHER_CHACHA20_POLY1305 )
 392:c:/Users/lenovo/Desktop/AIoT/first_day/firstday_afternoon/LiteOS_Lab_STM32_IoT/iot_link/network/dtls/mbedtls/mbedtls-2.16.2/library\cipher.c ****     {
 393:c:/Users/lenovo/Desktop/AIoT/first_day/firstday_afternoon/LiteOS_Lab_STM32_IoT/iot_link/network/dtls/mbedtls/mbedtls-2.16.2/library\cipher.c ****         *olen = ilen;
 394:c:/Users/lenovo/Desktop/AIoT/first_day/firstday_afternoon/LiteOS_Lab_STM32_IoT/iot_link/network/dtls/mbedtls/mbedtls-2.16.2/library\cipher.c ****         return( mbedtls_chachapoly_update( (mbedtls_chachapoly_context*) ctx->cipher_ctx,
 395:c:/Users/lenovo/Desktop/AIoT/first_day/firstday_afternoon/LiteOS_Lab_STM32_IoT/iot_link/network/dtls/mbedtls/mbedtls-2.16.2/library\cipher.c ****                                            ilen, input, output ) );
 396:c:/Users/lenovo/Desktop/AIoT/first_day/firstday_afternoon/LiteOS_Lab_STM32_IoT/iot_link/network/dtls/mbedtls/mbedtls-2.16.2/library\cipher.c ****     }
 397:c:/Users/lenovo/Desktop/AIoT/first_day/firstday_afternoon/LiteOS_Lab_STM32_IoT/iot_link/network/dtls/mbedtls/mbedtls-2.16.2/library\cipher.c **** #endif
 398:c:/Users/lenovo/Desktop/AIoT/first_day/firstday_afternoon/LiteOS_Lab_STM32_IoT/iot_link/network/dtls/mbedtls/mbedtls-2.16.2/library\cipher.c **** 
 399:c:/Users/lenovo/Desktop/AIoT/first_day/firstday_afternoon/LiteOS_Lab_STM32_IoT/iot_link/network/dtls/mbedtls/mbedtls-2.16.2/library\cipher.c ****     if ( 0 == block_size )
 1171              		.loc 2 399 8
 1172 006c BB69     		ldr	r3, [r7, #24]
 1173 006e 002B     		cmp	r3, #0
 1174 0070 01D1     		bne	.L78
 400:c:/Users/lenovo/Desktop/AIoT/first_day/firstday_afternoon/LiteOS_Lab_STM32_IoT/iot_link/network/dtls/mbedtls/mbedtls-2.16.2/library\cipher.c ****     {
 401:c:/Users/lenovo/Desktop/AIoT/first_day/firstday_afternoon/LiteOS_Lab_STM32_IoT/iot_link/network/dtls/mbedtls/mbedtls-2.16.2/library\cipher.c ****         return( MBEDTLS_ERR_CIPHER_INVALID_CONTEXT );
 1175              		.loc 2 401 15
 1176 0072 814B     		ldr	r3, .L93+8
 1177 0074 F7E0     		b	.L74
 1178              	.L78:
 402:c:/Users/lenovo/Desktop/AIoT/first_day/firstday_afternoon/LiteOS_Lab_STM32_IoT/iot_link/network/dtls/mbedtls/mbedtls-2.16.2/library\cipher.c ****     }
 403:c:/Users/lenovo/Desktop/AIoT/first_day/firstday_afternoon/LiteOS_Lab_STM32_IoT/iot_link/network/dtls/mbedtls/mbedtls-2.16.2/library\cipher.c **** 
 404:c:/Users/lenovo/Desktop/AIoT/first_day/firstday_afternoon/LiteOS_Lab_STM32_IoT/iot_link/network/dtls/mbedtls/mbedtls-2.16.2/library\cipher.c ****     if( input == output &&
ARM GAS  C:\Users\lenovo\AppData\Local\Temp\ccSXL9zI.s 			page 37


 1179              		.loc 2 404 7
 1180 0076 BA68     		ldr	r2, [r7, #8]
 1181 0078 3B68     		ldr	r3, [r7]
 1182 007a 9A42     		cmp	r2, r3
 1183 007c 0FD1     		bne	.L79
 405:c:/Users/lenovo/Desktop/AIoT/first_day/firstday_afternoon/LiteOS_Lab_STM32_IoT/iot_link/network/dtls/mbedtls/mbedtls-2.16.2/library\cipher.c ****        ( ctx->unprocessed_len != 0 || ilen % block_size ) )
 1184              		.loc 2 405 13 discriminator 1
 1185 007e FB68     		ldr	r3, [r7, #12]
 1186 0080 5B6A     		ldr	r3, [r3, #36]
 404:c:/Users/lenovo/Desktop/AIoT/first_day/firstday_afternoon/LiteOS_Lab_STM32_IoT/iot_link/network/dtls/mbedtls/mbedtls-2.16.2/library\cipher.c ****        ( ctx->unprocessed_len != 0 || ilen % block_size ) )
 1187              		.loc 2 404 25 discriminator 1
 1188 0082 002B     		cmp	r3, #0
 1189 0084 09D1     		bne	.L80
 1190              		.loc 2 405 44
 1191 0086 7B68     		ldr	r3, [r7, #4]
 1192 0088 BA69     		ldr	r2, [r7, #24]
 1193 008a B3FBF2F2 		udiv	r2, r3, r2
 1194 008e B969     		ldr	r1, [r7, #24]
 1195 0090 01FB02F2 		mul	r2, r1, r2
 1196 0094 9B1A     		subs	r3, r3, r2
 1197              		.loc 2 405 36
 1198 0096 002B     		cmp	r3, #0
 1199 0098 01D0     		beq	.L79
 1200              	.L80:
 406:c:/Users/lenovo/Desktop/AIoT/first_day/firstday_afternoon/LiteOS_Lab_STM32_IoT/iot_link/network/dtls/mbedtls/mbedtls-2.16.2/library\cipher.c ****     {
 407:c:/Users/lenovo/Desktop/AIoT/first_day/firstday_afternoon/LiteOS_Lab_STM32_IoT/iot_link/network/dtls/mbedtls/mbedtls-2.16.2/library\cipher.c ****         return( MBEDTLS_ERR_CIPHER_BAD_INPUT_DATA );
 1201              		.loc 2 407 15
 1202 009a 754B     		ldr	r3, .L93
 1203 009c E3E0     		b	.L74
 1204              	.L79:
 408:c:/Users/lenovo/Desktop/AIoT/first_day/firstday_afternoon/LiteOS_Lab_STM32_IoT/iot_link/network/dtls/mbedtls/mbedtls-2.16.2/library\cipher.c ****     }
 409:c:/Users/lenovo/Desktop/AIoT/first_day/firstday_afternoon/LiteOS_Lab_STM32_IoT/iot_link/network/dtls/mbedtls/mbedtls-2.16.2/library\cipher.c **** 
 410:c:/Users/lenovo/Desktop/AIoT/first_day/firstday_afternoon/LiteOS_Lab_STM32_IoT/iot_link/network/dtls/mbedtls/mbedtls-2.16.2/library\cipher.c **** #if defined(MBEDTLS_CIPHER_MODE_CBC)
 411:c:/Users/lenovo/Desktop/AIoT/first_day/firstday_afternoon/LiteOS_Lab_STM32_IoT/iot_link/network/dtls/mbedtls/mbedtls-2.16.2/library\cipher.c ****     if( ctx->cipher_info->mode == MBEDTLS_MODE_CBC )
 1205              		.loc 2 411 12
 1206 009e FB68     		ldr	r3, [r7, #12]
 1207 00a0 1B68     		ldr	r3, [r3]
 1208              		.loc 2 411 25
 1209 00a2 5B78     		ldrb	r3, [r3, #1]	@ zero_extendqisi2
 1210              		.loc 2 411 7
 1211 00a4 022B     		cmp	r3, #2
 1212 00a6 40F0DD80 		bne	.L81
 1213              	.LBB2:
 412:c:/Users/lenovo/Desktop/AIoT/first_day/firstday_afternoon/LiteOS_Lab_STM32_IoT/iot_link/network/dtls/mbedtls/mbedtls-2.16.2/library\cipher.c ****     {
 413:c:/Users/lenovo/Desktop/AIoT/first_day/firstday_afternoon/LiteOS_Lab_STM32_IoT/iot_link/network/dtls/mbedtls/mbedtls-2.16.2/library\cipher.c ****         size_t copy_len = 0;
 1214              		.loc 2 413 16
 1215 00aa 0023     		movs	r3, #0
 1216 00ac FB61     		str	r3, [r7, #28]
 414:c:/Users/lenovo/Desktop/AIoT/first_day/firstday_afternoon/LiteOS_Lab_STM32_IoT/iot_link/network/dtls/mbedtls/mbedtls-2.16.2/library\cipher.c **** 
 415:c:/Users/lenovo/Desktop/AIoT/first_day/firstday_afternoon/LiteOS_Lab_STM32_IoT/iot_link/network/dtls/mbedtls/mbedtls-2.16.2/library\cipher.c ****         /*
 416:c:/Users/lenovo/Desktop/AIoT/first_day/firstday_afternoon/LiteOS_Lab_STM32_IoT/iot_link/network/dtls/mbedtls/mbedtls-2.16.2/library\cipher.c ****          * If there is not enough data for a full block, cache it.
 417:c:/Users/lenovo/Desktop/AIoT/first_day/firstday_afternoon/LiteOS_Lab_STM32_IoT/iot_link/network/dtls/mbedtls/mbedtls-2.16.2/library\cipher.c ****          */
 418:c:/Users/lenovo/Desktop/AIoT/first_day/firstday_afternoon/LiteOS_Lab_STM32_IoT/iot_link/network/dtls/mbedtls/mbedtls-2.16.2/library\cipher.c ****         if( ( ctx->operation == MBEDTLS_DECRYPT && NULL != ctx->add_padding &&
 1217              		.loc 2 418 18
 1218 00ae FB68     		ldr	r3, [r7, #12]
 1219 00b0 93F90830 		ldrsb	r3, [r3, #8]
 1220              		.loc 2 418 11
ARM GAS  C:\Users\lenovo\AppData\Local\Temp\ccSXL9zI.s 			page 38


 1221 00b4 002B     		cmp	r3, #0
 1222 00b6 0AD1     		bne	.L82
 1223              		.loc 2 418 63 discriminator 1
 1224 00b8 FB68     		ldr	r3, [r7, #12]
 1225 00ba DB68     		ldr	r3, [r3, #12]
 1226              		.loc 2 418 49 discriminator 1
 1227 00bc 002B     		cmp	r3, #0
 1228 00be 06D0     		beq	.L82
 419:c:/Users/lenovo/Desktop/AIoT/first_day/firstday_afternoon/LiteOS_Lab_STM32_IoT/iot_link/network/dtls/mbedtls/mbedtls-2.16.2/library\cipher.c ****                 ilen <= block_size - ctx->unprocessed_len ) ||
 1229              		.loc 2 419 41 discriminator 2
 1230 00c0 FB68     		ldr	r3, [r7, #12]
 1231 00c2 5B6A     		ldr	r3, [r3, #36]
 1232              		.loc 2 419 36 discriminator 2
 1233 00c4 BA69     		ldr	r2, [r7, #24]
 1234 00c6 D31A     		subs	r3, r2, r3
 418:c:/Users/lenovo/Desktop/AIoT/first_day/firstday_afternoon/LiteOS_Lab_STM32_IoT/iot_link/network/dtls/mbedtls/mbedtls-2.16.2/library\cipher.c ****                 ilen <= block_size - ctx->unprocessed_len ) ||
 1235              		.loc 2 418 77 discriminator 2
 1236 00c8 7A68     		ldr	r2, [r7, #4]
 1237 00ca 9A42     		cmp	r2, r3
 1238 00cc 1BD9     		bls	.L83
 1239              	.L82:
 420:c:/Users/lenovo/Desktop/AIoT/first_day/firstday_afternoon/LiteOS_Lab_STM32_IoT/iot_link/network/dtls/mbedtls/mbedtls-2.16.2/library\cipher.c ****             ( ctx->operation == MBEDTLS_DECRYPT && NULL == ctx->add_padding &&
 1240              		.loc 2 420 18
 1241 00ce FB68     		ldr	r3, [r7, #12]
 1242 00d0 93F90830 		ldrsb	r3, [r3, #8]
 419:c:/Users/lenovo/Desktop/AIoT/first_day/firstday_afternoon/LiteOS_Lab_STM32_IoT/iot_link/network/dtls/mbedtls/mbedtls-2.16.2/library\cipher.c ****                 ilen <= block_size - ctx->unprocessed_len ) ||
 1243              		.loc 2 419 61
 1244 00d4 002B     		cmp	r3, #0
 1245 00d6 0AD1     		bne	.L84
 1246              		.loc 2 420 63
 1247 00d8 FB68     		ldr	r3, [r7, #12]
 1248 00da DB68     		ldr	r3, [r3, #12]
 1249              		.loc 2 420 49
 1250 00dc 002B     		cmp	r3, #0
 1251 00de 06D1     		bne	.L84
 421:c:/Users/lenovo/Desktop/AIoT/first_day/firstday_afternoon/LiteOS_Lab_STM32_IoT/iot_link/network/dtls/mbedtls/mbedtls-2.16.2/library\cipher.c ****                 ilen < block_size - ctx->unprocessed_len ) ||
 1252              		.loc 2 421 40 discriminator 1
 1253 00e0 FB68     		ldr	r3, [r7, #12]
 1254 00e2 5B6A     		ldr	r3, [r3, #36]
 1255              		.loc 2 421 35 discriminator 1
 1256 00e4 BA69     		ldr	r2, [r7, #24]
 1257 00e6 D31A     		subs	r3, r2, r3
 420:c:/Users/lenovo/Desktop/AIoT/first_day/firstday_afternoon/LiteOS_Lab_STM32_IoT/iot_link/network/dtls/mbedtls/mbedtls-2.16.2/library\cipher.c ****             ( ctx->operation == MBEDTLS_DECRYPT && NULL == ctx->add_padding &&
 1258              		.loc 2 420 77 discriminator 1
 1259 00e8 7A68     		ldr	r2, [r7, #4]
 1260 00ea 9A42     		cmp	r2, r3
 1261 00ec 0BD3     		bcc	.L83
 1262              	.L84:
 422:c:/Users/lenovo/Desktop/AIoT/first_day/firstday_afternoon/LiteOS_Lab_STM32_IoT/iot_link/network/dtls/mbedtls/mbedtls-2.16.2/library\cipher.c ****              ( ctx->operation == MBEDTLS_ENCRYPT &&
 1263              		.loc 2 422 19
 1264 00ee FB68     		ldr	r3, [r7, #12]
 1265 00f0 93F90830 		ldrsb	r3, [r3, #8]
 421:c:/Users/lenovo/Desktop/AIoT/first_day/firstday_afternoon/LiteOS_Lab_STM32_IoT/iot_link/network/dtls/mbedtls/mbedtls-2.16.2/library\cipher.c ****                 ilen < block_size - ctx->unprocessed_len ) ||
 1266              		.loc 2 421 60
 1267 00f4 012B     		cmp	r3, #1
 1268 00f6 19D1     		bne	.L85
 423:c:/Users/lenovo/Desktop/AIoT/first_day/firstday_afternoon/LiteOS_Lab_STM32_IoT/iot_link/network/dtls/mbedtls/mbedtls-2.16.2/library\cipher.c ****                 ilen < block_size - ctx->unprocessed_len ) )
ARM GAS  C:\Users\lenovo\AppData\Local\Temp\ccSXL9zI.s 			page 39


 1269              		.loc 2 423 40
 1270 00f8 FB68     		ldr	r3, [r7, #12]
 1271 00fa 5B6A     		ldr	r3, [r3, #36]
 1272              		.loc 2 423 35
 1273 00fc BA69     		ldr	r2, [r7, #24]
 1274 00fe D31A     		subs	r3, r2, r3
 422:c:/Users/lenovo/Desktop/AIoT/first_day/firstday_afternoon/LiteOS_Lab_STM32_IoT/iot_link/network/dtls/mbedtls/mbedtls-2.16.2/library\cipher.c ****              ( ctx->operation == MBEDTLS_ENCRYPT &&
 1275              		.loc 2 422 50
 1276 0100 7A68     		ldr	r2, [r7, #4]
 1277 0102 9A42     		cmp	r2, r3
 1278 0104 12D2     		bcs	.L85
 1279              	.L83:
 424:c:/Users/lenovo/Desktop/AIoT/first_day/firstday_afternoon/LiteOS_Lab_STM32_IoT/iot_link/network/dtls/mbedtls/mbedtls-2.16.2/library\cipher.c ****         {
 425:c:/Users/lenovo/Desktop/AIoT/first_day/firstday_afternoon/LiteOS_Lab_STM32_IoT/iot_link/network/dtls/mbedtls/mbedtls-2.16.2/library\cipher.c ****             memcpy( &( ctx->unprocessed_data[ctx->unprocessed_len] ), input,
 1280              		.loc 2 425 49
 1281 0106 FB68     		ldr	r3, [r7, #12]
 1282 0108 5B6A     		ldr	r3, [r3, #36]
 1283              		.loc 2 425 21
 1284 010a 1033     		adds	r3, r3, #16
 1285 010c FA68     		ldr	r2, [r7, #12]
 1286 010e 1344     		add	r3, r3, r2
 1287 0110 0433     		adds	r3, r3, #4
 1288              		.loc 2 425 13
 1289 0112 7A68     		ldr	r2, [r7, #4]
 1290 0114 B968     		ldr	r1, [r7, #8]
 1291 0116 1846     		mov	r0, r3
 1292 0118 FFF7FEFF 		bl	memcpy
 426:c:/Users/lenovo/Desktop/AIoT/first_day/firstday_afternoon/LiteOS_Lab_STM32_IoT/iot_link/network/dtls/mbedtls/mbedtls-2.16.2/library\cipher.c ****                     ilen );
 427:c:/Users/lenovo/Desktop/AIoT/first_day/firstday_afternoon/LiteOS_Lab_STM32_IoT/iot_link/network/dtls/mbedtls/mbedtls-2.16.2/library\cipher.c **** 
 428:c:/Users/lenovo/Desktop/AIoT/first_day/firstday_afternoon/LiteOS_Lab_STM32_IoT/iot_link/network/dtls/mbedtls/mbedtls-2.16.2/library\cipher.c ****             ctx->unprocessed_len += ilen;
 1293              		.loc 2 428 34
 1294 011c FB68     		ldr	r3, [r7, #12]
 1295 011e 5A6A     		ldr	r2, [r3, #36]
 1296 0120 7B68     		ldr	r3, [r7, #4]
 1297 0122 1A44     		add	r2, r2, r3
 1298 0124 FB68     		ldr	r3, [r7, #12]
 1299 0126 5A62     		str	r2, [r3, #36]
 429:c:/Users/lenovo/Desktop/AIoT/first_day/firstday_afternoon/LiteOS_Lab_STM32_IoT/iot_link/network/dtls/mbedtls/mbedtls-2.16.2/library\cipher.c ****             return( 0 );
 1300              		.loc 2 429 19
 1301 0128 0023     		movs	r3, #0
 1302 012a 9CE0     		b	.L74
 1303              	.L85:
 430:c:/Users/lenovo/Desktop/AIoT/first_day/firstday_afternoon/LiteOS_Lab_STM32_IoT/iot_link/network/dtls/mbedtls/mbedtls-2.16.2/library\cipher.c ****         }
 431:c:/Users/lenovo/Desktop/AIoT/first_day/firstday_afternoon/LiteOS_Lab_STM32_IoT/iot_link/network/dtls/mbedtls/mbedtls-2.16.2/library\cipher.c **** 
 432:c:/Users/lenovo/Desktop/AIoT/first_day/firstday_afternoon/LiteOS_Lab_STM32_IoT/iot_link/network/dtls/mbedtls/mbedtls-2.16.2/library\cipher.c ****         /*
 433:c:/Users/lenovo/Desktop/AIoT/first_day/firstday_afternoon/LiteOS_Lab_STM32_IoT/iot_link/network/dtls/mbedtls/mbedtls-2.16.2/library\cipher.c ****          * Process cached data first
 434:c:/Users/lenovo/Desktop/AIoT/first_day/firstday_afternoon/LiteOS_Lab_STM32_IoT/iot_link/network/dtls/mbedtls/mbedtls-2.16.2/library\cipher.c ****          */
 435:c:/Users/lenovo/Desktop/AIoT/first_day/firstday_afternoon/LiteOS_Lab_STM32_IoT/iot_link/network/dtls/mbedtls/mbedtls-2.16.2/library\cipher.c ****         if( 0 != ctx->unprocessed_len )
 1304              		.loc 2 435 21
 1305 012c FB68     		ldr	r3, [r7, #12]
 1306 012e 5B6A     		ldr	r3, [r3, #36]
 1307              		.loc 2 435 11
 1308 0130 002B     		cmp	r3, #0
 1309 0132 3ED0     		beq	.L86
 436:c:/Users/lenovo/Desktop/AIoT/first_day/firstday_afternoon/LiteOS_Lab_STM32_IoT/iot_link/network/dtls/mbedtls/mbedtls-2.16.2/library\cipher.c ****         {
 437:c:/Users/lenovo/Desktop/AIoT/first_day/firstday_afternoon/LiteOS_Lab_STM32_IoT/iot_link/network/dtls/mbedtls/mbedtls-2.16.2/library\cipher.c ****             copy_len = block_size - ctx->unprocessed_len;
 1310              		.loc 2 437 40
ARM GAS  C:\Users\lenovo\AppData\Local\Temp\ccSXL9zI.s 			page 40


 1311 0134 FB68     		ldr	r3, [r7, #12]
 1312 0136 5B6A     		ldr	r3, [r3, #36]
 1313              		.loc 2 437 22
 1314 0138 BA69     		ldr	r2, [r7, #24]
 1315 013a D31A     		subs	r3, r2, r3
 1316 013c FB61     		str	r3, [r7, #28]
 438:c:/Users/lenovo/Desktop/AIoT/first_day/firstday_afternoon/LiteOS_Lab_STM32_IoT/iot_link/network/dtls/mbedtls/mbedtls-2.16.2/library\cipher.c **** 
 439:c:/Users/lenovo/Desktop/AIoT/first_day/firstday_afternoon/LiteOS_Lab_STM32_IoT/iot_link/network/dtls/mbedtls/mbedtls-2.16.2/library\cipher.c ****             memcpy( &( ctx->unprocessed_data[ctx->unprocessed_len] ), input,
 1317              		.loc 2 439 49
 1318 013e FB68     		ldr	r3, [r7, #12]
 1319 0140 5B6A     		ldr	r3, [r3, #36]
 1320              		.loc 2 439 21
 1321 0142 1033     		adds	r3, r3, #16
 1322 0144 FA68     		ldr	r2, [r7, #12]
 1323 0146 1344     		add	r3, r3, r2
 1324 0148 0433     		adds	r3, r3, #4
 1325              		.loc 2 439 13
 1326 014a FA69     		ldr	r2, [r7, #28]
 1327 014c B968     		ldr	r1, [r7, #8]
 1328 014e 1846     		mov	r0, r3
 1329 0150 FFF7FEFF 		bl	memcpy
 440:c:/Users/lenovo/Desktop/AIoT/first_day/firstday_afternoon/LiteOS_Lab_STM32_IoT/iot_link/network/dtls/mbedtls/mbedtls-2.16.2/library\cipher.c ****                     copy_len );
 441:c:/Users/lenovo/Desktop/AIoT/first_day/firstday_afternoon/LiteOS_Lab_STM32_IoT/iot_link/network/dtls/mbedtls/mbedtls-2.16.2/library\cipher.c **** 
 442:c:/Users/lenovo/Desktop/AIoT/first_day/firstday_afternoon/LiteOS_Lab_STM32_IoT/iot_link/network/dtls/mbedtls/mbedtls-2.16.2/library\cipher.c ****             if( 0 != ( ret = ctx->cipher_info->base->cbc_func( ctx->cipher_ctx,
 1330              		.loc 2 442 33
 1331 0154 FB68     		ldr	r3, [r7, #12]
 1332 0156 1B68     		ldr	r3, [r3]
 1333              		.loc 2 442 46
 1334 0158 9B69     		ldr	r3, [r3, #24]
 1335              		.loc 2 442 52
 1336 015a 9C68     		ldr	r4, [r3, #8]
 1337              		.loc 2 442 30
 1338 015c FB68     		ldr	r3, [r7, #12]
 1339 015e D86B     		ldr	r0, [r3, #60]
 1340 0160 FB68     		ldr	r3, [r7, #12]
 1341 0162 93F90810 		ldrsb	r1, [r3, #8]
 443:c:/Users/lenovo/Desktop/AIoT/first_day/firstday_afternoon/LiteOS_Lab_STM32_IoT/iot_link/network/dtls/mbedtls/mbedtls-2.16.2/library\cipher.c ****                     ctx->operation, block_size, ctx->iv,
 1342              		.loc 2 443 52
 1343 0166 FB68     		ldr	r3, [r7, #12]
 1344 0168 03F12805 		add	r5, r3, #40
 444:c:/Users/lenovo/Desktop/AIoT/first_day/firstday_afternoon/LiteOS_Lab_STM32_IoT/iot_link/network/dtls/mbedtls/mbedtls-2.16.2/library\cipher.c ****                     ctx->unprocessed_data, output ) ) )
 1345              		.loc 2 444 24
 1346 016c FB68     		ldr	r3, [r7, #12]
 1347 016e 1433     		adds	r3, r3, #20
 442:c:/Users/lenovo/Desktop/AIoT/first_day/firstday_afternoon/LiteOS_Lab_STM32_IoT/iot_link/network/dtls/mbedtls/mbedtls-2.16.2/library\cipher.c ****                     ctx->operation, block_size, ctx->iv,
 1348              		.loc 2 442 30
 1349 0170 3A68     		ldr	r2, [r7]
 1350 0172 0192     		str	r2, [sp, #4]
 1351 0174 0093     		str	r3, [sp]
 1352 0176 2B46     		mov	r3, r5
 1353 0178 BA69     		ldr	r2, [r7, #24]
 1354 017a A047     		blx	r4
 1355              	.LVL5:
 1356 017c 7861     		str	r0, [r7, #20]
 442:c:/Users/lenovo/Desktop/AIoT/first_day/firstday_afternoon/LiteOS_Lab_STM32_IoT/iot_link/network/dtls/mbedtls/mbedtls-2.16.2/library\cipher.c ****                     ctx->operation, block_size, ctx->iv,
 1357              		.loc 2 442 15
 1358 017e 7B69     		ldr	r3, [r7, #20]
ARM GAS  C:\Users\lenovo\AppData\Local\Temp\ccSXL9zI.s 			page 41


 1359 0180 002B     		cmp	r3, #0
 1360 0182 01D0     		beq	.L87
 445:c:/Users/lenovo/Desktop/AIoT/first_day/firstday_afternoon/LiteOS_Lab_STM32_IoT/iot_link/network/dtls/mbedtls/mbedtls-2.16.2/library\cipher.c ****             {
 446:c:/Users/lenovo/Desktop/AIoT/first_day/firstday_afternoon/LiteOS_Lab_STM32_IoT/iot_link/network/dtls/mbedtls/mbedtls-2.16.2/library\cipher.c ****                 return( ret );
 1361              		.loc 2 446 23
 1362 0184 7B69     		ldr	r3, [r7, #20]
 1363 0186 6EE0     		b	.L74
 1364              	.L87:
 447:c:/Users/lenovo/Desktop/AIoT/first_day/firstday_afternoon/LiteOS_Lab_STM32_IoT/iot_link/network/dtls/mbedtls/mbedtls-2.16.2/library\cipher.c ****             }
 448:c:/Users/lenovo/Desktop/AIoT/first_day/firstday_afternoon/LiteOS_Lab_STM32_IoT/iot_link/network/dtls/mbedtls/mbedtls-2.16.2/library\cipher.c **** 
 449:c:/Users/lenovo/Desktop/AIoT/first_day/firstday_afternoon/LiteOS_Lab_STM32_IoT/iot_link/network/dtls/mbedtls/mbedtls-2.16.2/library\cipher.c ****             *olen += block_size;
 1365              		.loc 2 449 19
 1366 0188 3B6B     		ldr	r3, [r7, #48]
 1367 018a 1A68     		ldr	r2, [r3]
 1368 018c BB69     		ldr	r3, [r7, #24]
 1369 018e 1A44     		add	r2, r2, r3
 1370 0190 3B6B     		ldr	r3, [r7, #48]
 1371 0192 1A60     		str	r2, [r3]
 450:c:/Users/lenovo/Desktop/AIoT/first_day/firstday_afternoon/LiteOS_Lab_STM32_IoT/iot_link/network/dtls/mbedtls/mbedtls-2.16.2/library\cipher.c ****             output += block_size;
 1372              		.loc 2 450 20
 1373 0194 3A68     		ldr	r2, [r7]
 1374 0196 BB69     		ldr	r3, [r7, #24]
 1375 0198 1344     		add	r3, r3, r2
 1376 019a 3B60     		str	r3, [r7]
 451:c:/Users/lenovo/Desktop/AIoT/first_day/firstday_afternoon/LiteOS_Lab_STM32_IoT/iot_link/network/dtls/mbedtls/mbedtls-2.16.2/library\cipher.c ****             ctx->unprocessed_len = 0;
 1377              		.loc 2 451 34
 1378 019c FB68     		ldr	r3, [r7, #12]
 1379 019e 0022     		movs	r2, #0
 1380 01a0 5A62     		str	r2, [r3, #36]
 452:c:/Users/lenovo/Desktop/AIoT/first_day/firstday_afternoon/LiteOS_Lab_STM32_IoT/iot_link/network/dtls/mbedtls/mbedtls-2.16.2/library\cipher.c **** 
 453:c:/Users/lenovo/Desktop/AIoT/first_day/firstday_afternoon/LiteOS_Lab_STM32_IoT/iot_link/network/dtls/mbedtls/mbedtls-2.16.2/library\cipher.c ****             input += copy_len;
 1381              		.loc 2 453 19
 1382 01a2 BA68     		ldr	r2, [r7, #8]
 1383 01a4 FB69     		ldr	r3, [r7, #28]
 1384 01a6 1344     		add	r3, r3, r2
 1385 01a8 BB60     		str	r3, [r7, #8]
 454:c:/Users/lenovo/Desktop/AIoT/first_day/firstday_afternoon/LiteOS_Lab_STM32_IoT/iot_link/network/dtls/mbedtls/mbedtls-2.16.2/library\cipher.c ****             ilen -= copy_len;
 1386              		.loc 2 454 18
 1387 01aa 7A68     		ldr	r2, [r7, #4]
 1388 01ac FB69     		ldr	r3, [r7, #28]
 1389 01ae D31A     		subs	r3, r2, r3
 1390 01b0 7B60     		str	r3, [r7, #4]
 1391              	.L86:
 455:c:/Users/lenovo/Desktop/AIoT/first_day/firstday_afternoon/LiteOS_Lab_STM32_IoT/iot_link/network/dtls/mbedtls/mbedtls-2.16.2/library\cipher.c ****         }
 456:c:/Users/lenovo/Desktop/AIoT/first_day/firstday_afternoon/LiteOS_Lab_STM32_IoT/iot_link/network/dtls/mbedtls/mbedtls-2.16.2/library\cipher.c **** 
 457:c:/Users/lenovo/Desktop/AIoT/first_day/firstday_afternoon/LiteOS_Lab_STM32_IoT/iot_link/network/dtls/mbedtls/mbedtls-2.16.2/library\cipher.c ****         /*
 458:c:/Users/lenovo/Desktop/AIoT/first_day/firstday_afternoon/LiteOS_Lab_STM32_IoT/iot_link/network/dtls/mbedtls/mbedtls-2.16.2/library\cipher.c ****          * Cache final, incomplete block
 459:c:/Users/lenovo/Desktop/AIoT/first_day/firstday_afternoon/LiteOS_Lab_STM32_IoT/iot_link/network/dtls/mbedtls/mbedtls-2.16.2/library\cipher.c ****          */
 460:c:/Users/lenovo/Desktop/AIoT/first_day/firstday_afternoon/LiteOS_Lab_STM32_IoT/iot_link/network/dtls/mbedtls/mbedtls-2.16.2/library\cipher.c ****         if( 0 != ilen )
 1392              		.loc 2 460 11
 1393 01b2 7B68     		ldr	r3, [r7, #4]
 1394 01b4 002B     		cmp	r3, #0
 1395 01b6 31D0     		beq	.L88
 461:c:/Users/lenovo/Desktop/AIoT/first_day/firstday_afternoon/LiteOS_Lab_STM32_IoT/iot_link/network/dtls/mbedtls/mbedtls-2.16.2/library\cipher.c ****         {
 462:c:/Users/lenovo/Desktop/AIoT/first_day/firstday_afternoon/LiteOS_Lab_STM32_IoT/iot_link/network/dtls/mbedtls/mbedtls-2.16.2/library\cipher.c ****             if( 0 == block_size )
 1396              		.loc 2 462 15
 1397 01b8 BB69     		ldr	r3, [r7, #24]
ARM GAS  C:\Users\lenovo\AppData\Local\Temp\ccSXL9zI.s 			page 42


 1398 01ba 002B     		cmp	r3, #0
 1399 01bc 01D1     		bne	.L89
 463:c:/Users/lenovo/Desktop/AIoT/first_day/firstday_afternoon/LiteOS_Lab_STM32_IoT/iot_link/network/dtls/mbedtls/mbedtls-2.16.2/library\cipher.c ****             {
 464:c:/Users/lenovo/Desktop/AIoT/first_day/firstday_afternoon/LiteOS_Lab_STM32_IoT/iot_link/network/dtls/mbedtls/mbedtls-2.16.2/library\cipher.c ****                 return( MBEDTLS_ERR_CIPHER_INVALID_CONTEXT );
 1400              		.loc 2 464 23
 1401 01be 2E4B     		ldr	r3, .L93+8
 1402 01c0 51E0     		b	.L74
 1403              	.L89:
 465:c:/Users/lenovo/Desktop/AIoT/first_day/firstday_afternoon/LiteOS_Lab_STM32_IoT/iot_link/network/dtls/mbedtls/mbedtls-2.16.2/library\cipher.c ****             }
 466:c:/Users/lenovo/Desktop/AIoT/first_day/firstday_afternoon/LiteOS_Lab_STM32_IoT/iot_link/network/dtls/mbedtls/mbedtls-2.16.2/library\cipher.c **** 
 467:c:/Users/lenovo/Desktop/AIoT/first_day/firstday_afternoon/LiteOS_Lab_STM32_IoT/iot_link/network/dtls/mbedtls/mbedtls-2.16.2/library\cipher.c ****             /* Encryption: only cache partial blocks
 468:c:/Users/lenovo/Desktop/AIoT/first_day/firstday_afternoon/LiteOS_Lab_STM32_IoT/iot_link/network/dtls/mbedtls/mbedtls-2.16.2/library\cipher.c ****              * Decryption w/ padding: always keep at least one whole block
 469:c:/Users/lenovo/Desktop/AIoT/first_day/firstday_afternoon/LiteOS_Lab_STM32_IoT/iot_link/network/dtls/mbedtls/mbedtls-2.16.2/library\cipher.c ****              * Decryption w/o padding: only cache partial blocks
 470:c:/Users/lenovo/Desktop/AIoT/first_day/firstday_afternoon/LiteOS_Lab_STM32_IoT/iot_link/network/dtls/mbedtls/mbedtls-2.16.2/library\cipher.c ****              */
 471:c:/Users/lenovo/Desktop/AIoT/first_day/firstday_afternoon/LiteOS_Lab_STM32_IoT/iot_link/network/dtls/mbedtls/mbedtls-2.16.2/library\cipher.c ****             copy_len = ilen % block_size;
 1404              		.loc 2 471 22
 1405 01c2 7B68     		ldr	r3, [r7, #4]
 1406 01c4 BA69     		ldr	r2, [r7, #24]
 1407 01c6 B3FBF2F2 		udiv	r2, r3, r2
 1408 01ca B969     		ldr	r1, [r7, #24]
 1409 01cc 01FB02F2 		mul	r2, r1, r2
 1410 01d0 9B1A     		subs	r3, r3, r2
 1411 01d2 FB61     		str	r3, [r7, #28]
 472:c:/Users/lenovo/Desktop/AIoT/first_day/firstday_afternoon/LiteOS_Lab_STM32_IoT/iot_link/network/dtls/mbedtls/mbedtls-2.16.2/library\cipher.c ****             if( copy_len == 0 &&
 1412              		.loc 2 472 15
 1413 01d4 FB69     		ldr	r3, [r7, #28]
 1414 01d6 002B     		cmp	r3, #0
 1415 01d8 0AD1     		bne	.L90
 473:c:/Users/lenovo/Desktop/AIoT/first_day/firstday_afternoon/LiteOS_Lab_STM32_IoT/iot_link/network/dtls/mbedtls/mbedtls-2.16.2/library\cipher.c ****                 ctx->operation == MBEDTLS_DECRYPT &&
 1416              		.loc 2 473 20 discriminator 1
 1417 01da FB68     		ldr	r3, [r7, #12]
 1418 01dc 93F90830 		ldrsb	r3, [r3, #8]
 472:c:/Users/lenovo/Desktop/AIoT/first_day/firstday_afternoon/LiteOS_Lab_STM32_IoT/iot_link/network/dtls/mbedtls/mbedtls-2.16.2/library\cipher.c ****             if( copy_len == 0 &&
 1419              		.loc 2 472 31 discriminator 1
 1420 01e0 002B     		cmp	r3, #0
 1421 01e2 05D1     		bne	.L90
 474:c:/Users/lenovo/Desktop/AIoT/first_day/firstday_afternoon/LiteOS_Lab_STM32_IoT/iot_link/network/dtls/mbedtls/mbedtls-2.16.2/library\cipher.c ****                 NULL != ctx->add_padding)
 1422              		.loc 2 474 28
 1423 01e4 FB68     		ldr	r3, [r7, #12]
 1424 01e6 DB68     		ldr	r3, [r3, #12]
 473:c:/Users/lenovo/Desktop/AIoT/first_day/firstday_afternoon/LiteOS_Lab_STM32_IoT/iot_link/network/dtls/mbedtls/mbedtls-2.16.2/library\cipher.c ****                 ctx->operation == MBEDTLS_DECRYPT &&
 1425              		.loc 2 473 51
 1426 01e8 002B     		cmp	r3, #0
 1427 01ea 01D0     		beq	.L90
 475:c:/Users/lenovo/Desktop/AIoT/first_day/firstday_afternoon/LiteOS_Lab_STM32_IoT/iot_link/network/dtls/mbedtls/mbedtls-2.16.2/library\cipher.c ****             {
 476:c:/Users/lenovo/Desktop/AIoT/first_day/firstday_afternoon/LiteOS_Lab_STM32_IoT/iot_link/network/dtls/mbedtls/mbedtls-2.16.2/library\cipher.c ****                 copy_len = block_size;
 1428              		.loc 2 476 26
 1429 01ec BB69     		ldr	r3, [r7, #24]
 1430 01ee FB61     		str	r3, [r7, #28]
 1431              	.L90:
 477:c:/Users/lenovo/Desktop/AIoT/first_day/firstday_afternoon/LiteOS_Lab_STM32_IoT/iot_link/network/dtls/mbedtls/mbedtls-2.16.2/library\cipher.c ****             }
 478:c:/Users/lenovo/Desktop/AIoT/first_day/firstday_afternoon/LiteOS_Lab_STM32_IoT/iot_link/network/dtls/mbedtls/mbedtls-2.16.2/library\cipher.c **** 
 479:c:/Users/lenovo/Desktop/AIoT/first_day/firstday_afternoon/LiteOS_Lab_STM32_IoT/iot_link/network/dtls/mbedtls/mbedtls-2.16.2/library\cipher.c ****             memcpy( ctx->unprocessed_data, &( input[ilen - copy_len] ),
 1432              		.loc 2 479 24
 1433 01f0 FB68     		ldr	r3, [r7, #12]
 1434 01f2 03F11400 		add	r0, r3, #20
 1435              		.loc 2 479 58
ARM GAS  C:\Users\lenovo\AppData\Local\Temp\ccSXL9zI.s 			page 43


 1436 01f6 7A68     		ldr	r2, [r7, #4]
 1437 01f8 FB69     		ldr	r3, [r7, #28]
 1438 01fa D31A     		subs	r3, r2, r3
 1439              		.loc 2 479 44
 1440 01fc BA68     		ldr	r2, [r7, #8]
 1441 01fe 1344     		add	r3, r3, r2
 1442              		.loc 2 479 13
 1443 0200 FA69     		ldr	r2, [r7, #28]
 1444 0202 1946     		mov	r1, r3
 1445 0204 FFF7FEFF 		bl	memcpy
 480:c:/Users/lenovo/Desktop/AIoT/first_day/firstday_afternoon/LiteOS_Lab_STM32_IoT/iot_link/network/dtls/mbedtls/mbedtls-2.16.2/library\cipher.c ****                     copy_len );
 481:c:/Users/lenovo/Desktop/AIoT/first_day/firstday_afternoon/LiteOS_Lab_STM32_IoT/iot_link/network/dtls/mbedtls/mbedtls-2.16.2/library\cipher.c **** 
 482:c:/Users/lenovo/Desktop/AIoT/first_day/firstday_afternoon/LiteOS_Lab_STM32_IoT/iot_link/network/dtls/mbedtls/mbedtls-2.16.2/library\cipher.c ****             ctx->unprocessed_len += copy_len;
 1446              		.loc 2 482 34
 1447 0208 FB68     		ldr	r3, [r7, #12]
 1448 020a 5A6A     		ldr	r2, [r3, #36]
 1449 020c FB69     		ldr	r3, [r7, #28]
 1450 020e 1A44     		add	r2, r2, r3
 1451 0210 FB68     		ldr	r3, [r7, #12]
 1452 0212 5A62     		str	r2, [r3, #36]
 483:c:/Users/lenovo/Desktop/AIoT/first_day/firstday_afternoon/LiteOS_Lab_STM32_IoT/iot_link/network/dtls/mbedtls/mbedtls-2.16.2/library\cipher.c ****             ilen -= copy_len;
 1453              		.loc 2 483 18
 1454 0214 7A68     		ldr	r2, [r7, #4]
 1455 0216 FB69     		ldr	r3, [r7, #28]
 1456 0218 D31A     		subs	r3, r2, r3
 1457 021a 7B60     		str	r3, [r7, #4]
 1458              	.L88:
 484:c:/Users/lenovo/Desktop/AIoT/first_day/firstday_afternoon/LiteOS_Lab_STM32_IoT/iot_link/network/dtls/mbedtls/mbedtls-2.16.2/library\cipher.c ****         }
 485:c:/Users/lenovo/Desktop/AIoT/first_day/firstday_afternoon/LiteOS_Lab_STM32_IoT/iot_link/network/dtls/mbedtls/mbedtls-2.16.2/library\cipher.c **** 
 486:c:/Users/lenovo/Desktop/AIoT/first_day/firstday_afternoon/LiteOS_Lab_STM32_IoT/iot_link/network/dtls/mbedtls/mbedtls-2.16.2/library\cipher.c ****         /*
 487:c:/Users/lenovo/Desktop/AIoT/first_day/firstday_afternoon/LiteOS_Lab_STM32_IoT/iot_link/network/dtls/mbedtls/mbedtls-2.16.2/library\cipher.c ****          * Process remaining full blocks
 488:c:/Users/lenovo/Desktop/AIoT/first_day/firstday_afternoon/LiteOS_Lab_STM32_IoT/iot_link/network/dtls/mbedtls/mbedtls-2.16.2/library\cipher.c ****          */
 489:c:/Users/lenovo/Desktop/AIoT/first_day/firstday_afternoon/LiteOS_Lab_STM32_IoT/iot_link/network/dtls/mbedtls/mbedtls-2.16.2/library\cipher.c ****         if( ilen )
 1459              		.loc 2 489 11
 1460 021c 7B68     		ldr	r3, [r7, #4]
 1461 021e 002B     		cmp	r3, #0
 1462 0220 1ED0     		beq	.L91
 490:c:/Users/lenovo/Desktop/AIoT/first_day/firstday_afternoon/LiteOS_Lab_STM32_IoT/iot_link/network/dtls/mbedtls/mbedtls-2.16.2/library\cipher.c ****         {
 491:c:/Users/lenovo/Desktop/AIoT/first_day/firstday_afternoon/LiteOS_Lab_STM32_IoT/iot_link/network/dtls/mbedtls/mbedtls-2.16.2/library\cipher.c ****             if( 0 != ( ret = ctx->cipher_info->base->cbc_func( ctx->cipher_ctx,
 1463              		.loc 2 491 33
 1464 0222 FB68     		ldr	r3, [r7, #12]
 1465 0224 1B68     		ldr	r3, [r3]
 1466              		.loc 2 491 46
 1467 0226 9B69     		ldr	r3, [r3, #24]
 1468              		.loc 2 491 52
 1469 0228 9C68     		ldr	r4, [r3, #8]
 1470              		.loc 2 491 30
 1471 022a FB68     		ldr	r3, [r7, #12]
 1472 022c D86B     		ldr	r0, [r3, #60]
 1473 022e FB68     		ldr	r3, [r7, #12]
 1474 0230 93F90810 		ldrsb	r1, [r3, #8]
 492:c:/Users/lenovo/Desktop/AIoT/first_day/firstday_afternoon/LiteOS_Lab_STM32_IoT/iot_link/network/dtls/mbedtls/mbedtls-2.16.2/library\cipher.c ****                     ctx->operation, ilen, ctx->iv, input, output ) ) )
 1475              		.loc 2 492 46
 1476 0234 FB68     		ldr	r3, [r7, #12]
 1477 0236 03F12802 		add	r2, r3, #40
 491:c:/Users/lenovo/Desktop/AIoT/first_day/firstday_afternoon/LiteOS_Lab_STM32_IoT/iot_link/network/dtls/mbedtls/mbedtls-2.16.2/library\cipher.c ****                     ctx->operation, ilen, ctx->iv, input, output ) ) )
 1478              		.loc 2 491 30
ARM GAS  C:\Users\lenovo\AppData\Local\Temp\ccSXL9zI.s 			page 44


 1479 023a 3B68     		ldr	r3, [r7]
 1480 023c 0193     		str	r3, [sp, #4]
 1481 023e BB68     		ldr	r3, [r7, #8]
 1482 0240 0093     		str	r3, [sp]
 1483 0242 1346     		mov	r3, r2
 1484 0244 7A68     		ldr	r2, [r7, #4]
 1485 0246 A047     		blx	r4
 1486              	.LVL6:
 1487 0248 7861     		str	r0, [r7, #20]
 491:c:/Users/lenovo/Desktop/AIoT/first_day/firstday_afternoon/LiteOS_Lab_STM32_IoT/iot_link/network/dtls/mbedtls/mbedtls-2.16.2/library\cipher.c ****                     ctx->operation, ilen, ctx->iv, input, output ) ) )
 1488              		.loc 2 491 15
 1489 024a 7B69     		ldr	r3, [r7, #20]
 1490 024c 002B     		cmp	r3, #0
 1491 024e 01D0     		beq	.L92
 493:c:/Users/lenovo/Desktop/AIoT/first_day/firstday_afternoon/LiteOS_Lab_STM32_IoT/iot_link/network/dtls/mbedtls/mbedtls-2.16.2/library\cipher.c ****             {
 494:c:/Users/lenovo/Desktop/AIoT/first_day/firstday_afternoon/LiteOS_Lab_STM32_IoT/iot_link/network/dtls/mbedtls/mbedtls-2.16.2/library\cipher.c ****                 return( ret );
 1492              		.loc 2 494 23
 1493 0250 7B69     		ldr	r3, [r7, #20]
 1494 0252 08E0     		b	.L74
 1495              	.L92:
 495:c:/Users/lenovo/Desktop/AIoT/first_day/firstday_afternoon/LiteOS_Lab_STM32_IoT/iot_link/network/dtls/mbedtls/mbedtls-2.16.2/library\cipher.c ****             }
 496:c:/Users/lenovo/Desktop/AIoT/first_day/firstday_afternoon/LiteOS_Lab_STM32_IoT/iot_link/network/dtls/mbedtls/mbedtls-2.16.2/library\cipher.c **** 
 497:c:/Users/lenovo/Desktop/AIoT/first_day/firstday_afternoon/LiteOS_Lab_STM32_IoT/iot_link/network/dtls/mbedtls/mbedtls-2.16.2/library\cipher.c ****             *olen += ilen;
 1496              		.loc 2 497 19
 1497 0254 3B6B     		ldr	r3, [r7, #48]
 1498 0256 1A68     		ldr	r2, [r3]
 1499 0258 7B68     		ldr	r3, [r7, #4]
 1500 025a 1A44     		add	r2, r2, r3
 1501 025c 3B6B     		ldr	r3, [r7, #48]
 1502 025e 1A60     		str	r2, [r3]
 1503              	.L91:
 498:c:/Users/lenovo/Desktop/AIoT/first_day/firstday_afternoon/LiteOS_Lab_STM32_IoT/iot_link/network/dtls/mbedtls/mbedtls-2.16.2/library\cipher.c ****         }
 499:c:/Users/lenovo/Desktop/AIoT/first_day/firstday_afternoon/LiteOS_Lab_STM32_IoT/iot_link/network/dtls/mbedtls/mbedtls-2.16.2/library\cipher.c **** 
 500:c:/Users/lenovo/Desktop/AIoT/first_day/firstday_afternoon/LiteOS_Lab_STM32_IoT/iot_link/network/dtls/mbedtls/mbedtls-2.16.2/library\cipher.c ****         return( 0 );
 1504              		.loc 2 500 15
 1505 0260 0023     		movs	r3, #0
