ARM GAS  C:\Users\lenovo\AppData\Local\Temp\cc80CgBz.s 			page 1


   1              		.cpu cortex-m4
   2              		.eabi_attribute 27, 1
   3              		.eabi_attribute 28, 1
   4              		.eabi_attribute 20, 1
   5              		.eabi_attribute 21, 1
   6              		.eabi_attribute 23, 3
   7              		.eabi_attribute 24, 1
   8              		.eabi_attribute 25, 1
   9              		.eabi_attribute 26, 1
  10              		.eabi_attribute 30, 6
  11              		.eabi_attribute 34, 1
  12              		.eabi_attribute 18, 4
  13              		.file	"dtls_interface.c"
  14              		.text
  15              	.Ltext0:
  16              		.cfi_sections	.debug_frame
  17              		.section	.rodata
  18              		.align	2
  19              	.LC0:
  20 0000 73736C5F 		.ascii	"ssl_client\000"
  20      636C6965 
  20      6E7400
  21 000b 00       		.align	2
  22              	.LC1:
  23 000c 5B4D4245 		.ascii	"[MBEDTLS][%s:%d] mbedtls_ctr_drbg_seed failed: -0x%"
  23      44544C53 
  23      5D5B2573 
  23      3A25645D 
  23      206D6265 
  24 003f 780D0A00 		.ascii	"x\015\012\000"
  25 0043 00       		.align	2
  26              	.LC2:
  27 0044 5B4D4245 		.ascii	"[MBEDTLS][%s:%d] setting up the SSL structure\015\012"
  27      44544C53 
  27      5D5B2573 
  27      3A25645D 
  27      20736574 
  28 0073 00       		.ascii	"\000"
  29              		.align	2
  30              	.LC3:
  31 0074 5B4D4245 		.ascii	"[MBEDTLS][%s:%d] mbedtls_ssl_config_defaults failed"
  31      44544C53 
  31      5D5B2573 
  31      3A25645D 
  31      206D6265 
  32 00a7 3A202D30 		.ascii	": -0x%x\015\012\000"
  32      7825780D 
  32      0A00
  33 00b1 000000   		.align	2
  34              	.LC4:
  35 00b4 5B4D4245 		.ascii	"[MBEDTLS][%s:%d] mbedtls_ssl_conf_psk failed: -0x%x"
  35      44544C53 
  35      5D5B2573 
  35      3A25645D 
  35      206D6265 
  36 00e7 0D0A00   		.ascii	"\015\012\000"
  37 00ea 0000     		.align	2
ARM GAS  C:\Users\lenovo\AppData\Local\Temp\cc80CgBz.s 			page 2


  38              	.LC5:
  39 00ec 5B4D4245 		.ascii	"[MBEDTLS][%s:%d] mbedtls_ssl_setup failed: -0x%x\015"
  39      44544C53 
  39      5D5B2573 
  39      3A25645D 
  39      206D6265 
  40 011d 0A00     		.ascii	"\012\000"
  41 011f 00       		.align	2
  42              	.LC6:
  43 0120 5B4D4245 		.ascii	"[MBEDTLS][%s:%d] set SSL structure succeed\015\012\000"
  43      44544C53 
  43      5D5B2573 
  43      3A25645D 
  43      20736574 
  44              		.section	.text.dtls_ssl_new,"ax",%progbits
  45              		.align	1
  46              		.global	dtls_ssl_new
  47              		.arch armv7e-m
  48              		.syntax unified
  49              		.thumb
  50              		.thumb_func
  51              		.fpu fpv4-sp-d16
  53              	dtls_ssl_new:
  54              	.LFB16:
  55              		.file 1 "c:/Users/lenovo/Desktop/AIoT/first_day/firstday_afternoon/LiteOS_Lab_STM32_IoT/iot_link/n
   1:c:/Users/lenovo/Desktop/AIoT/first_day/firstday_afternoon/LiteOS_Lab_STM32_IoT/iot_link/network/dtls/mbedtls/mbedtls_port\dtls_interface.c **** /*----------------------------------------------------------------------------
   2:c:/Users/lenovo/Desktop/AIoT/first_day/firstday_afternoon/LiteOS_Lab_STM32_IoT/iot_link/network/dtls/mbedtls/mbedtls_port\dtls_interface.c ****  * Copyright (c) <2016-2018>, <Huawei Technologies Co., Ltd>
   3:c:/Users/lenovo/Desktop/AIoT/first_day/firstday_afternoon/LiteOS_Lab_STM32_IoT/iot_link/network/dtls/mbedtls/mbedtls_port\dtls_interface.c ****  * All rights reserved.
   4:c:/Users/lenovo/Desktop/AIoT/first_day/firstday_afternoon/LiteOS_Lab_STM32_IoT/iot_link/network/dtls/mbedtls/mbedtls_port\dtls_interface.c ****  * Redistribution and use in source and binary forms, with or without modification,
   5:c:/Users/lenovo/Desktop/AIoT/first_day/firstday_afternoon/LiteOS_Lab_STM32_IoT/iot_link/network/dtls/mbedtls/mbedtls_port\dtls_interface.c ****  * are permitted provided that the following conditions are met:
   6:c:/Users/lenovo/Desktop/AIoT/first_day/firstday_afternoon/LiteOS_Lab_STM32_IoT/iot_link/network/dtls/mbedtls/mbedtls_port\dtls_interface.c ****  * 1. Redistributions of source code must retain the above copyright notice, this list of
   7:c:/Users/lenovo/Desktop/AIoT/first_day/firstday_afternoon/LiteOS_Lab_STM32_IoT/iot_link/network/dtls/mbedtls/mbedtls_port\dtls_interface.c ****  * conditions and the following disclaimer.
   8:c:/Users/lenovo/Desktop/AIoT/first_day/firstday_afternoon/LiteOS_Lab_STM32_IoT/iot_link/network/dtls/mbedtls/mbedtls_port\dtls_interface.c ****  * 2. Redistributions in binary form must reproduce the above copyright notice, this list
   9:c:/Users/lenovo/Desktop/AIoT/first_day/firstday_afternoon/LiteOS_Lab_STM32_IoT/iot_link/network/dtls/mbedtls/mbedtls_port\dtls_interface.c ****  * of conditions and the following disclaimer in the documentation and/or other materials
  10:c:/Users/lenovo/Desktop/AIoT/first_day/firstday_afternoon/LiteOS_Lab_STM32_IoT/iot_link/network/dtls/mbedtls/mbedtls_port\dtls_interface.c ****  * provided with the distribution.
  11:c:/Users/lenovo/Desktop/AIoT/first_day/firstday_afternoon/LiteOS_Lab_STM32_IoT/iot_link/network/dtls/mbedtls/mbedtls_port\dtls_interface.c ****  * 3. Neither the name of the copyright holder nor the names of its contributors may be used
  12:c:/Users/lenovo/Desktop/AIoT/first_day/firstday_afternoon/LiteOS_Lab_STM32_IoT/iot_link/network/dtls/mbedtls/mbedtls_port\dtls_interface.c ****  * to endorse or promote products derived from this software without specific prior written
  13:c:/Users/lenovo/Desktop/AIoT/first_day/firstday_afternoon/LiteOS_Lab_STM32_IoT/iot_link/network/dtls/mbedtls/mbedtls_port\dtls_interface.c ****  * permission.
  14:c:/Users/lenovo/Desktop/AIoT/first_day/firstday_afternoon/LiteOS_Lab_STM32_IoT/iot_link/network/dtls/mbedtls/mbedtls_port\dtls_interface.c ****  * THIS SOFTWARE IS PROVIDED BY THE COPYRIGHT HOLDERS AND CONTRIBUTORS
  15:c:/Users/lenovo/Desktop/AIoT/first_day/firstday_afternoon/LiteOS_Lab_STM32_IoT/iot_link/network/dtls/mbedtls/mbedtls_port\dtls_interface.c ****  * "AS IS" AND ANY EXPRESS OR IMPLIED WARRANTIES, INCLUDING, BUT NOT LIMITED TO,
  16:c:/Users/lenovo/Desktop/AIoT/first_day/firstday_afternoon/LiteOS_Lab_STM32_IoT/iot_link/network/dtls/mbedtls/mbedtls_port\dtls_interface.c ****  * THE IMPLIED WARRANTIES OF MERCHANTABILITY AND FITNESS FOR A PARTICULAR
  17:c:/Users/lenovo/Desktop/AIoT/first_day/firstday_afternoon/LiteOS_Lab_STM32_IoT/iot_link/network/dtls/mbedtls/mbedtls_port\dtls_interface.c ****  * PURPOSE ARE DISCLAIMED. IN NO EVENT SHALL THE COPYRIGHT HOLDER OR
  18:c:/Users/lenovo/Desktop/AIoT/first_day/firstday_afternoon/LiteOS_Lab_STM32_IoT/iot_link/network/dtls/mbedtls/mbedtls_port\dtls_interface.c ****  * CONTRIBUTORS BE LIABLE FOR ANY DIRECT, INDIRECT, INCIDENTAL, SPECIAL,
  19:c:/Users/lenovo/Desktop/AIoT/first_day/firstday_afternoon/LiteOS_Lab_STM32_IoT/iot_link/network/dtls/mbedtls/mbedtls_port\dtls_interface.c ****  * EXEMPLARY, OR CONSEQUENTIAL DAMAGES (INCLUDING, BUT NOT LIMITED TO,
  20:c:/Users/lenovo/Desktop/AIoT/first_day/firstday_afternoon/LiteOS_Lab_STM32_IoT/iot_link/network/dtls/mbedtls/mbedtls_port\dtls_interface.c ****  * PROCUREMENT OF SUBSTITUTE GOODS OR SERVICES; LOSS OF USE, DATA, OR PROFITS;
  21:c:/Users/lenovo/Desktop/AIoT/first_day/firstday_afternoon/LiteOS_Lab_STM32_IoT/iot_link/network/dtls/mbedtls/mbedtls_port\dtls_interface.c ****  * OR BUSINESS INTERRUPTION) HOWEVER CAUSED AND ON ANY THEORY OF LIABILITY,
  22:c:/Users/lenovo/Desktop/AIoT/first_day/firstday_afternoon/LiteOS_Lab_STM32_IoT/iot_link/network/dtls/mbedtls/mbedtls_port\dtls_interface.c ****  * WHETHER IN CONTRACT, STRICT LIABILITY, OR TORT (INCLUDING NEGLIGENCE OR
  23:c:/Users/lenovo/Desktop/AIoT/first_day/firstday_afternoon/LiteOS_Lab_STM32_IoT/iot_link/network/dtls/mbedtls/mbedtls_port\dtls_interface.c ****  * OTHERWISE) ARISING IN ANY WAY OUT OF THE USE OF THIS SOFTWARE, EVEN IF
  24:c:/Users/lenovo/Desktop/AIoT/first_day/firstday_afternoon/LiteOS_Lab_STM32_IoT/iot_link/network/dtls/mbedtls/mbedtls_port\dtls_interface.c ****  * ADVISED OF THE POSSIBILITY OF SUCH DAMAGE.
  25:c:/Users/lenovo/Desktop/AIoT/first_day/firstday_afternoon/LiteOS_Lab_STM32_IoT/iot_link/network/dtls/mbedtls/mbedtls_port\dtls_interface.c ****  *---------------------------------------------------------------------------*/
  26:c:/Users/lenovo/Desktop/AIoT/first_day/firstday_afternoon/LiteOS_Lab_STM32_IoT/iot_link/network/dtls/mbedtls/mbedtls_port\dtls_interface.c **** /*----------------------------------------------------------------------------
  27:c:/Users/lenovo/Desktop/AIoT/first_day/firstday_afternoon/LiteOS_Lab_STM32_IoT/iot_link/network/dtls/mbedtls/mbedtls_port\dtls_interface.c ****  * Notice of Export Control Law
  28:c:/Users/lenovo/Desktop/AIoT/first_day/firstday_afternoon/LiteOS_Lab_STM32_IoT/iot_link/network/dtls/mbedtls/mbedtls_port\dtls_interface.c ****  * ===============================================
  29:c:/Users/lenovo/Desktop/AIoT/first_day/firstday_afternoon/LiteOS_Lab_STM32_IoT/iot_link/network/dtls/mbedtls/mbedtls_port\dtls_interface.c ****  * Huawei LiteOS may be subject to applicable export control laws and regulations, which might
  30:c:/Users/lenovo/Desktop/AIoT/first_day/firstday_afternoon/LiteOS_Lab_STM32_IoT/iot_link/network/dtls/mbedtls/mbedtls_port\dtls_interface.c ****  * include those applicable to Huawei LiteOS of U.S. and the country in which you are located.
  31:c:/Users/lenovo/Desktop/AIoT/first_day/firstday_afternoon/LiteOS_Lab_STM32_IoT/iot_link/network/dtls/mbedtls/mbedtls_port\dtls_interface.c ****  * Import, export and usage of Huawei LiteOS in any manner by you shall be in compliance with such
  32:c:/Users/lenovo/Desktop/AIoT/first_day/firstday_afternoon/LiteOS_Lab_STM32_IoT/iot_link/network/dtls/mbedtls/mbedtls_port\dtls_interface.c ****  * applicable export control laws and regulations.
ARM GAS  C:\Users\lenovo\AppData\Local\Temp\cc80CgBz.s 			page 3


  33:c:/Users/lenovo/Desktop/AIoT/first_day/firstday_afternoon/LiteOS_Lab_STM32_IoT/iot_link/network/dtls/mbedtls/mbedtls_port\dtls_interface.c ****  *---------------------------------------------------------------------------*/
  34:c:/Users/lenovo/Desktop/AIoT/first_day/firstday_afternoon/LiteOS_Lab_STM32_IoT/iot_link/network/dtls/mbedtls/mbedtls_port\dtls_interface.c **** 
  35:c:/Users/lenovo/Desktop/AIoT/first_day/firstday_afternoon/LiteOS_Lab_STM32_IoT/iot_link/network/dtls/mbedtls/mbedtls_port\dtls_interface.c **** /*
  36:c:/Users/lenovo/Desktop/AIoT/first_day/firstday_afternoon/LiteOS_Lab_STM32_IoT/iot_link/network/dtls/mbedtls/mbedtls_port\dtls_interface.c ****  *  Simple DTLS client demonstration program
  37:c:/Users/lenovo/Desktop/AIoT/first_day/firstday_afternoon/LiteOS_Lab_STM32_IoT/iot_link/network/dtls/mbedtls/mbedtls_port\dtls_interface.c ****  *
  38:c:/Users/lenovo/Desktop/AIoT/first_day/firstday_afternoon/LiteOS_Lab_STM32_IoT/iot_link/network/dtls/mbedtls/mbedtls_port\dtls_interface.c ****  *  Copyright (C) 2006-2015, ARM Limited, All Rights Reserved
  39:c:/Users/lenovo/Desktop/AIoT/first_day/firstday_afternoon/LiteOS_Lab_STM32_IoT/iot_link/network/dtls/mbedtls/mbedtls_port\dtls_interface.c ****  *  SPDX-License-Identifier: Apache-2.0
  40:c:/Users/lenovo/Desktop/AIoT/first_day/firstday_afternoon/LiteOS_Lab_STM32_IoT/iot_link/network/dtls/mbedtls/mbedtls_port\dtls_interface.c ****  *
  41:c:/Users/lenovo/Desktop/AIoT/first_day/firstday_afternoon/LiteOS_Lab_STM32_IoT/iot_link/network/dtls/mbedtls/mbedtls_port\dtls_interface.c ****  *  Licensed under the Apache License, Version 2.0 (the "License"); you may
  42:c:/Users/lenovo/Desktop/AIoT/first_day/firstday_afternoon/LiteOS_Lab_STM32_IoT/iot_link/network/dtls/mbedtls/mbedtls_port\dtls_interface.c ****  *  not use this file except in compliance with the License.
  43:c:/Users/lenovo/Desktop/AIoT/first_day/firstday_afternoon/LiteOS_Lab_STM32_IoT/iot_link/network/dtls/mbedtls/mbedtls_port\dtls_interface.c ****  *  You may obtain a copy of the License at
  44:c:/Users/lenovo/Desktop/AIoT/first_day/firstday_afternoon/LiteOS_Lab_STM32_IoT/iot_link/network/dtls/mbedtls/mbedtls_port\dtls_interface.c ****  *
  45:c:/Users/lenovo/Desktop/AIoT/first_day/firstday_afternoon/LiteOS_Lab_STM32_IoT/iot_link/network/dtls/mbedtls/mbedtls_port\dtls_interface.c ****  *  http://www.apache.org/licenses/LICENSE-2.0
  46:c:/Users/lenovo/Desktop/AIoT/first_day/firstday_afternoon/LiteOS_Lab_STM32_IoT/iot_link/network/dtls/mbedtls/mbedtls_port\dtls_interface.c ****  *
  47:c:/Users/lenovo/Desktop/AIoT/first_day/firstday_afternoon/LiteOS_Lab_STM32_IoT/iot_link/network/dtls/mbedtls/mbedtls_port\dtls_interface.c ****  *  Unless required by applicable law or agreed to in writing, software
  48:c:/Users/lenovo/Desktop/AIoT/first_day/firstday_afternoon/LiteOS_Lab_STM32_IoT/iot_link/network/dtls/mbedtls/mbedtls_port\dtls_interface.c ****  *  distributed under the License is distributed on an "AS IS" BASIS, WITHOUT
  49:c:/Users/lenovo/Desktop/AIoT/first_day/firstday_afternoon/LiteOS_Lab_STM32_IoT/iot_link/network/dtls/mbedtls/mbedtls_port\dtls_interface.c ****  *  WARRANTIES OR CONDITIONS OF ANY KIND, either express or implied.
  50:c:/Users/lenovo/Desktop/AIoT/first_day/firstday_afternoon/LiteOS_Lab_STM32_IoT/iot_link/network/dtls/mbedtls/mbedtls_port\dtls_interface.c ****  *  See the License for the specific language governing permissions and
  51:c:/Users/lenovo/Desktop/AIoT/first_day/firstday_afternoon/LiteOS_Lab_STM32_IoT/iot_link/network/dtls/mbedtls/mbedtls_port\dtls_interface.c ****  *  limitations under the License.
  52:c:/Users/lenovo/Desktop/AIoT/first_day/firstday_afternoon/LiteOS_Lab_STM32_IoT/iot_link/network/dtls/mbedtls/mbedtls_port\dtls_interface.c ****  *
  53:c:/Users/lenovo/Desktop/AIoT/first_day/firstday_afternoon/LiteOS_Lab_STM32_IoT/iot_link/network/dtls/mbedtls/mbedtls_port\dtls_interface.c ****  *  This file is part of mbed TLS (https://tls.mbed.org)
  54:c:/Users/lenovo/Desktop/AIoT/first_day/firstday_afternoon/LiteOS_Lab_STM32_IoT/iot_link/network/dtls/mbedtls/mbedtls_port\dtls_interface.c ****  */
  55:c:/Users/lenovo/Desktop/AIoT/first_day/firstday_afternoon/LiteOS_Lab_STM32_IoT/iot_link/network/dtls/mbedtls/mbedtls_port\dtls_interface.c **** 
  56:c:/Users/lenovo/Desktop/AIoT/first_day/firstday_afternoon/LiteOS_Lab_STM32_IoT/iot_link/network/dtls/mbedtls/mbedtls_port\dtls_interface.c **** #include "dtls_interface.h"
  57:c:/Users/lenovo/Desktop/AIoT/first_day/firstday_afternoon/LiteOS_Lab_STM32_IoT/iot_link/network/dtls/mbedtls/mbedtls_port\dtls_interface.c **** #include "mbedtls/net_sockets.h"
  58:c:/Users/lenovo/Desktop/AIoT/first_day/firstday_afternoon/LiteOS_Lab_STM32_IoT/iot_link/network/dtls/mbedtls/mbedtls_port\dtls_interface.c **** #include "mbedtls/ssl_internal.h"
  59:c:/Users/lenovo/Desktop/AIoT/first_day/firstday_afternoon/LiteOS_Lab_STM32_IoT/iot_link/network/dtls/mbedtls/mbedtls_port\dtls_interface.c **** 
  60:c:/Users/lenovo/Desktop/AIoT/first_day/firstday_afternoon/LiteOS_Lab_STM32_IoT/iot_link/network/dtls/mbedtls/mbedtls_port\dtls_interface.c **** #include <sal.h>
  61:c:/Users/lenovo/Desktop/AIoT/first_day/firstday_afternoon/LiteOS_Lab_STM32_IoT/iot_link/network/dtls/mbedtls/mbedtls_port\dtls_interface.c **** #include <osal.h>
  62:c:/Users/lenovo/Desktop/AIoT/first_day/firstday_afternoon/LiteOS_Lab_STM32_IoT/iot_link/network/dtls/mbedtls/mbedtls_port\dtls_interface.c **** 
  63:c:/Users/lenovo/Desktop/AIoT/first_day/firstday_afternoon/LiteOS_Lab_STM32_IoT/iot_link/network/dtls/mbedtls/mbedtls_port\dtls_interface.c **** 
  64:c:/Users/lenovo/Desktop/AIoT/first_day/firstday_afternoon/LiteOS_Lab_STM32_IoT/iot_link/network/dtls/mbedtls/mbedtls_port\dtls_interface.c **** #define MBEDTLS_DEBUG
  65:c:/Users/lenovo/Desktop/AIoT/first_day/firstday_afternoon/LiteOS_Lab_STM32_IoT/iot_link/network/dtls/mbedtls/mbedtls_port\dtls_interface.c **** 
  66:c:/Users/lenovo/Desktop/AIoT/first_day/firstday_afternoon/LiteOS_Lab_STM32_IoT/iot_link/network/dtls/mbedtls/mbedtls_port\dtls_interface.c **** #ifdef MBEDTLS_DEBUG
  67:c:/Users/lenovo/Desktop/AIoT/first_day/firstday_afternoon/LiteOS_Lab_STM32_IoT/iot_link/network/dtls/mbedtls/mbedtls_port\dtls_interface.c **** #define MBEDTLS_LOG(fmt, ...) \
  68:c:/Users/lenovo/Desktop/AIoT/first_day/firstday_afternoon/LiteOS_Lab_STM32_IoT/iot_link/network/dtls/mbedtls/mbedtls_port\dtls_interface.c ****     do \
  69:c:/Users/lenovo/Desktop/AIoT/first_day/firstday_afternoon/LiteOS_Lab_STM32_IoT/iot_link/network/dtls/mbedtls/mbedtls_port\dtls_interface.c ****     { \
  70:c:/Users/lenovo/Desktop/AIoT/first_day/firstday_afternoon/LiteOS_Lab_STM32_IoT/iot_link/network/dtls/mbedtls/mbedtls_port\dtls_interface.c ****         (void)printf("[MBEDTLS][%s:%d] " fmt "\r\n", \
  71:c:/Users/lenovo/Desktop/AIoT/first_day/firstday_afternoon/LiteOS_Lab_STM32_IoT/iot_link/network/dtls/mbedtls/mbedtls_port\dtls_interface.c ****         __FUNCTION__, __LINE__, ##__VA_ARGS__); \
  72:c:/Users/lenovo/Desktop/AIoT/first_day/firstday_afternoon/LiteOS_Lab_STM32_IoT/iot_link/network/dtls/mbedtls/mbedtls_port\dtls_interface.c ****     } while (0)
  73:c:/Users/lenovo/Desktop/AIoT/first_day/firstday_afternoon/LiteOS_Lab_STM32_IoT/iot_link/network/dtls/mbedtls/mbedtls_port\dtls_interface.c **** #else
  74:c:/Users/lenovo/Desktop/AIoT/first_day/firstday_afternoon/LiteOS_Lab_STM32_IoT/iot_link/network/dtls/mbedtls/mbedtls_port\dtls_interface.c **** #define MBEDTLS_LOG(fmt, ...) ((void)0)
  75:c:/Users/lenovo/Desktop/AIoT/first_day/firstday_afternoon/LiteOS_Lab_STM32_IoT/iot_link/network/dtls/mbedtls/mbedtls_port\dtls_interface.c **** #endif
  76:c:/Users/lenovo/Desktop/AIoT/first_day/firstday_afternoon/LiteOS_Lab_STM32_IoT/iot_link/network/dtls/mbedtls/mbedtls_port\dtls_interface.c **** 
  77:c:/Users/lenovo/Desktop/AIoT/first_day/firstday_afternoon/LiteOS_Lab_STM32_IoT/iot_link/network/dtls/mbedtls/mbedtls_port\dtls_interface.c **** 
  78:c:/Users/lenovo/Desktop/AIoT/first_day/firstday_afternoon/LiteOS_Lab_STM32_IoT/iot_link/network/dtls/mbedtls/mbedtls_port\dtls_interface.c **** mbedtls_ssl_context *dtls_ssl_new(dtls_establish_info_s *info, char plat_type)
  79:c:/Users/lenovo/Desktop/AIoT/first_day/firstday_afternoon/LiteOS_Lab_STM32_IoT/iot_link/network/dtls/mbedtls/mbedtls_port\dtls_interface.c **** {
  56              		.loc 1 79 1
  57              		.cfi_startproc
  58              		@ args = 0, pretend = 0, frame = 40
  59              		@ frame_needed = 1, uses_anonymous_args = 0
  60 0000 F0B5     		push	{r4, r5, r6, r7, lr}
  61              	.LCFI0:
  62              		.cfi_def_cfa_offset 20
  63              		.cfi_offset 4, -20
  64              		.cfi_offset 5, -16
  65              		.cfi_offset 6, -12
ARM GAS  C:\Users\lenovo\AppData\Local\Temp\cc80CgBz.s 			page 4


  66              		.cfi_offset 7, -8
  67              		.cfi_offset 14, -4
  68 0002 8DB0     		sub	sp, sp, #52
  69              	.LCFI1:
  70              		.cfi_def_cfa_offset 72
  71 0004 02AF     		add	r7, sp, #8
  72              	.LCFI2:
  73              		.cfi_def_cfa 7, 64
  74 0006 7860     		str	r0, [r7, #4]
  75 0008 0B46     		mov	r3, r1
  76 000a FB70     		strb	r3, [r7, #3]
  80:c:/Users/lenovo/Desktop/AIoT/first_day/firstday_afternoon/LiteOS_Lab_STM32_IoT/iot_link/network/dtls/mbedtls/mbedtls_port\dtls_interface.c ****     int ret;
  81:c:/Users/lenovo/Desktop/AIoT/first_day/firstday_afternoon/LiteOS_Lab_STM32_IoT/iot_link/network/dtls/mbedtls/mbedtls_port\dtls_interface.c ****     mbedtls_ssl_context *ssl = NULL;
  77              		.loc 1 81 26
  78 000c 0023     		movs	r3, #0
  79 000e FB61     		str	r3, [r7, #28]
  82:c:/Users/lenovo/Desktop/AIoT/first_day/firstday_afternoon/LiteOS_Lab_STM32_IoT/iot_link/network/dtls/mbedtls/mbedtls_port\dtls_interface.c ****     mbedtls_ssl_config *conf = NULL;
  80              		.loc 1 82 25
  81 0010 0023     		movs	r3, #0
  82 0012 BB61     		str	r3, [r7, #24]
  83:c:/Users/lenovo/Desktop/AIoT/first_day/firstday_afternoon/LiteOS_Lab_STM32_IoT/iot_link/network/dtls/mbedtls/mbedtls_port\dtls_interface.c ****     mbedtls_entropy_context *entropy = NULL;
  83              		.loc 1 83 30
  84 0014 0023     		movs	r3, #0
  85 0016 7B61     		str	r3, [r7, #20]
  84:c:/Users/lenovo/Desktop/AIoT/first_day/firstday_afternoon/LiteOS_Lab_STM32_IoT/iot_link/network/dtls/mbedtls/mbedtls_port\dtls_interface.c ****     mbedtls_ctr_drbg_context *ctr_drbg = NULL;
  86              		.loc 1 84 31
  87 0018 0023     		movs	r3, #0
  88 001a 3B61     		str	r3, [r7, #16]
  85:c:/Users/lenovo/Desktop/AIoT/first_day/firstday_afternoon/LiteOS_Lab_STM32_IoT/iot_link/network/dtls/mbedtls/mbedtls_port\dtls_interface.c ****     mbedtls_timing_delay_context *timer = NULL;
  89              		.loc 1 85 35
  90 001c 0023     		movs	r3, #0
  91 001e 7B62     		str	r3, [r7, #36]
  86:c:/Users/lenovo/Desktop/AIoT/first_day/firstday_afternoon/LiteOS_Lab_STM32_IoT/iot_link/network/dtls/mbedtls/mbedtls_port\dtls_interface.c **** #if defined(MBEDTLS_X509_CRT_PARSE_C)
  87:c:/Users/lenovo/Desktop/AIoT/first_day/firstday_afternoon/LiteOS_Lab_STM32_IoT/iot_link/network/dtls/mbedtls/mbedtls_port\dtls_interface.c ****     mbedtls_x509_crt *cacert;
  88:c:/Users/lenovo/Desktop/AIoT/first_day/firstday_afternoon/LiteOS_Lab_STM32_IoT/iot_link/network/dtls/mbedtls/mbedtls_port\dtls_interface.c ****     mbedtls_x509_crt *client_ca = NULL;
  89:c:/Users/lenovo/Desktop/AIoT/first_day/firstday_afternoon/LiteOS_Lab_STM32_IoT/iot_link/network/dtls/mbedtls/mbedtls_port\dtls_interface.c ****     mbedtls_pk_context *client_pk = NULL;
  90:c:/Users/lenovo/Desktop/AIoT/first_day/firstday_afternoon/LiteOS_Lab_STM32_IoT/iot_link/network/dtls/mbedtls/mbedtls_port\dtls_interface.c **** #endif
  91:c:/Users/lenovo/Desktop/AIoT/first_day/firstday_afternoon/LiteOS_Lab_STM32_IoT/iot_link/network/dtls/mbedtls/mbedtls_port\dtls_interface.c **** 
  92:c:/Users/lenovo/Desktop/AIoT/first_day/firstday_afternoon/LiteOS_Lab_STM32_IoT/iot_link/network/dtls/mbedtls/mbedtls_port\dtls_interface.c ****     const char *pers = "ssl_client";
  92              		.loc 1 92 17
  93 0020 804B     		ldr	r3, .L20
  94 0022 FB60     		str	r3, [r7, #12]
  93:c:/Users/lenovo/Desktop/AIoT/first_day/firstday_afternoon/LiteOS_Lab_STM32_IoT/iot_link/network/dtls/mbedtls/mbedtls_port\dtls_interface.c ****     int transport;
  94:c:/Users/lenovo/Desktop/AIoT/first_day/firstday_afternoon/LiteOS_Lab_STM32_IoT/iot_link/network/dtls/mbedtls/mbedtls_port\dtls_interface.c ****     ssl       = mbedtls_calloc(1, sizeof(mbedtls_ssl_context));
  95              		.loc 1 94 17
  96 0024 4FF48471 		mov	r1, #264
  97 0028 0120     		movs	r0, #1
  98 002a FFF7FEFF 		bl	mbedtls_calloc
  99 002e F861     		str	r0, [r7, #28]
  95:c:/Users/lenovo/Desktop/AIoT/first_day/firstday_afternoon/LiteOS_Lab_STM32_IoT/iot_link/network/dtls/mbedtls/mbedtls_port\dtls_interface.c ****     conf      = mbedtls_calloc(1, sizeof(mbedtls_ssl_config));
 100              		.loc 1 95 17
 101 0030 7021     		movs	r1, #112
 102 0032 0120     		movs	r0, #1
 103 0034 FFF7FEFF 		bl	mbedtls_calloc
 104 0038 B861     		str	r0, [r7, #24]
  96:c:/Users/lenovo/Desktop/AIoT/first_day/firstday_afternoon/LiteOS_Lab_STM32_IoT/iot_link/network/dtls/mbedtls/mbedtls_port\dtls_interface.c ****     entropy   = mbedtls_calloc(1, sizeof(mbedtls_entropy_context));
 105              		.loc 1 96 17
ARM GAS  C:\Users\lenovo\AppData\Local\Temp\cc80CgBz.s 			page 5


 106 003a 8821     		movs	r1, #136
 107 003c 0120     		movs	r0, #1
 108 003e FFF7FEFF 		bl	mbedtls_calloc
 109 0042 7861     		str	r0, [r7, #20]
  97:c:/Users/lenovo/Desktop/AIoT/first_day/firstday_afternoon/LiteOS_Lab_STM32_IoT/iot_link/network/dtls/mbedtls/mbedtls_port\dtls_interface.c ****     ctr_drbg  = mbedtls_calloc(1, sizeof(mbedtls_ctr_drbg_context));
 110              		.loc 1 97 17
 111 0044 4FF4A071 		mov	r1, #320
 112 0048 0120     		movs	r0, #1
 113 004a FFF7FEFF 		bl	mbedtls_calloc
 114 004e 3861     		str	r0, [r7, #16]
  98:c:/Users/lenovo/Desktop/AIoT/first_day/firstday_afternoon/LiteOS_Lab_STM32_IoT/iot_link/network/dtls/mbedtls/mbedtls_port\dtls_interface.c **** #if defined(MBEDTLS_X509_CRT_PARSE_C)
  99:c:/Users/lenovo/Desktop/AIoT/first_day/firstday_afternoon/LiteOS_Lab_STM32_IoT/iot_link/network/dtls/mbedtls/mbedtls_port\dtls_interface.c ****     cacert    = mbedtls_calloc(1, sizeof(mbedtls_x509_crt));
 100:c:/Users/lenovo/Desktop/AIoT/first_day/firstday_afternoon/LiteOS_Lab_STM32_IoT/iot_link/network/dtls/mbedtls/mbedtls_port\dtls_interface.c **** #endif
 101:c:/Users/lenovo/Desktop/AIoT/first_day/firstday_afternoon/LiteOS_Lab_STM32_IoT/iot_link/network/dtls/mbedtls/mbedtls_port\dtls_interface.c **** 
 102:c:/Users/lenovo/Desktop/AIoT/first_day/firstday_afternoon/LiteOS_Lab_STM32_IoT/iot_link/network/dtls/mbedtls/mbedtls_port\dtls_interface.c ****     if (NULL == info || NULL == ssl
 115              		.loc 1 102 8
 116 0050 7B68     		ldr	r3, [r7, #4]
 117 0052 002B     		cmp	r3, #0
 118 0054 00F0B680 		beq	.L19
 119              		.loc 1 102 22 discriminator 1
 120 0058 FB69     		ldr	r3, [r7, #28]
 121 005a 002B     		cmp	r3, #0
 122 005c 00F0B280 		beq	.L19
 103:c:/Users/lenovo/Desktop/AIoT/first_day/firstday_afternoon/LiteOS_Lab_STM32_IoT/iot_link/network/dtls/mbedtls/mbedtls_port\dtls_interface.c ****         || NULL == conf || NULL == entropy
 123              		.loc 1 103 9
 124 0060 BB69     		ldr	r3, [r7, #24]
 125 0062 002B     		cmp	r3, #0
 126 0064 00F0AE80 		beq	.L19
 127              		.loc 1 103 25 discriminator 1
 128 0068 7B69     		ldr	r3, [r7, #20]
 129 006a 002B     		cmp	r3, #0
 130 006c 00F0AA80 		beq	.L19
 104:c:/Users/lenovo/Desktop/AIoT/first_day/firstday_afternoon/LiteOS_Lab_STM32_IoT/iot_link/network/dtls/mbedtls/mbedtls_port\dtls_interface.c ****         || NULL == ctr_drbg
 131              		.loc 1 104 9
 132 0070 3B69     		ldr	r3, [r7, #16]
 133 0072 002B     		cmp	r3, #0
 134 0074 00F0A680 		beq	.L19
 105:c:/Users/lenovo/Desktop/AIoT/first_day/firstday_afternoon/LiteOS_Lab_STM32_IoT/iot_link/network/dtls/mbedtls/mbedtls_port\dtls_interface.c **** #if defined(MBEDTLS_X509_CRT_PARSE_C)
 106:c:/Users/lenovo/Desktop/AIoT/first_day/firstday_afternoon/LiteOS_Lab_STM32_IoT/iot_link/network/dtls/mbedtls/mbedtls_port\dtls_interface.c ****         || NULL == cacert
 107:c:/Users/lenovo/Desktop/AIoT/first_day/firstday_afternoon/LiteOS_Lab_STM32_IoT/iot_link/network/dtls/mbedtls/mbedtls_port\dtls_interface.c **** #endif
 108:c:/Users/lenovo/Desktop/AIoT/first_day/firstday_afternoon/LiteOS_Lab_STM32_IoT/iot_link/network/dtls/mbedtls/mbedtls_port\dtls_interface.c ****         )
 109:c:/Users/lenovo/Desktop/AIoT/first_day/firstday_afternoon/LiteOS_Lab_STM32_IoT/iot_link/network/dtls/mbedtls/mbedtls_port\dtls_interface.c ****     {
 110:c:/Users/lenovo/Desktop/AIoT/first_day/firstday_afternoon/LiteOS_Lab_STM32_IoT/iot_link/network/dtls/mbedtls/mbedtls_port\dtls_interface.c ****         goto exit_fail;
 111:c:/Users/lenovo/Desktop/AIoT/first_day/firstday_afternoon/LiteOS_Lab_STM32_IoT/iot_link/network/dtls/mbedtls/mbedtls_port\dtls_interface.c ****     }
 112:c:/Users/lenovo/Desktop/AIoT/first_day/firstday_afternoon/LiteOS_Lab_STM32_IoT/iot_link/network/dtls/mbedtls/mbedtls_port\dtls_interface.c **** 
 113:c:/Users/lenovo/Desktop/AIoT/first_day/firstday_afternoon/LiteOS_Lab_STM32_IoT/iot_link/network/dtls/mbedtls/mbedtls_port\dtls_interface.c **** #if defined(MBEDTLS_X509_CRT_PARSE_C)
 114:c:/Users/lenovo/Desktop/AIoT/first_day/firstday_afternoon/LiteOS_Lab_STM32_IoT/iot_link/network/dtls/mbedtls/mbedtls_port\dtls_interface.c ****     if(NULL != info->v.c.client_ca) /// we'd better to make the client ca and key
 115:c:/Users/lenovo/Desktop/AIoT/first_day/firstday_afternoon/LiteOS_Lab_STM32_IoT/iot_link/network/dtls/mbedtls/mbedtls_port\dtls_interface.c ****     {
 116:c:/Users/lenovo/Desktop/AIoT/first_day/firstday_afternoon/LiteOS_Lab_STM32_IoT/iot_link/network/dtls/mbedtls/mbedtls_port\dtls_interface.c ****         client_ca    = mbedtls_calloc(1, sizeof(mbedtls_x509_crt));
 117:c:/Users/lenovo/Desktop/AIoT/first_day/firstday_afternoon/LiteOS_Lab_STM32_IoT/iot_link/network/dtls/mbedtls/mbedtls_port\dtls_interface.c ****         client_pk    = mbedtls_calloc(1, sizeof(mbedtls_pk_context));
 118:c:/Users/lenovo/Desktop/AIoT/first_day/firstday_afternoon/LiteOS_Lab_STM32_IoT/iot_link/network/dtls/mbedtls/mbedtls_port\dtls_interface.c ****         if((NULL == client_ca) || (NULL == client_pk))
 119:c:/Users/lenovo/Desktop/AIoT/first_day/firstday_afternoon/LiteOS_Lab_STM32_IoT/iot_link/network/dtls/mbedtls/mbedtls_port\dtls_interface.c ****         {
 120:c:/Users/lenovo/Desktop/AIoT/first_day/firstday_afternoon/LiteOS_Lab_STM32_IoT/iot_link/network/dtls/mbedtls/mbedtls_port\dtls_interface.c ****             goto exit_fail;
 121:c:/Users/lenovo/Desktop/AIoT/first_day/firstday_afternoon/LiteOS_Lab_STM32_IoT/iot_link/network/dtls/mbedtls/mbedtls_port\dtls_interface.c ****         }
 122:c:/Users/lenovo/Desktop/AIoT/first_day/firstday_afternoon/LiteOS_Lab_STM32_IoT/iot_link/network/dtls/mbedtls/mbedtls_port\dtls_interface.c ****         mbedtls_x509_crt_init(client_ca);
 123:c:/Users/lenovo/Desktop/AIoT/first_day/firstday_afternoon/LiteOS_Lab_STM32_IoT/iot_link/network/dtls/mbedtls/mbedtls_port\dtls_interface.c ****         mbedtls_pk_init(client_pk);
 124:c:/Users/lenovo/Desktop/AIoT/first_day/firstday_afternoon/LiteOS_Lab_STM32_IoT/iot_link/network/dtls/mbedtls/mbedtls_port\dtls_interface.c ****     }
ARM GAS  C:\Users\lenovo\AppData\Local\Temp\cc80CgBz.s 			page 6


 125:c:/Users/lenovo/Desktop/AIoT/first_day/firstday_afternoon/LiteOS_Lab_STM32_IoT/iot_link/network/dtls/mbedtls/mbedtls_port\dtls_interface.c **** #endif
 126:c:/Users/lenovo/Desktop/AIoT/first_day/firstday_afternoon/LiteOS_Lab_STM32_IoT/iot_link/network/dtls/mbedtls/mbedtls_port\dtls_interface.c **** 
 127:c:/Users/lenovo/Desktop/AIoT/first_day/firstday_afternoon/LiteOS_Lab_STM32_IoT/iot_link/network/dtls/mbedtls/mbedtls_port\dtls_interface.c ****     if (info->udp_or_tcp == MBEDTLS_NET_PROTO_UDP)
 135              		.loc 1 127 13
 136 0078 7B68     		ldr	r3, [r7, #4]
 137 007a 5B6A     		ldr	r3, [r3, #36]
 138              		.loc 1 127 8
 139 007c 012B     		cmp	r3, #1
 140 007e 0AD1     		bne	.L5
 128:c:/Users/lenovo/Desktop/AIoT/first_day/firstday_afternoon/LiteOS_Lab_STM32_IoT/iot_link/network/dtls/mbedtls/mbedtls_port\dtls_interface.c ****     {
 129:c:/Users/lenovo/Desktop/AIoT/first_day/firstday_afternoon/LiteOS_Lab_STM32_IoT/iot_link/network/dtls/mbedtls/mbedtls_port\dtls_interface.c ****         transport = MBEDTLS_SSL_TRANSPORT_DATAGRAM;
 141              		.loc 1 129 19
 142 0080 0123     		movs	r3, #1
 143 0082 3B62     		str	r3, [r7, #32]
 130:c:/Users/lenovo/Desktop/AIoT/first_day/firstday_afternoon/LiteOS_Lab_STM32_IoT/iot_link/network/dtls/mbedtls/mbedtls_port\dtls_interface.c ****         timer = mbedtls_calloc(1, sizeof(mbedtls_timing_delay_context));
 144              		.loc 1 130 17
 145 0084 2821     		movs	r1, #40
 146 0086 0120     		movs	r0, #1
 147 0088 FFF7FEFF 		bl	mbedtls_calloc
 148 008c 7862     		str	r0, [r7, #36]
 131:c:/Users/lenovo/Desktop/AIoT/first_day/firstday_afternoon/LiteOS_Lab_STM32_IoT/iot_link/network/dtls/mbedtls/mbedtls_port\dtls_interface.c ****         if (NULL == timer)
 149              		.loc 1 131 12
 150 008e 7B6A     		ldr	r3, [r7, #36]
 151 0090 002B     		cmp	r3, #0
 152 0092 02D1     		bne	.L6
 132:c:/Users/lenovo/Desktop/AIoT/first_day/firstday_afternoon/LiteOS_Lab_STM32_IoT/iot_link/network/dtls/mbedtls/mbedtls_port\dtls_interface.c ****             goto exit_fail;
 153              		.loc 1 132 13
 154 0094 97E0     		b	.L4
 155              	.L5:
 133:c:/Users/lenovo/Desktop/AIoT/first_day/firstday_afternoon/LiteOS_Lab_STM32_IoT/iot_link/network/dtls/mbedtls/mbedtls_port\dtls_interface.c ****     }
 134:c:/Users/lenovo/Desktop/AIoT/first_day/firstday_afternoon/LiteOS_Lab_STM32_IoT/iot_link/network/dtls/mbedtls/mbedtls_port\dtls_interface.c ****     else
 135:c:/Users/lenovo/Desktop/AIoT/first_day/firstday_afternoon/LiteOS_Lab_STM32_IoT/iot_link/network/dtls/mbedtls/mbedtls_port\dtls_interface.c ****     {
 136:c:/Users/lenovo/Desktop/AIoT/first_day/firstday_afternoon/LiteOS_Lab_STM32_IoT/iot_link/network/dtls/mbedtls/mbedtls_port\dtls_interface.c ****         transport = MBEDTLS_SSL_TRANSPORT_STREAM;
 156              		.loc 1 136 19
 157 0096 0023     		movs	r3, #0
 158 0098 3B62     		str	r3, [r7, #32]
 159              	.L6:
 137:c:/Users/lenovo/Desktop/AIoT/first_day/firstday_afternoon/LiteOS_Lab_STM32_IoT/iot_link/network/dtls/mbedtls/mbedtls_port\dtls_interface.c ****     }
 138:c:/Users/lenovo/Desktop/AIoT/first_day/firstday_afternoon/LiteOS_Lab_STM32_IoT/iot_link/network/dtls/mbedtls/mbedtls_port\dtls_interface.c **** 
 139:c:/Users/lenovo/Desktop/AIoT/first_day/firstday_afternoon/LiteOS_Lab_STM32_IoT/iot_link/network/dtls/mbedtls/mbedtls_port\dtls_interface.c ****     mbedtls_ssl_init(ssl);
 160              		.loc 1 139 5
 161 009a F869     		ldr	r0, [r7, #28]
 162 009c FFF7FEFF 		bl	mbedtls_ssl_init
 140:c:/Users/lenovo/Desktop/AIoT/first_day/firstday_afternoon/LiteOS_Lab_STM32_IoT/iot_link/network/dtls/mbedtls/mbedtls_port\dtls_interface.c ****     mbedtls_ssl_config_init(conf);
 163              		.loc 1 140 5
 164 00a0 B869     		ldr	r0, [r7, #24]
 165 00a2 FFF7FEFF 		bl	mbedtls_ssl_config_init
 141:c:/Users/lenovo/Desktop/AIoT/first_day/firstday_afternoon/LiteOS_Lab_STM32_IoT/iot_link/network/dtls/mbedtls/mbedtls_port\dtls_interface.c ****     mbedtls_ctr_drbg_init(ctr_drbg);
 166              		.loc 1 141 5
 167 00a6 3869     		ldr	r0, [r7, #16]
 168 00a8 FFF7FEFF 		bl	mbedtls_ctr_drbg_init
 142:c:/Users/lenovo/Desktop/AIoT/first_day/firstday_afternoon/LiteOS_Lab_STM32_IoT/iot_link/network/dtls/mbedtls/mbedtls_port\dtls_interface.c ****     mbedtls_entropy_init(entropy);
 169              		.loc 1 142 5
 170 00ac 7869     		ldr	r0, [r7, #20]
 171 00ae FFF7FEFF 		bl	mbedtls_entropy_init
 143:c:/Users/lenovo/Desktop/AIoT/first_day/firstday_afternoon/LiteOS_Lab_STM32_IoT/iot_link/network/dtls/mbedtls/mbedtls_port\dtls_interface.c **** 
 144:c:/Users/lenovo/Desktop/AIoT/first_day/firstday_afternoon/LiteOS_Lab_STM32_IoT/iot_link/network/dtls/mbedtls/mbedtls_port\dtls_interface.c **** #if defined(MBEDTLS_X509_CRT_PARSE_C)
ARM GAS  C:\Users\lenovo\AppData\Local\Temp\cc80CgBz.s 			page 7


 145:c:/Users/lenovo/Desktop/AIoT/first_day/firstday_afternoon/LiteOS_Lab_STM32_IoT/iot_link/network/dtls/mbedtls/mbedtls_port\dtls_interface.c ****     if (info->psk_or_cert == VERIFY_WITH_CERT)
 146:c:/Users/lenovo/Desktop/AIoT/first_day/firstday_afternoon/LiteOS_Lab_STM32_IoT/iot_link/network/dtls/mbedtls/mbedtls_port\dtls_interface.c ****     {
 147:c:/Users/lenovo/Desktop/AIoT/first_day/firstday_afternoon/LiteOS_Lab_STM32_IoT/iot_link/network/dtls/mbedtls/mbedtls_port\dtls_interface.c ****         mbedtls_x509_crt_init(cacert);
 148:c:/Users/lenovo/Desktop/AIoT/first_day/firstday_afternoon/LiteOS_Lab_STM32_IoT/iot_link/network/dtls/mbedtls/mbedtls_port\dtls_interface.c ****     }
 149:c:/Users/lenovo/Desktop/AIoT/first_day/firstday_afternoon/LiteOS_Lab_STM32_IoT/iot_link/network/dtls/mbedtls/mbedtls_port\dtls_interface.c **** #endif
 150:c:/Users/lenovo/Desktop/AIoT/first_day/firstday_afternoon/LiteOS_Lab_STM32_IoT/iot_link/network/dtls/mbedtls/mbedtls_port\dtls_interface.c **** 
 151:c:/Users/lenovo/Desktop/AIoT/first_day/firstday_afternoon/LiteOS_Lab_STM32_IoT/iot_link/network/dtls/mbedtls/mbedtls_port\dtls_interface.c ****     if ((ret = mbedtls_ctr_drbg_seed(ctr_drbg, mbedtls_entropy_func, entropy,
 172              		.loc 1 151 16
 173 00b2 F868     		ldr	r0, [r7, #12]
 174 00b4 FFF7FEFF 		bl	strlen
 175 00b8 0346     		mov	r3, r0
 176 00ba 0093     		str	r3, [sp]
 177 00bc FB68     		ldr	r3, [r7, #12]
 178 00be 7A69     		ldr	r2, [r7, #20]
 179 00c0 5949     		ldr	r1, .L20+4
 180 00c2 3869     		ldr	r0, [r7, #16]
 181 00c4 FFF7FEFF 		bl	mbedtls_ctr_drbg_seed
 182 00c8 B860     		str	r0, [r7, #8]
 183              		.loc 1 151 8
 184 00ca BB68     		ldr	r3, [r7, #8]
 185 00cc 002B     		cmp	r3, #0
 186 00ce 07D0     		beq	.L7
 152:c:/Users/lenovo/Desktop/AIoT/first_day/firstday_afternoon/LiteOS_Lab_STM32_IoT/iot_link/network/dtls/mbedtls/mbedtls_port\dtls_interface.c ****                                      (const unsigned char *) pers,
 153:c:/Users/lenovo/Desktop/AIoT/first_day/firstday_afternoon/LiteOS_Lab_STM32_IoT/iot_link/network/dtls/mbedtls/mbedtls_port\dtls_interface.c ****                                      strlen(pers))) != 0)
 154:c:/Users/lenovo/Desktop/AIoT/first_day/firstday_afternoon/LiteOS_Lab_STM32_IoT/iot_link/network/dtls/mbedtls/mbedtls_port\dtls_interface.c ****     {
 155:c:/Users/lenovo/Desktop/AIoT/first_day/firstday_afternoon/LiteOS_Lab_STM32_IoT/iot_link/network/dtls/mbedtls/mbedtls_port\dtls_interface.c ****         MBEDTLS_LOG("mbedtls_ctr_drbg_seed failed: -0x%x", -ret);
 187              		.loc 1 155 9
 188 00d0 BB68     		ldr	r3, [r7, #8]
 189 00d2 5B42     		rsbs	r3, r3, #0
 190 00d4 9B22     		movs	r2, #155
 191 00d6 5549     		ldr	r1, .L20+8
 192 00d8 5548     		ldr	r0, .L20+12
 193 00da FFF7FEFF 		bl	printf
 156:c:/Users/lenovo/Desktop/AIoT/first_day/firstday_afternoon/LiteOS_Lab_STM32_IoT/iot_link/network/dtls/mbedtls/mbedtls_port\dtls_interface.c ****         goto exit_fail;
 194              		.loc 1 156 9
 195 00de 72E0     		b	.L4
 196              	.L7:
 157:c:/Users/lenovo/Desktop/AIoT/first_day/firstday_afternoon/LiteOS_Lab_STM32_IoT/iot_link/network/dtls/mbedtls/mbedtls_port\dtls_interface.c ****     }
 158:c:/Users/lenovo/Desktop/AIoT/first_day/firstday_afternoon/LiteOS_Lab_STM32_IoT/iot_link/network/dtls/mbedtls/mbedtls_port\dtls_interface.c **** 
 159:c:/Users/lenovo/Desktop/AIoT/first_day/firstday_afternoon/LiteOS_Lab_STM32_IoT/iot_link/network/dtls/mbedtls/mbedtls_port\dtls_interface.c ****     MBEDTLS_LOG("setting up the SSL structure");
 197              		.loc 1 159 5
 198 00e0 9F22     		movs	r2, #159
 199 00e2 5249     		ldr	r1, .L20+8
 200 00e4 5348     		ldr	r0, .L20+16
 201 00e6 FFF7FEFF 		bl	printf
 160:c:/Users/lenovo/Desktop/AIoT/first_day/firstday_afternoon/LiteOS_Lab_STM32_IoT/iot_link/network/dtls/mbedtls/mbedtls_port\dtls_interface.c **** 
 161:c:/Users/lenovo/Desktop/AIoT/first_day/firstday_afternoon/LiteOS_Lab_STM32_IoT/iot_link/network/dtls/mbedtls/mbedtls_port\dtls_interface.c ****     ret = mbedtls_ssl_config_defaults(conf,plat_type,transport,MBEDTLS_SSL_PRESET_DEFAULT);
 202              		.loc 1 161 11
 203 00ea F978     		ldrb	r1, [r7, #3]	@ zero_extendqisi2
 204 00ec 0023     		movs	r3, #0
 205 00ee 3A6A     		ldr	r2, [r7, #32]
 206 00f0 B869     		ldr	r0, [r7, #24]
 207 00f2 FFF7FEFF 		bl	mbedtls_ssl_config_defaults
 208 00f6 B860     		str	r0, [r7, #8]
 162:c:/Users/lenovo/Desktop/AIoT/first_day/firstday_afternoon/LiteOS_Lab_STM32_IoT/iot_link/network/dtls/mbedtls/mbedtls_port\dtls_interface.c ****     if (ret != 0)
 209              		.loc 1 162 8
 210 00f8 BB68     		ldr	r3, [r7, #8]
ARM GAS  C:\Users\lenovo\AppData\Local\Temp\cc80CgBz.s 			page 8


 211 00fa 002B     		cmp	r3, #0
 212 00fc 07D0     		beq	.L8
 163:c:/Users/lenovo/Desktop/AIoT/first_day/firstday_afternoon/LiteOS_Lab_STM32_IoT/iot_link/network/dtls/mbedtls/mbedtls_port\dtls_interface.c ****     {
 164:c:/Users/lenovo/Desktop/AIoT/first_day/firstday_afternoon/LiteOS_Lab_STM32_IoT/iot_link/network/dtls/mbedtls/mbedtls_port\dtls_interface.c ****         MBEDTLS_LOG("mbedtls_ssl_config_defaults failed: -0x%x", -ret);
 213              		.loc 1 164 9
 214 00fe BB68     		ldr	r3, [r7, #8]
 215 0100 5B42     		rsbs	r3, r3, #0
 216 0102 A422     		movs	r2, #164
 217 0104 4949     		ldr	r1, .L20+8
 218 0106 4C48     		ldr	r0, .L20+20
 219 0108 FFF7FEFF 		bl	printf
 165:c:/Users/lenovo/Desktop/AIoT/first_day/firstday_afternoon/LiteOS_Lab_STM32_IoT/iot_link/network/dtls/mbedtls/mbedtls_port\dtls_interface.c ****         goto exit_fail;
 220              		.loc 1 165 9
 221 010c 5BE0     		b	.L4
 222              	.L8:
 166:c:/Users/lenovo/Desktop/AIoT/first_day/firstday_afternoon/LiteOS_Lab_STM32_IoT/iot_link/network/dtls/mbedtls/mbedtls_port\dtls_interface.c ****     }
 167:c:/Users/lenovo/Desktop/AIoT/first_day/firstday_afternoon/LiteOS_Lab_STM32_IoT/iot_link/network/dtls/mbedtls/mbedtls_port\dtls_interface.c **** 
 168:c:/Users/lenovo/Desktop/AIoT/first_day/firstday_afternoon/LiteOS_Lab_STM32_IoT/iot_link/network/dtls/mbedtls/mbedtls_port\dtls_interface.c ****     mbedtls_ssl_conf_authmode(conf, MBEDTLS_SSL_VERIFY_REQUIRED);
 223              		.loc 1 168 5
 224 010e 0221     		movs	r1, #2
 225 0110 B869     		ldr	r0, [r7, #24]
 226 0112 FFF7FEFF 		bl	mbedtls_ssl_conf_authmode
 169:c:/Users/lenovo/Desktop/AIoT/first_day/firstday_afternoon/LiteOS_Lab_STM32_IoT/iot_link/network/dtls/mbedtls/mbedtls_port\dtls_interface.c ****     mbedtls_ssl_conf_rng(conf, mbedtls_ctr_drbg_random, ctr_drbg);
 227              		.loc 1 169 5
 228 0116 3A69     		ldr	r2, [r7, #16]
 229 0118 4849     		ldr	r1, .L20+24
 230 011a B869     		ldr	r0, [r7, #24]
 231 011c FFF7FEFF 		bl	mbedtls_ssl_conf_rng
 170:c:/Users/lenovo/Desktop/AIoT/first_day/firstday_afternoon/LiteOS_Lab_STM32_IoT/iot_link/network/dtls/mbedtls/mbedtls_port\dtls_interface.c **** 
 171:c:/Users/lenovo/Desktop/AIoT/first_day/firstday_afternoon/LiteOS_Lab_STM32_IoT/iot_link/network/dtls/mbedtls/mbedtls_port\dtls_interface.c ****     if (info->udp_or_tcp == MBEDTLS_NET_PROTO_TCP)
 232              		.loc 1 171 13
 233 0120 7B68     		ldr	r3, [r7, #4]
 234 0122 5B6A     		ldr	r3, [r3, #36]
 235              		.loc 1 171 8
 236 0124 002B     		cmp	r3, #0
 237 0126 04D1     		bne	.L9
 172:c:/Users/lenovo/Desktop/AIoT/first_day/firstday_afternoon/LiteOS_Lab_STM32_IoT/iot_link/network/dtls/mbedtls/mbedtls_port\dtls_interface.c ****     {
 173:c:/Users/lenovo/Desktop/AIoT/first_day/firstday_afternoon/LiteOS_Lab_STM32_IoT/iot_link/network/dtls/mbedtls/mbedtls_port\dtls_interface.c ****         mbedtls_ssl_conf_read_timeout(conf, TLS_SHAKEHAND_TIMEOUT);
 238              		.loc 1 173 9
 239 0128 4FF47A71 		mov	r1, #1000
 240 012c B869     		ldr	r0, [r7, #24]
 241 012e FFF7FEFF 		bl	mbedtls_ssl_conf_read_timeout
 242              	.L9:
 174:c:/Users/lenovo/Desktop/AIoT/first_day/firstday_afternoon/LiteOS_Lab_STM32_IoT/iot_link/network/dtls/mbedtls/mbedtls_port\dtls_interface.c ****     }
 175:c:/Users/lenovo/Desktop/AIoT/first_day/firstday_afternoon/LiteOS_Lab_STM32_IoT/iot_link/network/dtls/mbedtls/mbedtls_port\dtls_interface.c **** 
 176:c:/Users/lenovo/Desktop/AIoT/first_day/firstday_afternoon/LiteOS_Lab_STM32_IoT/iot_link/network/dtls/mbedtls/mbedtls_port\dtls_interface.c **** #if defined(MBEDTLS_KEY_EXCHANGE__SOME__PSK_ENABLED)
 177:c:/Users/lenovo/Desktop/AIoT/first_day/firstday_afternoon/LiteOS_Lab_STM32_IoT/iot_link/network/dtls/mbedtls/mbedtls_port\dtls_interface.c ****     if (info->psk_or_cert == VERIFY_WITH_PSK)
 243              		.loc 1 177 13
 244 0132 7B68     		ldr	r3, [r7, #4]
 245 0134 93F82030 		ldrb	r3, [r3, #32]	@ zero_extendqisi2
 246              		.loc 1 177 8
 247 0138 002B     		cmp	r3, #0
 248 013a 1ED1     		bne	.L10
 178:c:/Users/lenovo/Desktop/AIoT/first_day/firstday_afternoon/LiteOS_Lab_STM32_IoT/iot_link/network/dtls/mbedtls/mbedtls_port\dtls_interface.c ****     {
 179:c:/Users/lenovo/Desktop/AIoT/first_day/firstday_afternoon/LiteOS_Lab_STM32_IoT/iot_link/network/dtls/mbedtls/mbedtls_port\dtls_interface.c ****         if ((ret = mbedtls_ssl_conf_psk(conf,
 249              		.loc 1 179 20
 250 013c 7B68     		ldr	r3, [r7, #4]
ARM GAS  C:\Users\lenovo\AppData\Local\Temp\cc80CgBz.s 			page 9


 251 013e 1C68     		ldr	r4, [r3]
 180:c:/Users/lenovo/Desktop/AIoT/first_day/firstday_afternoon/LiteOS_Lab_STM32_IoT/iot_link/network/dtls/mbedtls/mbedtls_port\dtls_interface.c ****                                         info->v.p.psk,
 181:c:/Users/lenovo/Desktop/AIoT/first_day/firstday_afternoon/LiteOS_Lab_STM32_IoT/iot_link/network/dtls/mbedtls/mbedtls_port\dtls_interface.c ****                                         info->v.p.psk_len,
 252              		.loc 1 181 50
 253 0140 7B68     		ldr	r3, [r7, #4]
 254 0142 5D68     		ldr	r5, [r3, #4]
 179:c:/Users/lenovo/Desktop/AIoT/first_day/firstday_afternoon/LiteOS_Lab_STM32_IoT/iot_link/network/dtls/mbedtls/mbedtls_port\dtls_interface.c ****                                         info->v.p.psk,
 255              		.loc 1 179 20
 256 0144 7B68     		ldr	r3, [r7, #4]
 257 0146 9E68     		ldr	r6, [r3, #8]
 182:c:/Users/lenovo/Desktop/AIoT/first_day/firstday_afternoon/LiteOS_Lab_STM32_IoT/iot_link/network/dtls/mbedtls/mbedtls_port\dtls_interface.c ****                                         info->v.p.psk_identity,
 183:c:/Users/lenovo/Desktop/AIoT/first_day/firstday_afternoon/LiteOS_Lab_STM32_IoT/iot_link/network/dtls/mbedtls/mbedtls_port\dtls_interface.c ****                                         strlen((const char *)info->v.p.psk_identity))) != 0)
 258              		.loc 1 183 71
 259 0148 7B68     		ldr	r3, [r7, #4]
 260 014a 9B68     		ldr	r3, [r3, #8]
 179:c:/Users/lenovo/Desktop/AIoT/first_day/firstday_afternoon/LiteOS_Lab_STM32_IoT/iot_link/network/dtls/mbedtls/mbedtls_port\dtls_interface.c ****                                         info->v.p.psk,
 261              		.loc 1 179 20
 262 014c 1846     		mov	r0, r3
 263 014e FFF7FEFF 		bl	strlen
 264 0152 0346     		mov	r3, r0
 265 0154 0093     		str	r3, [sp]
 266 0156 3346     		mov	r3, r6
 267 0158 2A46     		mov	r2, r5
 268 015a 2146     		mov	r1, r4
 269 015c B869     		ldr	r0, [r7, #24]
 270 015e FFF7FEFF 		bl	mbedtls_ssl_conf_psk
 271 0162 B860     		str	r0, [r7, #8]
 179:c:/Users/lenovo/Desktop/AIoT/first_day/firstday_afternoon/LiteOS_Lab_STM32_IoT/iot_link/network/dtls/mbedtls/mbedtls_port\dtls_interface.c ****                                         info->v.p.psk,
 272              		.loc 1 179 12
 273 0164 BB68     		ldr	r3, [r7, #8]
 274 0166 002B     		cmp	r3, #0
 275 0168 07D0     		beq	.L10
 184:c:/Users/lenovo/Desktop/AIoT/first_day/firstday_afternoon/LiteOS_Lab_STM32_IoT/iot_link/network/dtls/mbedtls/mbedtls_port\dtls_interface.c ****         {
 185:c:/Users/lenovo/Desktop/AIoT/first_day/firstday_afternoon/LiteOS_Lab_STM32_IoT/iot_link/network/dtls/mbedtls/mbedtls_port\dtls_interface.c ****             MBEDTLS_LOG("mbedtls_ssl_conf_psk failed: -0x%x", -ret);
 276              		.loc 1 185 13
 277 016a BB68     		ldr	r3, [r7, #8]
 278 016c 5B42     		rsbs	r3, r3, #0
 279 016e B922     		movs	r2, #185
 280 0170 2E49     		ldr	r1, .L20+8
 281 0172 3348     		ldr	r0, .L20+28
 282 0174 FFF7FEFF 		bl	printf
 186:c:/Users/lenovo/Desktop/AIoT/first_day/firstday_afternoon/LiteOS_Lab_STM32_IoT/iot_link/network/dtls/mbedtls/mbedtls_port\dtls_interface.c ****             goto exit_fail;
 283              		.loc 1 186 13
 284 0178 25E0     		b	.L4
 285              	.L10:
 187:c:/Users/lenovo/Desktop/AIoT/first_day/firstday_afternoon/LiteOS_Lab_STM32_IoT/iot_link/network/dtls/mbedtls/mbedtls_port\dtls_interface.c ****         }
 188:c:/Users/lenovo/Desktop/AIoT/first_day/firstday_afternoon/LiteOS_Lab_STM32_IoT/iot_link/network/dtls/mbedtls/mbedtls_port\dtls_interface.c ****     }
 189:c:/Users/lenovo/Desktop/AIoT/first_day/firstday_afternoon/LiteOS_Lab_STM32_IoT/iot_link/network/dtls/mbedtls/mbedtls_port\dtls_interface.c **** #endif
 190:c:/Users/lenovo/Desktop/AIoT/first_day/firstday_afternoon/LiteOS_Lab_STM32_IoT/iot_link/network/dtls/mbedtls/mbedtls_port\dtls_interface.c **** 
 191:c:/Users/lenovo/Desktop/AIoT/first_day/firstday_afternoon/LiteOS_Lab_STM32_IoT/iot_link/network/dtls/mbedtls/mbedtls_port\dtls_interface.c **** #if defined(MBEDTLS_X509_CRT_PARSE_C)
 192:c:/Users/lenovo/Desktop/AIoT/first_day/firstday_afternoon/LiteOS_Lab_STM32_IoT/iot_link/network/dtls/mbedtls/mbedtls_port\dtls_interface.c ****     if (info->psk_or_cert == VERIFY_WITH_CERT)
 193:c:/Users/lenovo/Desktop/AIoT/first_day/firstday_afternoon/LiteOS_Lab_STM32_IoT/iot_link/network/dtls/mbedtls/mbedtls_port\dtls_interface.c ****     {
 194:c:/Users/lenovo/Desktop/AIoT/first_day/firstday_afternoon/LiteOS_Lab_STM32_IoT/iot_link/network/dtls/mbedtls/mbedtls_port\dtls_interface.c ****         ret = mbedtls_x509_crt_parse(cacert, info->v.c.ca_cert, info->v.c.cert_len);
 195:c:/Users/lenovo/Desktop/AIoT/first_day/firstday_afternoon/LiteOS_Lab_STM32_IoT/iot_link/network/dtls/mbedtls/mbedtls_port\dtls_interface.c ****         if(ret < 0)
 196:c:/Users/lenovo/Desktop/AIoT/first_day/firstday_afternoon/LiteOS_Lab_STM32_IoT/iot_link/network/dtls/mbedtls/mbedtls_port\dtls_interface.c ****         {
 197:c:/Users/lenovo/Desktop/AIoT/first_day/firstday_afternoon/LiteOS_Lab_STM32_IoT/iot_link/network/dtls/mbedtls/mbedtls_port\dtls_interface.c ****             MBEDTLS_LOG("mbedtls_x509_crt_parse failed -0x%x", -ret);
 198:c:/Users/lenovo/Desktop/AIoT/first_day/firstday_afternoon/LiteOS_Lab_STM32_IoT/iot_link/network/dtls/mbedtls/mbedtls_port\dtls_interface.c ****             goto exit_fail;
ARM GAS  C:\Users\lenovo\AppData\Local\Temp\cc80CgBz.s 			page 10


 199:c:/Users/lenovo/Desktop/AIoT/first_day/firstday_afternoon/LiteOS_Lab_STM32_IoT/iot_link/network/dtls/mbedtls/mbedtls_port\dtls_interface.c ****         }
 200:c:/Users/lenovo/Desktop/AIoT/first_day/firstday_afternoon/LiteOS_Lab_STM32_IoT/iot_link/network/dtls/mbedtls/mbedtls_port\dtls_interface.c ****         mbedtls_ssl_conf_authmode(conf, MBEDTLS_SSL_VERIFY_REQUIRED);
 201:c:/Users/lenovo/Desktop/AIoT/first_day/firstday_afternoon/LiteOS_Lab_STM32_IoT/iot_link/network/dtls/mbedtls/mbedtls_port\dtls_interface.c ****         mbedtls_ssl_conf_ca_chain(conf, cacert, NULL);
 202:c:/Users/lenovo/Desktop/AIoT/first_day/firstday_afternoon/LiteOS_Lab_STM32_IoT/iot_link/network/dtls/mbedtls/mbedtls_port\dtls_interface.c **** 
 203:c:/Users/lenovo/Desktop/AIoT/first_day/firstday_afternoon/LiteOS_Lab_STM32_IoT/iot_link/network/dtls/mbedtls/mbedtls_port\dtls_interface.c ****         if(NULL != info->v.c.client_ca) ///< setup the client key and ca
 204:c:/Users/lenovo/Desktop/AIoT/first_day/firstday_afternoon/LiteOS_Lab_STM32_IoT/iot_link/network/dtls/mbedtls/mbedtls_port\dtls_interface.c ****         {
 205:c:/Users/lenovo/Desktop/AIoT/first_day/firstday_afternoon/LiteOS_Lab_STM32_IoT/iot_link/network/dtls/mbedtls/mbedtls_port\dtls_interface.c ****             ret = mbedtls_x509_crt_parse(client_ca,info->v.c.client_ca,info->v.c.client_ca_len);
 206:c:/Users/lenovo/Desktop/AIoT/first_day/firstday_afternoon/LiteOS_Lab_STM32_IoT/iot_link/network/dtls/mbedtls/mbedtls_port\dtls_interface.c ****             if(ret <0)
 207:c:/Users/lenovo/Desktop/AIoT/first_day/firstday_afternoon/LiteOS_Lab_STM32_IoT/iot_link/network/dtls/mbedtls/mbedtls_port\dtls_interface.c ****             {
 208:c:/Users/lenovo/Desktop/AIoT/first_day/firstday_afternoon/LiteOS_Lab_STM32_IoT/iot_link/network/dtls/mbedtls/mbedtls_port\dtls_interface.c ****                 goto exit_fail;
 209:c:/Users/lenovo/Desktop/AIoT/first_day/firstday_afternoon/LiteOS_Lab_STM32_IoT/iot_link/network/dtls/mbedtls/mbedtls_port\dtls_interface.c ****             }
 210:c:/Users/lenovo/Desktop/AIoT/first_day/firstday_afternoon/LiteOS_Lab_STM32_IoT/iot_link/network/dtls/mbedtls/mbedtls_port\dtls_interface.c **** 
 211:c:/Users/lenovo/Desktop/AIoT/first_day/firstday_afternoon/LiteOS_Lab_STM32_IoT/iot_link/network/dtls/mbedtls/mbedtls_port\dtls_interface.c ****             ret = mbedtls_pk_parse_key(client_pk,info->v.c.client_pk,info->v.c.client_pk_len,\
 212:c:/Users/lenovo/Desktop/AIoT/first_day/firstday_afternoon/LiteOS_Lab_STM32_IoT/iot_link/network/dtls/mbedtls/mbedtls_port\dtls_interface.c ****                                        info->v.c.client_pk_pwd,info->v.c.client_pk_pwd_len);
 213:c:/Users/lenovo/Desktop/AIoT/first_day/firstday_afternoon/LiteOS_Lab_STM32_IoT/iot_link/network/dtls/mbedtls/mbedtls_port\dtls_interface.c ****             if(ret < 0)
 214:c:/Users/lenovo/Desktop/AIoT/first_day/firstday_afternoon/LiteOS_Lab_STM32_IoT/iot_link/network/dtls/mbedtls/mbedtls_port\dtls_interface.c ****             {
 215:c:/Users/lenovo/Desktop/AIoT/first_day/firstday_afternoon/LiteOS_Lab_STM32_IoT/iot_link/network/dtls/mbedtls/mbedtls_port\dtls_interface.c ****                 goto exit_fail;
 216:c:/Users/lenovo/Desktop/AIoT/first_day/firstday_afternoon/LiteOS_Lab_STM32_IoT/iot_link/network/dtls/mbedtls/mbedtls_port\dtls_interface.c ****             }
 217:c:/Users/lenovo/Desktop/AIoT/first_day/firstday_afternoon/LiteOS_Lab_STM32_IoT/iot_link/network/dtls/mbedtls/mbedtls_port\dtls_interface.c **** 
 218:c:/Users/lenovo/Desktop/AIoT/first_day/firstday_afternoon/LiteOS_Lab_STM32_IoT/iot_link/network/dtls/mbedtls/mbedtls_port\dtls_interface.c ****             ret = mbedtls_ssl_conf_own_cert( conf, client_ca, client_pk );
 219:c:/Users/lenovo/Desktop/AIoT/first_day/firstday_afternoon/LiteOS_Lab_STM32_IoT/iot_link/network/dtls/mbedtls/mbedtls_port\dtls_interface.c ****             if(ret != 0)
 220:c:/Users/lenovo/Desktop/AIoT/first_day/firstday_afternoon/LiteOS_Lab_STM32_IoT/iot_link/network/dtls/mbedtls/mbedtls_port\dtls_interface.c ****             {
 221:c:/Users/lenovo/Desktop/AIoT/first_day/firstday_afternoon/LiteOS_Lab_STM32_IoT/iot_link/network/dtls/mbedtls/mbedtls_port\dtls_interface.c ****                 goto exit_fail;
 222:c:/Users/lenovo/Desktop/AIoT/first_day/firstday_afternoon/LiteOS_Lab_STM32_IoT/iot_link/network/dtls/mbedtls/mbedtls_port\dtls_interface.c ****             }
 223:c:/Users/lenovo/Desktop/AIoT/first_day/firstday_afternoon/LiteOS_Lab_STM32_IoT/iot_link/network/dtls/mbedtls/mbedtls_port\dtls_interface.c ****         }
 224:c:/Users/lenovo/Desktop/AIoT/first_day/firstday_afternoon/LiteOS_Lab_STM32_IoT/iot_link/network/dtls/mbedtls/mbedtls_port\dtls_interface.c ****     }
 225:c:/Users/lenovo/Desktop/AIoT/first_day/firstday_afternoon/LiteOS_Lab_STM32_IoT/iot_link/network/dtls/mbedtls/mbedtls_port\dtls_interface.c **** #endif
 226:c:/Users/lenovo/Desktop/AIoT/first_day/firstday_afternoon/LiteOS_Lab_STM32_IoT/iot_link/network/dtls/mbedtls/mbedtls_port\dtls_interface.c **** 
 227:c:/Users/lenovo/Desktop/AIoT/first_day/firstday_afternoon/LiteOS_Lab_STM32_IoT/iot_link/network/dtls/mbedtls/mbedtls_port\dtls_interface.c ****     mbedtls_ssl_conf_authmode(conf, MBEDTLS_SSL_VERIFY_REQUIRED);  //TODO--test for no check the ca
 286              		.loc 1 227 5
 287 017a 0221     		movs	r1, #2
 288 017c B869     		ldr	r0, [r7, #24]
 289 017e FFF7FEFF 		bl	mbedtls_ssl_conf_authmode
 228:c:/Users/lenovo/Desktop/AIoT/first_day/firstday_afternoon/LiteOS_Lab_STM32_IoT/iot_link/network/dtls/mbedtls/mbedtls_port\dtls_interface.c **** 
 229:c:/Users/lenovo/Desktop/AIoT/first_day/firstday_afternoon/LiteOS_Lab_STM32_IoT/iot_link/network/dtls/mbedtls/mbedtls_port\dtls_interface.c ****     if ((ret = mbedtls_ssl_setup(ssl, conf)) != 0)
 290              		.loc 1 229 16
 291 0182 B969     		ldr	r1, [r7, #24]
 292 0184 F869     		ldr	r0, [r7, #28]
 293 0186 FFF7FEFF 		bl	mbedtls_ssl_setup
 294 018a B860     		str	r0, [r7, #8]
 295              		.loc 1 229 8
 296 018c BB68     		ldr	r3, [r7, #8]
 297 018e 002B     		cmp	r3, #0
 298 0190 07D0     		beq	.L11
 230:c:/Users/lenovo/Desktop/AIoT/first_day/firstday_afternoon/LiteOS_Lab_STM32_IoT/iot_link/network/dtls/mbedtls/mbedtls_port\dtls_interface.c ****     {
 231:c:/Users/lenovo/Desktop/AIoT/first_day/firstday_afternoon/LiteOS_Lab_STM32_IoT/iot_link/network/dtls/mbedtls/mbedtls_port\dtls_interface.c ****         MBEDTLS_LOG("mbedtls_ssl_setup failed: -0x%x", -ret);
 299              		.loc 1 231 9
 300 0192 BB68     		ldr	r3, [r7, #8]
 301 0194 5B42     		rsbs	r3, r3, #0
 302 0196 E722     		movs	r2, #231
 303 0198 2449     		ldr	r1, .L20+8
 304 019a 2A48     		ldr	r0, .L20+32
 305 019c FFF7FEFF 		bl	printf
 232:c:/Users/lenovo/Desktop/AIoT/first_day/firstday_afternoon/LiteOS_Lab_STM32_IoT/iot_link/network/dtls/mbedtls/mbedtls_port\dtls_interface.c ****         goto exit_fail;
 306              		.loc 1 232 9
 307 01a0 11E0     		b	.L4
 308              	.L11:
ARM GAS  C:\Users\lenovo\AppData\Local\Temp\cc80CgBz.s 			page 11


 233:c:/Users/lenovo/Desktop/AIoT/first_day/firstday_afternoon/LiteOS_Lab_STM32_IoT/iot_link/network/dtls/mbedtls/mbedtls_port\dtls_interface.c ****     }
 234:c:/Users/lenovo/Desktop/AIoT/first_day/firstday_afternoon/LiteOS_Lab_STM32_IoT/iot_link/network/dtls/mbedtls/mbedtls_port\dtls_interface.c **** 
 235:c:/Users/lenovo/Desktop/AIoT/first_day/firstday_afternoon/LiteOS_Lab_STM32_IoT/iot_link/network/dtls/mbedtls/mbedtls_port\dtls_interface.c ****     if (info->udp_or_tcp == MBEDTLS_NET_PROTO_UDP)
 309              		.loc 1 235 13
 310 01a2 7B68     		ldr	r3, [r7, #4]
 311 01a4 5B6A     		ldr	r3, [r3, #36]
 312              		.loc 1 235 8
 313 01a6 012B     		cmp	r3, #1
 314 01a8 05D1     		bne	.L12
 236:c:/Users/lenovo/Desktop/AIoT/first_day/firstday_afternoon/LiteOS_Lab_STM32_IoT/iot_link/network/dtls/mbedtls/mbedtls_port\dtls_interface.c ****     {
 237:c:/Users/lenovo/Desktop/AIoT/first_day/firstday_afternoon/LiteOS_Lab_STM32_IoT/iot_link/network/dtls/mbedtls/mbedtls_port\dtls_interface.c ****         mbedtls_ssl_set_timer_cb(ssl, timer, mbedtls_timing_set_delay,
 315              		.loc 1 237 9
 316 01aa 274B     		ldr	r3, .L20+36
 317 01ac 274A     		ldr	r2, .L20+40
 318 01ae 796A     		ldr	r1, [r7, #36]
 319 01b0 F869     		ldr	r0, [r7, #28]
 320 01b2 FFF7FEFF 		bl	mbedtls_ssl_set_timer_cb
 321              	.L12:
 238:c:/Users/lenovo/Desktop/AIoT/first_day/firstday_afternoon/LiteOS_Lab_STM32_IoT/iot_link/network/dtls/mbedtls/mbedtls_port\dtls_interface.c ****                                  mbedtls_timing_get_delay);
 239:c:/Users/lenovo/Desktop/AIoT/first_day/firstday_afternoon/LiteOS_Lab_STM32_IoT/iot_link/network/dtls/mbedtls/mbedtls_port\dtls_interface.c ****     }
 240:c:/Users/lenovo/Desktop/AIoT/first_day/firstday_afternoon/LiteOS_Lab_STM32_IoT/iot_link/network/dtls/mbedtls/mbedtls_port\dtls_interface.c **** 
 241:c:/Users/lenovo/Desktop/AIoT/first_day/firstday_afternoon/LiteOS_Lab_STM32_IoT/iot_link/network/dtls/mbedtls/mbedtls_port\dtls_interface.c ****     MBEDTLS_LOG("set SSL structure succeed");
 322              		.loc 1 241 5
 323 01b6 F122     		movs	r2, #241
 324 01b8 1C49     		ldr	r1, .L20+8
 325 01ba 2548     		ldr	r0, .L20+44
 326 01bc FFF7FEFF 		bl	printf
 242:c:/Users/lenovo/Desktop/AIoT/first_day/firstday_afternoon/LiteOS_Lab_STM32_IoT/iot_link/network/dtls/mbedtls/mbedtls_port\dtls_interface.c **** 
 243:c:/Users/lenovo/Desktop/AIoT/first_day/firstday_afternoon/LiteOS_Lab_STM32_IoT/iot_link/network/dtls/mbedtls/mbedtls_port\dtls_interface.c ****     return ssl;
 327              		.loc 1 243 12
 328 01c0 FB69     		ldr	r3, [r7, #28]
 329 01c2 2BE0     		b	.L13
 330              	.L19:
 110:c:/Users/lenovo/Desktop/AIoT/first_day/firstday_afternoon/LiteOS_Lab_STM32_IoT/iot_link/network/dtls/mbedtls/mbedtls_port\dtls_interface.c ****     }
 331              		.loc 1 110 9
 332 01c4 00BF     		nop
 333              	.L4:
 244:c:/Users/lenovo/Desktop/AIoT/first_day/firstday_afternoon/LiteOS_Lab_STM32_IoT/iot_link/network/dtls/mbedtls/mbedtls_port\dtls_interface.c **** 
 245:c:/Users/lenovo/Desktop/AIoT/first_day/firstday_afternoon/LiteOS_Lab_STM32_IoT/iot_link/network/dtls/mbedtls/mbedtls_port\dtls_interface.c **** exit_fail:
 246:c:/Users/lenovo/Desktop/AIoT/first_day/firstday_afternoon/LiteOS_Lab_STM32_IoT/iot_link/network/dtls/mbedtls/mbedtls_port\dtls_interface.c **** 
 247:c:/Users/lenovo/Desktop/AIoT/first_day/firstday_afternoon/LiteOS_Lab_STM32_IoT/iot_link/network/dtls/mbedtls/mbedtls_port\dtls_interface.c ****     if (conf)
 334              		.loc 1 247 8
 335 01c6 BB69     		ldr	r3, [r7, #24]
 336 01c8 002B     		cmp	r3, #0
 337 01ca 05D0     		beq	.L14
 248:c:/Users/lenovo/Desktop/AIoT/first_day/firstday_afternoon/LiteOS_Lab_STM32_IoT/iot_link/network/dtls/mbedtls/mbedtls_port\dtls_interface.c ****     {
 249:c:/Users/lenovo/Desktop/AIoT/first_day/firstday_afternoon/LiteOS_Lab_STM32_IoT/iot_link/network/dtls/mbedtls/mbedtls_port\dtls_interface.c ****         mbedtls_ssl_config_free(conf);
 338              		.loc 1 249 9
 339 01cc B869     		ldr	r0, [r7, #24]
 340 01ce FFF7FEFF 		bl	mbedtls_ssl_config_free
 250:c:/Users/lenovo/Desktop/AIoT/first_day/firstday_afternoon/LiteOS_Lab_STM32_IoT/iot_link/network/dtls/mbedtls/mbedtls_port\dtls_interface.c ****         mbedtls_free(conf);
 341              		.loc 1 250 9
 342 01d2 B869     		ldr	r0, [r7, #24]
 343 01d4 FFF7FEFF 		bl	mbedtls_free
 344              	.L14:
 251:c:/Users/lenovo/Desktop/AIoT/first_day/firstday_afternoon/LiteOS_Lab_STM32_IoT/iot_link/network/dtls/mbedtls/mbedtls_port\dtls_interface.c ****     }
 252:c:/Users/lenovo/Desktop/AIoT/first_day/firstday_afternoon/LiteOS_Lab_STM32_IoT/iot_link/network/dtls/mbedtls/mbedtls_port\dtls_interface.c **** 
ARM GAS  C:\Users\lenovo\AppData\Local\Temp\cc80CgBz.s 			page 12


 253:c:/Users/lenovo/Desktop/AIoT/first_day/firstday_afternoon/LiteOS_Lab_STM32_IoT/iot_link/network/dtls/mbedtls/mbedtls_port\dtls_interface.c ****     if (ctr_drbg)
 345              		.loc 1 253 8
 346 01d8 3B69     		ldr	r3, [r7, #16]
 347 01da 002B     		cmp	r3, #0
 348 01dc 05D0     		beq	.L15
 254:c:/Users/lenovo/Desktop/AIoT/first_day/firstday_afternoon/LiteOS_Lab_STM32_IoT/iot_link/network/dtls/mbedtls/mbedtls_port\dtls_interface.c ****     {
 255:c:/Users/lenovo/Desktop/AIoT/first_day/firstday_afternoon/LiteOS_Lab_STM32_IoT/iot_link/network/dtls/mbedtls/mbedtls_port\dtls_interface.c ****         mbedtls_ctr_drbg_free(ctr_drbg);
 349              		.loc 1 255 9
 350 01de 3869     		ldr	r0, [r7, #16]
 351 01e0 FFF7FEFF 		bl	mbedtls_ctr_drbg_free
 256:c:/Users/lenovo/Desktop/AIoT/first_day/firstday_afternoon/LiteOS_Lab_STM32_IoT/iot_link/network/dtls/mbedtls/mbedtls_port\dtls_interface.c ****         mbedtls_free(ctr_drbg);
 352              		.loc 1 256 9
 353 01e4 3869     		ldr	r0, [r7, #16]
 354 01e6 FFF7FEFF 		bl	mbedtls_free
 355              	.L15:
 257:c:/Users/lenovo/Desktop/AIoT/first_day/firstday_afternoon/LiteOS_Lab_STM32_IoT/iot_link/network/dtls/mbedtls/mbedtls_port\dtls_interface.c ****     }
 258:c:/Users/lenovo/Desktop/AIoT/first_day/firstday_afternoon/LiteOS_Lab_STM32_IoT/iot_link/network/dtls/mbedtls/mbedtls_port\dtls_interface.c **** 
 259:c:/Users/lenovo/Desktop/AIoT/first_day/firstday_afternoon/LiteOS_Lab_STM32_IoT/iot_link/network/dtls/mbedtls/mbedtls_port\dtls_interface.c ****     if (entropy)
 356              		.loc 1 259 8
 357 01ea 7B69     		ldr	r3, [r7, #20]
 358 01ec 002B     		cmp	r3, #0
 359 01ee 05D0     		beq	.L16
 260:c:/Users/lenovo/Desktop/AIoT/first_day/firstday_afternoon/LiteOS_Lab_STM32_IoT/iot_link/network/dtls/mbedtls/mbedtls_port\dtls_interface.c ****     {
 261:c:/Users/lenovo/Desktop/AIoT/first_day/firstday_afternoon/LiteOS_Lab_STM32_IoT/iot_link/network/dtls/mbedtls/mbedtls_port\dtls_interface.c ****         mbedtls_entropy_free(entropy);
 360              		.loc 1 261 9
 361 01f0 7869     		ldr	r0, [r7, #20]
 362 01f2 FFF7FEFF 		bl	mbedtls_entropy_free
 262:c:/Users/lenovo/Desktop/AIoT/first_day/firstday_afternoon/LiteOS_Lab_STM32_IoT/iot_link/network/dtls/mbedtls/mbedtls_port\dtls_interface.c ****         mbedtls_free(entropy);
 363              		.loc 1 262 9
 364 01f6 7869     		ldr	r0, [r7, #20]
 365 01f8 FFF7FEFF 		bl	mbedtls_free
 366              	.L16:
 263:c:/Users/lenovo/Desktop/AIoT/first_day/firstday_afternoon/LiteOS_Lab_STM32_IoT/iot_link/network/dtls/mbedtls/mbedtls_port\dtls_interface.c ****     }
 264:c:/Users/lenovo/Desktop/AIoT/first_day/firstday_afternoon/LiteOS_Lab_STM32_IoT/iot_link/network/dtls/mbedtls/mbedtls_port\dtls_interface.c **** 
 265:c:/Users/lenovo/Desktop/AIoT/first_day/firstday_afternoon/LiteOS_Lab_STM32_IoT/iot_link/network/dtls/mbedtls/mbedtls_port\dtls_interface.c ****     if (timer)
 367              		.loc 1 265 8
 368 01fc 7B6A     		ldr	r3, [r7, #36]
 369 01fe 002B     		cmp	r3, #0
 370 0200 02D0     		beq	.L17
 266:c:/Users/lenovo/Desktop/AIoT/first_day/firstday_afternoon/LiteOS_Lab_STM32_IoT/iot_link/network/dtls/mbedtls/mbedtls_port\dtls_interface.c ****     {
 267:c:/Users/lenovo/Desktop/AIoT/first_day/firstday_afternoon/LiteOS_Lab_STM32_IoT/iot_link/network/dtls/mbedtls/mbedtls_port\dtls_interface.c ****         mbedtls_free(timer);
 371              		.loc 1 267 9
 372 0202 786A     		ldr	r0, [r7, #36]
 373 0204 FFF7FEFF 		bl	mbedtls_free
 374              	.L17:
 268:c:/Users/lenovo/Desktop/AIoT/first_day/firstday_afternoon/LiteOS_Lab_STM32_IoT/iot_link/network/dtls/mbedtls/mbedtls_port\dtls_interface.c ****     }
 269:c:/Users/lenovo/Desktop/AIoT/first_day/firstday_afternoon/LiteOS_Lab_STM32_IoT/iot_link/network/dtls/mbedtls/mbedtls_port\dtls_interface.c **** 
 270:c:/Users/lenovo/Desktop/AIoT/first_day/firstday_afternoon/LiteOS_Lab_STM32_IoT/iot_link/network/dtls/mbedtls/mbedtls_port\dtls_interface.c **** #if defined(MBEDTLS_X509_CRT_PARSE_C)
 271:c:/Users/lenovo/Desktop/AIoT/first_day/firstday_afternoon/LiteOS_Lab_STM32_IoT/iot_link/network/dtls/mbedtls/mbedtls_port\dtls_interface.c ****     if (cacert)
 272:c:/Users/lenovo/Desktop/AIoT/first_day/firstday_afternoon/LiteOS_Lab_STM32_IoT/iot_link/network/dtls/mbedtls/mbedtls_port\dtls_interface.c ****     {
 273:c:/Users/lenovo/Desktop/AIoT/first_day/firstday_afternoon/LiteOS_Lab_STM32_IoT/iot_link/network/dtls/mbedtls/mbedtls_port\dtls_interface.c ****         mbedtls_x509_crt_free(cacert);
 274:c:/Users/lenovo/Desktop/AIoT/first_day/firstday_afternoon/LiteOS_Lab_STM32_IoT/iot_link/network/dtls/mbedtls/mbedtls_port\dtls_interface.c ****         mbedtls_free(cacert);
 275:c:/Users/lenovo/Desktop/AIoT/first_day/firstday_afternoon/LiteOS_Lab_STM32_IoT/iot_link/network/dtls/mbedtls/mbedtls_port\dtls_interface.c ****     }
 276:c:/Users/lenovo/Desktop/AIoT/first_day/firstday_afternoon/LiteOS_Lab_STM32_IoT/iot_link/network/dtls/mbedtls/mbedtls_port\dtls_interface.c **** 
 277:c:/Users/lenovo/Desktop/AIoT/first_day/firstday_afternoon/LiteOS_Lab_STM32_IoT/iot_link/network/dtls/mbedtls/mbedtls_port\dtls_interface.c ****     if(client_ca)
 278:c:/Users/lenovo/Desktop/AIoT/first_day/firstday_afternoon/LiteOS_Lab_STM32_IoT/iot_link/network/dtls/mbedtls/mbedtls_port\dtls_interface.c ****     {
 279:c:/Users/lenovo/Desktop/AIoT/first_day/firstday_afternoon/LiteOS_Lab_STM32_IoT/iot_link/network/dtls/mbedtls/mbedtls_port\dtls_interface.c ****         mbedtls_x509_crt_free(client_ca);
ARM GAS  C:\Users\lenovo\AppData\Local\Temp\cc80CgBz.s 			page 13


 280:c:/Users/lenovo/Desktop/AIoT/first_day/firstday_afternoon/LiteOS_Lab_STM32_IoT/iot_link/network/dtls/mbedtls/mbedtls_port\dtls_interface.c ****         mbedtls_free(client_ca);
 281:c:/Users/lenovo/Desktop/AIoT/first_day/firstday_afternoon/LiteOS_Lab_STM32_IoT/iot_link/network/dtls/mbedtls/mbedtls_port\dtls_interface.c ****     }
 282:c:/Users/lenovo/Desktop/AIoT/first_day/firstday_afternoon/LiteOS_Lab_STM32_IoT/iot_link/network/dtls/mbedtls/mbedtls_port\dtls_interface.c **** 
 283:c:/Users/lenovo/Desktop/AIoT/first_day/firstday_afternoon/LiteOS_Lab_STM32_IoT/iot_link/network/dtls/mbedtls/mbedtls_port\dtls_interface.c ****     if(client_pk)
 284:c:/Users/lenovo/Desktop/AIoT/first_day/firstday_afternoon/LiteOS_Lab_STM32_IoT/iot_link/network/dtls/mbedtls/mbedtls_port\dtls_interface.c ****     {
 285:c:/Users/lenovo/Desktop/AIoT/first_day/firstday_afternoon/LiteOS_Lab_STM32_IoT/iot_link/network/dtls/mbedtls/mbedtls_port\dtls_interface.c ****         mbedtls_pk_free(client_pk);
 286:c:/Users/lenovo/Desktop/AIoT/first_day/firstday_afternoon/LiteOS_Lab_STM32_IoT/iot_link/network/dtls/mbedtls/mbedtls_port\dtls_interface.c ****         mbedtls_free(client_pk);
 287:c:/Users/lenovo/Desktop/AIoT/first_day/firstday_afternoon/LiteOS_Lab_STM32_IoT/iot_link/network/dtls/mbedtls/mbedtls_port\dtls_interface.c ****     }
 288:c:/Users/lenovo/Desktop/AIoT/first_day/firstday_afternoon/LiteOS_Lab_STM32_IoT/iot_link/network/dtls/mbedtls/mbedtls_port\dtls_interface.c **** #endif
 289:c:/Users/lenovo/Desktop/AIoT/first_day/firstday_afternoon/LiteOS_Lab_STM32_IoT/iot_link/network/dtls/mbedtls/mbedtls_port\dtls_interface.c **** 
 290:c:/Users/lenovo/Desktop/AIoT/first_day/firstday_afternoon/LiteOS_Lab_STM32_IoT/iot_link/network/dtls/mbedtls/mbedtls_port\dtls_interface.c ****     if (ssl)
 375              		.loc 1 290 8
 376 0208 FB69     		ldr	r3, [r7, #28]
 377 020a 002B     		cmp	r3, #0
 378 020c 05D0     		beq	.L18
 291:c:/Users/lenovo/Desktop/AIoT/first_day/firstday_afternoon/LiteOS_Lab_STM32_IoT/iot_link/network/dtls/mbedtls/mbedtls_port\dtls_interface.c ****     {
 292:c:/Users/lenovo/Desktop/AIoT/first_day/firstday_afternoon/LiteOS_Lab_STM32_IoT/iot_link/network/dtls/mbedtls/mbedtls_port\dtls_interface.c ****         mbedtls_ssl_free(ssl);
 379              		.loc 1 292 9
 380 020e F869     		ldr	r0, [r7, #28]
 381 0210 FFF7FEFF 		bl	mbedtls_ssl_free
 293:c:/Users/lenovo/Desktop/AIoT/first_day/firstday_afternoon/LiteOS_Lab_STM32_IoT/iot_link/network/dtls/mbedtls/mbedtls_port\dtls_interface.c ****         mbedtls_free(ssl);
 382              		.loc 1 293 9
 383 0214 F869     		ldr	r0, [r7, #28]
 384 0216 FFF7FEFF 		bl	mbedtls_free
 385              	.L18:
 294:c:/Users/lenovo/Desktop/AIoT/first_day/firstday_afternoon/LiteOS_Lab_STM32_IoT/iot_link/network/dtls/mbedtls/mbedtls_port\dtls_interface.c ****     }
 295:c:/Users/lenovo/Desktop/AIoT/first_day/firstday_afternoon/LiteOS_Lab_STM32_IoT/iot_link/network/dtls/mbedtls/mbedtls_port\dtls_interface.c ****     return NULL;
 386              		.loc 1 295 12
 387 021a 0023     		movs	r3, #0
 388              	.L13:
 296:c:/Users/lenovo/Desktop/AIoT/first_day/firstday_afternoon/LiteOS_Lab_STM32_IoT/iot_link/network/dtls/mbedtls/mbedtls_port\dtls_interface.c **** }
 389              		.loc 1 296 1
 390 021c 1846     		mov	r0, r3
 391 021e 2C37     		adds	r7, r7, #44
 392              	.LCFI3:
 393              		.cfi_def_cfa_offset 20
 394 0220 BD46     		mov	sp, r7
 395              	.LCFI4:
 396              		.cfi_def_cfa_register 13
 397              		@ sp needed
 398 0222 F0BD     		pop	{r4, r5, r6, r7, pc}
 399              	.L21:
 400              		.align	2
 401              	.L20:
 402 0224 00000000 		.word	.LC0
 403 0228 00000000 		.word	mbedtls_entropy_func
 404 022c 00000000 		.word	__FUNCTION__.9396
 405 0230 0C000000 		.word	.LC1
 406 0234 44000000 		.word	.LC2
 407 0238 74000000 		.word	.LC3
 408 023c 00000000 		.word	mbedtls_ctr_drbg_random
 409 0240 B4000000 		.word	.LC4
 410 0244 EC000000 		.word	.LC5
 411 0248 00000000 		.word	mbedtls_timing_get_delay
 412 024c 00000000 		.word	mbedtls_timing_set_delay
 413 0250 20010000 		.word	.LC6
 414              		.cfi_endproc
ARM GAS  C:\Users\lenovo\AppData\Local\Temp\cc80CgBz.s 			page 14


 415              	.LFE16:
 417              		.section	.text.dtls_gettime,"ax",%progbits
 418              		.align	1
 419              		.syntax unified
 420              		.thumb
 421              		.thumb_func
 422              		.fpu fpv4-sp-d16
 424              	dtls_gettime:
 425              	.LFB17:
 297:c:/Users/lenovo/Desktop/AIoT/first_day/firstday_afternoon/LiteOS_Lab_STM32_IoT/iot_link/network/dtls/mbedtls/mbedtls_port\dtls_interface.c **** 
 298:c:/Users/lenovo/Desktop/AIoT/first_day/firstday_afternoon/LiteOS_Lab_STM32_IoT/iot_link/network/dtls/mbedtls/mbedtls_port\dtls_interface.c **** static inline uint32_t dtls_gettime()
 299:c:/Users/lenovo/Desktop/AIoT/first_day/firstday_afternoon/LiteOS_Lab_STM32_IoT/iot_link/network/dtls/mbedtls/mbedtls_port\dtls_interface.c **** {
 426              		.loc 1 299 1
 427              		.cfi_startproc
 428              		@ args = 0, pretend = 0, frame = 0
 429              		@ frame_needed = 1, uses_anonymous_args = 0
 430 0000 80B5     		push	{r7, lr}
 431              	.LCFI5:
 432              		.cfi_def_cfa_offset 8
 433              		.cfi_offset 7, -8
 434              		.cfi_offset 14, -4
 435 0002 00AF     		add	r7, sp, #0
 436              	.LCFI6:
 437              		.cfi_def_cfa_register 7
 300:c:/Users/lenovo/Desktop/AIoT/first_day/firstday_afternoon/LiteOS_Lab_STM32_IoT/iot_link/network/dtls/mbedtls/mbedtls_port\dtls_interface.c ****     return (uint32_t)(osal_sys_time() );
 438              		.loc 1 300 23
 439 0004 FFF7FEFF 		bl	osal_sys_time
 440 0008 0246     		mov	r2, r0
 441 000a 0B46     		mov	r3, r1
 442              		.loc 1 300 12
 443 000c 1346     		mov	r3, r2
 301:c:/Users/lenovo/Desktop/AIoT/first_day/firstday_afternoon/LiteOS_Lab_STM32_IoT/iot_link/network/dtls/mbedtls/mbedtls_port\dtls_interface.c **** }
 444              		.loc 1 301 1
 445 000e 1846     		mov	r0, r3
 446 0010 80BD     		pop	{r7, pc}
 447              		.cfi_endproc
 448              	.LFE17:
 450              		.section	.rodata
 451 014d 000000   		.align	2
 452              	.LC7:
 453 0150 5B4D4245 		.ascii	"[MBEDTLS][%s:%d] connecting to server\015\012\000"
 453      44544C53 
 453      5D5B2573 
 453      3A25645D 
 453      20636F6E 
 454              		.align	2
 455              	.LC8:
 456 0178 5B4D4245 		.ascii	"[MBEDTLS][%s:%d] connect failed! mode %d\015\012\000"
 456      44544C53 
 456      5D5B2573 
 456      3A25645D 
 456      20636F6E 
 457 01a3 00       		.align	2
 458              	.LC9:
 459 01a4 5B4D4245 		.ascii	"[MBEDTLS][%s:%d] performing the SSL/TLS handshake\015"
 459      44544C53 
 459      5D5B2573 
ARM GAS  C:\Users\lenovo\AppData\Local\Temp\cc80CgBz.s 			page 15


 459      3A25645D 
 459      20706572 
 460 01d6 0A00     		.ascii	"\012\000"
 461              		.align	2
 462              	.LC10:
 463 01d8 5B4D4245 		.ascii	"[MBEDTLS][%s:%d] mbedtls_ssl_handshake failed: -0x%"
 463      44544C53 
 463      5D5B2573 
 463      3A25645D 
 463      206D6265 
 464 020b 780D0A00 		.ascii	"x\015\012\000"
 465 020f 00       		.align	2
 466              	.LC11:
 467 0210 5B4D4245 		.ascii	"[MBEDTLS][%s:%d] handshake succeed\015\012\000"
 467      44544C53 
 467      5D5B2573 
 467      3A25645D 
 467      2068616E 
 468              		.section	.text.dtls_shakehand,"ax",%progbits
 469              		.align	1
 470              		.global	dtls_shakehand
 471              		.syntax unified
 472              		.thumb
 473              		.thumb_func
 474              		.fpu fpv4-sp-d16
 476              	dtls_shakehand:
 477              	.LFB18:
 302:c:/Users/lenovo/Desktop/AIoT/first_day/firstday_afternoon/LiteOS_Lab_STM32_IoT/iot_link/network/dtls/mbedtls/mbedtls_port\dtls_interface.c **** 
 303:c:/Users/lenovo/Desktop/AIoT/first_day/firstday_afternoon/LiteOS_Lab_STM32_IoT/iot_link/network/dtls/mbedtls/mbedtls_port\dtls_interface.c **** int dtls_shakehand(mbedtls_ssl_context *ssl, const dtls_shakehand_info_s *info)
 304:c:/Users/lenovo/Desktop/AIoT/first_day/firstday_afternoon/LiteOS_Lab_STM32_IoT/iot_link/network/dtls/mbedtls/mbedtls_port\dtls_interface.c **** {
 478              		.loc 1 304 1
 479              		.cfi_startproc
 480              		@ args = 0, pretend = 0, frame = 24
 481              		@ frame_needed = 1, uses_anonymous_args = 0
 482 0000 80B5     		push	{r7, lr}
 483              	.LCFI7:
 484              		.cfi_def_cfa_offset 8
 485              		.cfi_offset 7, -8
 486              		.cfi_offset 14, -4
 487 0002 88B0     		sub	sp, sp, #32
 488              	.LCFI8:
 489              		.cfi_def_cfa_offset 40
 490 0004 02AF     		add	r7, sp, #8
 491              	.LCFI9:
 492              		.cfi_def_cfa 7, 32
 493 0006 7860     		str	r0, [r7, #4]
 494 0008 3960     		str	r1, [r7]
 305:c:/Users/lenovo/Desktop/AIoT/first_day/firstday_afternoon/LiteOS_Lab_STM32_IoT/iot_link/network/dtls/mbedtls/mbedtls_port\dtls_interface.c ****     int ret = MBEDTLS_ERR_NET_CONNECT_FAILED;
 495              		.loc 1 305 9
 496 000a 6FF04303 		mvn	r3, #67
 497 000e 7B61     		str	r3, [r7, #20]
 306:c:/Users/lenovo/Desktop/AIoT/first_day/firstday_afternoon/LiteOS_Lab_STM32_IoT/iot_link/network/dtls/mbedtls/mbedtls_port\dtls_interface.c ****     uint32_t change_value = 0;
 498              		.loc 1 306 14
 499 0010 0023     		movs	r3, #0
 500 0012 3B61     		str	r3, [r7, #16]
 307:c:/Users/lenovo/Desktop/AIoT/first_day/firstday_afternoon/LiteOS_Lab_STM32_IoT/iot_link/network/dtls/mbedtls/mbedtls_port\dtls_interface.c ****     mbedtls_net_context *server_fd = NULL;
 501              		.loc 1 307 26
ARM GAS  C:\Users\lenovo\AppData\Local\Temp\cc80CgBz.s 			page 16


 502 0014 0023     		movs	r3, #0
 503 0016 FB60     		str	r3, [r7, #12]
 308:c:/Users/lenovo/Desktop/AIoT/first_day/firstday_afternoon/LiteOS_Lab_STM32_IoT/iot_link/network/dtls/mbedtls/mbedtls_port\dtls_interface.c ****     uint32_t max_value;
 309:c:/Users/lenovo/Desktop/AIoT/first_day/firstday_afternoon/LiteOS_Lab_STM32_IoT/iot_link/network/dtls/mbedtls/mbedtls_port\dtls_interface.c **** #if defined(MBEDTLS_X509_CRT_PARSE_C)
 310:c:/Users/lenovo/Desktop/AIoT/first_day/firstday_afternoon/LiteOS_Lab_STM32_IoT/iot_link/network/dtls/mbedtls/mbedtls_port\dtls_interface.c ****     unsigned int flags;
 311:c:/Users/lenovo/Desktop/AIoT/first_day/firstday_afternoon/LiteOS_Lab_STM32_IoT/iot_link/network/dtls/mbedtls/mbedtls_port\dtls_interface.c **** #endif
 312:c:/Users/lenovo/Desktop/AIoT/first_day/firstday_afternoon/LiteOS_Lab_STM32_IoT/iot_link/network/dtls/mbedtls/mbedtls_port\dtls_interface.c **** 
 313:c:/Users/lenovo/Desktop/AIoT/first_day/firstday_afternoon/LiteOS_Lab_STM32_IoT/iot_link/network/dtls/mbedtls/mbedtls_port\dtls_interface.c ****     MBEDTLS_LOG("connecting to server");
 504              		.loc 1 313 5
 505 0018 40F23912 		movw	r2, #313
 506 001c 5349     		ldr	r1, .L41
 507 001e 5448     		ldr	r0, .L41+4
 508 0020 FFF7FEFF 		bl	printf
 314:c:/Users/lenovo/Desktop/AIoT/first_day/firstday_afternoon/LiteOS_Lab_STM32_IoT/iot_link/network/dtls/mbedtls/mbedtls_port\dtls_interface.c **** 
 315:c:/Users/lenovo/Desktop/AIoT/first_day/firstday_afternoon/LiteOS_Lab_STM32_IoT/iot_link/network/dtls/mbedtls/mbedtls_port\dtls_interface.c ****     server_fd = (mbedtls_net_context *)osal_malloc(sizeof(mbedtls_net_context));
 509              		.loc 1 315 40
 510 0024 0420     		movs	r0, #4
 511 0026 FFF7FEFF 		bl	osal_malloc
 512 002a F860     		str	r0, [r7, #12]
 316:c:/Users/lenovo/Desktop/AIoT/first_day/firstday_afternoon/LiteOS_Lab_STM32_IoT/iot_link/network/dtls/mbedtls/mbedtls_port\dtls_interface.c ****     if (server_fd == NULL)
 513              		.loc 1 316 8
 514 002c FB68     		ldr	r3, [r7, #12]
 515 002e 002B     		cmp	r3, #0
 516 0030 0BD1     		bne	.L25
 317:c:/Users/lenovo/Desktop/AIoT/first_day/firstday_afternoon/LiteOS_Lab_STM32_IoT/iot_link/network/dtls/mbedtls/mbedtls_port\dtls_interface.c ****     {
 318:c:/Users/lenovo/Desktop/AIoT/first_day/firstday_afternoon/LiteOS_Lab_STM32_IoT/iot_link/network/dtls/mbedtls/mbedtls_port\dtls_interface.c ****         MBEDTLS_LOG("connect failed! mode %d", info->client_or_server);
 517              		.loc 1 318 9
 518 0032 3B68     		ldr	r3, [r7]
 519 0034 DB68     		ldr	r3, [r3, #12]
 520 0036 4FF49F72 		mov	r2, #318
 521 003a 4C49     		ldr	r1, .L41
 522 003c 4D48     		ldr	r0, .L41+8
 523 003e FFF7FEFF 		bl	printf
 319:c:/Users/lenovo/Desktop/AIoT/first_day/firstday_afternoon/LiteOS_Lab_STM32_IoT/iot_link/network/dtls/mbedtls/mbedtls_port\dtls_interface.c ****         ret = MBEDTLS_ERR_NET_CONNECT_FAILED;
 524              		.loc 1 319 13
 525 0042 6FF04303 		mvn	r3, #67
 526 0046 7B61     		str	r3, [r7, #20]
 320:c:/Users/lenovo/Desktop/AIoT/first_day/firstday_afternoon/LiteOS_Lab_STM32_IoT/iot_link/network/dtls/mbedtls/mbedtls_port\dtls_interface.c ****         goto exit_fail;
 527              		.loc 1 320 9
 528 0048 82E0     		b	.L26
 529              	.L25:
 321:c:/Users/lenovo/Desktop/AIoT/first_day/firstday_afternoon/LiteOS_Lab_STM32_IoT/iot_link/network/dtls/mbedtls/mbedtls_port\dtls_interface.c ****     }
 322:c:/Users/lenovo/Desktop/AIoT/first_day/firstday_afternoon/LiteOS_Lab_STM32_IoT/iot_link/network/dtls/mbedtls/mbedtls_port\dtls_interface.c **** 
 323:c:/Users/lenovo/Desktop/AIoT/first_day/firstday_afternoon/LiteOS_Lab_STM32_IoT/iot_link/network/dtls/mbedtls/mbedtls_port\dtls_interface.c ****     if (MBEDTLS_SSL_IS_CLIENT == info->client_or_server)
 530              		.loc 1 323 38
 531 004a 3B68     		ldr	r3, [r7]
 532 004c DB68     		ldr	r3, [r3, #12]
 533              		.loc 1 323 8
 534 004e 002B     		cmp	r3, #0
 535 0050 10D1     		bne	.L27
 324:c:/Users/lenovo/Desktop/AIoT/first_day/firstday_afternoon/LiteOS_Lab_STM32_IoT/iot_link/network/dtls/mbedtls/mbedtls_port\dtls_interface.c ****     {
 325:c:/Users/lenovo/Desktop/AIoT/first_day/firstday_afternoon/LiteOS_Lab_STM32_IoT/iot_link/network/dtls/mbedtls/mbedtls_port\dtls_interface.c ****         ret = mbedtls_net_connect(server_fd, info->u.c.host, info->u.c.port, info->udp_or_tcp);
 536              		.loc 1 325 15
 537 0052 3B68     		ldr	r3, [r7]
 538 0054 1968     		ldr	r1, [r3]
 539 0056 3B68     		ldr	r3, [r7]
 540 0058 5A68     		ldr	r2, [r3, #4]
ARM GAS  C:\Users\lenovo\AppData\Local\Temp\cc80CgBz.s 			page 17


 541 005a 3B68     		ldr	r3, [r7]
 542 005c 1B69     		ldr	r3, [r3, #16]
 543 005e F868     		ldr	r0, [r7, #12]
 544 0060 FFF7FEFF 		bl	mbedtls_net_connect
 545 0064 7861     		str	r0, [r7, #20]
 326:c:/Users/lenovo/Desktop/AIoT/first_day/firstday_afternoon/LiteOS_Lab_STM32_IoT/iot_link/network/dtls/mbedtls/mbedtls_port\dtls_interface.c ****         if( 0 != ret)
 546              		.loc 1 326 11
 547 0066 7B69     		ldr	r3, [r7, #20]
 548 0068 002B     		cmp	r3, #0
 549 006a 03D0     		beq	.L27
 327:c:/Users/lenovo/Desktop/AIoT/first_day/firstday_afternoon/LiteOS_Lab_STM32_IoT/iot_link/network/dtls/mbedtls/mbedtls_port\dtls_interface.c ****         {
 328:c:/Users/lenovo/Desktop/AIoT/first_day/firstday_afternoon/LiteOS_Lab_STM32_IoT/iot_link/network/dtls/mbedtls/mbedtls_port\dtls_interface.c ****             ret = MBEDTLS_ERR_NET_CONNECT_FAILED;
 550              		.loc 1 328 17
 551 006c 6FF04303 		mvn	r3, #67
 552 0070 7B61     		str	r3, [r7, #20]
 329:c:/Users/lenovo/Desktop/AIoT/first_day/firstday_afternoon/LiteOS_Lab_STM32_IoT/iot_link/network/dtls/mbedtls/mbedtls_port\dtls_interface.c ****             goto exit_fail;
 553              		.loc 1 329 13
 554 0072 6DE0     		b	.L26
 555              	.L27:
 330:c:/Users/lenovo/Desktop/AIoT/first_day/firstday_afternoon/LiteOS_Lab_STM32_IoT/iot_link/network/dtls/mbedtls/mbedtls_port\dtls_interface.c ****         }
 331:c:/Users/lenovo/Desktop/AIoT/first_day/firstday_afternoon/LiteOS_Lab_STM32_IoT/iot_link/network/dtls/mbedtls/mbedtls_port\dtls_interface.c ****     }
 332:c:/Users/lenovo/Desktop/AIoT/first_day/firstday_afternoon/LiteOS_Lab_STM32_IoT/iot_link/network/dtls/mbedtls/mbedtls_port\dtls_interface.c ****     else
 333:c:/Users/lenovo/Desktop/AIoT/first_day/firstday_afternoon/LiteOS_Lab_STM32_IoT/iot_link/network/dtls/mbedtls/mbedtls_port\dtls_interface.c ****     {
 334:c:/Users/lenovo/Desktop/AIoT/first_day/firstday_afternoon/LiteOS_Lab_STM32_IoT/iot_link/network/dtls/mbedtls/mbedtls_port\dtls_interface.c ****         //server_fd = (mbedtls_net_context*)atiny_net_bind(NULL, info->u.s.local_port, MBEDTLS_NET_
 335:c:/Users/lenovo/Desktop/AIoT/first_day/firstday_afternoon/LiteOS_Lab_STM32_IoT/iot_link/network/dtls/mbedtls/mbedtls_port\dtls_interface.c ****         ///< --TODO ,not implement yet
 336:c:/Users/lenovo/Desktop/AIoT/first_day/firstday_afternoon/LiteOS_Lab_STM32_IoT/iot_link/network/dtls/mbedtls/mbedtls_port\dtls_interface.c ****     }
 337:c:/Users/lenovo/Desktop/AIoT/first_day/firstday_afternoon/LiteOS_Lab_STM32_IoT/iot_link/network/dtls/mbedtls/mbedtls_port\dtls_interface.c **** 
 338:c:/Users/lenovo/Desktop/AIoT/first_day/firstday_afternoon/LiteOS_Lab_STM32_IoT/iot_link/network/dtls/mbedtls/mbedtls_port\dtls_interface.c ****     mbedtls_ssl_set_bio(ssl, server_fd,
 556              		.loc 1 338 5
 557 0074 404B     		ldr	r3, .L41+12
 558 0076 0093     		str	r3, [sp]
 559 0078 404B     		ldr	r3, .L41+16
 560 007a 414A     		ldr	r2, .L41+20
 561 007c F968     		ldr	r1, [r7, #12]
 562 007e 7868     		ldr	r0, [r7, #4]
 563 0080 FFF7FEFF 		bl	mbedtls_ssl_set_bio
 339:c:/Users/lenovo/Desktop/AIoT/first_day/firstday_afternoon/LiteOS_Lab_STM32_IoT/iot_link/network/dtls/mbedtls/mbedtls_port\dtls_interface.c ****                         mbedtls_net_send, mbedtls_net_recv, mbedtls_net_recv_timeout);
 340:c:/Users/lenovo/Desktop/AIoT/first_day/firstday_afternoon/LiteOS_Lab_STM32_IoT/iot_link/network/dtls/mbedtls/mbedtls_port\dtls_interface.c **** 
 341:c:/Users/lenovo/Desktop/AIoT/first_day/firstday_afternoon/LiteOS_Lab_STM32_IoT/iot_link/network/dtls/mbedtls/mbedtls_port\dtls_interface.c ****     MBEDTLS_LOG("performing the SSL/TLS handshake");
 564              		.loc 1 341 5
 565 0084 40F25512 		movw	r2, #341
 566 0088 3849     		ldr	r1, .L41
 567 008a 3E48     		ldr	r0, .L41+24
 568 008c FFF7FEFF 		bl	printf
 342:c:/Users/lenovo/Desktop/AIoT/first_day/firstday_afternoon/LiteOS_Lab_STM32_IoT/iot_link/network/dtls/mbedtls/mbedtls_port\dtls_interface.c **** 
 343:c:/Users/lenovo/Desktop/AIoT/first_day/firstday_afternoon/LiteOS_Lab_STM32_IoT/iot_link/network/dtls/mbedtls/mbedtls_port\dtls_interface.c ****     max_value = ((MBEDTLS_SSL_IS_SERVER == info->client_or_server || info->udp_or_tcp == MBEDTLS_NE
 569              		.loc 1 343 48
 570 0090 3B68     		ldr	r3, [r7]
 571 0092 DB68     		ldr	r3, [r3, #12]
 344:c:/Users/lenovo/Desktop/AIoT/first_day/firstday_afternoon/LiteOS_Lab_STM32_IoT/iot_link/network/dtls/mbedtls/mbedtls_port\dtls_interface.c ****                 (dtls_gettime() + info->timeout) :  50);
 572              		.loc 1 344 50
 573 0094 012B     		cmp	r3, #1
 574 0096 03D0     		beq	.L28
 343:c:/Users/lenovo/Desktop/AIoT/first_day/firstday_afternoon/LiteOS_Lab_STM32_IoT/iot_link/network/dtls/mbedtls/mbedtls_port\dtls_interface.c ****                 (dtls_gettime() + info->timeout) :  50);
 575              		.loc 1 343 74
 576 0098 3B68     		ldr	r3, [r7]
 577 009a 1B69     		ldr	r3, [r3, #16]
ARM GAS  C:\Users\lenovo\AppData\Local\Temp\cc80CgBz.s 			page 18


 343:c:/Users/lenovo/Desktop/AIoT/first_day/firstday_afternoon/LiteOS_Lab_STM32_IoT/iot_link/network/dtls/mbedtls/mbedtls_port\dtls_interface.c ****                 (dtls_gettime() + info->timeout) :  50);
 578              		.loc 1 343 67
 579 009c 012B     		cmp	r3, #1
 580 009e 06D1     		bne	.L29
 581              	.L28:
 582              		.loc 1 344 18 discriminator 1
 583 00a0 FFF7FEFF 		bl	dtls_gettime
 584 00a4 0246     		mov	r2, r0
 585              		.loc 1 344 39 discriminator 1
 586 00a6 3B68     		ldr	r3, [r7]
 587 00a8 9B68     		ldr	r3, [r3, #8]
 588              		.loc 1 344 50 discriminator 1
 589 00aa 1344     		add	r3, r3, r2
 590 00ac 00E0     		b	.L30
 591              	.L29:
 592              		.loc 1 344 50 is_stmt 0
 593 00ae 3223     		movs	r3, #50
 594              	.L30:
 343:c:/Users/lenovo/Desktop/AIoT/first_day/firstday_afternoon/LiteOS_Lab_STM32_IoT/iot_link/network/dtls/mbedtls/mbedtls_port\dtls_interface.c ****                 (dtls_gettime() + info->timeout) :  50);
 595              		.loc 1 343 15 is_stmt 1
 596 00b0 BB60     		str	r3, [r7, #8]
 597              	.L36:
 345:c:/Users/lenovo/Desktop/AIoT/first_day/firstday_afternoon/LiteOS_Lab_STM32_IoT/iot_link/network/dtls/mbedtls/mbedtls_port\dtls_interface.c **** 
 346:c:/Users/lenovo/Desktop/AIoT/first_day/firstday_afternoon/LiteOS_Lab_STM32_IoT/iot_link/network/dtls/mbedtls/mbedtls_port\dtls_interface.c ****     do
 347:c:/Users/lenovo/Desktop/AIoT/first_day/firstday_afternoon/LiteOS_Lab_STM32_IoT/iot_link/network/dtls/mbedtls/mbedtls_port\dtls_interface.c ****     {
 348:c:/Users/lenovo/Desktop/AIoT/first_day/firstday_afternoon/LiteOS_Lab_STM32_IoT/iot_link/network/dtls/mbedtls/mbedtls_port\dtls_interface.c ****         ret = mbedtls_ssl_handshake(ssl);
 598              		.loc 1 348 15
 599 00b2 7868     		ldr	r0, [r7, #4]
 600 00b4 FFF7FEFF 		bl	mbedtls_ssl_handshake
 601 00b8 7861     		str	r0, [r7, #20]
 349:c:/Users/lenovo/Desktop/AIoT/first_day/firstday_afternoon/LiteOS_Lab_STM32_IoT/iot_link/network/dtls/mbedtls/mbedtls_port\dtls_interface.c **** 
 350:c:/Users/lenovo/Desktop/AIoT/first_day/firstday_afternoon/LiteOS_Lab_STM32_IoT/iot_link/network/dtls/mbedtls/mbedtls_port\dtls_interface.c ****         if (MBEDTLS_SSL_IS_CLIENT == info->client_or_server && info->udp_or_tcp == MBEDTLS_NET_PROT
 602              		.loc 1 350 42
 603 00ba 3B68     		ldr	r3, [r7]
 604 00bc DB68     		ldr	r3, [r3, #12]
 605              		.loc 1 350 12
 606 00be 002B     		cmp	r3, #0
 607 00c0 07D1     		bne	.L31
 608              		.loc 1 350 68 discriminator 1
 609 00c2 3B68     		ldr	r3, [r7]
 610 00c4 1B69     		ldr	r3, [r3, #16]
 611              		.loc 1 350 61 discriminator 1
 612 00c6 002B     		cmp	r3, #0
 613 00c8 03D1     		bne	.L31
 351:c:/Users/lenovo/Desktop/AIoT/first_day/firstday_afternoon/LiteOS_Lab_STM32_IoT/iot_link/network/dtls/mbedtls/mbedtls_port\dtls_interface.c ****         {
 352:c:/Users/lenovo/Desktop/AIoT/first_day/firstday_afternoon/LiteOS_Lab_STM32_IoT/iot_link/network/dtls/mbedtls/mbedtls_port\dtls_interface.c ****             change_value++;
 614              		.loc 1 352 25
 615 00ca 3B69     		ldr	r3, [r7, #16]
 616 00cc 0133     		adds	r3, r3, #1
 617 00ce 3B61     		str	r3, [r7, #16]
 618 00d0 02E0     		b	.L32
 619              	.L31:
 353:c:/Users/lenovo/Desktop/AIoT/first_day/firstday_afternoon/LiteOS_Lab_STM32_IoT/iot_link/network/dtls/mbedtls/mbedtls_port\dtls_interface.c ****         }
 354:c:/Users/lenovo/Desktop/AIoT/first_day/firstday_afternoon/LiteOS_Lab_STM32_IoT/iot_link/network/dtls/mbedtls/mbedtls_port\dtls_interface.c ****         else
 355:c:/Users/lenovo/Desktop/AIoT/first_day/firstday_afternoon/LiteOS_Lab_STM32_IoT/iot_link/network/dtls/mbedtls/mbedtls_port\dtls_interface.c ****         {
 356:c:/Users/lenovo/Desktop/AIoT/first_day/firstday_afternoon/LiteOS_Lab_STM32_IoT/iot_link/network/dtls/mbedtls/mbedtls_port\dtls_interface.c ****             change_value = dtls_gettime();
 620              		.loc 1 356 28
ARM GAS  C:\Users\lenovo\AppData\Local\Temp\cc80CgBz.s 			page 19


 621 00d2 FFF7FEFF 		bl	dtls_gettime
 622 00d6 3861     		str	r0, [r7, #16]
 623              	.L32:
 357:c:/Users/lenovo/Desktop/AIoT/first_day/firstday_afternoon/LiteOS_Lab_STM32_IoT/iot_link/network/dtls/mbedtls/mbedtls_port\dtls_interface.c ****         }
 358:c:/Users/lenovo/Desktop/AIoT/first_day/firstday_afternoon/LiteOS_Lab_STM32_IoT/iot_link/network/dtls/mbedtls/mbedtls_port\dtls_interface.c **** 
 359:c:/Users/lenovo/Desktop/AIoT/first_day/firstday_afternoon/LiteOS_Lab_STM32_IoT/iot_link/network/dtls/mbedtls/mbedtls_port\dtls_interface.c ****         if (info->step_notify)
 624              		.loc 1 359 17
 625 00d8 3B68     		ldr	r3, [r7]
 626 00da 9B69     		ldr	r3, [r3, #24]
 627              		.loc 1 359 12
 628 00dc 002B     		cmp	r3, #0
 629 00de 05D0     		beq	.L33
 360:c:/Users/lenovo/Desktop/AIoT/first_day/firstday_afternoon/LiteOS_Lab_STM32_IoT/iot_link/network/dtls/mbedtls/mbedtls_port\dtls_interface.c ****         {
 361:c:/Users/lenovo/Desktop/AIoT/first_day/firstday_afternoon/LiteOS_Lab_STM32_IoT/iot_link/network/dtls/mbedtls/mbedtls_port\dtls_interface.c ****             info->step_notify(info->param);
 630              		.loc 1 361 17
 631 00e0 3B68     		ldr	r3, [r7]
 632 00e2 9B69     		ldr	r3, [r3, #24]
 633              		.loc 1 361 13
 634 00e4 3A68     		ldr	r2, [r7]
 635 00e6 126A     		ldr	r2, [r2, #32]
 636 00e8 1046     		mov	r0, r2
 637 00ea 9847     		blx	r3
 638              	.LVL0:
 639              	.L33:
 362:c:/Users/lenovo/Desktop/AIoT/first_day/firstday_afternoon/LiteOS_Lab_STM32_IoT/iot_link/network/dtls/mbedtls/mbedtls_port\dtls_interface.c ****         }
 363:c:/Users/lenovo/Desktop/AIoT/first_day/firstday_afternoon/LiteOS_Lab_STM32_IoT/iot_link/network/dtls/mbedtls/mbedtls_port\dtls_interface.c ****     }
 364:c:/Users/lenovo/Desktop/AIoT/first_day/firstday_afternoon/LiteOS_Lab_STM32_IoT/iot_link/network/dtls/mbedtls/mbedtls_port\dtls_interface.c ****     while ((ret == MBEDTLS_ERR_SSL_WANT_READ ||
 365:c:/Users/lenovo/Desktop/AIoT/first_day/firstday_afternoon/LiteOS_Lab_STM32_IoT/iot_link/network/dtls/mbedtls/mbedtls_port\dtls_interface.c ****             ret == MBEDTLS_ERR_SSL_WANT_WRITE ||
 366:c:/Users/lenovo/Desktop/AIoT/first_day/firstday_afternoon/LiteOS_Lab_STM32_IoT/iot_link/network/dtls/mbedtls/mbedtls_port\dtls_interface.c ****             (ret == MBEDTLS_ERR_SSL_TIMEOUT &&
 367:c:/Users/lenovo/Desktop/AIoT/first_day/firstday_afternoon/LiteOS_Lab_STM32_IoT/iot_link/network/dtls/mbedtls/mbedtls_port\dtls_interface.c ****             info->udp_or_tcp == MBEDTLS_NET_PROTO_TCP)) &&
 368:c:/Users/lenovo/Desktop/AIoT/first_day/firstday_afternoon/LiteOS_Lab_STM32_IoT/iot_link/network/dtls/mbedtls/mbedtls_port\dtls_interface.c ****             (change_value < max_value));
 640              		.loc 1 368 13
 641 00ec 7B69     		ldr	r3, [r7, #20]
 642 00ee 13F5D24F 		cmn	r3, #26880
 643 00f2 0BD0     		beq	.L34
 364:c:/Users/lenovo/Desktop/AIoT/first_day/firstday_afternoon/LiteOS_Lab_STM32_IoT/iot_link/network/dtls/mbedtls/mbedtls_port\dtls_interface.c ****             ret == MBEDTLS_ERR_SSL_WANT_WRITE ||
 644              		.loc 1 364 46
 645 00f4 7B69     		ldr	r3, [r7, #20]
 646 00f6 13F5D14F 		cmn	r3, #26752
 647 00fa 07D0     		beq	.L34
 365:c:/Users/lenovo/Desktop/AIoT/first_day/firstday_afternoon/LiteOS_Lab_STM32_IoT/iot_link/network/dtls/mbedtls/mbedtls_port\dtls_interface.c ****             (ret == MBEDTLS_ERR_SSL_TIMEOUT &&
 648              		.loc 1 365 47
 649 00fc 7B69     		ldr	r3, [r7, #20]
 650 00fe 13F5D04F 		cmn	r3, #26624
 651 0102 07D1     		bne	.L35
 367:c:/Users/lenovo/Desktop/AIoT/first_day/firstday_afternoon/LiteOS_Lab_STM32_IoT/iot_link/network/dtls/mbedtls/mbedtls_port\dtls_interface.c ****             (change_value < max_value));
 652              		.loc 1 367 17
 653 0104 3B68     		ldr	r3, [r7]
 654 0106 1B69     		ldr	r3, [r3, #16]
 366:c:/Users/lenovo/Desktop/AIoT/first_day/firstday_afternoon/LiteOS_Lab_STM32_IoT/iot_link/network/dtls/mbedtls/mbedtls_port\dtls_interface.c ****             info->udp_or_tcp == MBEDTLS_NET_PROTO_TCP)) &&
 655              		.loc 1 366 45
 656 0108 002B     		cmp	r3, #0
 657 010a 03D1     		bne	.L35
 658              	.L34:
 367:c:/Users/lenovo/Desktop/AIoT/first_day/firstday_afternoon/LiteOS_Lab_STM32_IoT/iot_link/network/dtls/mbedtls/mbedtls_port\dtls_interface.c ****             (change_value < max_value));
 659              		.loc 1 367 57
 660 010c 3A69     		ldr	r2, [r7, #16]
ARM GAS  C:\Users\lenovo\AppData\Local\Temp\cc80CgBz.s 			page 20


 661 010e BB68     		ldr	r3, [r7, #8]
 662 0110 9A42     		cmp	r2, r3
 663 0112 CED3     		bcc	.L36
 664              	.L35:
 369:c:/Users/lenovo/Desktop/AIoT/first_day/firstday_afternoon/LiteOS_Lab_STM32_IoT/iot_link/network/dtls/mbedtls/mbedtls_port\dtls_interface.c **** 
 370:c:/Users/lenovo/Desktop/AIoT/first_day/firstday_afternoon/LiteOS_Lab_STM32_IoT/iot_link/network/dtls/mbedtls/mbedtls_port\dtls_interface.c ****     if (info->finish_notify)
 665              		.loc 1 370 13
 666 0114 3B68     		ldr	r3, [r7]
 667 0116 DB69     		ldr	r3, [r3, #28]
 668              		.loc 1 370 8
 669 0118 002B     		cmp	r3, #0
 670 011a 05D0     		beq	.L37
 371:c:/Users/lenovo/Desktop/AIoT/first_day/firstday_afternoon/LiteOS_Lab_STM32_IoT/iot_link/network/dtls/mbedtls/mbedtls_port\dtls_interface.c ****     {
 372:c:/Users/lenovo/Desktop/AIoT/first_day/firstday_afternoon/LiteOS_Lab_STM32_IoT/iot_link/network/dtls/mbedtls/mbedtls_port\dtls_interface.c ****         info->finish_notify(info->param);
 671              		.loc 1 372 13
 672 011c 3B68     		ldr	r3, [r7]
 673 011e DB69     		ldr	r3, [r3, #28]
 674              		.loc 1 372 9
 675 0120 3A68     		ldr	r2, [r7]
 676 0122 126A     		ldr	r2, [r2, #32]
 677 0124 1046     		mov	r0, r2
 678 0126 9847     		blx	r3
 679              	.LVL1:
 680              	.L37:
 373:c:/Users/lenovo/Desktop/AIoT/first_day/firstday_afternoon/LiteOS_Lab_STM32_IoT/iot_link/network/dtls/mbedtls/mbedtls_port\dtls_interface.c ****     }
 374:c:/Users/lenovo/Desktop/AIoT/first_day/firstday_afternoon/LiteOS_Lab_STM32_IoT/iot_link/network/dtls/mbedtls/mbedtls_port\dtls_interface.c **** 
 375:c:/Users/lenovo/Desktop/AIoT/first_day/firstday_afternoon/LiteOS_Lab_STM32_IoT/iot_link/network/dtls/mbedtls/mbedtls_port\dtls_interface.c ****     if (ret != 0)
 681              		.loc 1 375 8
 682 0128 7B69     		ldr	r3, [r7, #20]
 683 012a 002B     		cmp	r3, #0
 684 012c 08D0     		beq	.L38
 376:c:/Users/lenovo/Desktop/AIoT/first_day/firstday_afternoon/LiteOS_Lab_STM32_IoT/iot_link/network/dtls/mbedtls/mbedtls_port\dtls_interface.c ****     {
 377:c:/Users/lenovo/Desktop/AIoT/first_day/firstday_afternoon/LiteOS_Lab_STM32_IoT/iot_link/network/dtls/mbedtls/mbedtls_port\dtls_interface.c ****         MBEDTLS_LOG("mbedtls_ssl_handshake failed: -0x%x", -ret);
 685              		.loc 1 377 9
 686 012e 7B69     		ldr	r3, [r7, #20]
 687 0130 5B42     		rsbs	r3, r3, #0
 688 0132 40F27912 		movw	r2, #377
 689 0136 0D49     		ldr	r1, .L41
 690 0138 1348     		ldr	r0, .L41+28
 691 013a FFF7FEFF 		bl	printf
 378:c:/Users/lenovo/Desktop/AIoT/first_day/firstday_afternoon/LiteOS_Lab_STM32_IoT/iot_link/network/dtls/mbedtls/mbedtls_port\dtls_interface.c ****         goto exit_fail;
 692              		.loc 1 378 9
 693 013e 07E0     		b	.L26
 694              	.L38:
 379:c:/Users/lenovo/Desktop/AIoT/first_day/firstday_afternoon/LiteOS_Lab_STM32_IoT/iot_link/network/dtls/mbedtls/mbedtls_port\dtls_interface.c ****     }
 380:c:/Users/lenovo/Desktop/AIoT/first_day/firstday_afternoon/LiteOS_Lab_STM32_IoT/iot_link/network/dtls/mbedtls/mbedtls_port\dtls_interface.c **** 
 381:c:/Users/lenovo/Desktop/AIoT/first_day/firstday_afternoon/LiteOS_Lab_STM32_IoT/iot_link/network/dtls/mbedtls/mbedtls_port\dtls_interface.c **** #if defined(MBEDTLS_X509_CRT_PARSE_C)
 382:c:/Users/lenovo/Desktop/AIoT/first_day/firstday_afternoon/LiteOS_Lab_STM32_IoT/iot_link/network/dtls/mbedtls/mbedtls_port\dtls_interface.c ****     if (info->psk_or_cert == VERIFY_WITH_CERT)
 383:c:/Users/lenovo/Desktop/AIoT/first_day/firstday_afternoon/LiteOS_Lab_STM32_IoT/iot_link/network/dtls/mbedtls/mbedtls_port\dtls_interface.c ****     {
 384:c:/Users/lenovo/Desktop/AIoT/first_day/firstday_afternoon/LiteOS_Lab_STM32_IoT/iot_link/network/dtls/mbedtls/mbedtls_port\dtls_interface.c ****         if((flags = mbedtls_ssl_get_verify_result(ssl)) != 0)
 385:c:/Users/lenovo/Desktop/AIoT/first_day/firstday_afternoon/LiteOS_Lab_STM32_IoT/iot_link/network/dtls/mbedtls/mbedtls_port\dtls_interface.c ****         {
 386:c:/Users/lenovo/Desktop/AIoT/first_day/firstday_afternoon/LiteOS_Lab_STM32_IoT/iot_link/network/dtls/mbedtls/mbedtls_port\dtls_interface.c ****             char vrfy_buf[512];
 387:c:/Users/lenovo/Desktop/AIoT/first_day/firstday_afternoon/LiteOS_Lab_STM32_IoT/iot_link/network/dtls/mbedtls/mbedtls_port\dtls_interface.c ****             mbedtls_x509_crt_verify_info(vrfy_buf, sizeof(vrfy_buf), "  ! ", flags);
 388:c:/Users/lenovo/Desktop/AIoT/first_day/firstday_afternoon/LiteOS_Lab_STM32_IoT/iot_link/network/dtls/mbedtls/mbedtls_port\dtls_interface.c ****             MBEDTLS_LOG("cert verify failed: %s", vrfy_buf);
 389:c:/Users/lenovo/Desktop/AIoT/first_day/firstday_afternoon/LiteOS_Lab_STM32_IoT/iot_link/network/dtls/mbedtls/mbedtls_port\dtls_interface.c ****             goto exit_fail;
 390:c:/Users/lenovo/Desktop/AIoT/first_day/firstday_afternoon/LiteOS_Lab_STM32_IoT/iot_link/network/dtls/mbedtls/mbedtls_port\dtls_interface.c ****         }
 391:c:/Users/lenovo/Desktop/AIoT/first_day/firstday_afternoon/LiteOS_Lab_STM32_IoT/iot_link/network/dtls/mbedtls/mbedtls_port\dtls_interface.c ****         else
ARM GAS  C:\Users\lenovo\AppData\Local\Temp\cc80CgBz.s 			page 21


 392:c:/Users/lenovo/Desktop/AIoT/first_day/firstday_afternoon/LiteOS_Lab_STM32_IoT/iot_link/network/dtls/mbedtls/mbedtls_port\dtls_interface.c ****             MBEDTLS_LOG("cert verify succeed");
 393:c:/Users/lenovo/Desktop/AIoT/first_day/firstday_afternoon/LiteOS_Lab_STM32_IoT/iot_link/network/dtls/mbedtls/mbedtls_port\dtls_interface.c ****     }
 394:c:/Users/lenovo/Desktop/AIoT/first_day/firstday_afternoon/LiteOS_Lab_STM32_IoT/iot_link/network/dtls/mbedtls/mbedtls_port\dtls_interface.c **** #endif
 395:c:/Users/lenovo/Desktop/AIoT/first_day/firstday_afternoon/LiteOS_Lab_STM32_IoT/iot_link/network/dtls/mbedtls/mbedtls_port\dtls_interface.c **** 
 396:c:/Users/lenovo/Desktop/AIoT/first_day/firstday_afternoon/LiteOS_Lab_STM32_IoT/iot_link/network/dtls/mbedtls/mbedtls_port\dtls_interface.c ****     MBEDTLS_LOG("handshake succeed");
 695              		.loc 1 396 5
 696 0140 4FF4C672 		mov	r2, #396
 697 0144 0949     		ldr	r1, .L41
 698 0146 1148     		ldr	r0, .L41+32
 699 0148 FFF7FEFF 		bl	printf
 397:c:/Users/lenovo/Desktop/AIoT/first_day/firstday_afternoon/LiteOS_Lab_STM32_IoT/iot_link/network/dtls/mbedtls/mbedtls_port\dtls_interface.c **** 
 398:c:/Users/lenovo/Desktop/AIoT/first_day/firstday_afternoon/LiteOS_Lab_STM32_IoT/iot_link/network/dtls/mbedtls/mbedtls_port\dtls_interface.c ****     return 0;
 700              		.loc 1 398 12
 701 014c 0023     		movs	r3, #0
 702 014e 09E0     		b	.L39
 703              	.L26:
 399:c:/Users/lenovo/Desktop/AIoT/first_day/firstday_afternoon/LiteOS_Lab_STM32_IoT/iot_link/network/dtls/mbedtls/mbedtls_port\dtls_interface.c **** 
 400:c:/Users/lenovo/Desktop/AIoT/first_day/firstday_afternoon/LiteOS_Lab_STM32_IoT/iot_link/network/dtls/mbedtls/mbedtls_port\dtls_interface.c **** exit_fail:
 401:c:/Users/lenovo/Desktop/AIoT/first_day/firstday_afternoon/LiteOS_Lab_STM32_IoT/iot_link/network/dtls/mbedtls/mbedtls_port\dtls_interface.c **** 
 402:c:/Users/lenovo/Desktop/AIoT/first_day/firstday_afternoon/LiteOS_Lab_STM32_IoT/iot_link/network/dtls/mbedtls/mbedtls_port\dtls_interface.c ****     if (server_fd)
 704              		.loc 1 402 8
 705 0150 FB68     		ldr	r3, [r7, #12]
 706 0152 002B     		cmp	r3, #0
 707 0154 05D0     		beq	.L40
 403:c:/Users/lenovo/Desktop/AIoT/first_day/firstday_afternoon/LiteOS_Lab_STM32_IoT/iot_link/network/dtls/mbedtls/mbedtls_port\dtls_interface.c ****     {
 404:c:/Users/lenovo/Desktop/AIoT/first_day/firstday_afternoon/LiteOS_Lab_STM32_IoT/iot_link/network/dtls/mbedtls/mbedtls_port\dtls_interface.c ****         mbedtls_net_free(server_fd);
 708              		.loc 1 404 9
 709 0156 F868     		ldr	r0, [r7, #12]
 710 0158 FFF7FEFF 		bl	mbedtls_net_free
 405:c:/Users/lenovo/Desktop/AIoT/first_day/firstday_afternoon/LiteOS_Lab_STM32_IoT/iot_link/network/dtls/mbedtls/mbedtls_port\dtls_interface.c ****         ssl->p_bio = NULL;
 711              		.loc 1 405 20
 712 015c 7B68     		ldr	r3, [r7, #4]
 713 015e 0022     		movs	r2, #0
 714 0160 5A62     		str	r2, [r3, #36]
 715              	.L40:
 406:c:/Users/lenovo/Desktop/AIoT/first_day/firstday_afternoon/LiteOS_Lab_STM32_IoT/iot_link/network/dtls/mbedtls/mbedtls_port\dtls_interface.c ****     }
 407:c:/Users/lenovo/Desktop/AIoT/first_day/firstday_afternoon/LiteOS_Lab_STM32_IoT/iot_link/network/dtls/mbedtls/mbedtls_port\dtls_interface.c **** 
 408:c:/Users/lenovo/Desktop/AIoT/first_day/firstday_afternoon/LiteOS_Lab_STM32_IoT/iot_link/network/dtls/mbedtls/mbedtls_port\dtls_interface.c ****     return ret;
 716              		.loc 1 408 12
 717 0162 7B69     		ldr	r3, [r7, #20]
 718              	.L39:
 409:c:/Users/lenovo/Desktop/AIoT/first_day/firstday_afternoon/LiteOS_Lab_STM32_IoT/iot_link/network/dtls/mbedtls/mbedtls_port\dtls_interface.c **** 
 410:c:/Users/lenovo/Desktop/AIoT/first_day/firstday_afternoon/LiteOS_Lab_STM32_IoT/iot_link/network/dtls/mbedtls/mbedtls_port\dtls_interface.c **** }
 719              		.loc 1 410 1
 720 0164 1846     		mov	r0, r3
 721 0166 1837     		adds	r7, r7, #24
 722              	.LCFI10:
 723              		.cfi_def_cfa_offset 8
 724 0168 BD46     		mov	sp, r7
 725              	.LCFI11:
 726              		.cfi_def_cfa_register 13
 727              		@ sp needed
 728 016a 80BD     		pop	{r7, pc}
 729              	.L42:
 730              		.align	2
 731              	.L41:
 732 016c 00000000 		.word	__FUNCTION__.9407
ARM GAS  C:\Users\lenovo\AppData\Local\Temp\cc80CgBz.s 			page 22


 733 0170 50010000 		.word	.LC7
 734 0174 78010000 		.word	.LC8
 735 0178 00000000 		.word	mbedtls_net_recv_timeout
 736 017c 00000000 		.word	mbedtls_net_recv
 737 0180 00000000 		.word	mbedtls_net_send
 738 0184 A4010000 		.word	.LC9
 739 0188 D8010000 		.word	.LC10
 740 018c 10020000 		.word	.LC11
 741              		.cfi_endproc
 742              	.LFE18:
 744              		.section	.text.dtls_ssl_destroy,"ax",%progbits
 745              		.align	1
 746              		.global	dtls_ssl_destroy
 747              		.syntax unified
 748              		.thumb
 749              		.thumb_func
 750              		.fpu fpv4-sp-d16
 752              	dtls_ssl_destroy:
 753              	.LFB19:
 411:c:/Users/lenovo/Desktop/AIoT/first_day/firstday_afternoon/LiteOS_Lab_STM32_IoT/iot_link/network/dtls/mbedtls/mbedtls_port\dtls_interface.c **** void dtls_ssl_destroy(mbedtls_ssl_context *ssl)
 412:c:/Users/lenovo/Desktop/AIoT/first_day/firstday_afternoon/LiteOS_Lab_STM32_IoT/iot_link/network/dtls/mbedtls/mbedtls_port\dtls_interface.c **** {
 754              		.loc 1 412 1
 755              		.cfi_startproc
 756              		@ args = 0, pretend = 0, frame = 32
 757              		@ frame_needed = 1, uses_anonymous_args = 0
 758 0000 80B5     		push	{r7, lr}
 759              	.LCFI12:
 760              		.cfi_def_cfa_offset 8
 761              		.cfi_offset 7, -8
 762              		.cfi_offset 14, -4
 763 0002 88B0     		sub	sp, sp, #32
 764              	.LCFI13:
 765              		.cfi_def_cfa_offset 40
 766 0004 00AF     		add	r7, sp, #0
 767              	.LCFI14:
 768              		.cfi_def_cfa_register 7
 769 0006 7860     		str	r0, [r7, #4]
 413:c:/Users/lenovo/Desktop/AIoT/first_day/firstday_afternoon/LiteOS_Lab_STM32_IoT/iot_link/network/dtls/mbedtls/mbedtls_port\dtls_interface.c ****     int ret = 0;
 770              		.loc 1 413 9
 771 0008 0023     		movs	r3, #0
 772 000a 7B61     		str	r3, [r7, #20]
 414:c:/Users/lenovo/Desktop/AIoT/first_day/firstday_afternoon/LiteOS_Lab_STM32_IoT/iot_link/network/dtls/mbedtls/mbedtls_port\dtls_interface.c ****     mbedtls_ssl_config           *conf = NULL;
 773              		.loc 1 414 35
 774 000c 0023     		movs	r3, #0
 775 000e 3B61     		str	r3, [r7, #16]
 415:c:/Users/lenovo/Desktop/AIoT/first_day/firstday_afternoon/LiteOS_Lab_STM32_IoT/iot_link/network/dtls/mbedtls/mbedtls_port\dtls_interface.c ****     mbedtls_ctr_drbg_context     *ctr_drbg = NULL;
 776              		.loc 1 415 35
 777 0010 0023     		movs	r3, #0
 778 0012 FB61     		str	r3, [r7, #28]
 416:c:/Users/lenovo/Desktop/AIoT/first_day/firstday_afternoon/LiteOS_Lab_STM32_IoT/iot_link/network/dtls/mbedtls/mbedtls_port\dtls_interface.c ****     mbedtls_entropy_context      *entropy = NULL;
 779              		.loc 1 416 35
 780 0014 0023     		movs	r3, #0
 781 0016 BB61     		str	r3, [r7, #24]
 417:c:/Users/lenovo/Desktop/AIoT/first_day/firstday_afternoon/LiteOS_Lab_STM32_IoT/iot_link/network/dtls/mbedtls/mbedtls_port\dtls_interface.c ****     mbedtls_net_context          *server_fd = NULL;
 782              		.loc 1 417 35
 783 0018 0023     		movs	r3, #0
 784 001a FB60     		str	r3, [r7, #12]
ARM GAS  C:\Users\lenovo\AppData\Local\Temp\cc80CgBz.s 			page 23


 418:c:/Users/lenovo/Desktop/AIoT/first_day/firstday_afternoon/LiteOS_Lab_STM32_IoT/iot_link/network/dtls/mbedtls/mbedtls_port\dtls_interface.c ****     mbedtls_timing_delay_context *timer = NULL;
 785              		.loc 1 418 35
 786 001c 0023     		movs	r3, #0
 787 001e BB60     		str	r3, [r7, #8]
 419:c:/Users/lenovo/Desktop/AIoT/first_day/firstday_afternoon/LiteOS_Lab_STM32_IoT/iot_link/network/dtls/mbedtls/mbedtls_port\dtls_interface.c **** #if defined(MBEDTLS_X509_CRT_PARSE_C)
 420:c:/Users/lenovo/Desktop/AIoT/first_day/firstday_afternoon/LiteOS_Lab_STM32_IoT/iot_link/network/dtls/mbedtls/mbedtls_port\dtls_interface.c ****     mbedtls_x509_crt             *cacert = NULL;
 421:c:/Users/lenovo/Desktop/AIoT/first_day/firstday_afternoon/LiteOS_Lab_STM32_IoT/iot_link/network/dtls/mbedtls/mbedtls_port\dtls_interface.c ****     mbedtls_x509_crt             *client_ca = NULL;
 422:c:/Users/lenovo/Desktop/AIoT/first_day/firstday_afternoon/LiteOS_Lab_STM32_IoT/iot_link/network/dtls/mbedtls/mbedtls_port\dtls_interface.c ****     mbedtls_pk_context           *client_pk = NULL;
 423:c:/Users/lenovo/Desktop/AIoT/first_day/firstday_afternoon/LiteOS_Lab_STM32_IoT/iot_link/network/dtls/mbedtls/mbedtls_port\dtls_interface.c ****     mbedtls_ssl_key_cert         *key_cert = NULL;
 424:c:/Users/lenovo/Desktop/AIoT/first_day/firstday_afternoon/LiteOS_Lab_STM32_IoT/iot_link/network/dtls/mbedtls/mbedtls_port\dtls_interface.c **** #endif
 425:c:/Users/lenovo/Desktop/AIoT/first_day/firstday_afternoon/LiteOS_Lab_STM32_IoT/iot_link/network/dtls/mbedtls/mbedtls_port\dtls_interface.c **** 
 426:c:/Users/lenovo/Desktop/AIoT/first_day/firstday_afternoon/LiteOS_Lab_STM32_IoT/iot_link/network/dtls/mbedtls/mbedtls_port\dtls_interface.c ****     if (ssl == NULL)
 788              		.loc 1 426 8
 789 0020 7B68     		ldr	r3, [r7, #4]
 790 0022 002B     		cmp	r3, #0
 791 0024 50D0     		beq	.L53
 427:c:/Users/lenovo/Desktop/AIoT/first_day/firstday_afternoon/LiteOS_Lab_STM32_IoT/iot_link/network/dtls/mbedtls/mbedtls_port\dtls_interface.c ****     {
 428:c:/Users/lenovo/Desktop/AIoT/first_day/firstday_afternoon/LiteOS_Lab_STM32_IoT/iot_link/network/dtls/mbedtls/mbedtls_port\dtls_interface.c ****         return;
 429:c:/Users/lenovo/Desktop/AIoT/first_day/firstday_afternoon/LiteOS_Lab_STM32_IoT/iot_link/network/dtls/mbedtls/mbedtls_port\dtls_interface.c ****     }
 430:c:/Users/lenovo/Desktop/AIoT/first_day/firstday_afternoon/LiteOS_Lab_STM32_IoT/iot_link/network/dtls/mbedtls/mbedtls_port\dtls_interface.c **** 
 431:c:/Users/lenovo/Desktop/AIoT/first_day/firstday_afternoon/LiteOS_Lab_STM32_IoT/iot_link/network/dtls/mbedtls/mbedtls_port\dtls_interface.c ****     conf       = (mbedtls_ssl_config *)ssl->conf;
 792              		.loc 1 431 16
 793 0026 7B68     		ldr	r3, [r7, #4]
 794 0028 1B68     		ldr	r3, [r3]
 795 002a 3B61     		str	r3, [r7, #16]
 432:c:/Users/lenovo/Desktop/AIoT/first_day/firstday_afternoon/LiteOS_Lab_STM32_IoT/iot_link/network/dtls/mbedtls/mbedtls_port\dtls_interface.c ****     server_fd  = (mbedtls_net_context *)ssl->p_bio;
 796              		.loc 1 432 16
 797 002c 7B68     		ldr	r3, [r7, #4]
 798 002e 5B6A     		ldr	r3, [r3, #36]
 799 0030 FB60     		str	r3, [r7, #12]
 433:c:/Users/lenovo/Desktop/AIoT/first_day/firstday_afternoon/LiteOS_Lab_STM32_IoT/iot_link/network/dtls/mbedtls/mbedtls_port\dtls_interface.c ****     timer      = (mbedtls_timing_delay_context *)ssl->p_timer;
 800              		.loc 1 433 16
 801 0032 7B68     		ldr	r3, [r7, #4]
 802 0034 DB6C     		ldr	r3, [r3, #76]
 803 0036 BB60     		str	r3, [r7, #8]
 804              	.L46:
 434:c:/Users/lenovo/Desktop/AIoT/first_day/firstday_afternoon/LiteOS_Lab_STM32_IoT/iot_link/network/dtls/mbedtls/mbedtls_port\dtls_interface.c **** 
 435:c:/Users/lenovo/Desktop/AIoT/first_day/firstday_afternoon/LiteOS_Lab_STM32_IoT/iot_link/network/dtls/mbedtls/mbedtls_port\dtls_interface.c **** 
 436:c:/Users/lenovo/Desktop/AIoT/first_day/firstday_afternoon/LiteOS_Lab_STM32_IoT/iot_link/network/dtls/mbedtls/mbedtls_port\dtls_interface.c ****     do ret = mbedtls_ssl_close_notify( ssl );
 805              		.loc 1 436 14 discriminator 1
 806 0038 7868     		ldr	r0, [r7, #4]
 807 003a FFF7FEFF 		bl	mbedtls_ssl_close_notify
 808 003e 7861     		str	r0, [r7, #20]
 437:c:/Users/lenovo/Desktop/AIoT/first_day/firstday_afternoon/LiteOS_Lab_STM32_IoT/iot_link/network/dtls/mbedtls/mbedtls_port\dtls_interface.c ****     while( ret == MBEDTLS_ERR_SSL_WANT_WRITE );
 809              		.loc 1 437 5 discriminator 1
 810 0040 7B69     		ldr	r3, [r7, #20]
 811 0042 13F5D14F 		cmn	r3, #26752
 812 0046 F7D0     		beq	.L46
 438:c:/Users/lenovo/Desktop/AIoT/first_day/firstday_afternoon/LiteOS_Lab_STM32_IoT/iot_link/network/dtls/mbedtls/mbedtls_port\dtls_interface.c ****     ret = 0;
 813              		.loc 1 438 9
 814 0048 0023     		movs	r3, #0
 815 004a 7B61     		str	r3, [r7, #20]
 439:c:/Users/lenovo/Desktop/AIoT/first_day/firstday_afternoon/LiteOS_Lab_STM32_IoT/iot_link/network/dtls/mbedtls/mbedtls_port\dtls_interface.c **** 
 440:c:/Users/lenovo/Desktop/AIoT/first_day/firstday_afternoon/LiteOS_Lab_STM32_IoT/iot_link/network/dtls/mbedtls/mbedtls_port\dtls_interface.c **** 
 441:c:/Users/lenovo/Desktop/AIoT/first_day/firstday_afternoon/LiteOS_Lab_STM32_IoT/iot_link/network/dtls/mbedtls/mbedtls_port\dtls_interface.c ****     if (NULL != conf)
 816              		.loc 1 441 8
 817 004c 3B69     		ldr	r3, [r7, #16]
ARM GAS  C:\Users\lenovo\AppData\Local\Temp\cc80CgBz.s 			page 24


 818 004e 002B     		cmp	r3, #0
 819 0050 09D0     		beq	.L47
 442:c:/Users/lenovo/Desktop/AIoT/first_day/firstday_afternoon/LiteOS_Lab_STM32_IoT/iot_link/network/dtls/mbedtls/mbedtls_port\dtls_interface.c ****     {
 443:c:/Users/lenovo/Desktop/AIoT/first_day/firstday_afternoon/LiteOS_Lab_STM32_IoT/iot_link/network/dtls/mbedtls/mbedtls_port\dtls_interface.c ****         ctr_drbg   = conf->p_rng;
 820              		.loc 1 443 20
 821 0052 3B69     		ldr	r3, [r7, #16]
 822 0054 DB69     		ldr	r3, [r3, #28]
 823 0056 FB61     		str	r3, [r7, #28]
 444:c:/Users/lenovo/Desktop/AIoT/first_day/firstday_afternoon/LiteOS_Lab_STM32_IoT/iot_link/network/dtls/mbedtls/mbedtls_port\dtls_interface.c **** 
 445:c:/Users/lenovo/Desktop/AIoT/first_day/firstday_afternoon/LiteOS_Lab_STM32_IoT/iot_link/network/dtls/mbedtls/mbedtls_port\dtls_interface.c ****         if (NULL !=ctr_drbg)
 824              		.loc 1 445 12
 825 0058 FB69     		ldr	r3, [r7, #28]
 826 005a 002B     		cmp	r3, #0
 827 005c 03D0     		beq	.L47
 446:c:/Users/lenovo/Desktop/AIoT/first_day/firstday_afternoon/LiteOS_Lab_STM32_IoT/iot_link/network/dtls/mbedtls/mbedtls_port\dtls_interface.c ****         {
 447:c:/Users/lenovo/Desktop/AIoT/first_day/firstday_afternoon/LiteOS_Lab_STM32_IoT/iot_link/network/dtls/mbedtls/mbedtls_port\dtls_interface.c ****             entropy =  ctr_drbg->p_entropy;
 828              		.loc 1 447 21
 829 005e FB69     		ldr	r3, [r7, #28]
 830 0060 D3F83C31 		ldr	r3, [r3, #316]
 831 0064 BB61     		str	r3, [r7, #24]
 832              	.L47:
 448:c:/Users/lenovo/Desktop/AIoT/first_day/firstday_afternoon/LiteOS_Lab_STM32_IoT/iot_link/network/dtls/mbedtls/mbedtls_port\dtls_interface.c ****         }
 449:c:/Users/lenovo/Desktop/AIoT/first_day/firstday_afternoon/LiteOS_Lab_STM32_IoT/iot_link/network/dtls/mbedtls/mbedtls_port\dtls_interface.c **** 
 450:c:/Users/lenovo/Desktop/AIoT/first_day/firstday_afternoon/LiteOS_Lab_STM32_IoT/iot_link/network/dtls/mbedtls/mbedtls_port\dtls_interface.c **** #if defined(MBEDTLS_X509_CRT_PARSE_C)
 451:c:/Users/lenovo/Desktop/AIoT/first_day/firstday_afternoon/LiteOS_Lab_STM32_IoT/iot_link/network/dtls/mbedtls/mbedtls_port\dtls_interface.c ****         cacert     = (mbedtls_x509_crt *)conf->ca_chain;
 452:c:/Users/lenovo/Desktop/AIoT/first_day/firstday_afternoon/LiteOS_Lab_STM32_IoT/iot_link/network/dtls/mbedtls/mbedtls_port\dtls_interface.c **** 
 453:c:/Users/lenovo/Desktop/AIoT/first_day/firstday_afternoon/LiteOS_Lab_STM32_IoT/iot_link/network/dtls/mbedtls/mbedtls_port\dtls_interface.c ****         key_cert   = conf->key_cert;
 454:c:/Users/lenovo/Desktop/AIoT/first_day/firstday_afternoon/LiteOS_Lab_STM32_IoT/iot_link/network/dtls/mbedtls/mbedtls_port\dtls_interface.c ****         if(NULL != key_cert)
 455:c:/Users/lenovo/Desktop/AIoT/first_day/firstday_afternoon/LiteOS_Lab_STM32_IoT/iot_link/network/dtls/mbedtls/mbedtls_port\dtls_interface.c ****         {
 456:c:/Users/lenovo/Desktop/AIoT/first_day/firstday_afternoon/LiteOS_Lab_STM32_IoT/iot_link/network/dtls/mbedtls/mbedtls_port\dtls_interface.c ****             client_ca = (mbedtls_x509_crt *) key_cert->cert;
 457:c:/Users/lenovo/Desktop/AIoT/first_day/firstday_afternoon/LiteOS_Lab_STM32_IoT/iot_link/network/dtls/mbedtls/mbedtls_port\dtls_interface.c ****             client_pk = key_cert->key;
 458:c:/Users/lenovo/Desktop/AIoT/first_day/firstday_afternoon/LiteOS_Lab_STM32_IoT/iot_link/network/dtls/mbedtls/mbedtls_port\dtls_interface.c ****         }
 459:c:/Users/lenovo/Desktop/AIoT/first_day/firstday_afternoon/LiteOS_Lab_STM32_IoT/iot_link/network/dtls/mbedtls/mbedtls_port\dtls_interface.c **** 
 460:c:/Users/lenovo/Desktop/AIoT/first_day/firstday_afternoon/LiteOS_Lab_STM32_IoT/iot_link/network/dtls/mbedtls/mbedtls_port\dtls_interface.c **** #endif
 461:c:/Users/lenovo/Desktop/AIoT/first_day/firstday_afternoon/LiteOS_Lab_STM32_IoT/iot_link/network/dtls/mbedtls/mbedtls_port\dtls_interface.c ****     }
 462:c:/Users/lenovo/Desktop/AIoT/first_day/firstday_afternoon/LiteOS_Lab_STM32_IoT/iot_link/network/dtls/mbedtls/mbedtls_port\dtls_interface.c **** 
 463:c:/Users/lenovo/Desktop/AIoT/first_day/firstday_afternoon/LiteOS_Lab_STM32_IoT/iot_link/network/dtls/mbedtls/mbedtls_port\dtls_interface.c ****     if (NULL != server_fd)
 833              		.loc 1 463 8
 834 0066 FB68     		ldr	r3, [r7, #12]
 835 0068 002B     		cmp	r3, #0
 836 006a 02D0     		beq	.L48
 464:c:/Users/lenovo/Desktop/AIoT/first_day/firstday_afternoon/LiteOS_Lab_STM32_IoT/iot_link/network/dtls/mbedtls/mbedtls_port\dtls_interface.c ****     {
 465:c:/Users/lenovo/Desktop/AIoT/first_day/firstday_afternoon/LiteOS_Lab_STM32_IoT/iot_link/network/dtls/mbedtls/mbedtls_port\dtls_interface.c ****         mbedtls_net_free(server_fd);
 837              		.loc 1 465 9
 838 006c F868     		ldr	r0, [r7, #12]
 839 006e FFF7FEFF 		bl	mbedtls_net_free
 840              	.L48:
 466:c:/Users/lenovo/Desktop/AIoT/first_day/firstday_afternoon/LiteOS_Lab_STM32_IoT/iot_link/network/dtls/mbedtls/mbedtls_port\dtls_interface.c ****     }
 467:c:/Users/lenovo/Desktop/AIoT/first_day/firstday_afternoon/LiteOS_Lab_STM32_IoT/iot_link/network/dtls/mbedtls/mbedtls_port\dtls_interface.c **** 
 468:c:/Users/lenovo/Desktop/AIoT/first_day/firstday_afternoon/LiteOS_Lab_STM32_IoT/iot_link/network/dtls/mbedtls/mbedtls_port\dtls_interface.c ****     if (NULL != conf)
 841              		.loc 1 468 8
 842 0072 3B69     		ldr	r3, [r7, #16]
 843 0074 002B     		cmp	r3, #0
 844 0076 08D0     		beq	.L49
 469:c:/Users/lenovo/Desktop/AIoT/first_day/firstday_afternoon/LiteOS_Lab_STM32_IoT/iot_link/network/dtls/mbedtls/mbedtls_port\dtls_interface.c ****     {
 470:c:/Users/lenovo/Desktop/AIoT/first_day/firstday_afternoon/LiteOS_Lab_STM32_IoT/iot_link/network/dtls/mbedtls/mbedtls_port\dtls_interface.c ****         mbedtls_ssl_config_free(conf);
 845              		.loc 1 470 9
ARM GAS  C:\Users\lenovo\AppData\Local\Temp\cc80CgBz.s 			page 25


 846 0078 3869     		ldr	r0, [r7, #16]
 847 007a FFF7FEFF 		bl	mbedtls_ssl_config_free
 471:c:/Users/lenovo/Desktop/AIoT/first_day/firstday_afternoon/LiteOS_Lab_STM32_IoT/iot_link/network/dtls/mbedtls/mbedtls_port\dtls_interface.c ****         mbedtls_free(conf);
 848              		.loc 1 471 9
 849 007e 3869     		ldr	r0, [r7, #16]
 850 0080 FFF7FEFF 		bl	mbedtls_free
 472:c:/Users/lenovo/Desktop/AIoT/first_day/firstday_afternoon/LiteOS_Lab_STM32_IoT/iot_link/network/dtls/mbedtls/mbedtls_port\dtls_interface.c ****         ssl->conf = NULL; //  need by mbedtls_debug_print_msg(), see mbedtls_ssl_free(ssl)
 851              		.loc 1 472 19
 852 0084 7B68     		ldr	r3, [r7, #4]
 853 0086 0022     		movs	r2, #0
 854 0088 1A60     		str	r2, [r3]
 855              	.L49:
 473:c:/Users/lenovo/Desktop/AIoT/first_day/firstday_afternoon/LiteOS_Lab_STM32_IoT/iot_link/network/dtls/mbedtls/mbedtls_port\dtls_interface.c ****     }
 474:c:/Users/lenovo/Desktop/AIoT/first_day/firstday_afternoon/LiteOS_Lab_STM32_IoT/iot_link/network/dtls/mbedtls/mbedtls_port\dtls_interface.c **** 
 475:c:/Users/lenovo/Desktop/AIoT/first_day/firstday_afternoon/LiteOS_Lab_STM32_IoT/iot_link/network/dtls/mbedtls/mbedtls_port\dtls_interface.c ****     if (ctr_drbg)
 856              		.loc 1 475 8
 857 008a FB69     		ldr	r3, [r7, #28]
 858 008c 002B     		cmp	r3, #0
 859 008e 05D0     		beq	.L50
 476:c:/Users/lenovo/Desktop/AIoT/first_day/firstday_afternoon/LiteOS_Lab_STM32_IoT/iot_link/network/dtls/mbedtls/mbedtls_port\dtls_interface.c ****     {
 477:c:/Users/lenovo/Desktop/AIoT/first_day/firstday_afternoon/LiteOS_Lab_STM32_IoT/iot_link/network/dtls/mbedtls/mbedtls_port\dtls_interface.c ****         mbedtls_ctr_drbg_free(ctr_drbg);
 860              		.loc 1 477 9
 861 0090 F869     		ldr	r0, [r7, #28]
 862 0092 FFF7FEFF 		bl	mbedtls_ctr_drbg_free
 478:c:/Users/lenovo/Desktop/AIoT/first_day/firstday_afternoon/LiteOS_Lab_STM32_IoT/iot_link/network/dtls/mbedtls/mbedtls_port\dtls_interface.c ****         mbedtls_free(ctr_drbg);
 863              		.loc 1 478 9
 864 0096 F869     		ldr	r0, [r7, #28]
 865 0098 FFF7FEFF 		bl	mbedtls_free
 866              	.L50:
 479:c:/Users/lenovo/Desktop/AIoT/first_day/firstday_afternoon/LiteOS_Lab_STM32_IoT/iot_link/network/dtls/mbedtls/mbedtls_port\dtls_interface.c ****     }
 480:c:/Users/lenovo/Desktop/AIoT/first_day/firstday_afternoon/LiteOS_Lab_STM32_IoT/iot_link/network/dtls/mbedtls/mbedtls_port\dtls_interface.c **** 
 481:c:/Users/lenovo/Desktop/AIoT/first_day/firstday_afternoon/LiteOS_Lab_STM32_IoT/iot_link/network/dtls/mbedtls/mbedtls_port\dtls_interface.c ****     if (entropy)
 867              		.loc 1 481 8
 868 009c BB69     		ldr	r3, [r7, #24]
 869 009e 002B     		cmp	r3, #0
 870 00a0 05D0     		beq	.L51
 482:c:/Users/lenovo/Desktop/AIoT/first_day/firstday_afternoon/LiteOS_Lab_STM32_IoT/iot_link/network/dtls/mbedtls/mbedtls_port\dtls_interface.c ****     {
 483:c:/Users/lenovo/Desktop/AIoT/first_day/firstday_afternoon/LiteOS_Lab_STM32_IoT/iot_link/network/dtls/mbedtls/mbedtls_port\dtls_interface.c ****         mbedtls_entropy_free(entropy);
 871              		.loc 1 483 9
 872 00a2 B869     		ldr	r0, [r7, #24]
 873 00a4 FFF7FEFF 		bl	mbedtls_entropy_free
 484:c:/Users/lenovo/Desktop/AIoT/first_day/firstday_afternoon/LiteOS_Lab_STM32_IoT/iot_link/network/dtls/mbedtls/mbedtls_port\dtls_interface.c ****         mbedtls_free(entropy);
 874              		.loc 1 484 9
 875 00a8 B869     		ldr	r0, [r7, #24]
 876 00aa FFF7FEFF 		bl	mbedtls_free
 877              	.L51:
 485:c:/Users/lenovo/Desktop/AIoT/first_day/firstday_afternoon/LiteOS_Lab_STM32_IoT/iot_link/network/dtls/mbedtls/mbedtls_port\dtls_interface.c ****     }
 486:c:/Users/lenovo/Desktop/AIoT/first_day/firstday_afternoon/LiteOS_Lab_STM32_IoT/iot_link/network/dtls/mbedtls/mbedtls_port\dtls_interface.c **** 
 487:c:/Users/lenovo/Desktop/AIoT/first_day/firstday_afternoon/LiteOS_Lab_STM32_IoT/iot_link/network/dtls/mbedtls/mbedtls_port\dtls_interface.c ****     if (timer)
 878              		.loc 1 487 8
 879 00ae BB68     		ldr	r3, [r7, #8]
 880 00b0 002B     		cmp	r3, #0
 881 00b2 02D0     		beq	.L52
 488:c:/Users/lenovo/Desktop/AIoT/first_day/firstday_afternoon/LiteOS_Lab_STM32_IoT/iot_link/network/dtls/mbedtls/mbedtls_port\dtls_interface.c ****     {
 489:c:/Users/lenovo/Desktop/AIoT/first_day/firstday_afternoon/LiteOS_Lab_STM32_IoT/iot_link/network/dtls/mbedtls/mbedtls_port\dtls_interface.c ****         mbedtls_free(timer);
 882              		.loc 1 489 9
 883 00b4 B868     		ldr	r0, [r7, #8]
ARM GAS  C:\Users\lenovo\AppData\Local\Temp\cc80CgBz.s 			page 26


 884 00b6 FFF7FEFF 		bl	mbedtls_free
 885              	.L52:
 490:c:/Users/lenovo/Desktop/AIoT/first_day/firstday_afternoon/LiteOS_Lab_STM32_IoT/iot_link/network/dtls/mbedtls/mbedtls_port\dtls_interface.c ****     }
 491:c:/Users/lenovo/Desktop/AIoT/first_day/firstday_afternoon/LiteOS_Lab_STM32_IoT/iot_link/network/dtls/mbedtls/mbedtls_port\dtls_interface.c **** 
 492:c:/Users/lenovo/Desktop/AIoT/first_day/firstday_afternoon/LiteOS_Lab_STM32_IoT/iot_link/network/dtls/mbedtls/mbedtls_port\dtls_interface.c **** #if defined(MBEDTLS_X509_CRT_PARSE_C)
 493:c:/Users/lenovo/Desktop/AIoT/first_day/firstday_afternoon/LiteOS_Lab_STM32_IoT/iot_link/network/dtls/mbedtls/mbedtls_port\dtls_interface.c ****     if (cacert)
 494:c:/Users/lenovo/Desktop/AIoT/first_day/firstday_afternoon/LiteOS_Lab_STM32_IoT/iot_link/network/dtls/mbedtls/mbedtls_port\dtls_interface.c ****     {
 495:c:/Users/lenovo/Desktop/AIoT/first_day/firstday_afternoon/LiteOS_Lab_STM32_IoT/iot_link/network/dtls/mbedtls/mbedtls_port\dtls_interface.c ****         mbedtls_x509_crt_free(cacert);
 496:c:/Users/lenovo/Desktop/AIoT/first_day/firstday_afternoon/LiteOS_Lab_STM32_IoT/iot_link/network/dtls/mbedtls/mbedtls_port\dtls_interface.c ****         mbedtls_free(cacert);
 497:c:/Users/lenovo/Desktop/AIoT/first_day/firstday_afternoon/LiteOS_Lab_STM32_IoT/iot_link/network/dtls/mbedtls/mbedtls_port\dtls_interface.c ****     }
 498:c:/Users/lenovo/Desktop/AIoT/first_day/firstday_afternoon/LiteOS_Lab_STM32_IoT/iot_link/network/dtls/mbedtls/mbedtls_port\dtls_interface.c ****     if( client_ca )
 499:c:/Users/lenovo/Desktop/AIoT/first_day/firstday_afternoon/LiteOS_Lab_STM32_IoT/iot_link/network/dtls/mbedtls/mbedtls_port\dtls_interface.c ****     {
 500:c:/Users/lenovo/Desktop/AIoT/first_day/firstday_afternoon/LiteOS_Lab_STM32_IoT/iot_link/network/dtls/mbedtls/mbedtls_port\dtls_interface.c ****         mbedtls_x509_crt_free(client_ca);
 501:c:/Users/lenovo/Desktop/AIoT/first_day/firstday_afternoon/LiteOS_Lab_STM32_IoT/iot_link/network/dtls/mbedtls/mbedtls_port\dtls_interface.c ****         mbedtls_free(client_ca);
 502:c:/Users/lenovo/Desktop/AIoT/first_day/firstday_afternoon/LiteOS_Lab_STM32_IoT/iot_link/network/dtls/mbedtls/mbedtls_port\dtls_interface.c ****     }
 503:c:/Users/lenovo/Desktop/AIoT/first_day/firstday_afternoon/LiteOS_Lab_STM32_IoT/iot_link/network/dtls/mbedtls/mbedtls_port\dtls_interface.c **** 
 504:c:/Users/lenovo/Desktop/AIoT/first_day/firstday_afternoon/LiteOS_Lab_STM32_IoT/iot_link/network/dtls/mbedtls/mbedtls_port\dtls_interface.c ****     if( client_pk )
 505:c:/Users/lenovo/Desktop/AIoT/first_day/firstday_afternoon/LiteOS_Lab_STM32_IoT/iot_link/network/dtls/mbedtls/mbedtls_port\dtls_interface.c ****     {
 506:c:/Users/lenovo/Desktop/AIoT/first_day/firstday_afternoon/LiteOS_Lab_STM32_IoT/iot_link/network/dtls/mbedtls/mbedtls_port\dtls_interface.c ****         mbedtls_pk_free(client_pk);
 507:c:/Users/lenovo/Desktop/AIoT/first_day/firstday_afternoon/LiteOS_Lab_STM32_IoT/iot_link/network/dtls/mbedtls/mbedtls_port\dtls_interface.c ****         mbedtls_free(client_pk);
 508:c:/Users/lenovo/Desktop/AIoT/first_day/firstday_afternoon/LiteOS_Lab_STM32_IoT/iot_link/network/dtls/mbedtls/mbedtls_port\dtls_interface.c ****     }
 509:c:/Users/lenovo/Desktop/AIoT/first_day/firstday_afternoon/LiteOS_Lab_STM32_IoT/iot_link/network/dtls/mbedtls/mbedtls_port\dtls_interface.c **** 
 510:c:/Users/lenovo/Desktop/AIoT/first_day/firstday_afternoon/LiteOS_Lab_STM32_IoT/iot_link/network/dtls/mbedtls/mbedtls_port\dtls_interface.c **** #endif
 511:c:/Users/lenovo/Desktop/AIoT/first_day/firstday_afternoon/LiteOS_Lab_STM32_IoT/iot_link/network/dtls/mbedtls/mbedtls_port\dtls_interface.c **** 
 512:c:/Users/lenovo/Desktop/AIoT/first_day/firstday_afternoon/LiteOS_Lab_STM32_IoT/iot_link/network/dtls/mbedtls/mbedtls_port\dtls_interface.c ****     mbedtls_ssl_free(ssl);
 886              		.loc 1 512 5
 887 00ba 7868     		ldr	r0, [r7, #4]
 888 00bc FFF7FEFF 		bl	mbedtls_ssl_free
 513:c:/Users/lenovo/Desktop/AIoT/first_day/firstday_afternoon/LiteOS_Lab_STM32_IoT/iot_link/network/dtls/mbedtls/mbedtls_port\dtls_interface.c ****     mbedtls_free(ssl);
 889              		.loc 1 513 5
 890 00c0 7868     		ldr	r0, [r7, #4]
 891 00c2 FFF7FEFF 		bl	mbedtls_free
 892 00c6 00E0     		b	.L43
 893              	.L53:
 428:c:/Users/lenovo/Desktop/AIoT/first_day/firstday_afternoon/LiteOS_Lab_STM32_IoT/iot_link/network/dtls/mbedtls/mbedtls_port\dtls_interface.c ****     }
 894              		.loc 1 428 9
 895 00c8 00BF     		nop
 896              	.L43:
 514:c:/Users/lenovo/Desktop/AIoT/first_day/firstday_afternoon/LiteOS_Lab_STM32_IoT/iot_link/network/dtls/mbedtls/mbedtls_port\dtls_interface.c **** }
 897              		.loc 1 514 1
 898 00ca 2037     		adds	r7, r7, #32
 899              	.LCFI15:
 900              		.cfi_def_cfa_offset 8
 901 00cc BD46     		mov	sp, r7
 902              	.LCFI16:
 903              		.cfi_def_cfa_register 13
 904              		@ sp needed
 905 00ce 80BD     		pop	{r7, pc}
 906              		.cfi_endproc
 907              	.LFE19:
 909              		.section	.text.dtls_write,"ax",%progbits
 910              		.align	1
 911              		.global	dtls_write
 912              		.syntax unified
 913              		.thumb
 914              		.thumb_func
 915              		.fpu fpv4-sp-d16
ARM GAS  C:\Users\lenovo\AppData\Local\Temp\cc80CgBz.s 			page 27


 917              	dtls_write:
 918              	.LFB20:
 515:c:/Users/lenovo/Desktop/AIoT/first_day/firstday_afternoon/LiteOS_Lab_STM32_IoT/iot_link/network/dtls/mbedtls/mbedtls_port\dtls_interface.c **** 
 516:c:/Users/lenovo/Desktop/AIoT/first_day/firstday_afternoon/LiteOS_Lab_STM32_IoT/iot_link/network/dtls/mbedtls/mbedtls_port\dtls_interface.c **** int dtls_write(mbedtls_ssl_context *ssl, const unsigned char *buf, size_t len)
 517:c:/Users/lenovo/Desktop/AIoT/first_day/firstday_afternoon/LiteOS_Lab_STM32_IoT/iot_link/network/dtls/mbedtls/mbedtls_port\dtls_interface.c **** {
 919              		.loc 1 517 1
 920              		.cfi_startproc
 921              		@ args = 0, pretend = 0, frame = 24
 922              		@ frame_needed = 1, uses_anonymous_args = 0
 923 0000 80B5     		push	{r7, lr}
 924              	.LCFI17:
 925              		.cfi_def_cfa_offset 8
 926              		.cfi_offset 7, -8
 927              		.cfi_offset 14, -4
 928 0002 86B0     		sub	sp, sp, #24
 929              	.LCFI18:
 930              		.cfi_def_cfa_offset 32
 931 0004 00AF     		add	r7, sp, #0
 932              	.LCFI19:
 933              		.cfi_def_cfa_register 7
 934 0006 F860     		str	r0, [r7, #12]
 935 0008 B960     		str	r1, [r7, #8]
 936 000a 7A60     		str	r2, [r7, #4]
 518:c:/Users/lenovo/Desktop/AIoT/first_day/firstday_afternoon/LiteOS_Lab_STM32_IoT/iot_link/network/dtls/mbedtls/mbedtls_port\dtls_interface.c **** 
 519:c:/Users/lenovo/Desktop/AIoT/first_day/firstday_afternoon/LiteOS_Lab_STM32_IoT/iot_link/network/dtls/mbedtls/mbedtls_port\dtls_interface.c ****     int ret;
 520:c:/Users/lenovo/Desktop/AIoT/first_day/firstday_afternoon/LiteOS_Lab_STM32_IoT/iot_link/network/dtls/mbedtls/mbedtls_port\dtls_interface.c **** 
 521:c:/Users/lenovo/Desktop/AIoT/first_day/firstday_afternoon/LiteOS_Lab_STM32_IoT/iot_link/network/dtls/mbedtls/mbedtls_port\dtls_interface.c ****     ret = mbedtls_ssl_write(ssl, (unsigned char *) buf, len);
 937              		.loc 1 521 11
 938 000c 7A68     		ldr	r2, [r7, #4]
 939 000e B968     		ldr	r1, [r7, #8]
 940 0010 F868     		ldr	r0, [r7, #12]
 941 0012 FFF7FEFF 		bl	mbedtls_ssl_write
 942 0016 7861     		str	r0, [r7, #20]
 522:c:/Users/lenovo/Desktop/AIoT/first_day/firstday_afternoon/LiteOS_Lab_STM32_IoT/iot_link/network/dtls/mbedtls/mbedtls_port\dtls_interface.c **** 
 523:c:/Users/lenovo/Desktop/AIoT/first_day/firstday_afternoon/LiteOS_Lab_STM32_IoT/iot_link/network/dtls/mbedtls/mbedtls_port\dtls_interface.c ****     if ((ret == MBEDTLS_ERR_SSL_WANT_WRITE) ||(ret == MBEDTLS_ERR_SSL_TIMEOUT))
 943              		.loc 1 523 8
 944 0018 7B69     		ldr	r3, [r7, #20]
 945 001a 13F5D14F 		cmn	r3, #26752
 946 001e 03D0     		beq	.L55
 947              		.loc 1 523 45 discriminator 1
 948 0020 7B69     		ldr	r3, [r7, #20]
 949 0022 13F5D04F 		cmn	r3, #26624
 950 0026 03D1     		bne	.L56
 951              	.L55:
 524:c:/Users/lenovo/Desktop/AIoT/first_day/firstday_afternoon/LiteOS_Lab_STM32_IoT/iot_link/network/dtls/mbedtls/mbedtls_port\dtls_interface.c ****     {
 525:c:/Users/lenovo/Desktop/AIoT/first_day/firstday_afternoon/LiteOS_Lab_STM32_IoT/iot_link/network/dtls/mbedtls/mbedtls_port\dtls_interface.c ****         ret =  -1;
 952              		.loc 1 525 13
 953 0028 4FF0FF33 		mov	r3, #-1
 954 002c 7B61     		str	r3, [r7, #20]
 955 002e 04E0     		b	.L57
 956              	.L56:
 526:c:/Users/lenovo/Desktop/AIoT/first_day/firstday_afternoon/LiteOS_Lab_STM32_IoT/iot_link/network/dtls/mbedtls/mbedtls_port\dtls_interface.c ****     }
 527:c:/Users/lenovo/Desktop/AIoT/first_day/firstday_afternoon/LiteOS_Lab_STM32_IoT/iot_link/network/dtls/mbedtls/mbedtls_port\dtls_interface.c ****     else if (ret <= 0)
 957              		.loc 1 527 13
 958 0030 7B69     		ldr	r3, [r7, #20]
 959 0032 002B     		cmp	r3, #0
 960 0034 01DC     		bgt	.L57
ARM GAS  C:\Users\lenovo\AppData\Local\Temp\cc80CgBz.s 			page 28


 528:c:/Users/lenovo/Desktop/AIoT/first_day/firstday_afternoon/LiteOS_Lab_STM32_IoT/iot_link/network/dtls/mbedtls/mbedtls_port\dtls_interface.c ****     {
 529:c:/Users/lenovo/Desktop/AIoT/first_day/firstday_afternoon/LiteOS_Lab_STM32_IoT/iot_link/network/dtls/mbedtls/mbedtls_port\dtls_interface.c ****         ret = 0;
 961              		.loc 1 529 13
 962 0036 0023     		movs	r3, #0
 963 0038 7B61     		str	r3, [r7, #20]
 964              	.L57:
 530:c:/Users/lenovo/Desktop/AIoT/first_day/firstday_afternoon/LiteOS_Lab_STM32_IoT/iot_link/network/dtls/mbedtls/mbedtls_port\dtls_interface.c ****     }
 531:c:/Users/lenovo/Desktop/AIoT/first_day/firstday_afternoon/LiteOS_Lab_STM32_IoT/iot_link/network/dtls/mbedtls/mbedtls_port\dtls_interface.c **** 
 532:c:/Users/lenovo/Desktop/AIoT/first_day/firstday_afternoon/LiteOS_Lab_STM32_IoT/iot_link/network/dtls/mbedtls/mbedtls_port\dtls_interface.c ****     return ret;
 965              		.loc 1 532 12
 966 003a 7B69     		ldr	r3, [r7, #20]
 533:c:/Users/lenovo/Desktop/AIoT/first_day/firstday_afternoon/LiteOS_Lab_STM32_IoT/iot_link/network/dtls/mbedtls/mbedtls_port\dtls_interface.c **** }
 967              		.loc 1 533 1
 968 003c 1846     		mov	r0, r3
 969 003e 1837     		adds	r7, r7, #24
 970              	.LCFI20:
 971              		.cfi_def_cfa_offset 8
 972 0040 BD46     		mov	sp, r7
 973              	.LCFI21:
 974              		.cfi_def_cfa_register 13
 975              		@ sp needed
 976 0042 80BD     		pop	{r7, pc}
 977              		.cfi_endproc
 978              	.LFE20:
 980              		.section	.text.dtls_read,"ax",%progbits
 981              		.align	1
 982              		.global	dtls_read
 983              		.syntax unified
 984              		.thumb
 985              		.thumb_func
 986              		.fpu fpv4-sp-d16
 988              	dtls_read:
 989              	.LFB21:
 534:c:/Users/lenovo/Desktop/AIoT/first_day/firstday_afternoon/LiteOS_Lab_STM32_IoT/iot_link/network/dtls/mbedtls/mbedtls_port\dtls_interface.c **** 
 535:c:/Users/lenovo/Desktop/AIoT/first_day/firstday_afternoon/LiteOS_Lab_STM32_IoT/iot_link/network/dtls/mbedtls/mbedtls_port\dtls_interface.c **** 
 536:c:/Users/lenovo/Desktop/AIoT/first_day/firstday_afternoon/LiteOS_Lab_STM32_IoT/iot_link/network/dtls/mbedtls/mbedtls_port\dtls_interface.c **** ///< make it return as normal socket return
 537:c:/Users/lenovo/Desktop/AIoT/first_day/firstday_afternoon/LiteOS_Lab_STM32_IoT/iot_link/network/dtls/mbedtls/mbedtls_port\dtls_interface.c **** int dtls_read(mbedtls_ssl_context *ssl, unsigned char *buf, size_t len, uint32_t timeout)
 538:c:/Users/lenovo/Desktop/AIoT/first_day/firstday_afternoon/LiteOS_Lab_STM32_IoT/iot_link/network/dtls/mbedtls/mbedtls_port\dtls_interface.c **** {
 990              		.loc 1 538 1
 991              		.cfi_startproc
 992              		@ args = 0, pretend = 0, frame = 24
 993              		@ frame_needed = 1, uses_anonymous_args = 0
 994 0000 80B5     		push	{r7, lr}
 995              	.LCFI22:
 996              		.cfi_def_cfa_offset 8
 997              		.cfi_offset 7, -8
 998              		.cfi_offset 14, -4
 999 0002 86B0     		sub	sp, sp, #24
 1000              	.LCFI23:
 1001              		.cfi_def_cfa_offset 32
 1002 0004 00AF     		add	r7, sp, #0
 1003              	.LCFI24:
 1004              		.cfi_def_cfa_register 7
 1005 0006 F860     		str	r0, [r7, #12]
 1006 0008 B960     		str	r1, [r7, #8]
 1007 000a 7A60     		str	r2, [r7, #4]
 1008 000c 3B60     		str	r3, [r7]
ARM GAS  C:\Users\lenovo\AppData\Local\Temp\cc80CgBz.s 			page 29


 539:c:/Users/lenovo/Desktop/AIoT/first_day/firstday_afternoon/LiteOS_Lab_STM32_IoT/iot_link/network/dtls/mbedtls/mbedtls_port\dtls_interface.c ****     int ret;
 540:c:/Users/lenovo/Desktop/AIoT/first_day/firstday_afternoon/LiteOS_Lab_STM32_IoT/iot_link/network/dtls/mbedtls/mbedtls_port\dtls_interface.c **** 
 541:c:/Users/lenovo/Desktop/AIoT/first_day/firstday_afternoon/LiteOS_Lab_STM32_IoT/iot_link/network/dtls/mbedtls/mbedtls_port\dtls_interface.c **** 
 542:c:/Users/lenovo/Desktop/AIoT/first_day/firstday_afternoon/LiteOS_Lab_STM32_IoT/iot_link/network/dtls/mbedtls/mbedtls_port\dtls_interface.c ****     mbedtls_ssl_conf_read_timeout((mbedtls_ssl_config *)ssl->conf, timeout);
 1009              		.loc 1 542 60
 1010 000e FB68     		ldr	r3, [r7, #12]
 1011 0010 1B68     		ldr	r3, [r3]
 1012              		.loc 1 542 5
 1013 0012 3968     		ldr	r1, [r7]
 1014 0014 1846     		mov	r0, r3
 1015 0016 FFF7FEFF 		bl	mbedtls_ssl_conf_read_timeout
 543:c:/Users/lenovo/Desktop/AIoT/first_day/firstday_afternoon/LiteOS_Lab_STM32_IoT/iot_link/network/dtls/mbedtls/mbedtls_port\dtls_interface.c **** 
 544:c:/Users/lenovo/Desktop/AIoT/first_day/firstday_afternoon/LiteOS_Lab_STM32_IoT/iot_link/network/dtls/mbedtls/mbedtls_port\dtls_interface.c ****     ret = mbedtls_ssl_read(ssl, buf, len);
 1016              		.loc 1 544 11
 1017 001a 7A68     		ldr	r2, [r7, #4]
 1018 001c B968     		ldr	r1, [r7, #8]
 1019 001e F868     		ldr	r0, [r7, #12]
 1020 0020 FFF7FEFF 		bl	mbedtls_ssl_read
 1021 0024 7861     		str	r0, [r7, #20]
 545:c:/Users/lenovo/Desktop/AIoT/first_day/firstday_afternoon/LiteOS_Lab_STM32_IoT/iot_link/network/dtls/mbedtls/mbedtls_port\dtls_interface.c **** 
 546:c:/Users/lenovo/Desktop/AIoT/first_day/firstday_afternoon/LiteOS_Lab_STM32_IoT/iot_link/network/dtls/mbedtls/mbedtls_port\dtls_interface.c ****     if ((ret == MBEDTLS_ERR_SSL_WANT_READ) ||(ret == MBEDTLS_ERR_SSL_TIMEOUT))
 1022              		.loc 1 546 8
 1023 0026 7B69     		ldr	r3, [r7, #20]
 1024 0028 13F5D24F 		cmn	r3, #26880
 1025 002c 03D0     		beq	.L60
 1026              		.loc 1 546 44 discriminator 1
 1027 002e 7B69     		ldr	r3, [r7, #20]
 1028 0030 13F5D04F 		cmn	r3, #26624
 1029 0034 03D1     		bne	.L61
 1030              	.L60:
 547:c:/Users/lenovo/Desktop/AIoT/first_day/firstday_afternoon/LiteOS_Lab_STM32_IoT/iot_link/network/dtls/mbedtls/mbedtls_port\dtls_interface.c ****     {
 548:c:/Users/lenovo/Desktop/AIoT/first_day/firstday_afternoon/LiteOS_Lab_STM32_IoT/iot_link/network/dtls/mbedtls/mbedtls_port\dtls_interface.c ****         ret = -1;
 1031              		.loc 1 548 13
 1032 0036 4FF0FF33 		mov	r3, #-1
 1033 003a 7B61     		str	r3, [r7, #20]
 1034 003c 04E0     		b	.L62
 1035              	.L61:
 549:c:/Users/lenovo/Desktop/AIoT/first_day/firstday_afternoon/LiteOS_Lab_STM32_IoT/iot_link/network/dtls/mbedtls/mbedtls_port\dtls_interface.c ****     }
 550:c:/Users/lenovo/Desktop/AIoT/first_day/firstday_afternoon/LiteOS_Lab_STM32_IoT/iot_link/network/dtls/mbedtls/mbedtls_port\dtls_interface.c ****     else if (ret <= 0)
 1036              		.loc 1 550 13
 1037 003e 7B69     		ldr	r3, [r7, #20]
 1038 0040 002B     		cmp	r3, #0
 1039 0042 01DC     		bgt	.L62
 551:c:/Users/lenovo/Desktop/AIoT/first_day/firstday_afternoon/LiteOS_Lab_STM32_IoT/iot_link/network/dtls/mbedtls/mbedtls_port\dtls_interface.c ****     {
 552:c:/Users/lenovo/Desktop/AIoT/first_day/firstday_afternoon/LiteOS_Lab_STM32_IoT/iot_link/network/dtls/mbedtls/mbedtls_port\dtls_interface.c ****         ret = 0;
 1040              		.loc 1 552 13
 1041 0044 0023     		movs	r3, #0
 1042 0046 7B61     		str	r3, [r7, #20]
 1043              	.L62:
 553:c:/Users/lenovo/Desktop/AIoT/first_day/firstday_afternoon/LiteOS_Lab_STM32_IoT/iot_link/network/dtls/mbedtls/mbedtls_port\dtls_interface.c ****     }
 554:c:/Users/lenovo/Desktop/AIoT/first_day/firstday_afternoon/LiteOS_Lab_STM32_IoT/iot_link/network/dtls/mbedtls/mbedtls_port\dtls_interface.c **** 
 555:c:/Users/lenovo/Desktop/AIoT/first_day/firstday_afternoon/LiteOS_Lab_STM32_IoT/iot_link/network/dtls/mbedtls/mbedtls_port\dtls_interface.c ****     return ret;
 1044              		.loc 1 555 12
 1045 0048 7B69     		ldr	r3, [r7, #20]
 556:c:/Users/lenovo/Desktop/AIoT/first_day/firstday_afternoon/LiteOS_Lab_STM32_IoT/iot_link/network/dtls/mbedtls/mbedtls_port\dtls_interface.c **** }
 1046              		.loc 1 556 1
 1047 004a 1846     		mov	r0, r3
ARM GAS  C:\Users\lenovo\AppData\Local\Temp\cc80CgBz.s 			page 30


 1048 004c 1837     		adds	r7, r7, #24
 1049              	.LCFI25:
 1050              		.cfi_def_cfa_offset 8
 1051 004e BD46     		mov	sp, r7
 1052              	.LCFI26:
 1053              		.cfi_def_cfa_register 13
 1054              		@ sp needed
 1055 0050 80BD     		pop	{r7, pc}
 1056              		.cfi_endproc
 1057              	.LFE21:
 1059              		.section	.text.dtls_accept,"ax",%progbits
 1060              		.align	1
 1061              		.global	dtls_accept
 1062              		.syntax unified
 1063              		.thumb
 1064              		.thumb_func
 1065              		.fpu fpv4-sp-d16
 1067              	dtls_accept:
 1068              	.LFB22:
 557:c:/Users/lenovo/Desktop/AIoT/first_day/firstday_afternoon/LiteOS_Lab_STM32_IoT/iot_link/network/dtls/mbedtls/mbedtls_port\dtls_interface.c **** 
 558:c:/Users/lenovo/Desktop/AIoT/first_day/firstday_afternoon/LiteOS_Lab_STM32_IoT/iot_link/network/dtls/mbedtls/mbedtls_port\dtls_interface.c **** 
 559:c:/Users/lenovo/Desktop/AIoT/first_day/firstday_afternoon/LiteOS_Lab_STM32_IoT/iot_link/network/dtls/mbedtls/mbedtls_port\dtls_interface.c **** 
 560:c:/Users/lenovo/Desktop/AIoT/first_day/firstday_afternoon/LiteOS_Lab_STM32_IoT/iot_link/network/dtls/mbedtls/mbedtls_port\dtls_interface.c **** int dtls_accept( mbedtls_net_context *bind_ctx,
 561:c:/Users/lenovo/Desktop/AIoT/first_day/firstday_afternoon/LiteOS_Lab_STM32_IoT/iot_link/network/dtls/mbedtls/mbedtls_port\dtls_interface.c ****                 mbedtls_net_context *client_ctx,
 562:c:/Users/lenovo/Desktop/AIoT/first_day/firstday_afternoon/LiteOS_Lab_STM32_IoT/iot_link/network/dtls/mbedtls/mbedtls_port\dtls_interface.c ****                 void *client_ip, size_t buf_size, size_t *ip_len )
 563:c:/Users/lenovo/Desktop/AIoT/first_day/firstday_afternoon/LiteOS_Lab_STM32_IoT/iot_link/network/dtls/mbedtls/mbedtls_port\dtls_interface.c **** {
 1069              		.loc 1 563 1
 1070              		.cfi_startproc
 1071              		@ args = 4, pretend = 0, frame = 16
 1072              		@ frame_needed = 1, uses_anonymous_args = 0
 1073 0000 80B5     		push	{r7, lr}
 1074              	.LCFI27:
 1075              		.cfi_def_cfa_offset 8
 1076              		.cfi_offset 7, -8
 1077              		.cfi_offset 14, -4
 1078 0002 86B0     		sub	sp, sp, #24
 1079              	.LCFI28:
 1080              		.cfi_def_cfa_offset 32
 1081 0004 02AF     		add	r7, sp, #8
 1082              	.LCFI29:
 1083              		.cfi_def_cfa 7, 24
 1084 0006 F860     		str	r0, [r7, #12]
 1085 0008 B960     		str	r1, [r7, #8]
 1086 000a 7A60     		str	r2, [r7, #4]
 1087 000c 3B60     		str	r3, [r7]
 564:c:/Users/lenovo/Desktop/AIoT/first_day/firstday_afternoon/LiteOS_Lab_STM32_IoT/iot_link/network/dtls/mbedtls/mbedtls_port\dtls_interface.c ****     return mbedtls_net_accept(bind_ctx, client_ctx, client_ip, buf_size, ip_len);
 1088              		.loc 1 564 12
 1089 000e BB69     		ldr	r3, [r7, #24]
 1090 0010 0093     		str	r3, [sp]
 1091 0012 3B68     		ldr	r3, [r7]
 1092 0014 7A68     		ldr	r2, [r7, #4]
 1093 0016 B968     		ldr	r1, [r7, #8]
 1094 0018 F868     		ldr	r0, [r7, #12]
 1095 001a FFF7FEFF 		bl	mbedtls_net_accept
 1096 001e 0346     		mov	r3, r0
 565:c:/Users/lenovo/Desktop/AIoT/first_day/firstday_afternoon/LiteOS_Lab_STM32_IoT/iot_link/network/dtls/mbedtls/mbedtls_port\dtls_interface.c **** }
 1097              		.loc 1 565 1
ARM GAS  C:\Users\lenovo\AppData\Local\Temp\cc80CgBz.s 			page 31


 1098 0020 1846     		mov	r0, r3
 1099 0022 1037     		adds	r7, r7, #16
 1100              	.LCFI30:
 1101              		.cfi_def_cfa_offset 8
 1102 0024 BD46     		mov	sp, r7
 1103              	.LCFI31:
 1104              		.cfi_def_cfa_register 13
 1105              		@ sp needed
 1106 0026 80BD     		pop	{r7, pc}
 1107              		.cfi_endproc
 1108              	.LFE22:
 1110              		.section	.text.dtls_init,"ax",%progbits
 1111              		.align	1
 1112              		.global	dtls_init
 1113              		.syntax unified
 1114              		.thumb
 1115              		.thumb_func
 1116              		.fpu fpv4-sp-d16
 1118              	dtls_init:
 1119              	.LFB23:
 566:c:/Users/lenovo/Desktop/AIoT/first_day/firstday_afternoon/LiteOS_Lab_STM32_IoT/iot_link/network/dtls/mbedtls/mbedtls_port\dtls_interface.c **** 
 567:c:/Users/lenovo/Desktop/AIoT/first_day/firstday_afternoon/LiteOS_Lab_STM32_IoT/iot_link/network/dtls/mbedtls/mbedtls_port\dtls_interface.c **** void dtls_init(void)
 568:c:/Users/lenovo/Desktop/AIoT/first_day/firstday_afternoon/LiteOS_Lab_STM32_IoT/iot_link/network/dtls/mbedtls/mbedtls_port\dtls_interface.c **** {
 1120              		.loc 1 568 1
 1121              		.cfi_startproc
 1122              		@ args = 0, pretend = 0, frame = 0
 1123              		@ frame_needed = 1, uses_anonymous_args = 0
 1124 0000 80B5     		push	{r7, lr}
 1125              	.LCFI32:
 1126              		.cfi_def_cfa_offset 8
 1127              		.cfi_offset 7, -8
 1128              		.cfi_offset 14, -4
 1129 0002 00AF     		add	r7, sp, #0
 1130              	.LCFI33:
 1131              		.cfi_def_cfa_register 7
 569:c:/Users/lenovo/Desktop/AIoT/first_day/firstday_afternoon/LiteOS_Lab_STM32_IoT/iot_link/network/dtls/mbedtls/mbedtls_port\dtls_interface.c ****     (void)mbedtls_platform_set_calloc_free(osal_calloc, osal_free);
 1132              		.loc 1 569 11
 1133 0004 0549     		ldr	r1, .L67
 1134 0006 0648     		ldr	r0, .L67+4
 1135 0008 FFF7FEFF 		bl	mbedtls_platform_set_calloc_free
 570:c:/Users/lenovo/Desktop/AIoT/first_day/firstday_afternoon/LiteOS_Lab_STM32_IoT/iot_link/network/dtls/mbedtls/mbedtls_port\dtls_interface.c ****     (void)mbedtls_platform_set_snprintf(snprintf);
 1136              		.loc 1 570 11
 1137 000c 0548     		ldr	r0, .L67+8
 1138 000e FFF7FEFF 		bl	mbedtls_platform_set_snprintf
 571:c:/Users/lenovo/Desktop/AIoT/first_day/firstday_afternoon/LiteOS_Lab_STM32_IoT/iot_link/network/dtls/mbedtls/mbedtls_port\dtls_interface.c ****     (void)mbedtls_platform_set_printf(printf);
 1139              		.loc 1 571 11
 1140 0012 0548     		ldr	r0, .L67+12
 1141 0014 FFF7FEFF 		bl	mbedtls_platform_set_printf
 572:c:/Users/lenovo/Desktop/AIoT/first_day/firstday_afternoon/LiteOS_Lab_STM32_IoT/iot_link/network/dtls/mbedtls/mbedtls_port\dtls_interface.c **** }
 1142              		.loc 1 572 1
 1143 0018 00BF     		nop
 1144 001a 80BD     		pop	{r7, pc}
 1145              	.L68:
 1146              		.align	2
 1147              	.L67:
 1148 001c 00000000 		.word	osal_free
 1149 0020 00000000 		.word	osal_calloc
ARM GAS  C:\Users\lenovo\AppData\Local\Temp\cc80CgBz.s 			page 32


 1150 0024 00000000 		.word	snprintf
 1151 0028 00000000 		.word	printf
 1152              		.cfi_endproc
 1153              	.LFE23:
 1155              		.section	.rodata.__FUNCTION__.9396,"a"
 1156              		.align	2
 1159              	__FUNCTION__.9396:
 1160 0000 64746C73 		.ascii	"dtls_ssl_new\000"
 1160      5F73736C 
 1160      5F6E6577 
 1160      00
 1161              		.section	.rodata.__FUNCTION__.9407,"a"
 1162              		.align	2
 1165              	__FUNCTION__.9407:
 1166 0000 64746C73 		.ascii	"dtls_shakehand\000"
 1166      5F736861 
 1166      6B656861 
 1166      6E6400
 1167              		.text
 1168              	.Letext0:
 1169              		.file 2 "c:\\users\\lenovo\\.iotlink\\tools\\gcc-arm-none-eabi\\arm-none-eabi\\include\\machine\\_
 1170              		.file 3 "c:\\users\\lenovo\\.iotlink\\tools\\gcc-arm-none-eabi\\lib\\gcc\\arm-none-eabi\\9.2.1\\in
 1171              		.file 4 "c:\\users\\lenovo\\.iotlink\\tools\\gcc-arm-none-eabi\\arm-none-eabi\\include\\sys\\lock.
 1172              		.file 5 "c:\\users\\lenovo\\.iotlink\\tools\\gcc-arm-none-eabi\\arm-none-eabi\\include\\sys\\_type
 1173              		.file 6 "c:\\users\\lenovo\\.iotlink\\tools\\gcc-arm-none-eabi\\arm-none-eabi\\include\\sys\\reent
 1174              		.file 7 "c:\\users\\lenovo\\.iotlink\\tools\\gcc-arm-none-eabi\\arm-none-eabi\\include\\sys\\_stdi
 1175              		.file 8 "c:\\users\\lenovo\\.iotlink\\tools\\gcc-arm-none-eabi\\arm-none-eabi\\include\\stdlib.h"
 1176              		.file 9 "c:\\users\\lenovo\\.iotlink\\tools\\gcc-arm-none-eabi\\arm-none-eabi\\include\\time.h"
 1177              		.file 10 "c:/Users/lenovo/Desktop/AIoT/first_day/firstday_afternoon/LiteOS_Lab_STM32_IoT/iot_link/
 1178              		.file 11 "c:/Users/lenovo/Desktop/AIoT/first_day/firstday_afternoon/LiteOS_Lab_STM32_IoT/iot_link/
 1179              		.file 12 "c:/Users/lenovo/Desktop/AIoT/first_day/firstday_afternoon/LiteOS_Lab_STM32_IoT/iot_link/
 1180              		.file 13 "c:/Users/lenovo/Desktop/AIoT/first_day/firstday_afternoon/LiteOS_Lab_STM32_IoT/iot_link/
 1181              		.file 14 "c:/Users/lenovo/Desktop/AIoT/first_day/firstday_afternoon/LiteOS_Lab_STM32_IoT/iot_link/
 1182              		.file 15 "c:/Users/lenovo/Desktop/AIoT/first_day/firstday_afternoon/LiteOS_Lab_STM32_IoT/iot_link/
 1183              		.file 16 "c:/Users/lenovo/Desktop/AIoT/first_day/firstday_afternoon/LiteOS_Lab_STM32_IoT/iot_link/
 1184              		.file 17 "c:/Users/lenovo/Desktop/AIoT/first_day/firstday_afternoon/LiteOS_Lab_STM32_IoT/iot_link/
 1185              		.file 18 "c:/Users/lenovo/Desktop/AIoT/first_day/firstday_afternoon/LiteOS_Lab_STM32_IoT/iot_link/
 1186              		.file 19 "c:/Users/lenovo/Desktop/AIoT/first_day/firstday_afternoon/LiteOS_Lab_STM32_IoT/iot_link/
 1187              		.file 20 "c:/Users/lenovo/Desktop/AIoT/first_day/firstday_afternoon/LiteOS_Lab_STM32_IoT/iot_link/
 1188              		.file 21 "c:/Users/lenovo/Desktop/AIoT/first_day/firstday_afternoon/LiteOS_Lab_STM32_IoT/iot_link/
 1189              		.file 22 "c:/Users/lenovo/Desktop/AIoT/first_day/firstday_afternoon/LiteOS_Lab_STM32_IoT/iot_link/
ARM GAS  C:\Users\lenovo\AppData\Local\Temp\cc80CgBz.s 			page 33

