ARM GAS  C:\Users\lenovo\AppData\Local\Temp\cc815I9s.s 			page 1


   1              		.cpu cortex-m4
   2              		.eabi_attribute 27, 1
   3              		.eabi_attribute 28, 1
   4              		.eabi_attribute 20, 1
   5              		.eabi_attribute 21, 1
   6              		.eabi_attribute 23, 3
   7              		.eabi_attribute 24, 1
   8              		.eabi_attribute 25, 1
   9              		.eabi_attribute 26, 1
  10              		.eabi_attribute 30, 6
  11              		.eabi_attribute 34, 1
  12              		.eabi_attribute 18, 4
  13              		.file	"esp8266_socket_imp.c"
  14              		.text
  15              	.Ltext0:
  16              		.cfi_sections	.debug_frame
  17              		.section	.bss.s_esp8266_sock_cb,"aw",%nobits
  18              		.align	2
  21              	s_esp8266_sock_cb:
  22 0000 00000000 		.space	3640
  22      00000000 
  22      00000000 
  22      00000000 
  22      00000000 
  23              		.section	.text.esp8266_atcmd,"ax",%progbits
  24              		.align	1
  25              		.arch armv7e-m
  26              		.syntax unified
  27              		.thumb
  28              		.thumb_func
  29              		.fpu fpv4-sp-d16
  31              	esp8266_atcmd:
  32              	.LFB3:
  33              		.file 1 "c:/Users/lenovo/Desktop/AIoT/first_day/firstday_afternoon/LiteOS_Lab_STM32_IoT/iot_link/n
   1:c:/Users/lenovo/Desktop/AIoT/first_day/firstday_afternoon/LiteOS_Lab_STM32_IoT/iot_link/network/tcpip/esp8266_socket\esp8266_socket_imp.c **** /*----------------------------------------------------------------------------
   2:c:/Users/lenovo/Desktop/AIoT/first_day/firstday_afternoon/LiteOS_Lab_STM32_IoT/iot_link/network/tcpip/esp8266_socket\esp8266_socket_imp.c ****  * Copyright (c) <2018>, <Huawei Technologies Co., Ltd>
   3:c:/Users/lenovo/Desktop/AIoT/first_day/firstday_afternoon/LiteOS_Lab_STM32_IoT/iot_link/network/tcpip/esp8266_socket\esp8266_socket_imp.c ****  * All rights reserved.
   4:c:/Users/lenovo/Desktop/AIoT/first_day/firstday_afternoon/LiteOS_Lab_STM32_IoT/iot_link/network/tcpip/esp8266_socket\esp8266_socket_imp.c ****  * Redistribution and use in source and binary forms, with or without modification,
   5:c:/Users/lenovo/Desktop/AIoT/first_day/firstday_afternoon/LiteOS_Lab_STM32_IoT/iot_link/network/tcpip/esp8266_socket\esp8266_socket_imp.c ****  * are permitted provided that the following conditions are met:
   6:c:/Users/lenovo/Desktop/AIoT/first_day/firstday_afternoon/LiteOS_Lab_STM32_IoT/iot_link/network/tcpip/esp8266_socket\esp8266_socket_imp.c ****  * 1. Redistributions of source code must retain the above copyright notice, this list of
   7:c:/Users/lenovo/Desktop/AIoT/first_day/firstday_afternoon/LiteOS_Lab_STM32_IoT/iot_link/network/tcpip/esp8266_socket\esp8266_socket_imp.c ****  * conditions and the following disclaimer.
   8:c:/Users/lenovo/Desktop/AIoT/first_day/firstday_afternoon/LiteOS_Lab_STM32_IoT/iot_link/network/tcpip/esp8266_socket\esp8266_socket_imp.c ****  * 2. Redistributions in binary form must reproduce the above copyright notice, this list
   9:c:/Users/lenovo/Desktop/AIoT/first_day/firstday_afternoon/LiteOS_Lab_STM32_IoT/iot_link/network/tcpip/esp8266_socket\esp8266_socket_imp.c ****  * of conditions and the following disclaimer in the documentation and/or other materials
  10:c:/Users/lenovo/Desktop/AIoT/first_day/firstday_afternoon/LiteOS_Lab_STM32_IoT/iot_link/network/tcpip/esp8266_socket\esp8266_socket_imp.c ****  * provided with the distribution.
  11:c:/Users/lenovo/Desktop/AIoT/first_day/firstday_afternoon/LiteOS_Lab_STM32_IoT/iot_link/network/tcpip/esp8266_socket\esp8266_socket_imp.c ****  * 3. Neither the name of the copyright holder nor the names of its contributors may be used
  12:c:/Users/lenovo/Desktop/AIoT/first_day/firstday_afternoon/LiteOS_Lab_STM32_IoT/iot_link/network/tcpip/esp8266_socket\esp8266_socket_imp.c ****  * to endorse or promote products derived from this software without specific prior written
  13:c:/Users/lenovo/Desktop/AIoT/first_day/firstday_afternoon/LiteOS_Lab_STM32_IoT/iot_link/network/tcpip/esp8266_socket\esp8266_socket_imp.c ****  * permission.
  14:c:/Users/lenovo/Desktop/AIoT/first_day/firstday_afternoon/LiteOS_Lab_STM32_IoT/iot_link/network/tcpip/esp8266_socket\esp8266_socket_imp.c ****  * THIS SOFTWARE IS PROVIDED BY THE COPYRIGHT HOLDERS AND CONTRIBUTORS
  15:c:/Users/lenovo/Desktop/AIoT/first_day/firstday_afternoon/LiteOS_Lab_STM32_IoT/iot_link/network/tcpip/esp8266_socket\esp8266_socket_imp.c ****  * "AS IS" AND ANY EXPRESS OR IMPLIED WARRANTIES, INCLUDING, BUT NOT LIMITED TO,
  16:c:/Users/lenovo/Desktop/AIoT/first_day/firstday_afternoon/LiteOS_Lab_STM32_IoT/iot_link/network/tcpip/esp8266_socket\esp8266_socket_imp.c ****  * THE IMPLIED WARRANTIES OF MERCHANTABILITY AND FITNESS FOR A PARTICULAR
  17:c:/Users/lenovo/Desktop/AIoT/first_day/firstday_afternoon/LiteOS_Lab_STM32_IoT/iot_link/network/tcpip/esp8266_socket\esp8266_socket_imp.c ****  * PURPOSE ARE DISCLAIMED. IN NO EVENT SHALL THE COPYRIGHT HOLDER OR
  18:c:/Users/lenovo/Desktop/AIoT/first_day/firstday_afternoon/LiteOS_Lab_STM32_IoT/iot_link/network/tcpip/esp8266_socket\esp8266_socket_imp.c ****  * CONTRIBUTORS BE LIABLE FOR ANY DIRECT, INDIRECT, INCIDENTAL, SPECIAL,
  19:c:/Users/lenovo/Desktop/AIoT/first_day/firstday_afternoon/LiteOS_Lab_STM32_IoT/iot_link/network/tcpip/esp8266_socket\esp8266_socket_imp.c ****  * EXEMPLARY, OR CONSEQUENTIAL DAMAGES (INCLUDING, BUT NOT LIMITED TO,
  20:c:/Users/lenovo/Desktop/AIoT/first_day/firstday_afternoon/LiteOS_Lab_STM32_IoT/iot_link/network/tcpip/esp8266_socket\esp8266_socket_imp.c ****  * PROCUREMENT OF SUBSTITUTE GOODS OR SERVICES; LOSS OF USE, DATA, OR PROFITS;
  21:c:/Users/lenovo/Desktop/AIoT/first_day/firstday_afternoon/LiteOS_Lab_STM32_IoT/iot_link/network/tcpip/esp8266_socket\esp8266_socket_imp.c ****  * OR BUSINESS INTERRUPTION) HOWEVER CAUSED AND ON ANY THEORY OF LIABILITY,
  22:c:/Users/lenovo/Desktop/AIoT/first_day/firstday_afternoon/LiteOS_Lab_STM32_IoT/iot_link/network/tcpip/esp8266_socket\esp8266_socket_imp.c ****  * WHETHER IN CONTRACT, STRICT LIABILITY, OR TORT (INCLUDING NEGLIGENCE OR
  23:c:/Users/lenovo/Desktop/AIoT/first_day/firstday_afternoon/LiteOS_Lab_STM32_IoT/iot_link/network/tcpip/esp8266_socket\esp8266_socket_imp.c ****  * OTHERWISE) ARISING IN ANY WAY OUT OF THE USE OF THIS SOFTWARE, EVEN IF
ARM GAS  C:\Users\lenovo\AppData\Local\Temp\cc815I9s.s 			page 2


  24:c:/Users/lenovo/Desktop/AIoT/first_day/firstday_afternoon/LiteOS_Lab_STM32_IoT/iot_link/network/tcpip/esp8266_socket\esp8266_socket_imp.c ****  * ADVISED OF THE POSSIBILITY OF SUCH DAMAGE.
  25:c:/Users/lenovo/Desktop/AIoT/first_day/firstday_afternoon/LiteOS_Lab_STM32_IoT/iot_link/network/tcpip/esp8266_socket\esp8266_socket_imp.c ****  *---------------------------------------------------------------------------*/
  26:c:/Users/lenovo/Desktop/AIoT/first_day/firstday_afternoon/LiteOS_Lab_STM32_IoT/iot_link/network/tcpip/esp8266_socket\esp8266_socket_imp.c **** /*----------------------------------------------------------------------------
  27:c:/Users/lenovo/Desktop/AIoT/first_day/firstday_afternoon/LiteOS_Lab_STM32_IoT/iot_link/network/tcpip/esp8266_socket\esp8266_socket_imp.c ****  * Notice of Export Control Law
  28:c:/Users/lenovo/Desktop/AIoT/first_day/firstday_afternoon/LiteOS_Lab_STM32_IoT/iot_link/network/tcpip/esp8266_socket\esp8266_socket_imp.c ****  * ===============================================
  29:c:/Users/lenovo/Desktop/AIoT/first_day/firstday_afternoon/LiteOS_Lab_STM32_IoT/iot_link/network/tcpip/esp8266_socket\esp8266_socket_imp.c ****  * Huawei LiteOS may be subject to applicable export control laws and regulations, which might
  30:c:/Users/lenovo/Desktop/AIoT/first_day/firstday_afternoon/LiteOS_Lab_STM32_IoT/iot_link/network/tcpip/esp8266_socket\esp8266_socket_imp.c ****  * include those applicable to Huawei LiteOS of U.S. and the country in which you are located.
  31:c:/Users/lenovo/Desktop/AIoT/first_day/firstday_afternoon/LiteOS_Lab_STM32_IoT/iot_link/network/tcpip/esp8266_socket\esp8266_socket_imp.c ****  * Import, export and usage of Huawei LiteOS in any manner by you shall be in compliance with such
  32:c:/Users/lenovo/Desktop/AIoT/first_day/firstday_afternoon/LiteOS_Lab_STM32_IoT/iot_link/network/tcpip/esp8266_socket\esp8266_socket_imp.c ****  * applicable export control laws and regulations.
  33:c:/Users/lenovo/Desktop/AIoT/first_day/firstday_afternoon/LiteOS_Lab_STM32_IoT/iot_link/network/tcpip/esp8266_socket\esp8266_socket_imp.c ****  *---------------------------------------------------------------------------*/
  34:c:/Users/lenovo/Desktop/AIoT/first_day/firstday_afternoon/LiteOS_Lab_STM32_IoT/iot_link/network/tcpip/esp8266_socket\esp8266_socket_imp.c **** /**
  35:c:/Users/lenovo/Desktop/AIoT/first_day/firstday_afternoon/LiteOS_Lab_STM32_IoT/iot_link/network/tcpip/esp8266_socket\esp8266_socket_imp.c ****  *  DATE                AUTHOR      INSTRUCTION
  36:c:/Users/lenovo/Desktop/AIoT/first_day/firstday_afternoon/LiteOS_Lab_STM32_IoT/iot_link/network/tcpip/esp8266_socket\esp8266_socket_imp.c ****  *  2019-08-5 15:09    yuhengP     The first version
  37:c:/Users/lenovo/Desktop/AIoT/first_day/firstday_afternoon/LiteOS_Lab_STM32_IoT/iot_link/network/tcpip/esp8266_socket\esp8266_socket_imp.c ****  *
  38:c:/Users/lenovo/Desktop/AIoT/first_day/firstday_afternoon/LiteOS_Lab_STM32_IoT/iot_link/network/tcpip/esp8266_socket\esp8266_socket_imp.c ****  */
  39:c:/Users/lenovo/Desktop/AIoT/first_day/firstday_afternoon/LiteOS_Lab_STM32_IoT/iot_link/network/tcpip/esp8266_socket\esp8266_socket_imp.c **** 
  40:c:/Users/lenovo/Desktop/AIoT/first_day/firstday_afternoon/LiteOS_Lab_STM32_IoT/iot_link/network/tcpip/esp8266_socket\esp8266_socket_imp.c **** #include <stdio.h>
  41:c:/Users/lenovo/Desktop/AIoT/first_day/firstday_afternoon/LiteOS_Lab_STM32_IoT/iot_link/network/tcpip/esp8266_socket\esp8266_socket_imp.c **** #include <string.h>
  42:c:/Users/lenovo/Desktop/AIoT/first_day/firstday_afternoon/LiteOS_Lab_STM32_IoT/iot_link/network/tcpip/esp8266_socket\esp8266_socket_imp.c **** #include <unistd.h>
  43:c:/Users/lenovo/Desktop/AIoT/first_day/firstday_afternoon/LiteOS_Lab_STM32_IoT/iot_link/network/tcpip/esp8266_socket\esp8266_socket_imp.c **** 
  44:c:/Users/lenovo/Desktop/AIoT/first_day/firstday_afternoon/LiteOS_Lab_STM32_IoT/iot_link/network/tcpip/esp8266_socket\esp8266_socket_imp.c **** #include <sal.h>
  45:c:/Users/lenovo/Desktop/AIoT/first_day/firstday_afternoon/LiteOS_Lab_STM32_IoT/iot_link/network/tcpip/esp8266_socket\esp8266_socket_imp.c **** #include <sal_imp.h>
  46:c:/Users/lenovo/Desktop/AIoT/first_day/firstday_afternoon/LiteOS_Lab_STM32_IoT/iot_link/network/tcpip/esp8266_socket\esp8266_socket_imp.c **** #include <sal_define.h>
  47:c:/Users/lenovo/Desktop/AIoT/first_day/firstday_afternoon/LiteOS_Lab_STM32_IoT/iot_link/network/tcpip/esp8266_socket\esp8266_socket_imp.c **** #include <sal_types.h>
  48:c:/Users/lenovo/Desktop/AIoT/first_day/firstday_afternoon/LiteOS_Lab_STM32_IoT/iot_link/network/tcpip/esp8266_socket\esp8266_socket_imp.c **** #include <at.h>
  49:c:/Users/lenovo/Desktop/AIoT/first_day/firstday_afternoon/LiteOS_Lab_STM32_IoT/iot_link/network/tcpip/esp8266_socket\esp8266_socket_imp.c **** #include <link_misc.h>
  50:c:/Users/lenovo/Desktop/AIoT/first_day/firstday_afternoon/LiteOS_Lab_STM32_IoT/iot_link/network/tcpip/esp8266_socket\esp8266_socket_imp.c **** #include <link_endian.h>
  51:c:/Users/lenovo/Desktop/AIoT/first_day/firstday_afternoon/LiteOS_Lab_STM32_IoT/iot_link/network/tcpip/esp8266_socket\esp8266_socket_imp.c **** #include <osal.h>
  52:c:/Users/lenovo/Desktop/AIoT/first_day/firstday_afternoon/LiteOS_Lab_STM32_IoT/iot_link/network/tcpip/esp8266_socket\esp8266_socket_imp.c **** #include <iot_link_config.h>
  53:c:/Users/lenovo/Desktop/AIoT/first_day/firstday_afternoon/LiteOS_Lab_STM32_IoT/iot_link/network/tcpip/esp8266_socket\esp8266_socket_imp.c **** 
  54:c:/Users/lenovo/Desktop/AIoT/first_day/firstday_afternoon/LiteOS_Lab_STM32_IoT/iot_link/network/tcpip/esp8266_socket\esp8266_socket_imp.c **** ///<anyway ,you should change it to the same as your hot point
  55:c:/Users/lenovo/Desktop/AIoT/first_day/firstday_afternoon/LiteOS_Lab_STM32_IoT/iot_link/network/tcpip/esp8266_socket\esp8266_socket_imp.c **** #ifndef CONFIG_WIFI_SSID
  56:c:/Users/lenovo/Desktop/AIoT/first_day/firstday_afternoon/LiteOS_Lab_STM32_IoT/iot_link/network/tcpip/esp8266_socket\esp8266_socket_imp.c **** #define CONFIG_WIFI_SSID     "nova"
  57:c:/Users/lenovo/Desktop/AIoT/first_day/firstday_afternoon/LiteOS_Lab_STM32_IoT/iot_link/network/tcpip/esp8266_socket\esp8266_socket_imp.c **** #define CONFIG_WIFI_PASSWD   "123457789"
  58:c:/Users/lenovo/Desktop/AIoT/first_day/firstday_afternoon/LiteOS_Lab_STM32_IoT/iot_link/network/tcpip/esp8266_socket\esp8266_socket_imp.c **** #endif
  59:c:/Users/lenovo/Desktop/AIoT/first_day/firstday_afternoon/LiteOS_Lab_STM32_IoT/iot_link/network/tcpip/esp8266_socket\esp8266_socket_imp.c **** 
  60:c:/Users/lenovo/Desktop/AIoT/first_day/firstday_afternoon/LiteOS_Lab_STM32_IoT/iot_link/network/tcpip/esp8266_socket\esp8266_socket_imp.c **** #define WIFI_SSID                 CONFIG_WIFI_SSID
  61:c:/Users/lenovo/Desktop/AIoT/first_day/firstday_afternoon/LiteOS_Lab_STM32_IoT/iot_link/network/tcpip/esp8266_socket\esp8266_socket_imp.c **** #define WIFI_PASSWD               CONFIG_WIFI_PASSWD
  62:c:/Users/lenovo/Desktop/AIoT/first_day/firstday_afternoon/LiteOS_Lab_STM32_IoT/iot_link/network/tcpip/esp8266_socket\esp8266_socket_imp.c **** 
  63:c:/Users/lenovo/Desktop/AIoT/first_day/firstday_afternoon/LiteOS_Lab_STM32_IoT/iot_link/network/tcpip/esp8266_socket\esp8266_socket_imp.c **** #define CN_ESP8266_CMDTIMEOUT    (6*1000)
  64:c:/Users/lenovo/Desktop/AIoT/first_day/firstday_afternoon/LiteOS_Lab_STM32_IoT/iot_link/network/tcpip/esp8266_socket\esp8266_socket_imp.c **** #define CN_ESP8266_RCVINDEX      "\r\n+IPD"
  65:c:/Users/lenovo/Desktop/AIoT/first_day/firstday_afternoon/LiteOS_Lab_STM32_IoT/iot_link/network/tcpip/esp8266_socket\esp8266_socket_imp.c **** #define CN_ESP8266_CACHELEN      (1800)
  66:c:/Users/lenovo/Desktop/AIoT/first_day/firstday_afternoon/LiteOS_Lab_STM32_IoT/iot_link/network/tcpip/esp8266_socket\esp8266_socket_imp.c **** 
  67:c:/Users/lenovo/Desktop/AIoT/first_day/firstday_afternoon/LiteOS_Lab_STM32_IoT/iot_link/network/tcpip/esp8266_socket\esp8266_socket_imp.c **** typedef struct
  68:c:/Users/lenovo/Desktop/AIoT/first_day/firstday_afternoon/LiteOS_Lab_STM32_IoT/iot_link/network/tcpip/esp8266_socket\esp8266_socket_imp.c **** {
  69:c:/Users/lenovo/Desktop/AIoT/first_day/firstday_afternoon/LiteOS_Lab_STM32_IoT/iot_link/network/tcpip/esp8266_socket\esp8266_socket_imp.c ****     int sockfd;
  70:c:/Users/lenovo/Desktop/AIoT/first_day/firstday_afternoon/LiteOS_Lab_STM32_IoT/iot_link/network/tcpip/esp8266_socket\esp8266_socket_imp.c ****     int domain;
  71:c:/Users/lenovo/Desktop/AIoT/first_day/firstday_afternoon/LiteOS_Lab_STM32_IoT/iot_link/network/tcpip/esp8266_socket\esp8266_socket_imp.c ****     int type;
  72:c:/Users/lenovo/Desktop/AIoT/first_day/firstday_afternoon/LiteOS_Lab_STM32_IoT/iot_link/network/tcpip/esp8266_socket\esp8266_socket_imp.c ****     int protocol;
  73:c:/Users/lenovo/Desktop/AIoT/first_day/firstday_afternoon/LiteOS_Lab_STM32_IoT/iot_link/network/tcpip/esp8266_socket\esp8266_socket_imp.c **** 
  74:c:/Users/lenovo/Desktop/AIoT/first_day/firstday_afternoon/LiteOS_Lab_STM32_IoT/iot_link/network/tcpip/esp8266_socket\esp8266_socket_imp.c ****     int isconnect;
  75:c:/Users/lenovo/Desktop/AIoT/first_day/firstday_afternoon/LiteOS_Lab_STM32_IoT/iot_link/network/tcpip/esp8266_socket\esp8266_socket_imp.c ****     unsigned int timeout;
  76:c:/Users/lenovo/Desktop/AIoT/first_day/firstday_afternoon/LiteOS_Lab_STM32_IoT/iot_link/network/tcpip/esp8266_socket\esp8266_socket_imp.c ****     tag_ring_buffer_t esp8266_rcvring;
  77:c:/Users/lenovo/Desktop/AIoT/first_day/firstday_afternoon/LiteOS_Lab_STM32_IoT/iot_link/network/tcpip/esp8266_socket\esp8266_socket_imp.c **** 
  78:c:/Users/lenovo/Desktop/AIoT/first_day/firstday_afternoon/LiteOS_Lab_STM32_IoT/iot_link/network/tcpip/esp8266_socket\esp8266_socket_imp.c ****     char oob_resp[CN_ESP8266_CACHELEN];
  79:c:/Users/lenovo/Desktop/AIoT/first_day/firstday_afternoon/LiteOS_Lab_STM32_IoT/iot_link/network/tcpip/esp8266_socket\esp8266_socket_imp.c ****     unsigned char esp8266_rcvbuf[CN_ESP8266_CACHELEN];
  80:c:/Users/lenovo/Desktop/AIoT/first_day/firstday_afternoon/LiteOS_Lab_STM32_IoT/iot_link/network/tcpip/esp8266_socket\esp8266_socket_imp.c **** }esp8266_sock_cb_t;
ARM GAS  C:\Users\lenovo\AppData\Local\Temp\cc815I9s.s 			page 3


  81:c:/Users/lenovo/Desktop/AIoT/first_day/firstday_afternoon/LiteOS_Lab_STM32_IoT/iot_link/network/tcpip/esp8266_socket\esp8266_socket_imp.c **** 
  82:c:/Users/lenovo/Desktop/AIoT/first_day/firstday_afternoon/LiteOS_Lab_STM32_IoT/iot_link/network/tcpip/esp8266_socket\esp8266_socket_imp.c **** static esp8266_sock_cb_t s_esp8266_sock_cb;
  83:c:/Users/lenovo/Desktop/AIoT/first_day/firstday_afternoon/LiteOS_Lab_STM32_IoT/iot_link/network/tcpip/esp8266_socket\esp8266_socket_imp.c **** 
  84:c:/Users/lenovo/Desktop/AIoT/first_day/firstday_afternoon/LiteOS_Lab_STM32_IoT/iot_link/network/tcpip/esp8266_socket\esp8266_socket_imp.c **** 
  85:c:/Users/lenovo/Desktop/AIoT/first_day/firstday_afternoon/LiteOS_Lab_STM32_IoT/iot_link/network/tcpip/esp8266_socket\esp8266_socket_imp.c **** typedef enum
  86:c:/Users/lenovo/Desktop/AIoT/first_day/firstday_afternoon/LiteOS_Lab_STM32_IoT/iot_link/network/tcpip/esp8266_socket\esp8266_socket_imp.c **** {
  87:c:/Users/lenovo/Desktop/AIoT/first_day/firstday_afternoon/LiteOS_Lab_STM32_IoT/iot_link/network/tcpip/esp8266_socket\esp8266_socket_imp.c ****     STA = 1,
  88:c:/Users/lenovo/Desktop/AIoT/first_day/firstday_afternoon/LiteOS_Lab_STM32_IoT/iot_link/network/tcpip/esp8266_socket\esp8266_socket_imp.c ****     AP,
  89:c:/Users/lenovo/Desktop/AIoT/first_day/firstday_afternoon/LiteOS_Lab_STM32_IoT/iot_link/network/tcpip/esp8266_socket\esp8266_socket_imp.c ****     STA_AP,
  90:c:/Users/lenovo/Desktop/AIoT/first_day/firstday_afternoon/LiteOS_Lab_STM32_IoT/iot_link/network/tcpip/esp8266_socket\esp8266_socket_imp.c **** }enum_net_mode;
  91:c:/Users/lenovo/Desktop/AIoT/first_day/firstday_afternoon/LiteOS_Lab_STM32_IoT/iot_link/network/tcpip/esp8266_socket\esp8266_socket_imp.c **** 
  92:c:/Users/lenovo/Desktop/AIoT/first_day/firstday_afternoon/LiteOS_Lab_STM32_IoT/iot_link/network/tcpip/esp8266_socket\esp8266_socket_imp.c **** //esp8266 common at command
  93:c:/Users/lenovo/Desktop/AIoT/first_day/firstday_afternoon/LiteOS_Lab_STM32_IoT/iot_link/network/tcpip/esp8266_socket\esp8266_socket_imp.c **** static bool_t esp8266_atcmd(const char *cmd,const char *index)
  94:c:/Users/lenovo/Desktop/AIoT/first_day/firstday_afternoon/LiteOS_Lab_STM32_IoT/iot_link/network/tcpip/esp8266_socket\esp8266_socket_imp.c **** {
  34              		.loc 1 94 1
  35              		.cfi_startproc
  36              		@ args = 0, pretend = 0, frame = 16
  37              		@ frame_needed = 1, uses_anonymous_args = 0
  38 0000 80B5     		push	{r7, lr}
  39              	.LCFI0:
  40              		.cfi_def_cfa_offset 8
  41              		.cfi_offset 7, -8
  42              		.cfi_offset 14, -4
  43 0002 86B0     		sub	sp, sp, #24
  44              	.LCFI1:
  45              		.cfi_def_cfa_offset 32
  46 0004 02AF     		add	r7, sp, #8
  47              	.LCFI2:
  48              		.cfi_def_cfa 7, 24
  49 0006 7860     		str	r0, [r7, #4]
  50 0008 3960     		str	r1, [r7]
  95:c:/Users/lenovo/Desktop/AIoT/first_day/firstday_afternoon/LiteOS_Lab_STM32_IoT/iot_link/network/tcpip/esp8266_socket\esp8266_socket_imp.c ****     int ret = 0;
  51              		.loc 1 95 9
  52 000a 0023     		movs	r3, #0
  53 000c FB60     		str	r3, [r7, #12]
  96:c:/Users/lenovo/Desktop/AIoT/first_day/firstday_afternoon/LiteOS_Lab_STM32_IoT/iot_link/network/tcpip/esp8266_socket\esp8266_socket_imp.c ****     ret = at_command((unsigned char *)cmd,strlen(cmd),index,NULL,0,CN_ESP8266_CMDTIMEOUT);
  54              		.loc 1 96 11
  55 000e 7868     		ldr	r0, [r7, #4]
  56 0010 FFF7FEFF 		bl	strlen
  57 0014 0146     		mov	r1, r0
  58 0016 41F27073 		movw	r3, #6000
  59 001a 0193     		str	r3, [sp, #4]
  60 001c 0023     		movs	r3, #0
  61 001e 0093     		str	r3, [sp]
  62 0020 0023     		movs	r3, #0
  63 0022 3A68     		ldr	r2, [r7]
  64 0024 7868     		ldr	r0, [r7, #4]
  65 0026 FFF7FEFF 		bl	at_command
  66 002a F860     		str	r0, [r7, #12]
  97:c:/Users/lenovo/Desktop/AIoT/first_day/firstday_afternoon/LiteOS_Lab_STM32_IoT/iot_link/network/tcpip/esp8266_socket\esp8266_socket_imp.c ****     if(ret >= 0)
  67              		.loc 1 97 7
  68 002c FB68     		ldr	r3, [r7, #12]
  69 002e 002B     		cmp	r3, #0
  70 0030 01DB     		blt	.L2
  98:c:/Users/lenovo/Desktop/AIoT/first_day/firstday_afternoon/LiteOS_Lab_STM32_IoT/iot_link/network/tcpip/esp8266_socket\esp8266_socket_imp.c ****     {
  99:c:/Users/lenovo/Desktop/AIoT/first_day/firstday_afternoon/LiteOS_Lab_STM32_IoT/iot_link/network/tcpip/esp8266_socket\esp8266_socket_imp.c ****         return true;
  71              		.loc 1 99 16
ARM GAS  C:\Users\lenovo\AppData\Local\Temp\cc815I9s.s 			page 4


  72 0032 0123     		movs	r3, #1
  73 0034 00E0     		b	.L3
  74              	.L2:
 100:c:/Users/lenovo/Desktop/AIoT/first_day/firstday_afternoon/LiteOS_Lab_STM32_IoT/iot_link/network/tcpip/esp8266_socket\esp8266_socket_imp.c ****     }
 101:c:/Users/lenovo/Desktop/AIoT/first_day/firstday_afternoon/LiteOS_Lab_STM32_IoT/iot_link/network/tcpip/esp8266_socket\esp8266_socket_imp.c ****     else
 102:c:/Users/lenovo/Desktop/AIoT/first_day/firstday_afternoon/LiteOS_Lab_STM32_IoT/iot_link/network/tcpip/esp8266_socket\esp8266_socket_imp.c ****     {
 103:c:/Users/lenovo/Desktop/AIoT/first_day/firstday_afternoon/LiteOS_Lab_STM32_IoT/iot_link/network/tcpip/esp8266_socket\esp8266_socket_imp.c ****         return false;
  75              		.loc 1 103 16
  76 0036 0023     		movs	r3, #0
  77              	.L3:
 104:c:/Users/lenovo/Desktop/AIoT/first_day/firstday_afternoon/LiteOS_Lab_STM32_IoT/iot_link/network/tcpip/esp8266_socket\esp8266_socket_imp.c ****     }
 105:c:/Users/lenovo/Desktop/AIoT/first_day/firstday_afternoon/LiteOS_Lab_STM32_IoT/iot_link/network/tcpip/esp8266_socket\esp8266_socket_imp.c **** }
  78              		.loc 1 105 1
  79 0038 1846     		mov	r0, r3
  80 003a 1037     		adds	r7, r7, #16
  81              	.LCFI3:
  82              		.cfi_def_cfa_offset 8
  83 003c BD46     		mov	sp, r7
  84              	.LCFI4:
  85              		.cfi_def_cfa_register 13
  86              		@ sp needed
  87 003e 80BD     		pop	{r7, pc}
  88              		.cfi_endproc
  89              	.LFE3:
  91              		.section	.text.esp8266_atcmd_response,"ax",%progbits
  92              		.align	1
  93              		.syntax unified
  94              		.thumb
  95              		.thumb_func
  96              		.fpu fpv4-sp-d16
  98              	esp8266_atcmd_response:
  99              	.LFB4:
 106:c:/Users/lenovo/Desktop/AIoT/first_day/firstday_afternoon/LiteOS_Lab_STM32_IoT/iot_link/network/tcpip/esp8266_socket\esp8266_socket_imp.c **** 
 107:c:/Users/lenovo/Desktop/AIoT/first_day/firstday_afternoon/LiteOS_Lab_STM32_IoT/iot_link/network/tcpip/esp8266_socket\esp8266_socket_imp.c **** //at command  with response
 108:c:/Users/lenovo/Desktop/AIoT/first_day/firstday_afternoon/LiteOS_Lab_STM32_IoT/iot_link/network/tcpip/esp8266_socket\esp8266_socket_imp.c **** static bool_t esp8266_atcmd_response(const char *cmd,const char *index,char *buf, int len)
 109:c:/Users/lenovo/Desktop/AIoT/first_day/firstday_afternoon/LiteOS_Lab_STM32_IoT/iot_link/network/tcpip/esp8266_socket\esp8266_socket_imp.c **** {
 100              		.loc 1 109 1
 101              		.cfi_startproc
 102              		@ args = 0, pretend = 0, frame = 24
 103              		@ frame_needed = 1, uses_anonymous_args = 0
 104 0000 80B5     		push	{r7, lr}
 105              	.LCFI5:
 106              		.cfi_def_cfa_offset 8
 107              		.cfi_offset 7, -8
 108              		.cfi_offset 14, -4
 109 0002 88B0     		sub	sp, sp, #32
 110              	.LCFI6:
 111              		.cfi_def_cfa_offset 40
 112 0004 02AF     		add	r7, sp, #8
 113              	.LCFI7:
 114              		.cfi_def_cfa 7, 32
 115 0006 F860     		str	r0, [r7, #12]
 116 0008 B960     		str	r1, [r7, #8]
 117 000a 7A60     		str	r2, [r7, #4]
 118 000c 3B60     		str	r3, [r7]
 110:c:/Users/lenovo/Desktop/AIoT/first_day/firstday_afternoon/LiteOS_Lab_STM32_IoT/iot_link/network/tcpip/esp8266_socket\esp8266_socket_imp.c ****     int ret = 0;
 119              		.loc 1 110 9
ARM GAS  C:\Users\lenovo\AppData\Local\Temp\cc815I9s.s 			page 5


 120 000e 0023     		movs	r3, #0
 121 0010 7B61     		str	r3, [r7, #20]
 111:c:/Users/lenovo/Desktop/AIoT/first_day/firstday_afternoon/LiteOS_Lab_STM32_IoT/iot_link/network/tcpip/esp8266_socket\esp8266_socket_imp.c ****     ret = at_command((unsigned char *)cmd,strlen(cmd),index,(char *)buf,len,CN_ESP8266_CMDTIMEOUT);
 122              		.loc 1 111 11
 123 0012 F868     		ldr	r0, [r7, #12]
 124 0014 FFF7FEFF 		bl	strlen
 125 0018 0146     		mov	r1, r0
 126 001a 3B68     		ldr	r3, [r7]
 127 001c 41F27072 		movw	r2, #6000
 128 0020 0192     		str	r2, [sp, #4]
 129 0022 0093     		str	r3, [sp]
 130 0024 7B68     		ldr	r3, [r7, #4]
 131 0026 BA68     		ldr	r2, [r7, #8]
 132 0028 F868     		ldr	r0, [r7, #12]
 133 002a FFF7FEFF 		bl	at_command
 134 002e 7861     		str	r0, [r7, #20]
 112:c:/Users/lenovo/Desktop/AIoT/first_day/firstday_afternoon/LiteOS_Lab_STM32_IoT/iot_link/network/tcpip/esp8266_socket\esp8266_socket_imp.c ****     if(ret >= 0)
 135              		.loc 1 112 7
 136 0030 7B69     		ldr	r3, [r7, #20]
 137 0032 002B     		cmp	r3, #0
 138 0034 01DB     		blt	.L5
 113:c:/Users/lenovo/Desktop/AIoT/first_day/firstday_afternoon/LiteOS_Lab_STM32_IoT/iot_link/network/tcpip/esp8266_socket\esp8266_socket_imp.c ****     {
 114:c:/Users/lenovo/Desktop/AIoT/first_day/firstday_afternoon/LiteOS_Lab_STM32_IoT/iot_link/network/tcpip/esp8266_socket\esp8266_socket_imp.c ****         return true;
 139              		.loc 1 114 16
 140 0036 0123     		movs	r3, #1
 141 0038 00E0     		b	.L6
 142              	.L5:
 115:c:/Users/lenovo/Desktop/AIoT/first_day/firstday_afternoon/LiteOS_Lab_STM32_IoT/iot_link/network/tcpip/esp8266_socket\esp8266_socket_imp.c ****     }
 116:c:/Users/lenovo/Desktop/AIoT/first_day/firstday_afternoon/LiteOS_Lab_STM32_IoT/iot_link/network/tcpip/esp8266_socket\esp8266_socket_imp.c ****     else
 117:c:/Users/lenovo/Desktop/AIoT/first_day/firstday_afternoon/LiteOS_Lab_STM32_IoT/iot_link/network/tcpip/esp8266_socket\esp8266_socket_imp.c ****     {
 118:c:/Users/lenovo/Desktop/AIoT/first_day/firstday_afternoon/LiteOS_Lab_STM32_IoT/iot_link/network/tcpip/esp8266_socket\esp8266_socket_imp.c ****         return false;
 143              		.loc 1 118 16
 144 003a 0023     		movs	r3, #0
 145              	.L6:
 119:c:/Users/lenovo/Desktop/AIoT/first_day/firstday_afternoon/LiteOS_Lab_STM32_IoT/iot_link/network/tcpip/esp8266_socket\esp8266_socket_imp.c ****     }
 120:c:/Users/lenovo/Desktop/AIoT/first_day/firstday_afternoon/LiteOS_Lab_STM32_IoT/iot_link/network/tcpip/esp8266_socket\esp8266_socket_imp.c **** }
 146              		.loc 1 120 1
 147 003c 1846     		mov	r0, r3
 148 003e 1837     		adds	r7, r7, #24
 149              	.LCFI8:
 150              		.cfi_def_cfa_offset 8
 151 0040 BD46     		mov	sp, r7
 152              	.LCFI9:
 153              		.cfi_def_cfa_register 13
 154              		@ sp needed
 155 0042 80BD     		pop	{r7, pc}
 156              		.cfi_endproc
 157              	.LFE4:
 159              		.section	.rodata
 160              		.align	2
 161              	.LC0:
 162 0000 25733A69 		.ascii	"%s:invalid frame:%d byte:%s\012\015\000"
 162      6E76616C 
 162      69642066 
 162      72616D65 
 162      3A256420 
 163 001e 0000     		.align	2
ARM GAS  C:\Users\lenovo\AppData\Local\Temp\cc815I9s.s 			page 6


 164              	.LC1:
 165 0020 25733A66 		.ascii	"%s:format error\012\015\000"
 165      6F726D61 
 165      74206572 
 165      726F720A 
 165      0D00
 166              		.section	.text.esp8266_rcvdeal,"ax",%progbits
 167              		.align	1
 168              		.syntax unified
 169              		.thumb
 170              		.thumb_func
 171              		.fpu fpv4-sp-d16
 173              	esp8266_rcvdeal:
 174              	.LFB5:
 121:c:/Users/lenovo/Desktop/AIoT/first_day/firstday_afternoon/LiteOS_Lab_STM32_IoT/iot_link/network/tcpip/esp8266_socket\esp8266_socket_imp.c **** 
 122:c:/Users/lenovo/Desktop/AIoT/first_day/firstday_afternoon/LiteOS_Lab_STM32_IoT/iot_link/network/tcpip/esp8266_socket\esp8266_socket_imp.c **** static int esp8266_rcvdeal(void *args,void *msg,size_t len)
 123:c:/Users/lenovo/Desktop/AIoT/first_day/firstday_afternoon/LiteOS_Lab_STM32_IoT/iot_link/network/tcpip/esp8266_socket\esp8266_socket_imp.c **** {
 175              		.loc 1 123 1
 176              		.cfi_startproc
 177              		@ args = 0, pretend = 0, frame = 40
 178              		@ frame_needed = 1, uses_anonymous_args = 0
 179 0000 90B5     		push	{r4, r7, lr}
 180              	.LCFI10:
 181              		.cfi_def_cfa_offset 12
 182              		.cfi_offset 4, -12
 183              		.cfi_offset 7, -8
 184              		.cfi_offset 14, -4
 185 0002 8BB0     		sub	sp, sp, #44
 186              	.LCFI11:
 187              		.cfi_def_cfa_offset 56
 188 0004 00AF     		add	r7, sp, #0
 189              	.LCFI12:
 190              		.cfi_def_cfa_register 7
 191 0006 F860     		str	r0, [r7, #12]
 192 0008 B960     		str	r1, [r7, #8]
 193 000a 7A60     		str	r2, [r7, #4]
 124:c:/Users/lenovo/Desktop/AIoT/first_day/firstday_afternoon/LiteOS_Lab_STM32_IoT/iot_link/network/tcpip/esp8266_socket\esp8266_socket_imp.c ****     int ret = 0;
 194              		.loc 1 124 9
 195 000c 0023     		movs	r3, #0
 196 000e 7B62     		str	r3, [r7, #36]
 125:c:/Users/lenovo/Desktop/AIoT/first_day/firstday_afternoon/LiteOS_Lab_STM32_IoT/iot_link/network/tcpip/esp8266_socket\esp8266_socket_imp.c ****     unsigned short datalen;
 126:c:/Users/lenovo/Desktop/AIoT/first_day/firstday_afternoon/LiteOS_Lab_STM32_IoT/iot_link/network/tcpip/esp8266_socket\esp8266_socket_imp.c ****     char *data;
 127:c:/Users/lenovo/Desktop/AIoT/first_day/firstday_afternoon/LiteOS_Lab_STM32_IoT/iot_link/network/tcpip/esp8266_socket\esp8266_socket_imp.c ****     char  *str;
 128:c:/Users/lenovo/Desktop/AIoT/first_day/firstday_afternoon/LiteOS_Lab_STM32_IoT/iot_link/network/tcpip/esp8266_socket\esp8266_socket_imp.c ****     char  *data_nxt;
 129:c:/Users/lenovo/Desktop/AIoT/first_day/firstday_afternoon/LiteOS_Lab_STM32_IoT/iot_link/network/tcpip/esp8266_socket\esp8266_socket_imp.c **** 
 130:c:/Users/lenovo/Desktop/AIoT/first_day/firstday_afternoon/LiteOS_Lab_STM32_IoT/iot_link/network/tcpip/esp8266_socket\esp8266_socket_imp.c ****     data = msg;
 197              		.loc 1 130 10
 198 0010 BB68     		ldr	r3, [r7, #8]
 199 0012 FB61     		str	r3, [r7, #28]
 131:c:/Users/lenovo/Desktop/AIoT/first_day/firstday_afternoon/LiteOS_Lab_STM32_IoT/iot_link/network/tcpip/esp8266_socket\esp8266_socket_imp.c **** 
 132:c:/Users/lenovo/Desktop/AIoT/first_day/firstday_afternoon/LiteOS_Lab_STM32_IoT/iot_link/network/tcpip/esp8266_socket\esp8266_socket_imp.c ****     if(len <strlen(CN_ESP8266_RCVINDEX))
 200              		.loc 1 132 7
 201 0014 7B68     		ldr	r3, [r7, #4]
 202 0016 052B     		cmp	r3, #5
 203 0018 07D8     		bhi	.L8
 133:c:/Users/lenovo/Desktop/AIoT/first_day/firstday_afternoon/LiteOS_Lab_STM32_IoT/iot_link/network/tcpip/esp8266_socket\esp8266_socket_imp.c ****     {
 134:c:/Users/lenovo/Desktop/AIoT/first_day/firstday_afternoon/LiteOS_Lab_STM32_IoT/iot_link/network/tcpip/esp8266_socket\esp8266_socket_imp.c ****         printf("%s:invalid frame:%d byte:%s\n\r",__FUNCTION__,len,(char *)data);
ARM GAS  C:\Users\lenovo\AppData\Local\Temp\cc815I9s.s 			page 7


 204              		.loc 1 134 9
 205 001a FB69     		ldr	r3, [r7, #28]
 206 001c 7A68     		ldr	r2, [r7, #4]
 207 001e 6849     		ldr	r1, .L25
 208 0020 6848     		ldr	r0, .L25+4
 209 0022 FFF7FEFF 		bl	printf
 135:c:/Users/lenovo/Desktop/AIoT/first_day/firstday_afternoon/LiteOS_Lab_STM32_IoT/iot_link/network/tcpip/esp8266_socket\esp8266_socket_imp.c ****         return ret;
 210              		.loc 1 135 16
 211 0026 7B6A     		ldr	r3, [r7, #36]
 212 0028 C6E0     		b	.L24
 213              	.L8:
 136:c:/Users/lenovo/Desktop/AIoT/first_day/firstday_afternoon/LiteOS_Lab_STM32_IoT/iot_link/network/tcpip/esp8266_socket\esp8266_socket_imp.c ****     }
 137:c:/Users/lenovo/Desktop/AIoT/first_day/firstday_afternoon/LiteOS_Lab_STM32_IoT/iot_link/network/tcpip/esp8266_socket\esp8266_socket_imp.c ****     //now deal the data
 138:c:/Users/lenovo/Desktop/AIoT/first_day/firstday_afternoon/LiteOS_Lab_STM32_IoT/iot_link/network/tcpip/esp8266_socket\esp8266_socket_imp.c ****     str = strstr((char *)data,",");
 214              		.loc 1 138 11
 215 002a 2C21     		movs	r1, #44
 216 002c F869     		ldr	r0, [r7, #28]
 217 002e FFF7FEFF 		bl	strchr
 218 0032 3862     		str	r0, [r7, #32]
 139:c:/Users/lenovo/Desktop/AIoT/first_day/firstday_afternoon/LiteOS_Lab_STM32_IoT/iot_link/network/tcpip/esp8266_socket\esp8266_socket_imp.c ****     if(NULL == str)
 219              		.loc 1 139 7
 220 0034 3B6A     		ldr	r3, [r7, #32]
 221 0036 002B     		cmp	r3, #0
 222 0038 05D1     		bne	.L10
 140:c:/Users/lenovo/Desktop/AIoT/first_day/firstday_afternoon/LiteOS_Lab_STM32_IoT/iot_link/network/tcpip/esp8266_socket\esp8266_socket_imp.c ****     {
 141:c:/Users/lenovo/Desktop/AIoT/first_day/firstday_afternoon/LiteOS_Lab_STM32_IoT/iot_link/network/tcpip/esp8266_socket\esp8266_socket_imp.c ****         printf("%s:format error\n\r",__FUNCTION__);
 223              		.loc 1 141 9
 224 003a 6149     		ldr	r1, .L25
 225 003c 6248     		ldr	r0, .L25+8
 226 003e FFF7FEFF 		bl	printf
 142:c:/Users/lenovo/Desktop/AIoT/first_day/firstday_afternoon/LiteOS_Lab_STM32_IoT/iot_link/network/tcpip/esp8266_socket\esp8266_socket_imp.c ****         return ret; //format error
 227              		.loc 1 142 16
 228 0042 7B6A     		ldr	r3, [r7, #36]
 229 0044 B8E0     		b	.L24
 230              	.L10:
 143:c:/Users/lenovo/Desktop/AIoT/first_day/firstday_afternoon/LiteOS_Lab_STM32_IoT/iot_link/network/tcpip/esp8266_socket\esp8266_socket_imp.c ****     }
 144:c:/Users/lenovo/Desktop/AIoT/first_day/firstday_afternoon/LiteOS_Lab_STM32_IoT/iot_link/network/tcpip/esp8266_socket\esp8266_socket_imp.c ****     str++;
 231              		.loc 1 144 8
 232 0046 3B6A     		ldr	r3, [r7, #32]
 233 0048 0133     		adds	r3, r3, #1
 234 004a 3B62     		str	r3, [r7, #32]
 145:c:/Users/lenovo/Desktop/AIoT/first_day/firstday_afternoon/LiteOS_Lab_STM32_IoT/iot_link/network/tcpip/esp8266_socket\esp8266_socket_imp.c **** 
 146:c:/Users/lenovo/Desktop/AIoT/first_day/firstday_afternoon/LiteOS_Lab_STM32_IoT/iot_link/network/tcpip/esp8266_socket\esp8266_socket_imp.c ****     //TODO: mux = 1
 147:c:/Users/lenovo/Desktop/AIoT/first_day/firstday_afternoon/LiteOS_Lab_STM32_IoT/iot_link/network/tcpip/esp8266_socket\esp8266_socket_imp.c **** 
 148:c:/Users/lenovo/Desktop/AIoT/first_day/firstday_afternoon/LiteOS_Lab_STM32_IoT/iot_link/network/tcpip/esp8266_socket\esp8266_socket_imp.c ****     datalen = 0;
 235              		.loc 1 148 13
 236 004c 0023     		movs	r3, #0
 237 004e FB82     		strh	r3, [r7, #22]	@ movhi
 149:c:/Users/lenovo/Desktop/AIoT/first_day/firstday_afternoon/LiteOS_Lab_STM32_IoT/iot_link/network/tcpip/esp8266_socket\esp8266_socket_imp.c ****     for (; *str <= '9' && *str >= '0' ;str++)
 238              		.loc 1 149 5
 239 0050 10E0     		b	.L11
 240              	.L13:
 150:c:/Users/lenovo/Desktop/AIoT/first_day/firstday_afternoon/LiteOS_Lab_STM32_IoT/iot_link/network/tcpip/esp8266_socket\esp8266_socket_imp.c ****     {
 151:c:/Users/lenovo/Desktop/AIoT/first_day/firstday_afternoon/LiteOS_Lab_STM32_IoT/iot_link/network/tcpip/esp8266_socket\esp8266_socket_imp.c ****         datalen = (datalen * 10 + (*str - '0'));
 241              		.loc 1 151 33 discriminator 3
 242 0052 FB8A     		ldrh	r3, [r7, #22]
 243 0054 1A46     		mov	r2, r3	@ movhi
ARM GAS  C:\Users\lenovo\AppData\Local\Temp\cc815I9s.s 			page 8


 244 0056 9200     		lsls	r2, r2, #2
 245 0058 1344     		add	r3, r3, r2
 246 005a 5B00     		lsls	r3, r3, #1
 247 005c 9AB2     		uxth	r2, r3
 248              		.loc 1 151 36 discriminator 3
 249 005e 3B6A     		ldr	r3, [r7, #32]
 250 0060 1B78     		ldrb	r3, [r3]	@ zero_extendqisi2
 251 0062 9BB2     		uxth	r3, r3
 252              		.loc 1 151 33 discriminator 3
 253 0064 1344     		add	r3, r3, r2
 254 0066 9BB2     		uxth	r3, r3
 255 0068 303B     		subs	r3, r3, #48
 256 006a 9BB2     		uxth	r3, r3
 257              		.loc 1 151 17 discriminator 3
 258 006c FB82     		strh	r3, [r7, #22]	@ movhi
 149:c:/Users/lenovo/Desktop/AIoT/first_day/firstday_afternoon/LiteOS_Lab_STM32_IoT/iot_link/network/tcpip/esp8266_socket\esp8266_socket_imp.c ****     for (; *str <= '9' && *str >= '0' ;str++)
 259              		.loc 1 149 43 discriminator 3
 260 006e 3B6A     		ldr	r3, [r7, #32]
 261 0070 0133     		adds	r3, r3, #1
 262 0072 3B62     		str	r3, [r7, #32]
 263              	.L11:
 149:c:/Users/lenovo/Desktop/AIoT/first_day/firstday_afternoon/LiteOS_Lab_STM32_IoT/iot_link/network/tcpip/esp8266_socket\esp8266_socket_imp.c ****     for (; *str <= '9' && *str >= '0' ;str++)
 264              		.loc 1 149 12 discriminator 1
 265 0074 3B6A     		ldr	r3, [r7, #32]
 266 0076 1B78     		ldrb	r3, [r3]	@ zero_extendqisi2
 149:c:/Users/lenovo/Desktop/AIoT/first_day/firstday_afternoon/LiteOS_Lab_STM32_IoT/iot_link/network/tcpip/esp8266_socket\esp8266_socket_imp.c ****     for (; *str <= '9' && *str >= '0' ;str++)
 267              		.loc 1 149 5 discriminator 1
 268 0078 392B     		cmp	r3, #57
 269 007a 03D8     		bhi	.L12
 149:c:/Users/lenovo/Desktop/AIoT/first_day/firstday_afternoon/LiteOS_Lab_STM32_IoT/iot_link/network/tcpip/esp8266_socket\esp8266_socket_imp.c ****     for (; *str <= '9' && *str >= '0' ;str++)
 270              		.loc 1 149 27 discriminator 2
 271 007c 3B6A     		ldr	r3, [r7, #32]
 272 007e 1B78     		ldrb	r3, [r3]	@ zero_extendqisi2
 149:c:/Users/lenovo/Desktop/AIoT/first_day/firstday_afternoon/LiteOS_Lab_STM32_IoT/iot_link/network/tcpip/esp8266_socket\esp8266_socket_imp.c ****     for (; *str <= '9' && *str >= '0' ;str++)
 273              		.loc 1 149 24 discriminator 2
 274 0080 2F2B     		cmp	r3, #47
 275 0082 E6D8     		bhi	.L13
 276              	.L12:
 152:c:/Users/lenovo/Desktop/AIoT/first_day/firstday_afternoon/LiteOS_Lab_STM32_IoT/iot_link/network/tcpip/esp8266_socket\esp8266_socket_imp.c ****     }
 153:c:/Users/lenovo/Desktop/AIoT/first_day/firstday_afternoon/LiteOS_Lab_STM32_IoT/iot_link/network/tcpip/esp8266_socket\esp8266_socket_imp.c ****     str++;
 277              		.loc 1 153 8
 278 0084 3B6A     		ldr	r3, [r7, #32]
 279 0086 0133     		adds	r3, r3, #1
 280 0088 3B62     		str	r3, [r7, #32]
 154:c:/Users/lenovo/Desktop/AIoT/first_day/firstday_afternoon/LiteOS_Lab_STM32_IoT/iot_link/network/tcpip/esp8266_socket\esp8266_socket_imp.c **** 
 155:c:/Users/lenovo/Desktop/AIoT/first_day/firstday_afternoon/LiteOS_Lab_STM32_IoT/iot_link/network/tcpip/esp8266_socket\esp8266_socket_imp.c ****     data_nxt = str + datalen;
 281              		.loc 1 155 20
 282 008a FB8A     		ldrh	r3, [r7, #22]
 283 008c 1A46     		mov	r2, r3
 284              		.loc 1 155 14
 285 008e 3B6A     		ldr	r3, [r7, #32]
 286 0090 1344     		add	r3, r3, r2
 287 0092 BB61     		str	r3, [r7, #24]
 156:c:/Users/lenovo/Desktop/AIoT/first_day/firstday_afternoon/LiteOS_Lab_STM32_IoT/iot_link/network/tcpip/esp8266_socket\esp8266_socket_imp.c **** 
 157:c:/Users/lenovo/Desktop/AIoT/first_day/firstday_afternoon/LiteOS_Lab_STM32_IoT/iot_link/network/tcpip/esp8266_socket\esp8266_socket_imp.c ****     //now this is data payload
 158:c:/Users/lenovo/Desktop/AIoT/first_day/firstday_afternoon/LiteOS_Lab_STM32_IoT/iot_link/network/tcpip/esp8266_socket\esp8266_socket_imp.c ****     if(datalen > (CN_ESP8266_CACHELEN - ring_buffer_datalen(&s_esp8266_sock_cb.esp8266_rcvring)))
 288              		.loc 1 158 16
ARM GAS  C:\Users\lenovo\AppData\Local\Temp\cc815I9s.s 			page 9


 289 0094 FB8A     		ldrh	r3, [r7, #22]
 290 0096 1C46     		mov	r4, r3
 291              		.loc 1 158 41
 292 0098 4C48     		ldr	r0, .L25+12
 293 009a FFF7FEFF 		bl	ring_buffer_datalen
 294 009e 0346     		mov	r3, r0
 295              		.loc 1 158 39
 296 00a0 C3F5E163 		rsb	r3, r3, #1800
 297              		.loc 1 158 7
 298 00a4 9C42     		cmp	r4, r3
 299 00a6 01DD     		ble	.L14
 159:c:/Users/lenovo/Desktop/AIoT/first_day/firstday_afternoon/LiteOS_Lab_STM32_IoT/iot_link/network/tcpip/esp8266_socket\esp8266_socket_imp.c ****     {
 160:c:/Users/lenovo/Desktop/AIoT/first_day/firstday_afternoon/LiteOS_Lab_STM32_IoT/iot_link/network/tcpip/esp8266_socket\esp8266_socket_imp.c ****     	return 0;
 300              		.loc 1 160 13
 301 00a8 0023     		movs	r3, #0
 302 00aa 85E0     		b	.L24
 303              	.L14:
 161:c:/Users/lenovo/Desktop/AIoT/first_day/firstday_afternoon/LiteOS_Lab_STM32_IoT/iot_link/network/tcpip/esp8266_socket\esp8266_socket_imp.c ****     }
 162:c:/Users/lenovo/Desktop/AIoT/first_day/firstday_afternoon/LiteOS_Lab_STM32_IoT/iot_link/network/tcpip/esp8266_socket\esp8266_socket_imp.c **** 
 163:c:/Users/lenovo/Desktop/AIoT/first_day/firstday_afternoon/LiteOS_Lab_STM32_IoT/iot_link/network/tcpip/esp8266_socket\esp8266_socket_imp.c ****     if(s_esp8266_sock_cb.type == SOCK_DGRAM)
 304              		.loc 1 163 25
 305 00ac 484B     		ldr	r3, .L25+16
 306 00ae 9B68     		ldr	r3, [r3, #8]
 307              		.loc 1 163 7
 308 00b0 022B     		cmp	r3, #2
 309 00b2 0FD1     		bne	.L15
 164:c:/Users/lenovo/Desktop/AIoT/first_day/firstday_afternoon/LiteOS_Lab_STM32_IoT/iot_link/network/tcpip/esp8266_socket\esp8266_socket_imp.c ****     {
 165:c:/Users/lenovo/Desktop/AIoT/first_day/firstday_afternoon/LiteOS_Lab_STM32_IoT/iot_link/network/tcpip/esp8266_socket\esp8266_socket_imp.c ****     	ret = ring_buffer_write(&s_esp8266_sock_cb.esp8266_rcvring,(unsigned char *)&datalen,sizeof(da
 310              		.loc 1 165 12
 311 00b4 07F11603 		add	r3, r7, #22
 312 00b8 0222     		movs	r2, #2
 313 00ba 1946     		mov	r1, r3
 314 00bc 4348     		ldr	r0, .L25+12
 315 00be FFF7FEFF 		bl	ring_buffer_write
 316 00c2 7862     		str	r0, [r7, #36]
 166:c:/Users/lenovo/Desktop/AIoT/first_day/firstday_afternoon/LiteOS_Lab_STM32_IoT/iot_link/network/tcpip/esp8266_socket\esp8266_socket_imp.c ****         ret = ring_buffer_write(&s_esp8266_sock_cb.esp8266_rcvring,(unsigned char *)str,datalen);
 317              		.loc 1 166 15
 318 00c4 FB8A     		ldrh	r3, [r7, #22]
 319 00c6 1A46     		mov	r2, r3
 320 00c8 396A     		ldr	r1, [r7, #32]
 321 00ca 4048     		ldr	r0, .L25+12
 322 00cc FFF7FEFF 		bl	ring_buffer_write
 323 00d0 7862     		str	r0, [r7, #36]
 324 00d2 0AE0     		b	.L16
 325              	.L15:
 167:c:/Users/lenovo/Desktop/AIoT/first_day/firstday_afternoon/LiteOS_Lab_STM32_IoT/iot_link/network/tcpip/esp8266_socket\esp8266_socket_imp.c ****     }
 168:c:/Users/lenovo/Desktop/AIoT/first_day/firstday_afternoon/LiteOS_Lab_STM32_IoT/iot_link/network/tcpip/esp8266_socket\esp8266_socket_imp.c ****     else if (s_esp8266_sock_cb.type == SOCK_STREAM)
 326              		.loc 1 168 31
 327 00d4 3E4B     		ldr	r3, .L25+16
 328 00d6 9B68     		ldr	r3, [r3, #8]
 329              		.loc 1 168 13
 330 00d8 012B     		cmp	r3, #1
 331 00da 06D1     		bne	.L16
 169:c:/Users/lenovo/Desktop/AIoT/first_day/firstday_afternoon/LiteOS_Lab_STM32_IoT/iot_link/network/tcpip/esp8266_socket\esp8266_socket_imp.c ****     {
 170:c:/Users/lenovo/Desktop/AIoT/first_day/firstday_afternoon/LiteOS_Lab_STM32_IoT/iot_link/network/tcpip/esp8266_socket\esp8266_socket_imp.c ****         ret = ring_buffer_write(&s_esp8266_sock_cb.esp8266_rcvring,(unsigned char *)str,datalen);
 332              		.loc 1 170 15
 333 00dc FB8A     		ldrh	r3, [r7, #22]
ARM GAS  C:\Users\lenovo\AppData\Local\Temp\cc815I9s.s 			page 10


 334 00de 1A46     		mov	r2, r3
 335 00e0 396A     		ldr	r1, [r7, #32]
 336 00e2 3A48     		ldr	r0, .L25+12
 337 00e4 FFF7FEFF 		bl	ring_buffer_write
 338 00e8 7862     		str	r0, [r7, #36]
 339              	.L16:
 171:c:/Users/lenovo/Desktop/AIoT/first_day/firstday_afternoon/LiteOS_Lab_STM32_IoT/iot_link/network/tcpip/esp8266_socket\esp8266_socket_imp.c ****     }
 172:c:/Users/lenovo/Desktop/AIoT/first_day/firstday_afternoon/LiteOS_Lab_STM32_IoT/iot_link/network/tcpip/esp8266_socket\esp8266_socket_imp.c **** 
 173:c:/Users/lenovo/Desktop/AIoT/first_day/firstday_afternoon/LiteOS_Lab_STM32_IoT/iot_link/network/tcpip/esp8266_socket\esp8266_socket_imp.c **** 
 174:c:/Users/lenovo/Desktop/AIoT/first_day/firstday_afternoon/LiteOS_Lab_STM32_IoT/iot_link/network/tcpip/esp8266_socket\esp8266_socket_imp.c ****     if(data_nxt < (data + len))
 340              		.loc 1 174 25
 341 00ea FA69     		ldr	r2, [r7, #28]
 342 00ec 7B68     		ldr	r3, [r7, #4]
 343 00ee 1344     		add	r3, r3, r2
 344              		.loc 1 174 7
 345 00f0 BA69     		ldr	r2, [r7, #24]
 346 00f2 9A42     		cmp	r2, r3
 347 00f4 5FD2     		bcs	.L17
 175:c:/Users/lenovo/Desktop/AIoT/first_day/firstday_afternoon/LiteOS_Lab_STM32_IoT/iot_link/network/tcpip/esp8266_socket\esp8266_socket_imp.c ****     {
 176:c:/Users/lenovo/Desktop/AIoT/first_day/firstday_afternoon/LiteOS_Lab_STM32_IoT/iot_link/network/tcpip/esp8266_socket\esp8266_socket_imp.c ****         msg =data_nxt;
 348              		.loc 1 176 13
 349 00f6 BB69     		ldr	r3, [r7, #24]
 350 00f8 BB60     		str	r3, [r7, #8]
 177:c:/Users/lenovo/Desktop/AIoT/first_day/firstday_afternoon/LiteOS_Lab_STM32_IoT/iot_link/network/tcpip/esp8266_socket\esp8266_socket_imp.c ****         data = msg;
 351              		.loc 1 177 14
 352 00fa BB68     		ldr	r3, [r7, #8]
 353 00fc FB61     		str	r3, [r7, #28]
 178:c:/Users/lenovo/Desktop/AIoT/first_day/firstday_afternoon/LiteOS_Lab_STM32_IoT/iot_link/network/tcpip/esp8266_socket\esp8266_socket_imp.c ****         //now deal the data
 179:c:/Users/lenovo/Desktop/AIoT/first_day/firstday_afternoon/LiteOS_Lab_STM32_IoT/iot_link/network/tcpip/esp8266_socket\esp8266_socket_imp.c ****         str = strstr((char *)data,",");
 354              		.loc 1 179 15
 355 00fe 2C21     		movs	r1, #44
 356 0100 F869     		ldr	r0, [r7, #28]
 357 0102 FFF7FEFF 		bl	strchr
 358 0106 3862     		str	r0, [r7, #32]
 180:c:/Users/lenovo/Desktop/AIoT/first_day/firstday_afternoon/LiteOS_Lab_STM32_IoT/iot_link/network/tcpip/esp8266_socket\esp8266_socket_imp.c ****         if(NULL == str)
 359              		.loc 1 180 11
 360 0108 3B6A     		ldr	r3, [r7, #32]
 361 010a 002B     		cmp	r3, #0
 362 010c 01D1     		bne	.L18
 181:c:/Users/lenovo/Desktop/AIoT/first_day/firstday_afternoon/LiteOS_Lab_STM32_IoT/iot_link/network/tcpip/esp8266_socket\esp8266_socket_imp.c ****         {
 182:c:/Users/lenovo/Desktop/AIoT/first_day/firstday_afternoon/LiteOS_Lab_STM32_IoT/iot_link/network/tcpip/esp8266_socket\esp8266_socket_imp.c ****             return ret; //format error
 363              		.loc 1 182 20
 364 010e 7B6A     		ldr	r3, [r7, #36]
 365 0110 52E0     		b	.L24
 366              	.L18:
 183:c:/Users/lenovo/Desktop/AIoT/first_day/firstday_afternoon/LiteOS_Lab_STM32_IoT/iot_link/network/tcpip/esp8266_socket\esp8266_socket_imp.c ****         }
 184:c:/Users/lenovo/Desktop/AIoT/first_day/firstday_afternoon/LiteOS_Lab_STM32_IoT/iot_link/network/tcpip/esp8266_socket\esp8266_socket_imp.c ****         str++;
 367              		.loc 1 184 12
 368 0112 3B6A     		ldr	r3, [r7, #32]
 369 0114 0133     		adds	r3, r3, #1
 370 0116 3B62     		str	r3, [r7, #32]
 185:c:/Users/lenovo/Desktop/AIoT/first_day/firstday_afternoon/LiteOS_Lab_STM32_IoT/iot_link/network/tcpip/esp8266_socket\esp8266_socket_imp.c **** 
 186:c:/Users/lenovo/Desktop/AIoT/first_day/firstday_afternoon/LiteOS_Lab_STM32_IoT/iot_link/network/tcpip/esp8266_socket\esp8266_socket_imp.c ****         //TODO: mux = 1
 187:c:/Users/lenovo/Desktop/AIoT/first_day/firstday_afternoon/LiteOS_Lab_STM32_IoT/iot_link/network/tcpip/esp8266_socket\esp8266_socket_imp.c **** 
 188:c:/Users/lenovo/Desktop/AIoT/first_day/firstday_afternoon/LiteOS_Lab_STM32_IoT/iot_link/network/tcpip/esp8266_socket\esp8266_socket_imp.c ****         datalen = 0;
 371              		.loc 1 188 17
 372 0118 0023     		movs	r3, #0
ARM GAS  C:\Users\lenovo\AppData\Local\Temp\cc815I9s.s 			page 11


 373 011a FB82     		strh	r3, [r7, #22]	@ movhi
 189:c:/Users/lenovo/Desktop/AIoT/first_day/firstday_afternoon/LiteOS_Lab_STM32_IoT/iot_link/network/tcpip/esp8266_socket\esp8266_socket_imp.c ****         for (; *str <= '9' && *str >= '0' ;str++)
 374              		.loc 1 189 9
 375 011c 10E0     		b	.L19
 376              	.L21:
 190:c:/Users/lenovo/Desktop/AIoT/first_day/firstday_afternoon/LiteOS_Lab_STM32_IoT/iot_link/network/tcpip/esp8266_socket\esp8266_socket_imp.c ****         {
 191:c:/Users/lenovo/Desktop/AIoT/first_day/firstday_afternoon/LiteOS_Lab_STM32_IoT/iot_link/network/tcpip/esp8266_socket\esp8266_socket_imp.c ****             datalen = (datalen * 10 + (*str - '0'));
 377              		.loc 1 191 37 discriminator 3
 378 011e FB8A     		ldrh	r3, [r7, #22]
 379 0120 1A46     		mov	r2, r3	@ movhi
 380 0122 9200     		lsls	r2, r2, #2
 381 0124 1344     		add	r3, r3, r2
 382 0126 5B00     		lsls	r3, r3, #1
 383 0128 9AB2     		uxth	r2, r3
 384              		.loc 1 191 40 discriminator 3
 385 012a 3B6A     		ldr	r3, [r7, #32]
 386 012c 1B78     		ldrb	r3, [r3]	@ zero_extendqisi2
 387 012e 9BB2     		uxth	r3, r3
 388              		.loc 1 191 37 discriminator 3
 389 0130 1344     		add	r3, r3, r2
 390 0132 9BB2     		uxth	r3, r3
 391 0134 303B     		subs	r3, r3, #48
 392 0136 9BB2     		uxth	r3, r3
 393              		.loc 1 191 21 discriminator 3
 394 0138 FB82     		strh	r3, [r7, #22]	@ movhi
 189:c:/Users/lenovo/Desktop/AIoT/first_day/firstday_afternoon/LiteOS_Lab_STM32_IoT/iot_link/network/tcpip/esp8266_socket\esp8266_socket_imp.c ****         for (; *str <= '9' && *str >= '0' ;str++)
 395              		.loc 1 189 47 discriminator 3
 396 013a 3B6A     		ldr	r3, [r7, #32]
 397 013c 0133     		adds	r3, r3, #1
 398 013e 3B62     		str	r3, [r7, #32]
 399              	.L19:
 189:c:/Users/lenovo/Desktop/AIoT/first_day/firstday_afternoon/LiteOS_Lab_STM32_IoT/iot_link/network/tcpip/esp8266_socket\esp8266_socket_imp.c ****         for (; *str <= '9' && *str >= '0' ;str++)
 400              		.loc 1 189 16 discriminator 1
 401 0140 3B6A     		ldr	r3, [r7, #32]
 402 0142 1B78     		ldrb	r3, [r3]	@ zero_extendqisi2
 189:c:/Users/lenovo/Desktop/AIoT/first_day/firstday_afternoon/LiteOS_Lab_STM32_IoT/iot_link/network/tcpip/esp8266_socket\esp8266_socket_imp.c ****         for (; *str <= '9' && *str >= '0' ;str++)
 403              		.loc 1 189 9 discriminator 1
 404 0144 392B     		cmp	r3, #57
 405 0146 03D8     		bhi	.L20
 189:c:/Users/lenovo/Desktop/AIoT/first_day/firstday_afternoon/LiteOS_Lab_STM32_IoT/iot_link/network/tcpip/esp8266_socket\esp8266_socket_imp.c ****         for (; *str <= '9' && *str >= '0' ;str++)
 406              		.loc 1 189 31 discriminator 2
 407 0148 3B6A     		ldr	r3, [r7, #32]
 408 014a 1B78     		ldrb	r3, [r3]	@ zero_extendqisi2
 189:c:/Users/lenovo/Desktop/AIoT/first_day/firstday_afternoon/LiteOS_Lab_STM32_IoT/iot_link/network/tcpip/esp8266_socket\esp8266_socket_imp.c ****         for (; *str <= '9' && *str >= '0' ;str++)
 409              		.loc 1 189 28 discriminator 2
 410 014c 2F2B     		cmp	r3, #47
 411 014e E6D8     		bhi	.L21
 412              	.L20:
 192:c:/Users/lenovo/Desktop/AIoT/first_day/firstday_afternoon/LiteOS_Lab_STM32_IoT/iot_link/network/tcpip/esp8266_socket\esp8266_socket_imp.c ****         }
 193:c:/Users/lenovo/Desktop/AIoT/first_day/firstday_afternoon/LiteOS_Lab_STM32_IoT/iot_link/network/tcpip/esp8266_socket\esp8266_socket_imp.c ****         str++;
 413              		.loc 1 193 12
 414 0150 3B6A     		ldr	r3, [r7, #32]
 415 0152 0133     		adds	r3, r3, #1
 416 0154 3B62     		str	r3, [r7, #32]
 194:c:/Users/lenovo/Desktop/AIoT/first_day/firstday_afternoon/LiteOS_Lab_STM32_IoT/iot_link/network/tcpip/esp8266_socket\esp8266_socket_imp.c **** 
 195:c:/Users/lenovo/Desktop/AIoT/first_day/firstday_afternoon/LiteOS_Lab_STM32_IoT/iot_link/network/tcpip/esp8266_socket\esp8266_socket_imp.c ****         data_nxt = str + datalen;
 417              		.loc 1 195 24
ARM GAS  C:\Users\lenovo\AppData\Local\Temp\cc815I9s.s 			page 12


 418 0156 FB8A     		ldrh	r3, [r7, #22]
 419 0158 1A46     		mov	r2, r3
 420              		.loc 1 195 18
 421 015a 3B6A     		ldr	r3, [r7, #32]
 422 015c 1344     		add	r3, r3, r2
 423 015e BB61     		str	r3, [r7, #24]
 196:c:/Users/lenovo/Desktop/AIoT/first_day/firstday_afternoon/LiteOS_Lab_STM32_IoT/iot_link/network/tcpip/esp8266_socket\esp8266_socket_imp.c **** 
 197:c:/Users/lenovo/Desktop/AIoT/first_day/firstday_afternoon/LiteOS_Lab_STM32_IoT/iot_link/network/tcpip/esp8266_socket\esp8266_socket_imp.c ****         //now this is data payload
 198:c:/Users/lenovo/Desktop/AIoT/first_day/firstday_afternoon/LiteOS_Lab_STM32_IoT/iot_link/network/tcpip/esp8266_socket\esp8266_socket_imp.c ****         if(datalen > (CN_ESP8266_CACHELEN - ring_buffer_datalen(&s_esp8266_sock_cb.esp8266_rcvring)
 424              		.loc 1 198 20
 425 0160 FB8A     		ldrh	r3, [r7, #22]
 426 0162 1C46     		mov	r4, r3
 427              		.loc 1 198 45
 428 0164 1948     		ldr	r0, .L25+12
 429 0166 FFF7FEFF 		bl	ring_buffer_datalen
 430 016a 0346     		mov	r3, r0
 431              		.loc 1 198 43
 432 016c C3F5E163 		rsb	r3, r3, #1800
 433              		.loc 1 198 11
 434 0170 9C42     		cmp	r4, r3
 435 0172 01DD     		ble	.L22
 199:c:/Users/lenovo/Desktop/AIoT/first_day/firstday_afternoon/LiteOS_Lab_STM32_IoT/iot_link/network/tcpip/esp8266_socket\esp8266_socket_imp.c ****         {
 200:c:/Users/lenovo/Desktop/AIoT/first_day/firstday_afternoon/LiteOS_Lab_STM32_IoT/iot_link/network/tcpip/esp8266_socket\esp8266_socket_imp.c ****             return 0;
 436              		.loc 1 200 20
 437 0174 0023     		movs	r3, #0
 438 0176 1FE0     		b	.L24
 439              	.L22:
 201:c:/Users/lenovo/Desktop/AIoT/first_day/firstday_afternoon/LiteOS_Lab_STM32_IoT/iot_link/network/tcpip/esp8266_socket\esp8266_socket_imp.c ****         }
 202:c:/Users/lenovo/Desktop/AIoT/first_day/firstday_afternoon/LiteOS_Lab_STM32_IoT/iot_link/network/tcpip/esp8266_socket\esp8266_socket_imp.c **** 
 203:c:/Users/lenovo/Desktop/AIoT/first_day/firstday_afternoon/LiteOS_Lab_STM32_IoT/iot_link/network/tcpip/esp8266_socket\esp8266_socket_imp.c ****         if(s_esp8266_sock_cb.type == SOCK_DGRAM)
 440              		.loc 1 203 29
 441 0178 154B     		ldr	r3, .L25+16
 442 017a 9B68     		ldr	r3, [r3, #8]
 443              		.loc 1 203 11
 444 017c 022B     		cmp	r3, #2
 445 017e 0FD1     		bne	.L23
 204:c:/Users/lenovo/Desktop/AIoT/first_day/firstday_afternoon/LiteOS_Lab_STM32_IoT/iot_link/network/tcpip/esp8266_socket\esp8266_socket_imp.c ****         {
 205:c:/Users/lenovo/Desktop/AIoT/first_day/firstday_afternoon/LiteOS_Lab_STM32_IoT/iot_link/network/tcpip/esp8266_socket\esp8266_socket_imp.c ****             ret = ring_buffer_write(&s_esp8266_sock_cb.esp8266_rcvring,(unsigned char *)&datalen,si
 446              		.loc 1 205 19
 447 0180 07F11603 		add	r3, r7, #22
 448 0184 0222     		movs	r2, #2
 449 0186 1946     		mov	r1, r3
 450 0188 1048     		ldr	r0, .L25+12
 451 018a FFF7FEFF 		bl	ring_buffer_write
 452 018e 7862     		str	r0, [r7, #36]
 206:c:/Users/lenovo/Desktop/AIoT/first_day/firstday_afternoon/LiteOS_Lab_STM32_IoT/iot_link/network/tcpip/esp8266_socket\esp8266_socket_imp.c ****             ret = ring_buffer_write(&s_esp8266_sock_cb.esp8266_rcvring,(unsigned char *)str,datalen
 453              		.loc 1 206 19
 454 0190 FB8A     		ldrh	r3, [r7, #22]
 455 0192 1A46     		mov	r2, r3
 456 0194 396A     		ldr	r1, [r7, #32]
 457 0196 0D48     		ldr	r0, .L25+12
 458 0198 FFF7FEFF 		bl	ring_buffer_write
 459 019c 7862     		str	r0, [r7, #36]
 460 019e 0AE0     		b	.L17
 461              	.L23:
 207:c:/Users/lenovo/Desktop/AIoT/first_day/firstday_afternoon/LiteOS_Lab_STM32_IoT/iot_link/network/tcpip/esp8266_socket\esp8266_socket_imp.c ****         }
 208:c:/Users/lenovo/Desktop/AIoT/first_day/firstday_afternoon/LiteOS_Lab_STM32_IoT/iot_link/network/tcpip/esp8266_socket\esp8266_socket_imp.c ****         else if (s_esp8266_sock_cb.type == SOCK_STREAM)
ARM GAS  C:\Users\lenovo\AppData\Local\Temp\cc815I9s.s 			page 13


 462              		.loc 1 208 35
 463 01a0 0B4B     		ldr	r3, .L25+16
 464 01a2 9B68     		ldr	r3, [r3, #8]
 465              		.loc 1 208 17
 466 01a4 012B     		cmp	r3, #1
 467 01a6 06D1     		bne	.L17
 209:c:/Users/lenovo/Desktop/AIoT/first_day/firstday_afternoon/LiteOS_Lab_STM32_IoT/iot_link/network/tcpip/esp8266_socket\esp8266_socket_imp.c ****         {
 210:c:/Users/lenovo/Desktop/AIoT/first_day/firstday_afternoon/LiteOS_Lab_STM32_IoT/iot_link/network/tcpip/esp8266_socket\esp8266_socket_imp.c ****             ret = ring_buffer_write(&s_esp8266_sock_cb.esp8266_rcvring,(unsigned char *)str,datalen
 468              		.loc 1 210 19
 469 01a8 FB8A     		ldrh	r3, [r7, #22]
 470 01aa 1A46     		mov	r2, r3
 471 01ac 396A     		ldr	r1, [r7, #32]
 472 01ae 0748     		ldr	r0, .L25+12
 473 01b0 FFF7FEFF 		bl	ring_buffer_write
 474 01b4 7862     		str	r0, [r7, #36]
 475              	.L17:
 211:c:/Users/lenovo/Desktop/AIoT/first_day/firstday_afternoon/LiteOS_Lab_STM32_IoT/iot_link/network/tcpip/esp8266_socket\esp8266_socket_imp.c ****         }
 212:c:/Users/lenovo/Desktop/AIoT/first_day/firstday_afternoon/LiteOS_Lab_STM32_IoT/iot_link/network/tcpip/esp8266_socket\esp8266_socket_imp.c **** 
 213:c:/Users/lenovo/Desktop/AIoT/first_day/firstday_afternoon/LiteOS_Lab_STM32_IoT/iot_link/network/tcpip/esp8266_socket\esp8266_socket_imp.c ****     }
 214:c:/Users/lenovo/Desktop/AIoT/first_day/firstday_afternoon/LiteOS_Lab_STM32_IoT/iot_link/network/tcpip/esp8266_socket\esp8266_socket_imp.c ****     return ret;
 476              		.loc 1 214 12
 477 01b6 7B6A     		ldr	r3, [r7, #36]
 478              	.L24:
 215:c:/Users/lenovo/Desktop/AIoT/first_day/firstday_afternoon/LiteOS_Lab_STM32_IoT/iot_link/network/tcpip/esp8266_socket\esp8266_socket_imp.c **** 
 216:c:/Users/lenovo/Desktop/AIoT/first_day/firstday_afternoon/LiteOS_Lab_STM32_IoT/iot_link/network/tcpip/esp8266_socket\esp8266_socket_imp.c **** }
 479              		.loc 1 216 1 discriminator 1
 480 01b8 1846     		mov	r0, r3
 481 01ba 2C37     		adds	r7, r7, #44
 482              	.LCFI13:
 483              		.cfi_def_cfa_offset 12
 484 01bc BD46     		mov	sp, r7
 485              	.LCFI14:
 486              		.cfi_def_cfa_register 13
 487              		@ sp needed
 488 01be 90BD     		pop	{r4, r7, pc}
 489              	.L26:
 490              		.align	2
 491              	.L25:
 492 01c0 00000000 		.word	__FUNCTION__.7508
 493 01c4 00000000 		.word	.LC0
 494 01c8 20000000 		.word	.LC1
 495 01cc 18000000 		.word	s_esp8266_sock_cb+24
 496 01d0 00000000 		.word	s_esp8266_sock_cb
 497              		.cfi_endproc
 498              	.LFE5:
 500              		.section	.text.esp8266_socket,"ax",%progbits
 501              		.align	1
 502              		.syntax unified
 503              		.thumb
 504              		.thumb_func
 505              		.fpu fpv4-sp-d16
 507              	esp8266_socket:
 508              	.LFB6:
 217:c:/Users/lenovo/Desktop/AIoT/first_day/firstday_afternoon/LiteOS_Lab_STM32_IoT/iot_link/network/tcpip/esp8266_socket\esp8266_socket_imp.c **** 
 218:c:/Users/lenovo/Desktop/AIoT/first_day/firstday_afternoon/LiteOS_Lab_STM32_IoT/iot_link/network/tcpip/esp8266_socket\esp8266_socket_imp.c **** static int esp8266_socket(int domain, int type, int protocol)
 219:c:/Users/lenovo/Desktop/AIoT/first_day/firstday_afternoon/LiteOS_Lab_STM32_IoT/iot_link/network/tcpip/esp8266_socket\esp8266_socket_imp.c **** {
 509              		.loc 1 219 1
ARM GAS  C:\Users\lenovo\AppData\Local\Temp\cc815I9s.s 			page 14


 510              		.cfi_startproc
 511              		@ args = 0, pretend = 0, frame = 16
 512              		@ frame_needed = 1, uses_anonymous_args = 0
 513              		@ link register save eliminated.
 514 0000 80B4     		push	{r7}
 515              	.LCFI15:
 516              		.cfi_def_cfa_offset 4
 517              		.cfi_offset 7, -4
 518 0002 85B0     		sub	sp, sp, #20
 519              	.LCFI16:
 520              		.cfi_def_cfa_offset 24
 521 0004 00AF     		add	r7, sp, #0
 522              	.LCFI17:
 523              		.cfi_def_cfa_register 7
 524 0006 F860     		str	r0, [r7, #12]
 525 0008 B960     		str	r1, [r7, #8]
 526 000a 7A60     		str	r2, [r7, #4]
 220:c:/Users/lenovo/Desktop/AIoT/first_day/firstday_afternoon/LiteOS_Lab_STM32_IoT/iot_link/network/tcpip/esp8266_socket\esp8266_socket_imp.c **** 	s_esp8266_sock_cb.domain = domain;
 527              		.loc 1 220 27
 528 000c 094A     		ldr	r2, .L29
 529 000e FB68     		ldr	r3, [r7, #12]
 530 0010 5360     		str	r3, [r2, #4]
 221:c:/Users/lenovo/Desktop/AIoT/first_day/firstday_afternoon/LiteOS_Lab_STM32_IoT/iot_link/network/tcpip/esp8266_socket\esp8266_socket_imp.c **** 	s_esp8266_sock_cb.type = type;
 531              		.loc 1 221 25
 532 0012 084A     		ldr	r2, .L29
 533 0014 BB68     		ldr	r3, [r7, #8]
 534 0016 9360     		str	r3, [r2, #8]
 222:c:/Users/lenovo/Desktop/AIoT/first_day/firstday_afternoon/LiteOS_Lab_STM32_IoT/iot_link/network/tcpip/esp8266_socket\esp8266_socket_imp.c **** 	s_esp8266_sock_cb.protocol = protocol;
 535              		.loc 1 222 29
 536 0018 064A     		ldr	r2, .L29
 537 001a 7B68     		ldr	r3, [r7, #4]
 538 001c D360     		str	r3, [r2, #12]
 223:c:/Users/lenovo/Desktop/AIoT/first_day/firstday_afternoon/LiteOS_Lab_STM32_IoT/iot_link/network/tcpip/esp8266_socket\esp8266_socket_imp.c **** 	s_esp8266_sock_cb.sockfd = 0;
 539              		.loc 1 223 27
 540 001e 054B     		ldr	r3, .L29
 541 0020 0022     		movs	r2, #0
 542 0022 1A60     		str	r2, [r3]
 224:c:/Users/lenovo/Desktop/AIoT/first_day/firstday_afternoon/LiteOS_Lab_STM32_IoT/iot_link/network/tcpip/esp8266_socket\esp8266_socket_imp.c **** 
 225:c:/Users/lenovo/Desktop/AIoT/first_day/firstday_afternoon/LiteOS_Lab_STM32_IoT/iot_link/network/tcpip/esp8266_socket\esp8266_socket_imp.c **** 	return s_esp8266_sock_cb.sockfd;
 543              		.loc 1 225 26
 544 0024 034B     		ldr	r3, .L29
 545 0026 1B68     		ldr	r3, [r3]
 226:c:/Users/lenovo/Desktop/AIoT/first_day/firstday_afternoon/LiteOS_Lab_STM32_IoT/iot_link/network/tcpip/esp8266_socket\esp8266_socket_imp.c **** }
 546              		.loc 1 226 1
 547 0028 1846     		mov	r0, r3
 548 002a 1437     		adds	r7, r7, #20
 549              	.LCFI18:
 550              		.cfi_def_cfa_offset 4
 551 002c BD46     		mov	sp, r7
 552              	.LCFI19:
 553              		.cfi_def_cfa_register 13
 554              		@ sp needed
 555 002e 5DF8047B 		ldr	r7, [sp], #4
 556              	.LCFI20:
 557              		.cfi_restore 7
 558              		.cfi_def_cfa_offset 0
 559 0032 7047     		bx	lr
ARM GAS  C:\Users\lenovo\AppData\Local\Temp\cc815I9s.s 			page 15


 560              	.L30:
 561              		.align	2
 562              	.L29:
 563 0034 00000000 		.word	s_esp8266_sock_cb
 564              		.cfi_endproc
 565              	.LFE6:
 567              		.section	.text.__esp8266_bind,"ax",%progbits
 568              		.align	1
 569              		.syntax unified
 570              		.thumb
 571              		.thumb_func
 572              		.fpu fpv4-sp-d16
 574              	__esp8266_bind:
 575              	.LFB7:
 227:c:/Users/lenovo/Desktop/AIoT/first_day/firstday_afternoon/LiteOS_Lab_STM32_IoT/iot_link/network/tcpip/esp8266_socket\esp8266_socket_imp.c **** 
 228:c:/Users/lenovo/Desktop/AIoT/first_day/firstday_afternoon/LiteOS_Lab_STM32_IoT/iot_link/network/tcpip/esp8266_socket\esp8266_socket_imp.c **** static int __esp8266_bind(int fd, const struct sockaddr *addr, int addrlen)
 229:c:/Users/lenovo/Desktop/AIoT/first_day/firstday_afternoon/LiteOS_Lab_STM32_IoT/iot_link/network/tcpip/esp8266_socket\esp8266_socket_imp.c **** {
 576              		.loc 1 229 1
 577              		.cfi_startproc
 578              		@ args = 0, pretend = 0, frame = 16
 579              		@ frame_needed = 1, uses_anonymous_args = 0
 580              		@ link register save eliminated.
 581 0000 80B4     		push	{r7}
 582              	.LCFI21:
 583              		.cfi_def_cfa_offset 4
 584              		.cfi_offset 7, -4
 585 0002 85B0     		sub	sp, sp, #20
 586              	.LCFI22:
 587              		.cfi_def_cfa_offset 24
 588 0004 00AF     		add	r7, sp, #0
 589              	.LCFI23:
 590              		.cfi_def_cfa_register 7
 591 0006 F860     		str	r0, [r7, #12]
 592 0008 B960     		str	r1, [r7, #8]
 593 000a 7A60     		str	r2, [r7, #4]
 230:c:/Users/lenovo/Desktop/AIoT/first_day/firstday_afternoon/LiteOS_Lab_STM32_IoT/iot_link/network/tcpip/esp8266_socket\esp8266_socket_imp.c **** 	//not implemented for client
 231:c:/Users/lenovo/Desktop/AIoT/first_day/firstday_afternoon/LiteOS_Lab_STM32_IoT/iot_link/network/tcpip/esp8266_socket\esp8266_socket_imp.c ****     return 0;
 594              		.loc 1 231 12
 595 000c 0023     		movs	r3, #0
 232:c:/Users/lenovo/Desktop/AIoT/first_day/firstday_afternoon/LiteOS_Lab_STM32_IoT/iot_link/network/tcpip/esp8266_socket\esp8266_socket_imp.c **** }
 596              		.loc 1 232 1
 597 000e 1846     		mov	r0, r3
 598 0010 1437     		adds	r7, r7, #20
 599              	.LCFI24:
 600              		.cfi_def_cfa_offset 4
 601 0012 BD46     		mov	sp, r7
 602              	.LCFI25:
 603              		.cfi_def_cfa_register 13
 604              		@ sp needed
 605 0014 5DF8047B 		ldr	r7, [sp], #4
 606              	.LCFI26:
 607              		.cfi_restore 7
 608              		.cfi_def_cfa_offset 0
 609 0018 7047     		bx	lr
 610              		.cfi_endproc
 611              	.LFE7:
 613              		.section	.text.esp8266_listen,"ax",%progbits
ARM GAS  C:\Users\lenovo\AppData\Local\Temp\cc815I9s.s 			page 16


 614              		.align	1
 615              		.syntax unified
 616              		.thumb
 617              		.thumb_func
 618              		.fpu fpv4-sp-d16
 620              	esp8266_listen:
 621              	.LFB8:
 233:c:/Users/lenovo/Desktop/AIoT/first_day/firstday_afternoon/LiteOS_Lab_STM32_IoT/iot_link/network/tcpip/esp8266_socket\esp8266_socket_imp.c **** 
 234:c:/Users/lenovo/Desktop/AIoT/first_day/firstday_afternoon/LiteOS_Lab_STM32_IoT/iot_link/network/tcpip/esp8266_socket\esp8266_socket_imp.c **** static int esp8266_listen(int fd, int backlog)
 235:c:/Users/lenovo/Desktop/AIoT/first_day/firstday_afternoon/LiteOS_Lab_STM32_IoT/iot_link/network/tcpip/esp8266_socket\esp8266_socket_imp.c **** {
 622              		.loc 1 235 1
 623              		.cfi_startproc
 624              		@ args = 0, pretend = 0, frame = 8
 625              		@ frame_needed = 1, uses_anonymous_args = 0
 626              		@ link register save eliminated.
 627 0000 80B4     		push	{r7}
 628              	.LCFI27:
 629              		.cfi_def_cfa_offset 4
 630              		.cfi_offset 7, -4
 631 0002 83B0     		sub	sp, sp, #12
 632              	.LCFI28:
 633              		.cfi_def_cfa_offset 16
 634 0004 00AF     		add	r7, sp, #0
 635              	.LCFI29:
 636              		.cfi_def_cfa_register 7
 637 0006 7860     		str	r0, [r7, #4]
 638 0008 3960     		str	r1, [r7]
 236:c:/Users/lenovo/Desktop/AIoT/first_day/firstday_afternoon/LiteOS_Lab_STM32_IoT/iot_link/network/tcpip/esp8266_socket\esp8266_socket_imp.c **** 	//not implemented for client
 237:c:/Users/lenovo/Desktop/AIoT/first_day/firstday_afternoon/LiteOS_Lab_STM32_IoT/iot_link/network/tcpip/esp8266_socket\esp8266_socket_imp.c ****     return 0;
 639              		.loc 1 237 12
 640 000a 0023     		movs	r3, #0
 238:c:/Users/lenovo/Desktop/AIoT/first_day/firstday_afternoon/LiteOS_Lab_STM32_IoT/iot_link/network/tcpip/esp8266_socket\esp8266_socket_imp.c **** }
 641              		.loc 1 238 1
 642 000c 1846     		mov	r0, r3
 643 000e 0C37     		adds	r7, r7, #12
 644              	.LCFI30:
 645              		.cfi_def_cfa_offset 4
 646 0010 BD46     		mov	sp, r7
 647              	.LCFI31:
 648              		.cfi_def_cfa_register 13
 649              		@ sp needed
 650 0012 5DF8047B 		ldr	r7, [sp], #4
 651              	.LCFI32:
 652              		.cfi_restore 7
 653              		.cfi_def_cfa_offset 0
 654 0016 7047     		bx	lr
 655              		.cfi_endproc
 656              	.LFE8:
 658              		.section	.text.__esp8266_accept,"ax",%progbits
 659              		.align	1
 660              		.syntax unified
 661              		.thumb
 662              		.thumb_func
 663              		.fpu fpv4-sp-d16
 665              	__esp8266_accept:
 666              	.LFB9:
 239:c:/Users/lenovo/Desktop/AIoT/first_day/firstday_afternoon/LiteOS_Lab_STM32_IoT/iot_link/network/tcpip/esp8266_socket\esp8266_socket_imp.c **** 
ARM GAS  C:\Users\lenovo\AppData\Local\Temp\cc815I9s.s 			page 17


 240:c:/Users/lenovo/Desktop/AIoT/first_day/firstday_afternoon/LiteOS_Lab_STM32_IoT/iot_link/network/tcpip/esp8266_socket\esp8266_socket_imp.c **** static int __esp8266_accept(int fd, struct sockaddr *addr, int addrlen)
 241:c:/Users/lenovo/Desktop/AIoT/first_day/firstday_afternoon/LiteOS_Lab_STM32_IoT/iot_link/network/tcpip/esp8266_socket\esp8266_socket_imp.c **** {
 667              		.loc 1 241 1
 668              		.cfi_startproc
 669              		@ args = 0, pretend = 0, frame = 16
 670              		@ frame_needed = 1, uses_anonymous_args = 0
 671              		@ link register save eliminated.
 672 0000 80B4     		push	{r7}
 673              	.LCFI33:
 674              		.cfi_def_cfa_offset 4
 675              		.cfi_offset 7, -4
 676 0002 85B0     		sub	sp, sp, #20
 677              	.LCFI34:
 678              		.cfi_def_cfa_offset 24
 679 0004 00AF     		add	r7, sp, #0
 680              	.LCFI35:
 681              		.cfi_def_cfa_register 7
 682 0006 F860     		str	r0, [r7, #12]
 683 0008 B960     		str	r1, [r7, #8]
 684 000a 7A60     		str	r2, [r7, #4]
 242:c:/Users/lenovo/Desktop/AIoT/first_day/firstday_afternoon/LiteOS_Lab_STM32_IoT/iot_link/network/tcpip/esp8266_socket\esp8266_socket_imp.c **** 	//not implemented for client
 243:c:/Users/lenovo/Desktop/AIoT/first_day/firstday_afternoon/LiteOS_Lab_STM32_IoT/iot_link/network/tcpip/esp8266_socket\esp8266_socket_imp.c ****     return 0;
 685              		.loc 1 243 12
 686 000c 0023     		movs	r3, #0
 244:c:/Users/lenovo/Desktop/AIoT/first_day/firstday_afternoon/LiteOS_Lab_STM32_IoT/iot_link/network/tcpip/esp8266_socket\esp8266_socket_imp.c **** }
 687              		.loc 1 244 1
 688 000e 1846     		mov	r0, r3
 689 0010 1437     		adds	r7, r7, #20
 690              	.LCFI36:
 691              		.cfi_def_cfa_offset 4
 692 0012 BD46     		mov	sp, r7
 693              	.LCFI37:
 694              		.cfi_def_cfa_register 13
 695              		@ sp needed
 696 0014 5DF8047B 		ldr	r7, [sp], #4
 697              	.LCFI38:
 698              		.cfi_restore 7
 699              		.cfi_def_cfa_offset 0
 700 0018 7047     		bx	lr
 701              		.cfi_endproc
 702              	.LFE9:
 704              		.section	.rodata
 705 0032 0000     		.align	2
 706              	.LC2:
 707 0034 41542B43 		.ascii	"AT+CIPSTART=\"UDP\",\"%s\",%d\015\012\000"
 707      49505354 
 707      4152543D 
 707      22554450 
 707      222C2225 
 708              		.align	2
 709              	.LC3:
 710 0050 41542B43 		.ascii	"AT+CIPSTART=\"TCP\",\"%s\",%d\015\012\000"
 710      49505354 
 710      4152543D 
 710      22544350 
 710      222C2225 
 711              		.align	2
ARM GAS  C:\Users\lenovo\AppData\Local\Temp\cc815I9s.s 			page 18


 712              	.LC4:
 713 006c 4F4B00   		.ascii	"OK\000"
 714              		.section	.text.__esp8266_connect,"ax",%progbits
 715              		.align	1
 716              		.syntax unified
 717              		.thumb
 718              		.thumb_func
 719              		.fpu fpv4-sp-d16
 721              	__esp8266_connect:
 722              	.LFB10:
 245:c:/Users/lenovo/Desktop/AIoT/first_day/firstday_afternoon/LiteOS_Lab_STM32_IoT/iot_link/network/tcpip/esp8266_socket\esp8266_socket_imp.c **** 
 246:c:/Users/lenovo/Desktop/AIoT/first_day/firstday_afternoon/LiteOS_Lab_STM32_IoT/iot_link/network/tcpip/esp8266_socket\esp8266_socket_imp.c **** static int __esp8266_connect(int fd, const struct sockaddr *addr, int addrlen)
 247:c:/Users/lenovo/Desktop/AIoT/first_day/firstday_afternoon/LiteOS_Lab_STM32_IoT/iot_link/network/tcpip/esp8266_socket\esp8266_socket_imp.c **** {
 723              		.loc 1 247 1
 724              		.cfi_startproc
 725              		@ args = 0, pretend = 0, frame = 104
 726              		@ frame_needed = 1, uses_anonymous_args = 0
 727 0000 80B5     		push	{r7, lr}
 728              	.LCFI39:
 729              		.cfi_def_cfa_offset 8
 730              		.cfi_offset 7, -8
 731              		.cfi_offset 14, -4
 732 0002 9CB0     		sub	sp, sp, #112
 733              	.LCFI40:
 734              		.cfi_def_cfa_offset 120
 735 0004 02AF     		add	r7, sp, #8
 736              	.LCFI41:
 737              		.cfi_def_cfa 7, 112
 738 0006 F860     		str	r0, [r7, #12]
 739 0008 B960     		str	r1, [r7, #8]
 740 000a 7A60     		str	r2, [r7, #4]
 248:c:/Users/lenovo/Desktop/AIoT/first_day/firstday_afternoon/LiteOS_Lab_STM32_IoT/iot_link/network/tcpip/esp8266_socket\esp8266_socket_imp.c ****     char cmd[64];
 249:c:/Users/lenovo/Desktop/AIoT/first_day/firstday_afternoon/LiteOS_Lab_STM32_IoT/iot_link/network/tcpip/esp8266_socket\esp8266_socket_imp.c ****     int ret = -1;
 741              		.loc 1 249 9
 742 000c 4FF0FF33 		mov	r3, #-1
 743 0010 7B66     		str	r3, [r7, #100]
 250:c:/Users/lenovo/Desktop/AIoT/first_day/firstday_afternoon/LiteOS_Lab_STM32_IoT/iot_link/network/tcpip/esp8266_socket\esp8266_socket_imp.c ****     char *remote_ip;
 251:c:/Users/lenovo/Desktop/AIoT/first_day/firstday_afternoon/LiteOS_Lab_STM32_IoT/iot_link/network/tcpip/esp8266_socket\esp8266_socket_imp.c **** 
 252:c:/Users/lenovo/Desktop/AIoT/first_day/firstday_afternoon/LiteOS_Lab_STM32_IoT/iot_link/network/tcpip/esp8266_socket\esp8266_socket_imp.c ****     if(NULL != addr)
 744              		.loc 1 252 7
 745 0012 BB68     		ldr	r3, [r7, #8]
 746 0014 002B     		cmp	r3, #0
 747 0016 4AD0     		beq	.L38
 748              	.LBB2:
 253:c:/Users/lenovo/Desktop/AIoT/first_day/firstday_afternoon/LiteOS_Lab_STM32_IoT/iot_link/network/tcpip/esp8266_socket\esp8266_socket_imp.c ****     {
 254:c:/Users/lenovo/Desktop/AIoT/first_day/firstday_afternoon/LiteOS_Lab_STM32_IoT/iot_link/network/tcpip/esp8266_socket\esp8266_socket_imp.c ****         memset(cmd,0,64);
 749              		.loc 1 254 9
 750 0018 07F11803 		add	r3, r7, #24
 751 001c 4022     		movs	r2, #64
 752 001e 0021     		movs	r1, #0
 753 0020 1846     		mov	r0, r3
 754 0022 FFF7FEFF 		bl	memset
 255:c:/Users/lenovo/Desktop/AIoT/first_day/firstday_afternoon/LiteOS_Lab_STM32_IoT/iot_link/network/tcpip/esp8266_socket\esp8266_socket_imp.c ****         //memset(remote_ip,0,16);
 256:c:/Users/lenovo/Desktop/AIoT/first_day/firstday_afternoon/LiteOS_Lab_STM32_IoT/iot_link/network/tcpip/esp8266_socket\esp8266_socket_imp.c **** 
 257:c:/Users/lenovo/Desktop/AIoT/first_day/firstday_afternoon/LiteOS_Lab_STM32_IoT/iot_link/network/tcpip/esp8266_socket\esp8266_socket_imp.c ****         const struct sockaddr_in *serv_addr = (const struct sockaddr_in *)addr;
 755              		.loc 1 257 35
 756 0026 BB68     		ldr	r3, [r7, #8]
ARM GAS  C:\Users\lenovo\AppData\Local\Temp\cc815I9s.s 			page 19


 757 0028 3B66     		str	r3, [r7, #96]
 258:c:/Users/lenovo/Desktop/AIoT/first_day/firstday_afternoon/LiteOS_Lab_STM32_IoT/iot_link/network/tcpip/esp8266_socket\esp8266_socket_imp.c ****         uint16_t remote_port = ntohs(serv_addr->sin_port);
 758              		.loc 1 258 32
 759 002a 3B6E     		ldr	r3, [r7, #96]
 760 002c 5B88     		ldrh	r3, [r3, #2]
 761 002e 1B0A     		lsrs	r3, r3, #8
 762 0030 9BB2     		uxth	r3, r3
 763 0032 1AB2     		sxth	r2, r3
 764 0034 3B6E     		ldr	r3, [r7, #96]
 765 0036 5B88     		ldrh	r3, [r3, #2]
 766 0038 1B02     		lsls	r3, r3, #8
 767 003a 1BB2     		sxth	r3, r3
 768 003c 1343     		orrs	r3, r3, r2
 769 003e 1BB2     		sxth	r3, r3
 770              		.loc 1 258 18
 771 0040 A7F85E30 		strh	r3, [r7, #94]	@ movhi
 259:c:/Users/lenovo/Desktop/AIoT/first_day/firstday_afternoon/LiteOS_Lab_STM32_IoT/iot_link/network/tcpip/esp8266_socket\esp8266_socket_imp.c ****         struct in_addr remote_ip_int = serv_addr->sin_addr;
 772              		.loc 1 259 24
 773 0044 3B6E     		ldr	r3, [r7, #96]
 774 0046 5B68     		ldr	r3, [r3, #4]
 775 0048 7B61     		str	r3, [r7, #20]
 260:c:/Users/lenovo/Desktop/AIoT/first_day/firstday_afternoon/LiteOS_Lab_STM32_IoT/iot_link/network/tcpip/esp8266_socket\esp8266_socket_imp.c ****         remote_ip = inet_ntoa(remote_ip_int);
 776              		.loc 1 260 21
 777 004a 7869     		ldr	r0, [r7, #20]
 778 004c FFF7FEFF 		bl	inet_ntoa
 779 0050 B865     		str	r0, [r7, #88]
 261:c:/Users/lenovo/Desktop/AIoT/first_day/firstday_afternoon/LiteOS_Lab_STM32_IoT/iot_link/network/tcpip/esp8266_socket\esp8266_socket_imp.c **** 
 262:c:/Users/lenovo/Desktop/AIoT/first_day/firstday_afternoon/LiteOS_Lab_STM32_IoT/iot_link/network/tcpip/esp8266_socket\esp8266_socket_imp.c ****         //TODO: mux = 1
 263:c:/Users/lenovo/Desktop/AIoT/first_day/firstday_afternoon/LiteOS_Lab_STM32_IoT/iot_link/network/tcpip/esp8266_socket\esp8266_socket_imp.c ****         if(s_esp8266_sock_cb.type == SOCK_DGRAM)
 780              		.loc 1 263 29
 781 0052 194B     		ldr	r3, .L45
 782 0054 9B68     		ldr	r3, [r3, #8]
 783              		.loc 1 263 11
 784 0056 022B     		cmp	r3, #2
 785 0058 0AD1     		bne	.L39
 264:c:/Users/lenovo/Desktop/AIoT/first_day/firstday_afternoon/LiteOS_Lab_STM32_IoT/iot_link/network/tcpip/esp8266_socket\esp8266_socket_imp.c ****         {
 265:c:/Users/lenovo/Desktop/AIoT/first_day/firstday_afternoon/LiteOS_Lab_STM32_IoT/iot_link/network/tcpip/esp8266_socket\esp8266_socket_imp.c ****         	snprintf(cmd,64,"AT+CIPSTART=\"UDP\",\"%s\",%d\r\n",remote_ip,remote_port);
 786              		.loc 1 265 10
 787 005a B7F85E30 		ldrh	r3, [r7, #94]
 788 005e 07F11800 		add	r0, r7, #24
 789 0062 0093     		str	r3, [sp]
 790 0064 BB6D     		ldr	r3, [r7, #88]
 791 0066 154A     		ldr	r2, .L45+4
 792 0068 4021     		movs	r1, #64
 793 006a FFF7FEFF 		bl	snprintf
 794 006e 10E0     		b	.L40
 795              	.L39:
 266:c:/Users/lenovo/Desktop/AIoT/first_day/firstday_afternoon/LiteOS_Lab_STM32_IoT/iot_link/network/tcpip/esp8266_socket\esp8266_socket_imp.c ****         }
 267:c:/Users/lenovo/Desktop/AIoT/first_day/firstday_afternoon/LiteOS_Lab_STM32_IoT/iot_link/network/tcpip/esp8266_socket\esp8266_socket_imp.c ****         else if(s_esp8266_sock_cb.type == SOCK_STREAM)
 796              		.loc 1 267 34
 797 0070 114B     		ldr	r3, .L45
 798 0072 9B68     		ldr	r3, [r3, #8]
 799              		.loc 1 267 16
 800 0074 012B     		cmp	r3, #1
 801 0076 0AD1     		bne	.L41
 268:c:/Users/lenovo/Desktop/AIoT/first_day/firstday_afternoon/LiteOS_Lab_STM32_IoT/iot_link/network/tcpip/esp8266_socket\esp8266_socket_imp.c ****         {
 269:c:/Users/lenovo/Desktop/AIoT/first_day/firstday_afternoon/LiteOS_Lab_STM32_IoT/iot_link/network/tcpip/esp8266_socket\esp8266_socket_imp.c ****         	snprintf(cmd,64,"AT+CIPSTART=\"TCP\",\"%s\",%d\r\n",remote_ip,remote_port);
ARM GAS  C:\Users\lenovo\AppData\Local\Temp\cc815I9s.s 			page 20


 802              		.loc 1 269 10
 803 0078 B7F85E30 		ldrh	r3, [r7, #94]
 804 007c 07F11800 		add	r0, r7, #24
 805 0080 0093     		str	r3, [sp]
 806 0082 BB6D     		ldr	r3, [r7, #88]
 807 0084 0E4A     		ldr	r2, .L45+8
 808 0086 4021     		movs	r1, #64
 809 0088 FFF7FEFF 		bl	snprintf
 810 008c 01E0     		b	.L40
 811              	.L41:
 270:c:/Users/lenovo/Desktop/AIoT/first_day/firstday_afternoon/LiteOS_Lab_STM32_IoT/iot_link/network/tcpip/esp8266_socket\esp8266_socket_imp.c ****         }
 271:c:/Users/lenovo/Desktop/AIoT/first_day/firstday_afternoon/LiteOS_Lab_STM32_IoT/iot_link/network/tcpip/esp8266_socket\esp8266_socket_imp.c ****         else return ret;
 812              		.loc 1 271 21
 813 008e 7B6E     		ldr	r3, [r7, #100]
 814 0090 0EE0     		b	.L44
 815              	.L40:
 272:c:/Users/lenovo/Desktop/AIoT/first_day/firstday_afternoon/LiteOS_Lab_STM32_IoT/iot_link/network/tcpip/esp8266_socket\esp8266_socket_imp.c **** 
 273:c:/Users/lenovo/Desktop/AIoT/first_day/firstday_afternoon/LiteOS_Lab_STM32_IoT/iot_link/network/tcpip/esp8266_socket\esp8266_socket_imp.c ****         if(esp8266_atcmd(cmd,"OK"))
 816              		.loc 1 273 12
 817 0092 07F11803 		add	r3, r7, #24
 818 0096 0B49     		ldr	r1, .L45+12
 819 0098 1846     		mov	r0, r3
 820 009a FFF7FEFF 		bl	esp8266_atcmd
 821 009e 0346     		mov	r3, r0
 822              		.loc 1 273 11
 823 00a0 002B     		cmp	r3, #0
 824 00a2 04D0     		beq	.L38
 274:c:/Users/lenovo/Desktop/AIoT/first_day/firstday_afternoon/LiteOS_Lab_STM32_IoT/iot_link/network/tcpip/esp8266_socket\esp8266_socket_imp.c ****         {
 275:c:/Users/lenovo/Desktop/AIoT/first_day/firstday_afternoon/LiteOS_Lab_STM32_IoT/iot_link/network/tcpip/esp8266_socket\esp8266_socket_imp.c ****         	s_esp8266_sock_cb.isconnect = 1;
 825              		.loc 1 275 38
 826 00a4 044B     		ldr	r3, .L45
 827 00a6 0122     		movs	r2, #1
 828 00a8 1A61     		str	r2, [r3, #16]
 276:c:/Users/lenovo/Desktop/AIoT/first_day/firstday_afternoon/LiteOS_Lab_STM32_IoT/iot_link/network/tcpip/esp8266_socket\esp8266_socket_imp.c ****         	ret = 0;
 829              		.loc 1 276 14
 830 00aa 0023     		movs	r3, #0
 831 00ac 7B66     		str	r3, [r7, #100]
 832              	.L38:
 833              	.LBE2:
 277:c:/Users/lenovo/Desktop/AIoT/first_day/firstday_afternoon/LiteOS_Lab_STM32_IoT/iot_link/network/tcpip/esp8266_socket\esp8266_socket_imp.c ****         }
 278:c:/Users/lenovo/Desktop/AIoT/first_day/firstday_afternoon/LiteOS_Lab_STM32_IoT/iot_link/network/tcpip/esp8266_socket\esp8266_socket_imp.c ****     }
 279:c:/Users/lenovo/Desktop/AIoT/first_day/firstday_afternoon/LiteOS_Lab_STM32_IoT/iot_link/network/tcpip/esp8266_socket\esp8266_socket_imp.c ****     return ret;
 834              		.loc 1 279 12
 835 00ae 7B6E     		ldr	r3, [r7, #100]
 836              	.L44:
 280:c:/Users/lenovo/Desktop/AIoT/first_day/firstday_afternoon/LiteOS_Lab_STM32_IoT/iot_link/network/tcpip/esp8266_socket\esp8266_socket_imp.c **** }
 837              		.loc 1 280 1 discriminator 1
 838 00b0 1846     		mov	r0, r3
 839 00b2 6837     		adds	r7, r7, #104
 840              	.LCFI42:
 841              		.cfi_def_cfa_offset 8
 842 00b4 BD46     		mov	sp, r7
 843              	.LCFI43:
 844              		.cfi_def_cfa_register 13
 845              		@ sp needed
 846 00b6 80BD     		pop	{r7, pc}
 847              	.L46:
ARM GAS  C:\Users\lenovo\AppData\Local\Temp\cc815I9s.s 			page 21


 848              		.align	2
 849              	.L45:
 850 00b8 00000000 		.word	s_esp8266_sock_cb
 851 00bc 34000000 		.word	.LC2
 852 00c0 50000000 		.word	.LC3
 853 00c4 6C000000 		.word	.LC4
 854              		.cfi_endproc
 855              	.LFE10:
 857              		.section	.rodata
 858 006f 00       		.align	2
 859              	.LC5:
 860 0070 41542B43 		.ascii	"AT+CIPSEND=%d\015\012\000"
 860      49505345 
 860      4E443D25 
 860      640D0A00 
 861              		.align	2
 862              	.LC6:
 863 0080 3E00     		.ascii	">\000"
 864 0082 0000     		.align	2
 865              	.LC7:
 866 0084 53454E44 		.ascii	"SEND OK\000"
 866      204F4B00 
 867              		.align	2
 868              	.LC8:
 869 008c 0D0A2B49 		.ascii	"\015\012+IPD\000"
 869      504400
 870              		.section	.text.esp8266_send,"ax",%progbits
 871              		.align	1
 872              		.syntax unified
 873              		.thumb
 874              		.thumb_func
 875              		.fpu fpv4-sp-d16
 877              	esp8266_send:
 878              	.LFB11:
 281:c:/Users/lenovo/Desktop/AIoT/first_day/firstday_afternoon/LiteOS_Lab_STM32_IoT/iot_link/network/tcpip/esp8266_socket\esp8266_socket_imp.c **** 
 282:c:/Users/lenovo/Desktop/AIoT/first_day/firstday_afternoon/LiteOS_Lab_STM32_IoT/iot_link/network/tcpip/esp8266_socket\esp8266_socket_imp.c **** static int esp8266_send(int fd, const void *buf, int len, int flags)
 283:c:/Users/lenovo/Desktop/AIoT/first_day/firstday_afternoon/LiteOS_Lab_STM32_IoT/iot_link/network/tcpip/esp8266_socket\esp8266_socket_imp.c **** {
 879              		.loc 1 283 1
 880              		.cfi_startproc
 881              		@ args = 0, pretend = 0, frame = 88
 882              		@ frame_needed = 1, uses_anonymous_args = 0
 883 0000 80B5     		push	{r7, lr}
 884              	.LCFI44:
 885              		.cfi_def_cfa_offset 8
 886              		.cfi_offset 7, -8
 887              		.cfi_offset 14, -4
 888 0002 98B0     		sub	sp, sp, #96
 889              	.LCFI45:
 890              		.cfi_def_cfa_offset 104
 891 0004 02AF     		add	r7, sp, #8
 892              	.LCFI46:
 893              		.cfi_def_cfa 7, 96
 894 0006 F860     		str	r0, [r7, #12]
 895 0008 B960     		str	r1, [r7, #8]
 896 000a 7A60     		str	r2, [r7, #4]
 897 000c 3B60     		str	r3, [r7]
 284:c:/Users/lenovo/Desktop/AIoT/first_day/firstday_afternoon/LiteOS_Lab_STM32_IoT/iot_link/network/tcpip/esp8266_socket\esp8266_socket_imp.c **** 	char cmd[64];
ARM GAS  C:\Users\lenovo\AppData\Local\Temp\cc815I9s.s 			page 22


 285:c:/Users/lenovo/Desktop/AIoT/first_day/firstday_afternoon/LiteOS_Lab_STM32_IoT/iot_link/network/tcpip/esp8266_socket\esp8266_socket_imp.c ****     int ret = -1;
 898              		.loc 1 285 9
 899 000e 4FF0FF33 		mov	r3, #-1
 900 0012 7B65     		str	r3, [r7, #84]
 286:c:/Users/lenovo/Desktop/AIoT/first_day/firstday_afternoon/LiteOS_Lab_STM32_IoT/iot_link/network/tcpip/esp8266_socket\esp8266_socket_imp.c **** 
 287:c:/Users/lenovo/Desktop/AIoT/first_day/firstday_afternoon/LiteOS_Lab_STM32_IoT/iot_link/network/tcpip/esp8266_socket\esp8266_socket_imp.c ****     if(NULL != buf)
 901              		.loc 1 287 7
 902 0014 BB68     		ldr	r3, [r7, #8]
 903 0016 002B     		cmp	r3, #0
 904 0018 3BD0     		beq	.L48
 288:c:/Users/lenovo/Desktop/AIoT/first_day/firstday_afternoon/LiteOS_Lab_STM32_IoT/iot_link/network/tcpip/esp8266_socket\esp8266_socket_imp.c ****     {
 289:c:/Users/lenovo/Desktop/AIoT/first_day/firstday_afternoon/LiteOS_Lab_STM32_IoT/iot_link/network/tcpip/esp8266_socket\esp8266_socket_imp.c ****         memset(cmd,0,64);
 905              		.loc 1 289 9
 906 001a 07F11003 		add	r3, r7, #16
 907 001e 4022     		movs	r2, #64
 908 0020 0021     		movs	r1, #0
 909 0022 1846     		mov	r0, r3
 910 0024 FFF7FEFF 		bl	memset
 290:c:/Users/lenovo/Desktop/AIoT/first_day/firstday_afternoon/LiteOS_Lab_STM32_IoT/iot_link/network/tcpip/esp8266_socket\esp8266_socket_imp.c ****         memset(s_esp8266_sock_cb.oob_resp,0,1024);
 911              		.loc 1 290 9
 912 0028 4FF48062 		mov	r2, #1024
 913 002c 0021     		movs	r1, #0
 914 002e 1E48     		ldr	r0, .L51
 915 0030 FFF7FEFF 		bl	memset
 291:c:/Users/lenovo/Desktop/AIoT/first_day/firstday_afternoon/LiteOS_Lab_STM32_IoT/iot_link/network/tcpip/esp8266_socket\esp8266_socket_imp.c **** 
 292:c:/Users/lenovo/Desktop/AIoT/first_day/firstday_afternoon/LiteOS_Lab_STM32_IoT/iot_link/network/tcpip/esp8266_socket\esp8266_socket_imp.c ****         snprintf(cmd,64,"AT+CIPSEND=%d\r\n",len); //TODO:mux = 1
 916              		.loc 1 292 9
 917 0034 07F11000 		add	r0, r7, #16
 918 0038 7B68     		ldr	r3, [r7, #4]
 919 003a 1C4A     		ldr	r2, .L51+4
 920 003c 4021     		movs	r1, #64
 921 003e FFF7FEFF 		bl	snprintf
 293:c:/Users/lenovo/Desktop/AIoT/first_day/firstday_afternoon/LiteOS_Lab_STM32_IoT/iot_link/network/tcpip/esp8266_socket\esp8266_socket_imp.c **** 
 294:c:/Users/lenovo/Desktop/AIoT/first_day/firstday_afternoon/LiteOS_Lab_STM32_IoT/iot_link/network/tcpip/esp8266_socket\esp8266_socket_imp.c ****         if(esp8266_atcmd(cmd,">"))
 922              		.loc 1 294 12
 923 0042 07F11003 		add	r3, r7, #16
 924 0046 1A49     		ldr	r1, .L51+8
 925 0048 1846     		mov	r0, r3
 926 004a FFF7FEFF 		bl	esp8266_atcmd
 927 004e 0346     		mov	r3, r0
 928              		.loc 1 294 11
 929 0050 002B     		cmp	r3, #0
 930 0052 1ED0     		beq	.L48
 931              	.LBB3:
 295:c:/Users/lenovo/Desktop/AIoT/first_day/firstday_afternoon/LiteOS_Lab_STM32_IoT/iot_link/network/tcpip/esp8266_socket\esp8266_socket_imp.c ****         {
 296:c:/Users/lenovo/Desktop/AIoT/first_day/firstday_afternoon/LiteOS_Lab_STM32_IoT/iot_link/network/tcpip/esp8266_socket\esp8266_socket_imp.c ****         	ret = at_command((unsigned char *)buf,len,"SEND OK",(char *)s_esp8266_sock_cb.oob_resp,102
 932              		.loc 1 296 16
 933 0054 7968     		ldr	r1, [r7, #4]
 934 0056 41F27073 		movw	r3, #6000
 935 005a 0193     		str	r3, [sp, #4]
 936 005c 4FF48063 		mov	r3, #1024
 937 0060 0093     		str	r3, [sp]
 938 0062 114B     		ldr	r3, .L51
 939 0064 134A     		ldr	r2, .L51+12
 940 0066 B868     		ldr	r0, [r7, #8]
 941 0068 FFF7FEFF 		bl	at_command
 942 006c 7865     		str	r0, [r7, #84]
ARM GAS  C:\Users\lenovo\AppData\Local\Temp\cc815I9s.s 			page 23


 297:c:/Users/lenovo/Desktop/AIoT/first_day/firstday_afternoon/LiteOS_Lab_STM32_IoT/iot_link/network/tcpip/esp8266_socket\esp8266_socket_imp.c ****         	char *str;
 298:c:/Users/lenovo/Desktop/AIoT/first_day/firstday_afternoon/LiteOS_Lab_STM32_IoT/iot_link/network/tcpip/esp8266_socket\esp8266_socket_imp.c ****         	str = strstr(s_esp8266_sock_cb.oob_resp,CN_ESP8266_RCVINDEX);  //in some cases, +IPD is no
 943              		.loc 1 298 16
 944 006e 1249     		ldr	r1, .L51+16
 945 0070 0D48     		ldr	r0, .L51
 946 0072 FFF7FEFF 		bl	strstr
 947 0076 3865     		str	r0, [r7, #80]
 299:c:/Users/lenovo/Desktop/AIoT/first_day/firstday_afternoon/LiteOS_Lab_STM32_IoT/iot_link/network/tcpip/esp8266_socket\esp8266_socket_imp.c ****         	if(NULL != str)
 948              		.loc 1 299 12
 949 0078 3B6D     		ldr	r3, [r7, #80]
 950 007a 002B     		cmp	r3, #0
 951 007c 09D0     		beq	.L48
 300:c:/Users/lenovo/Desktop/AIoT/first_day/firstday_afternoon/LiteOS_Lab_STM32_IoT/iot_link/network/tcpip/esp8266_socket\esp8266_socket_imp.c ****         	{
 301:c:/Users/lenovo/Desktop/AIoT/first_day/firstday_afternoon/LiteOS_Lab_STM32_IoT/iot_link/network/tcpip/esp8266_socket\esp8266_socket_imp.c ****         		esp8266_rcvdeal(NULL,str,(char *)s_esp8266_sock_cb.oob_resp + ret - str);
 952              		.loc 1 301 71
 953 007e 7B6D     		ldr	r3, [r7, #84]
 954 0080 094A     		ldr	r2, .L51
 955 0082 1A44     		add	r2, r2, r3
 956              		.loc 1 301 77
 957 0084 3B6D     		ldr	r3, [r7, #80]
 958 0086 D31A     		subs	r3, r2, r3
 959              		.loc 1 301 11
 960 0088 1A46     		mov	r2, r3
 961 008a 396D     		ldr	r1, [r7, #80]
 962 008c 0020     		movs	r0, #0
 963 008e FFF7FEFF 		bl	esp8266_rcvdeal
 964              	.L48:
 965              	.LBE3:
 302:c:/Users/lenovo/Desktop/AIoT/first_day/firstday_afternoon/LiteOS_Lab_STM32_IoT/iot_link/network/tcpip/esp8266_socket\esp8266_socket_imp.c ****         	}
 303:c:/Users/lenovo/Desktop/AIoT/first_day/firstday_afternoon/LiteOS_Lab_STM32_IoT/iot_link/network/tcpip/esp8266_socket\esp8266_socket_imp.c ****         }
 304:c:/Users/lenovo/Desktop/AIoT/first_day/firstday_afternoon/LiteOS_Lab_STM32_IoT/iot_link/network/tcpip/esp8266_socket\esp8266_socket_imp.c ****     }
 305:c:/Users/lenovo/Desktop/AIoT/first_day/firstday_afternoon/LiteOS_Lab_STM32_IoT/iot_link/network/tcpip/esp8266_socket\esp8266_socket_imp.c ****     if(ret > 0)
 966              		.loc 1 305 7
 967 0092 7B6D     		ldr	r3, [r7, #84]
 968 0094 002B     		cmp	r3, #0
 969 0096 01DD     		ble	.L49
 306:c:/Users/lenovo/Desktop/AIoT/first_day/firstday_afternoon/LiteOS_Lab_STM32_IoT/iot_link/network/tcpip/esp8266_socket\esp8266_socket_imp.c ****     {
 307:c:/Users/lenovo/Desktop/AIoT/first_day/firstday_afternoon/LiteOS_Lab_STM32_IoT/iot_link/network/tcpip/esp8266_socket\esp8266_socket_imp.c ****     	ret = len;
 970              		.loc 1 307 10
 971 0098 7B68     		ldr	r3, [r7, #4]
 972 009a 7B65     		str	r3, [r7, #84]
 973              	.L49:
 308:c:/Users/lenovo/Desktop/AIoT/first_day/firstday_afternoon/LiteOS_Lab_STM32_IoT/iot_link/network/tcpip/esp8266_socket\esp8266_socket_imp.c ****     }
 309:c:/Users/lenovo/Desktop/AIoT/first_day/firstday_afternoon/LiteOS_Lab_STM32_IoT/iot_link/network/tcpip/esp8266_socket\esp8266_socket_imp.c ****     return ret;
 974              		.loc 1 309 12
 975 009c 7B6D     		ldr	r3, [r7, #84]
 310:c:/Users/lenovo/Desktop/AIoT/first_day/firstday_afternoon/LiteOS_Lab_STM32_IoT/iot_link/network/tcpip/esp8266_socket\esp8266_socket_imp.c **** }
 976              		.loc 1 310 1
 977 009e 1846     		mov	r0, r3
 978 00a0 5837     		adds	r7, r7, #88
 979              	.LCFI47:
 980              		.cfi_def_cfa_offset 8
 981 00a2 BD46     		mov	sp, r7
 982              	.LCFI48:
 983              		.cfi_def_cfa_register 13
 984              		@ sp needed
 985 00a4 80BD     		pop	{r7, pc}
ARM GAS  C:\Users\lenovo\AppData\Local\Temp\cc815I9s.s 			page 24


 986              	.L52:
 987 00a6 00BF     		.align	2
 988              	.L51:
 989 00a8 28000000 		.word	s_esp8266_sock_cb+40
 990 00ac 70000000 		.word	.LC5
 991 00b0 80000000 		.word	.LC6
 992 00b4 84000000 		.word	.LC7
 993 00b8 8C000000 		.word	.LC8
 994              		.cfi_endproc
 995              	.LFE11:
 997              		.section	.text.__esp8266_sendto,"ax",%progbits
 998              		.align	1
 999              		.syntax unified
 1000              		.thumb
 1001              		.thumb_func
 1002              		.fpu fpv4-sp-d16
 1004              	__esp8266_sendto:
 1005              	.LFB12:
 311:c:/Users/lenovo/Desktop/AIoT/first_day/firstday_afternoon/LiteOS_Lab_STM32_IoT/iot_link/network/tcpip/esp8266_socket\esp8266_socket_imp.c **** static int __esp8266_sendto(int fd, const void *msg, int len, int flags, struct sockaddr *addr, int
 312:c:/Users/lenovo/Desktop/AIoT/first_day/firstday_afternoon/LiteOS_Lab_STM32_IoT/iot_link/network/tcpip/esp8266_socket\esp8266_socket_imp.c **** {
 1006              		.loc 1 312 1
 1007              		.cfi_startproc
 1008              		@ args = 8, pretend = 0, frame = 16
 1009              		@ frame_needed = 1, uses_anonymous_args = 0
 1010 0000 80B5     		push	{r7, lr}
 1011              	.LCFI49:
 1012              		.cfi_def_cfa_offset 8
 1013              		.cfi_offset 7, -8
 1014              		.cfi_offset 14, -4
 1015 0002 84B0     		sub	sp, sp, #16
 1016              	.LCFI50:
 1017              		.cfi_def_cfa_offset 24
 1018 0004 00AF     		add	r7, sp, #0
 1019              	.LCFI51:
 1020              		.cfi_def_cfa_register 7
 1021 0006 F860     		str	r0, [r7, #12]
 1022 0008 B960     		str	r1, [r7, #8]
 1023 000a 7A60     		str	r2, [r7, #4]
 1024 000c 3B60     		str	r3, [r7]
 313:c:/Users/lenovo/Desktop/AIoT/first_day/firstday_afternoon/LiteOS_Lab_STM32_IoT/iot_link/network/tcpip/esp8266_socket\esp8266_socket_imp.c **** 	if (!s_esp8266_sock_cb.isconnect)
 1025              		.loc 1 313 24
 1026 000e 0A4B     		ldr	r3, .L56
 1027 0010 1B69     		ldr	r3, [r3, #16]
 1028              		.loc 1 313 5
 1029 0012 002B     		cmp	r3, #0
 1030 0014 04D1     		bne	.L54
 314:c:/Users/lenovo/Desktop/AIoT/first_day/firstday_afternoon/LiteOS_Lab_STM32_IoT/iot_link/network/tcpip/esp8266_socket\esp8266_socket_imp.c **** 	{
 315:c:/Users/lenovo/Desktop/AIoT/first_day/firstday_afternoon/LiteOS_Lab_STM32_IoT/iot_link/network/tcpip/esp8266_socket\esp8266_socket_imp.c **** 		__esp8266_connect(fd,addr,addrlen);
 1031              		.loc 1 315 3
 1032 0016 FA69     		ldr	r2, [r7, #28]
 1033 0018 B969     		ldr	r1, [r7, #24]
 1034 001a F868     		ldr	r0, [r7, #12]
 1035 001c FFF7FEFF 		bl	__esp8266_connect
 1036              	.L54:
 316:c:/Users/lenovo/Desktop/AIoT/first_day/firstday_afternoon/LiteOS_Lab_STM32_IoT/iot_link/network/tcpip/esp8266_socket\esp8266_socket_imp.c **** 	}
 317:c:/Users/lenovo/Desktop/AIoT/first_day/firstday_afternoon/LiteOS_Lab_STM32_IoT/iot_link/network/tcpip/esp8266_socket\esp8266_socket_imp.c ****     return esp8266_send(fd,msg,len,flags);
 1037              		.loc 1 317 12
ARM GAS  C:\Users\lenovo\AppData\Local\Temp\cc815I9s.s 			page 25


 1038 0020 3B68     		ldr	r3, [r7]
 1039 0022 7A68     		ldr	r2, [r7, #4]
 1040 0024 B968     		ldr	r1, [r7, #8]
 1041 0026 F868     		ldr	r0, [r7, #12]
 1042 0028 FFF7FEFF 		bl	esp8266_send
 1043 002c 0346     		mov	r3, r0
 318:c:/Users/lenovo/Desktop/AIoT/first_day/firstday_afternoon/LiteOS_Lab_STM32_IoT/iot_link/network/tcpip/esp8266_socket\esp8266_socket_imp.c **** }
 1044              		.loc 1 318 1
 1045 002e 1846     		mov	r0, r3
 1046 0030 1037     		adds	r7, r7, #16
 1047              	.LCFI52:
 1048              		.cfi_def_cfa_offset 8
 1049 0032 BD46     		mov	sp, r7
 1050              	.LCFI53:
 1051              		.cfi_def_cfa_register 13
 1052              		@ sp needed
 1053 0034 80BD     		pop	{r7, pc}
 1054              	.L57:
 1055 0036 00BF     		.align	2
 1056              	.L56:
 1057 0038 00000000 		.word	s_esp8266_sock_cb
 1058              		.cfi_endproc
 1059              	.LFE12:
 1061              		.section	.text.esp8266_recv,"ax",%progbits
 1062              		.align	1
 1063              		.syntax unified
 1064              		.thumb
 1065              		.thumb_func
 1066              		.fpu fpv4-sp-d16
 1068              	esp8266_recv:
 1069              	.LFB13:
 319:c:/Users/lenovo/Desktop/AIoT/first_day/firstday_afternoon/LiteOS_Lab_STM32_IoT/iot_link/network/tcpip/esp8266_socket\esp8266_socket_imp.c **** 
 320:c:/Users/lenovo/Desktop/AIoT/first_day/firstday_afternoon/LiteOS_Lab_STM32_IoT/iot_link/network/tcpip/esp8266_socket\esp8266_socket_imp.c **** static int esp8266_recv(int fd,void *buf,size_t len,int flags)
 321:c:/Users/lenovo/Desktop/AIoT/first_day/firstday_afternoon/LiteOS_Lab_STM32_IoT/iot_link/network/tcpip/esp8266_socket\esp8266_socket_imp.c **** {
 1070              		.loc 1 321 1
 1071              		.cfi_startproc
 1072              		@ args = 0, pretend = 0, frame = 32
 1073              		@ frame_needed = 1, uses_anonymous_args = 0
 1074 0000 80B5     		push	{r7, lr}
 1075              	.LCFI54:
 1076              		.cfi_def_cfa_offset 8
 1077              		.cfi_offset 7, -8
 1078              		.cfi_offset 14, -4
 1079 0002 88B0     		sub	sp, sp, #32
 1080              	.LCFI55:
 1081              		.cfi_def_cfa_offset 40
 1082 0004 00AF     		add	r7, sp, #0
 1083              	.LCFI56:
 1084              		.cfi_def_cfa_register 7
 1085 0006 F860     		str	r0, [r7, #12]
 1086 0008 B960     		str	r1, [r7, #8]
 1087 000a 7A60     		str	r2, [r7, #4]
 1088 000c 3B60     		str	r3, [r7]
 322:c:/Users/lenovo/Desktop/AIoT/first_day/firstday_afternoon/LiteOS_Lab_STM32_IoT/iot_link/network/tcpip/esp8266_socket\esp8266_socket_imp.c **** 	int ret = -1;
 1089              		.loc 1 322 6
 1090 000e 4FF0FF33 		mov	r3, #-1
 1091 0012 FB61     		str	r3, [r7, #28]
ARM GAS  C:\Users\lenovo\AppData\Local\Temp\cc815I9s.s 			page 26


 323:c:/Users/lenovo/Desktop/AIoT/first_day/firstday_afternoon/LiteOS_Lab_STM32_IoT/iot_link/network/tcpip/esp8266_socket\esp8266_socket_imp.c **** 	unsigned int timeout = 0;
 1092              		.loc 1 323 15
 1093 0014 0023     		movs	r3, #0
 1094 0016 BB61     		str	r3, [r7, #24]
 324:c:/Users/lenovo/Desktop/AIoT/first_day/firstday_afternoon/LiteOS_Lab_STM32_IoT/iot_link/network/tcpip/esp8266_socket\esp8266_socket_imp.c **** 
 325:c:/Users/lenovo/Desktop/AIoT/first_day/firstday_afternoon/LiteOS_Lab_STM32_IoT/iot_link/network/tcpip/esp8266_socket\esp8266_socket_imp.c **** 	timeout = s_esp8266_sock_cb.timeout;
 1095              		.loc 1 325 10
 1096 0018 214B     		ldr	r3, .L68
 1097 001a 5B69     		ldr	r3, [r3, #20]
 1098 001c BB61     		str	r3, [r7, #24]
 1099              	.L64:
 326:c:/Users/lenovo/Desktop/AIoT/first_day/firstday_afternoon/LiteOS_Lab_STM32_IoT/iot_link/network/tcpip/esp8266_socket\esp8266_socket_imp.c **** 	do{
 327:c:/Users/lenovo/Desktop/AIoT/first_day/firstday_afternoon/LiteOS_Lab_STM32_IoT/iot_link/network/tcpip/esp8266_socket\esp8266_socket_imp.c ****         if(s_esp8266_sock_cb.type == SOCK_DGRAM)
 1100              		.loc 1 327 29
 1101 001e 204B     		ldr	r3, .L68
 1102 0020 9B68     		ldr	r3, [r3, #8]
 1103              		.loc 1 327 11
 1104 0022 022B     		cmp	r3, #2
 1105 0024 14D1     		bne	.L59
 1106              	.LBB4:
 328:c:/Users/lenovo/Desktop/AIoT/first_day/firstday_afternoon/LiteOS_Lab_STM32_IoT/iot_link/network/tcpip/esp8266_socket\esp8266_socket_imp.c ****         {
 329:c:/Users/lenovo/Desktop/AIoT/first_day/firstday_afternoon/LiteOS_Lab_STM32_IoT/iot_link/network/tcpip/esp8266_socket\esp8266_socket_imp.c ****             unsigned short framelen = 0;
 1107              		.loc 1 329 28
 1108 0026 0023     		movs	r3, #0
 1109 0028 FB82     		strh	r3, [r7, #22]	@ movhi
 330:c:/Users/lenovo/Desktop/AIoT/first_day/firstday_afternoon/LiteOS_Lab_STM32_IoT/iot_link/network/tcpip/esp8266_socket\esp8266_socket_imp.c ****             ret = ring_buffer_read(&s_esp8266_sock_cb.esp8266_rcvring,(unsigned char *)&framelen,si
 1110              		.loc 1 330 19
 1111 002a 07F11603 		add	r3, r7, #22
 1112 002e 0222     		movs	r2, #2
 1113 0030 1946     		mov	r1, r3
 1114 0032 1C48     		ldr	r0, .L68+4
 1115 0034 FFF7FEFF 		bl	ring_buffer_read
 1116 0038 F861     		str	r0, [r7, #28]
 331:c:/Users/lenovo/Desktop/AIoT/first_day/firstday_afternoon/LiteOS_Lab_STM32_IoT/iot_link/network/tcpip/esp8266_socket\esp8266_socket_imp.c ****             ret = ring_buffer_read(&s_esp8266_sock_cb.esp8266_rcvring,(unsigned char *)buf,framelen
 1117              		.loc 1 331 19
 1118 003a FB8A     		ldrh	r3, [r7, #22]
 1119 003c 1A46     		mov	r2, r3
 1120 003e B968     		ldr	r1, [r7, #8]
 1121 0040 1848     		ldr	r0, .L68+4
 1122 0042 FFF7FEFF 		bl	ring_buffer_read
 1123 0046 F861     		str	r0, [r7, #28]
 332:c:/Users/lenovo/Desktop/AIoT/first_day/firstday_afternoon/LiteOS_Lab_STM32_IoT/iot_link/network/tcpip/esp8266_socket\esp8266_socket_imp.c ****             if(ret > 0)
 1124              		.loc 1 332 15
 1125 0048 FB69     		ldr	r3, [r7, #28]
 1126 004a 002B     		cmp	r3, #0
 1127 004c 0EDD     		ble	.L62
 333:c:/Users/lenovo/Desktop/AIoT/first_day/firstday_afternoon/LiteOS_Lab_STM32_IoT/iot_link/network/tcpip/esp8266_socket\esp8266_socket_imp.c ****             {
 334:c:/Users/lenovo/Desktop/AIoT/first_day/firstday_afternoon/LiteOS_Lab_STM32_IoT/iot_link/network/tcpip/esp8266_socket\esp8266_socket_imp.c ****                 break;
 1128              		.loc 1 334 17
 1129 004e 1BE0     		b	.L61
 1130              	.L59:
 1131              	.LBE4:
 335:c:/Users/lenovo/Desktop/AIoT/first_day/firstday_afternoon/LiteOS_Lab_STM32_IoT/iot_link/network/tcpip/esp8266_socket\esp8266_socket_imp.c ****             }
 336:c:/Users/lenovo/Desktop/AIoT/first_day/firstday_afternoon/LiteOS_Lab_STM32_IoT/iot_link/network/tcpip/esp8266_socket\esp8266_socket_imp.c ****         }
 337:c:/Users/lenovo/Desktop/AIoT/first_day/firstday_afternoon/LiteOS_Lab_STM32_IoT/iot_link/network/tcpip/esp8266_socket\esp8266_socket_imp.c ****         else if (s_esp8266_sock_cb.type == SOCK_STREAM)
 1132              		.loc 1 337 35
 1133 0050 134B     		ldr	r3, .L68
ARM GAS  C:\Users\lenovo\AppData\Local\Temp\cc815I9s.s 			page 27


 1134 0052 9B68     		ldr	r3, [r3, #8]
 1135              		.loc 1 337 17
 1136 0054 012B     		cmp	r3, #1
 1137 0056 09D1     		bne	.L62
 338:c:/Users/lenovo/Desktop/AIoT/first_day/firstday_afternoon/LiteOS_Lab_STM32_IoT/iot_link/network/tcpip/esp8266_socket\esp8266_socket_imp.c ****         {
 339:c:/Users/lenovo/Desktop/AIoT/first_day/firstday_afternoon/LiteOS_Lab_STM32_IoT/iot_link/network/tcpip/esp8266_socket\esp8266_socket_imp.c ****             ret = ring_buffer_read(&s_esp8266_sock_cb.esp8266_rcvring,(unsigned char *)buf,len);
 1138              		.loc 1 339 19
 1139 0058 7B68     		ldr	r3, [r7, #4]
 1140 005a 1A46     		mov	r2, r3
 1141 005c B968     		ldr	r1, [r7, #8]
 1142 005e 1148     		ldr	r0, .L68+4
 1143 0060 FFF7FEFF 		bl	ring_buffer_read
 1144 0064 F861     		str	r0, [r7, #28]
 340:c:/Users/lenovo/Desktop/AIoT/first_day/firstday_afternoon/LiteOS_Lab_STM32_IoT/iot_link/network/tcpip/esp8266_socket\esp8266_socket_imp.c ****             if(ret > 0)
 1145              		.loc 1 340 15
 1146 0066 FB69     		ldr	r3, [r7, #28]
 1147 0068 002B     		cmp	r3, #0
 1148 006a 0CDC     		bgt	.L67
 1149              	.L62:
 341:c:/Users/lenovo/Desktop/AIoT/first_day/firstday_afternoon/LiteOS_Lab_STM32_IoT/iot_link/network/tcpip/esp8266_socket\esp8266_socket_imp.c ****             {
 342:c:/Users/lenovo/Desktop/AIoT/first_day/firstday_afternoon/LiteOS_Lab_STM32_IoT/iot_link/network/tcpip/esp8266_socket\esp8266_socket_imp.c ****                 break;
 343:c:/Users/lenovo/Desktop/AIoT/first_day/firstday_afternoon/LiteOS_Lab_STM32_IoT/iot_link/network/tcpip/esp8266_socket\esp8266_socket_imp.c ****             }
 344:c:/Users/lenovo/Desktop/AIoT/first_day/firstday_afternoon/LiteOS_Lab_STM32_IoT/iot_link/network/tcpip/esp8266_socket\esp8266_socket_imp.c ****         }
 345:c:/Users/lenovo/Desktop/AIoT/first_day/firstday_afternoon/LiteOS_Lab_STM32_IoT/iot_link/network/tcpip/esp8266_socket\esp8266_socket_imp.c ****         if(timeout > 0)
 1150              		.loc 1 345 11
 1151 006c BB69     		ldr	r3, [r7, #24]
 1152 006e 002B     		cmp	r3, #0
 1153 0070 05D0     		beq	.L63
 346:c:/Users/lenovo/Desktop/AIoT/first_day/firstday_afternoon/LiteOS_Lab_STM32_IoT/iot_link/network/tcpip/esp8266_socket\esp8266_socket_imp.c ****         {
 347:c:/Users/lenovo/Desktop/AIoT/first_day/firstday_afternoon/LiteOS_Lab_STM32_IoT/iot_link/network/tcpip/esp8266_socket\esp8266_socket_imp.c ****             osal_task_sleep(1);
 1154              		.loc 1 347 13
 1155 0072 0120     		movs	r0, #1
 1156 0074 FFF7FEFF 		bl	osal_task_sleep
 348:c:/Users/lenovo/Desktop/AIoT/first_day/firstday_afternoon/LiteOS_Lab_STM32_IoT/iot_link/network/tcpip/esp8266_socket\esp8266_socket_imp.c ****             timeout--;
 1157              		.loc 1 348 20
 1158 0078 BB69     		ldr	r3, [r7, #24]
 1159 007a 013B     		subs	r3, r3, #1
 1160 007c BB61     		str	r3, [r7, #24]
 1161              	.L63:
 349:c:/Users/lenovo/Desktop/AIoT/first_day/firstday_afternoon/LiteOS_Lab_STM32_IoT/iot_link/network/tcpip/esp8266_socket\esp8266_socket_imp.c ****         }
 350:c:/Users/lenovo/Desktop/AIoT/first_day/firstday_afternoon/LiteOS_Lab_STM32_IoT/iot_link/network/tcpip/esp8266_socket\esp8266_socket_imp.c **** 	}while(timeout > 0);
 1162              		.loc 1 350 2
 1163 007e BB69     		ldr	r3, [r7, #24]
 1164 0080 002B     		cmp	r3, #0
 1165 0082 CCD1     		bne	.L64
 1166 0084 00E0     		b	.L61
 1167              	.L67:
 342:c:/Users/lenovo/Desktop/AIoT/first_day/firstday_afternoon/LiteOS_Lab_STM32_IoT/iot_link/network/tcpip/esp8266_socket\esp8266_socket_imp.c ****             }
 1168              		.loc 1 342 17
 1169 0086 00BF     		nop
 1170              	.L61:
 351:c:/Users/lenovo/Desktop/AIoT/first_day/firstday_afternoon/LiteOS_Lab_STM32_IoT/iot_link/network/tcpip/esp8266_socket\esp8266_socket_imp.c **** 
 352:c:/Users/lenovo/Desktop/AIoT/first_day/firstday_afternoon/LiteOS_Lab_STM32_IoT/iot_link/network/tcpip/esp8266_socket\esp8266_socket_imp.c **** 
 353:c:/Users/lenovo/Desktop/AIoT/first_day/firstday_afternoon/LiteOS_Lab_STM32_IoT/iot_link/network/tcpip/esp8266_socket\esp8266_socket_imp.c **** 	if(0 == ret)
 1171              		.loc 1 353 4
 1172 0088 FB69     		ldr	r3, [r7, #28]
 1173 008a 002B     		cmp	r3, #0
ARM GAS  C:\Users\lenovo\AppData\Local\Temp\cc815I9s.s 			page 28


 1174 008c 02D1     		bne	.L65
 354:c:/Users/lenovo/Desktop/AIoT/first_day/firstday_afternoon/LiteOS_Lab_STM32_IoT/iot_link/network/tcpip/esp8266_socket\esp8266_socket_imp.c **** 	{
 355:c:/Users/lenovo/Desktop/AIoT/first_day/firstday_afternoon/LiteOS_Lab_STM32_IoT/iot_link/network/tcpip/esp8266_socket\esp8266_socket_imp.c **** 		return -1;
 1175              		.loc 1 355 10
 1176 008e 4FF0FF33 		mov	r3, #-1
 1177 0092 00E0     		b	.L66
 1178              	.L65:
 356:c:/Users/lenovo/Desktop/AIoT/first_day/firstday_afternoon/LiteOS_Lab_STM32_IoT/iot_link/network/tcpip/esp8266_socket\esp8266_socket_imp.c **** 	}
 357:c:/Users/lenovo/Desktop/AIoT/first_day/firstday_afternoon/LiteOS_Lab_STM32_IoT/iot_link/network/tcpip/esp8266_socket\esp8266_socket_imp.c **** 	else return ret;
 1179              		.loc 1 357 14
 1180 0094 FB69     		ldr	r3, [r7, #28]
 1181              	.L66:
 358:c:/Users/lenovo/Desktop/AIoT/first_day/firstday_afternoon/LiteOS_Lab_STM32_IoT/iot_link/network/tcpip/esp8266_socket\esp8266_socket_imp.c **** }
 1182              		.loc 1 358 1
 1183 0096 1846     		mov	r0, r3
 1184 0098 2037     		adds	r7, r7, #32
 1185              	.LCFI57:
 1186              		.cfi_def_cfa_offset 8
 1187 009a BD46     		mov	sp, r7
 1188              	.LCFI58:
 1189              		.cfi_def_cfa_register 13
 1190              		@ sp needed
 1191 009c 80BD     		pop	{r7, pc}
 1192              	.L69:
 1193 009e 00BF     		.align	2
 1194              	.L68:
 1195 00a0 00000000 		.word	s_esp8266_sock_cb
 1196 00a4 18000000 		.word	s_esp8266_sock_cb+24
 1197              		.cfi_endproc
 1198              	.LFE13:
 1200              		.section	.text.__esp8266_recvfrom,"ax",%progbits
 1201              		.align	1
 1202              		.syntax unified
 1203              		.thumb
 1204              		.thumb_func
 1205              		.fpu fpv4-sp-d16
 1207              	__esp8266_recvfrom:
 1208              	.LFB14:
 359:c:/Users/lenovo/Desktop/AIoT/first_day/firstday_afternoon/LiteOS_Lab_STM32_IoT/iot_link/network/tcpip/esp8266_socket\esp8266_socket_imp.c **** 
 360:c:/Users/lenovo/Desktop/AIoT/first_day/firstday_afternoon/LiteOS_Lab_STM32_IoT/iot_link/network/tcpip/esp8266_socket\esp8266_socket_imp.c **** static int __esp8266_recvfrom(int fd, void *msg, int len, int flags, struct sockaddr *addr, socklen
 361:c:/Users/lenovo/Desktop/AIoT/first_day/firstday_afternoon/LiteOS_Lab_STM32_IoT/iot_link/network/tcpip/esp8266_socket\esp8266_socket_imp.c **** {
 1209              		.loc 1 361 1
 1210              		.cfi_startproc
 1211              		@ args = 8, pretend = 0, frame = 16
 1212              		@ frame_needed = 1, uses_anonymous_args = 0
 1213 0000 80B5     		push	{r7, lr}
 1214              	.LCFI59:
 1215              		.cfi_def_cfa_offset 8
 1216              		.cfi_offset 7, -8
 1217              		.cfi_offset 14, -4
 1218 0002 84B0     		sub	sp, sp, #16
 1219              	.LCFI60:
 1220              		.cfi_def_cfa_offset 24
 1221 0004 00AF     		add	r7, sp, #0
 1222              	.LCFI61:
 1223              		.cfi_def_cfa_register 7
 1224 0006 F860     		str	r0, [r7, #12]
ARM GAS  C:\Users\lenovo\AppData\Local\Temp\cc815I9s.s 			page 29


 1225 0008 B960     		str	r1, [r7, #8]
 1226 000a 7A60     		str	r2, [r7, #4]
 1227 000c 3B60     		str	r3, [r7]
 362:c:/Users/lenovo/Desktop/AIoT/first_day/firstday_afternoon/LiteOS_Lab_STM32_IoT/iot_link/network/tcpip/esp8266_socket\esp8266_socket_imp.c ****     return esp8266_recv(fd,msg,len,flags);
 1228              		.loc 1 362 12
 1229 000e 7A68     		ldr	r2, [r7, #4]
 1230 0010 3B68     		ldr	r3, [r7]
 1231 0012 B968     		ldr	r1, [r7, #8]
 1232 0014 F868     		ldr	r0, [r7, #12]
 1233 0016 FFF7FEFF 		bl	esp8266_recv
 1234 001a 0346     		mov	r3, r0
 363:c:/Users/lenovo/Desktop/AIoT/first_day/firstday_afternoon/LiteOS_Lab_STM32_IoT/iot_link/network/tcpip/esp8266_socket\esp8266_socket_imp.c **** }
 1235              		.loc 1 363 1
 1236 001c 1846     		mov	r0, r3
 1237 001e 1037     		adds	r7, r7, #16
 1238              	.LCFI62:
 1239              		.cfi_def_cfa_offset 8
 1240 0020 BD46     		mov	sp, r7
 1241              	.LCFI63:
 1242              		.cfi_def_cfa_register 13
 1243              		@ sp needed
 1244 0022 80BD     		pop	{r7, pc}
 1245              		.cfi_endproc
 1246              	.LFE14:
 1248              		.section	.text.__esp8266_setsockopt,"ax",%progbits
 1249              		.align	1
 1250              		.syntax unified
 1251              		.thumb
 1252              		.thumb_func
 1253              		.fpu fpv4-sp-d16
 1255              	__esp8266_setsockopt:
 1256              	.LFB15:
 364:c:/Users/lenovo/Desktop/AIoT/first_day/firstday_afternoon/LiteOS_Lab_STM32_IoT/iot_link/network/tcpip/esp8266_socket\esp8266_socket_imp.c **** 
 365:c:/Users/lenovo/Desktop/AIoT/first_day/firstday_afternoon/LiteOS_Lab_STM32_IoT/iot_link/network/tcpip/esp8266_socket\esp8266_socket_imp.c **** 
 366:c:/Users/lenovo/Desktop/AIoT/first_day/firstday_afternoon/LiteOS_Lab_STM32_IoT/iot_link/network/tcpip/esp8266_socket\esp8266_socket_imp.c **** static int __esp8266_setsockopt(int fd, int level, int option, const void *option_value, int option
 367:c:/Users/lenovo/Desktop/AIoT/first_day/firstday_afternoon/LiteOS_Lab_STM32_IoT/iot_link/network/tcpip/esp8266_socket\esp8266_socket_imp.c **** {
 1257              		.loc 1 367 1
 1258              		.cfi_startproc
 1259              		@ args = 4, pretend = 0, frame = 24
 1260              		@ frame_needed = 1, uses_anonymous_args = 0
 1261              		@ link register save eliminated.
 1262 0000 80B4     		push	{r7}
 1263              	.LCFI64:
 1264              		.cfi_def_cfa_offset 4
 1265              		.cfi_offset 7, -4
 1266 0002 87B0     		sub	sp, sp, #28
 1267              	.LCFI65:
 1268              		.cfi_def_cfa_offset 32
 1269 0004 00AF     		add	r7, sp, #0
 1270              	.LCFI66:
 1271              		.cfi_def_cfa_register 7
 1272 0006 F860     		str	r0, [r7, #12]
 1273 0008 B960     		str	r1, [r7, #8]
 1274 000a 7A60     		str	r2, [r7, #4]
 1275 000c 3B60     		str	r3, [r7]
 368:c:/Users/lenovo/Desktop/AIoT/first_day/firstday_afternoon/LiteOS_Lab_STM32_IoT/iot_link/network/tcpip/esp8266_socket\esp8266_socket_imp.c **** 	//TODO:MUX=1
 369:c:/Users/lenovo/Desktop/AIoT/first_day/firstday_afternoon/LiteOS_Lab_STM32_IoT/iot_link/network/tcpip/esp8266_socket\esp8266_socket_imp.c **** 	struct timeval *timedelay = (struct timeval *)option_value;
ARM GAS  C:\Users\lenovo\AppData\Local\Temp\cc815I9s.s 			page 30


 1276              		.loc 1 369 18
 1277 000e 3B68     		ldr	r3, [r7]
 1278 0010 7B61     		str	r3, [r7, #20]
 370:c:/Users/lenovo/Desktop/AIoT/first_day/firstday_afternoon/LiteOS_Lab_STM32_IoT/iot_link/network/tcpip/esp8266_socket\esp8266_socket_imp.c **** 	s_esp8266_sock_cb.timeout = (timedelay->tv_sec * 1000) + (timedelay->tv_usec / 1000);
 1279              		.loc 1 370 40
 1280 0012 7B69     		ldr	r3, [r7, #20]
 1281 0014 D3E90023 		ldrd	r2, [r3]
 1282              		.loc 1 370 57
 1283 0018 4FF47A73 		mov	r3, #1000
 1284 001c 03FB02F2 		mul	r2, r3, r2
 1285              		.loc 1 370 69
 1286 0020 7B69     		ldr	r3, [r7, #20]
 1287 0022 9B68     		ldr	r3, [r3, #8]
 1288              		.loc 1 370 79
 1289 0024 0749     		ldr	r1, .L74
 1290 0026 81FB0301 		smull	r0, r1, r1, r3
 1291 002a 8911     		asrs	r1, r1, #6
 1292 002c DB17     		asrs	r3, r3, #31
 1293 002e CB1A     		subs	r3, r1, r3
 1294              		.loc 1 370 57
 1295 0030 1344     		add	r3, r3, r2
 1296              		.loc 1 370 28
 1297 0032 054A     		ldr	r2, .L74+4
 1298 0034 5361     		str	r3, [r2, #20]
 371:c:/Users/lenovo/Desktop/AIoT/first_day/firstday_afternoon/LiteOS_Lab_STM32_IoT/iot_link/network/tcpip/esp8266_socket\esp8266_socket_imp.c ****     return 0;
 1299              		.loc 1 371 12
 1300 0036 0023     		movs	r3, #0
 372:c:/Users/lenovo/Desktop/AIoT/first_day/firstday_afternoon/LiteOS_Lab_STM32_IoT/iot_link/network/tcpip/esp8266_socket\esp8266_socket_imp.c **** }
 1301              		.loc 1 372 1
 1302 0038 1846     		mov	r0, r3
 1303 003a 1C37     		adds	r7, r7, #28
 1304              	.LCFI67:
 1305              		.cfi_def_cfa_offset 4
 1306 003c BD46     		mov	sp, r7
 1307              	.LCFI68:
 1308              		.cfi_def_cfa_register 13
 1309              		@ sp needed
 1310 003e 5DF8047B 		ldr	r7, [sp], #4
 1311              	.LCFI69:
 1312              		.cfi_restore 7
 1313              		.cfi_def_cfa_offset 0
 1314 0042 7047     		bx	lr
 1315              	.L75:
 1316              		.align	2
 1317              	.L74:
 1318 0044 D34D6210 		.word	274877907
 1319 0048 00000000 		.word	s_esp8266_sock_cb
 1320              		.cfi_endproc
 1321              	.LFE15:
 1323              		.section	.text.esp8266_getsockopt,"ax",%progbits
 1324              		.align	1
 1325              		.syntax unified
 1326              		.thumb
 1327              		.thumb_func
 1328              		.fpu fpv4-sp-d16
 1330              	esp8266_getsockopt:
 1331              	.LFB16:
ARM GAS  C:\Users\lenovo\AppData\Local\Temp\cc815I9s.s 			page 31


 373:c:/Users/lenovo/Desktop/AIoT/first_day/firstday_afternoon/LiteOS_Lab_STM32_IoT/iot_link/network/tcpip/esp8266_socket\esp8266_socket_imp.c **** 
 374:c:/Users/lenovo/Desktop/AIoT/first_day/firstday_afternoon/LiteOS_Lab_STM32_IoT/iot_link/network/tcpip/esp8266_socket\esp8266_socket_imp.c **** static int esp8266_getsockopt(int fd, int level, int optname, const void *optval, int optlen)
 375:c:/Users/lenovo/Desktop/AIoT/first_day/firstday_afternoon/LiteOS_Lab_STM32_IoT/iot_link/network/tcpip/esp8266_socket\esp8266_socket_imp.c **** {
 1332              		.loc 1 375 1
 1333              		.cfi_startproc
 1334              		@ args = 4, pretend = 0, frame = 16
 1335              		@ frame_needed = 1, uses_anonymous_args = 0
 1336              		@ link register save eliminated.
 1337 0000 80B4     		push	{r7}
 1338              	.LCFI70:
 1339              		.cfi_def_cfa_offset 4
 1340              		.cfi_offset 7, -4
 1341 0002 85B0     		sub	sp, sp, #20
 1342              	.LCFI71:
 1343              		.cfi_def_cfa_offset 24
 1344 0004 00AF     		add	r7, sp, #0
 1345              	.LCFI72:
 1346              		.cfi_def_cfa_register 7
 1347 0006 F860     		str	r0, [r7, #12]
 1348 0008 B960     		str	r1, [r7, #8]
 1349 000a 7A60     		str	r2, [r7, #4]
 1350 000c 3B60     		str	r3, [r7]
 376:c:/Users/lenovo/Desktop/AIoT/first_day/firstday_afternoon/LiteOS_Lab_STM32_IoT/iot_link/network/tcpip/esp8266_socket\esp8266_socket_imp.c **** 	//not implemented
 377:c:/Users/lenovo/Desktop/AIoT/first_day/firstday_afternoon/LiteOS_Lab_STM32_IoT/iot_link/network/tcpip/esp8266_socket\esp8266_socket_imp.c ****     return 0;
 1351              		.loc 1 377 12
 1352 000e 0023     		movs	r3, #0
 378:c:/Users/lenovo/Desktop/AIoT/first_day/firstday_afternoon/LiteOS_Lab_STM32_IoT/iot_link/network/tcpip/esp8266_socket\esp8266_socket_imp.c **** }
 1353              		.loc 1 378 1
 1354 0010 1846     		mov	r0, r3
 1355 0012 1437     		adds	r7, r7, #20
 1356              	.LCFI73:
 1357              		.cfi_def_cfa_offset 4
 1358 0014 BD46     		mov	sp, r7
 1359              	.LCFI74:
 1360              		.cfi_def_cfa_register 13
 1361              		@ sp needed
 1362 0016 5DF8047B 		ldr	r7, [sp], #4
 1363              	.LCFI75:
 1364              		.cfi_restore 7
 1365              		.cfi_def_cfa_offset 0
 1366 001a 7047     		bx	lr
 1367              		.cfi_endproc
 1368              	.LFE16:
 1370              		.section	.rodata
 1371 0093 00       		.align	2
 1372              	.LC9:
 1373 0094 41542B43 		.ascii	"AT+CIPCLOSE\015\012\000"
 1373      4950434C 
 1373      4F53450D 
 1373      0A00
 1374              		.section	.text.esp8266_close,"ax",%progbits
 1375              		.align	1
 1376              		.syntax unified
 1377              		.thumb
 1378              		.thumb_func
 1379              		.fpu fpv4-sp-d16
 1381              	esp8266_close:
ARM GAS  C:\Users\lenovo\AppData\Local\Temp\cc815I9s.s 			page 32


 1382              	.LFB17:
 379:c:/Users/lenovo/Desktop/AIoT/first_day/firstday_afternoon/LiteOS_Lab_STM32_IoT/iot_link/network/tcpip/esp8266_socket\esp8266_socket_imp.c **** 
 380:c:/Users/lenovo/Desktop/AIoT/first_day/firstday_afternoon/LiteOS_Lab_STM32_IoT/iot_link/network/tcpip/esp8266_socket\esp8266_socket_imp.c **** static int esp8266_close(int fd)
 381:c:/Users/lenovo/Desktop/AIoT/first_day/firstday_afternoon/LiteOS_Lab_STM32_IoT/iot_link/network/tcpip/esp8266_socket\esp8266_socket_imp.c **** {
 1383              		.loc 1 381 1
 1384              		.cfi_startproc
 1385              		@ args = 0, pretend = 0, frame = 80
 1386              		@ frame_needed = 1, uses_anonymous_args = 0
 1387 0000 80B5     		push	{r7, lr}
 1388              	.LCFI76:
 1389              		.cfi_def_cfa_offset 8
 1390              		.cfi_offset 7, -8
 1391              		.cfi_offset 14, -4
 1392 0002 94B0     		sub	sp, sp, #80
 1393              	.LCFI77:
 1394              		.cfi_def_cfa_offset 88
 1395 0004 00AF     		add	r7, sp, #0
 1396              	.LCFI78:
 1397              		.cfi_def_cfa_register 7
 1398 0006 7860     		str	r0, [r7, #4]
 382:c:/Users/lenovo/Desktop/AIoT/first_day/firstday_afternoon/LiteOS_Lab_STM32_IoT/iot_link/network/tcpip/esp8266_socket\esp8266_socket_imp.c **** 	char cmd[64];
 383:c:/Users/lenovo/Desktop/AIoT/first_day/firstday_afternoon/LiteOS_Lab_STM32_IoT/iot_link/network/tcpip/esp8266_socket\esp8266_socket_imp.c **** 	int ret = -1;
 1399              		.loc 1 383 6
 1400 0008 4FF0FF33 		mov	r3, #-1
 1401 000c FB64     		str	r3, [r7, #76]
 384:c:/Users/lenovo/Desktop/AIoT/first_day/firstday_afternoon/LiteOS_Lab_STM32_IoT/iot_link/network/tcpip/esp8266_socket\esp8266_socket_imp.c **** 	memset(cmd,0,64);
 1402              		.loc 1 384 2
 1403 000e 07F10C03 		add	r3, r7, #12
 1404 0012 4022     		movs	r2, #64
 1405 0014 0021     		movs	r1, #0
 1406 0016 1846     		mov	r0, r3
 1407 0018 FFF7FEFF 		bl	memset
 385:c:/Users/lenovo/Desktop/AIoT/first_day/firstday_afternoon/LiteOS_Lab_STM32_IoT/iot_link/network/tcpip/esp8266_socket\esp8266_socket_imp.c **** 	snprintf(cmd,64,"AT+CIPCLOSE\r\n");//TODO: MUX = 1;
 1408              		.loc 1 385 2
 1409 001c 07F10C03 		add	r3, r7, #12
 1410 0020 0B4A     		ldr	r2, .L81
 1411 0022 4021     		movs	r1, #64
 1412 0024 1846     		mov	r0, r3
 1413 0026 FFF7FEFF 		bl	snprintf
 386:c:/Users/lenovo/Desktop/AIoT/first_day/firstday_afternoon/LiteOS_Lab_STM32_IoT/iot_link/network/tcpip/esp8266_socket\esp8266_socket_imp.c **** 	if(esp8266_atcmd(cmd,"OK"))
 1414              		.loc 1 386 5
 1415 002a 07F10C03 		add	r3, r7, #12
 1416 002e 0949     		ldr	r1, .L81+4
 1417 0030 1846     		mov	r0, r3
 1418 0032 FFF7FEFF 		bl	esp8266_atcmd
 1419 0036 0346     		mov	r3, r0
 1420              		.loc 1 386 4
 1421 0038 002B     		cmp	r3, #0
 1422 003a 04D0     		beq	.L79
 387:c:/Users/lenovo/Desktop/AIoT/first_day/firstday_afternoon/LiteOS_Lab_STM32_IoT/iot_link/network/tcpip/esp8266_socket\esp8266_socket_imp.c **** 	{
 388:c:/Users/lenovo/Desktop/AIoT/first_day/firstday_afternoon/LiteOS_Lab_STM32_IoT/iot_link/network/tcpip/esp8266_socket\esp8266_socket_imp.c **** 		s_esp8266_sock_cb.isconnect = 0;
 1423              		.loc 1 388 31
 1424 003c 064B     		ldr	r3, .L81+8
 1425 003e 0022     		movs	r2, #0
 1426 0040 1A61     		str	r2, [r3, #16]
 389:c:/Users/lenovo/Desktop/AIoT/first_day/firstday_afternoon/LiteOS_Lab_STM32_IoT/iot_link/network/tcpip/esp8266_socket\esp8266_socket_imp.c ****     	ret = 0;
 1427              		.loc 1 389 10
ARM GAS  C:\Users\lenovo\AppData\Local\Temp\cc815I9s.s 			page 33


 1428 0042 0023     		movs	r3, #0
 1429 0044 FB64     		str	r3, [r7, #76]
 1430              	.L79:
 390:c:/Users/lenovo/Desktop/AIoT/first_day/firstday_afternoon/LiteOS_Lab_STM32_IoT/iot_link/network/tcpip/esp8266_socket\esp8266_socket_imp.c ****     }
 391:c:/Users/lenovo/Desktop/AIoT/first_day/firstday_afternoon/LiteOS_Lab_STM32_IoT/iot_link/network/tcpip/esp8266_socket\esp8266_socket_imp.c **** 	return ret;
 1431              		.loc 1 391 9
 1432 0046 FB6C     		ldr	r3, [r7, #76]
 392:c:/Users/lenovo/Desktop/AIoT/first_day/firstday_afternoon/LiteOS_Lab_STM32_IoT/iot_link/network/tcpip/esp8266_socket\esp8266_socket_imp.c **** }
 1433              		.loc 1 392 1
 1434 0048 1846     		mov	r0, r3
 1435 004a 5037     		adds	r7, r7, #80
 1436              	.LCFI79:
 1437              		.cfi_def_cfa_offset 8
 1438 004c BD46     		mov	sp, r7
 1439              	.LCFI80:
 1440              		.cfi_def_cfa_register 13
 1441              		@ sp needed
 1442 004e 80BD     		pop	{r7, pc}
 1443              	.L82:
 1444              		.align	2
 1445              	.L81:
 1446 0050 94000000 		.word	.LC9
 1447 0054 6C000000 		.word	.LC4
 1448 0058 00000000 		.word	s_esp8266_sock_cb
 1449              		.cfi_endproc
 1450              	.LFE17:
 1452              		.section	.text.esp8266_shutdown,"ax",%progbits
 1453              		.align	1
 1454              		.syntax unified
 1455              		.thumb
 1456              		.thumb_func
 1457              		.fpu fpv4-sp-d16
 1459              	esp8266_shutdown:
 1460              	.LFB18:
 393:c:/Users/lenovo/Desktop/AIoT/first_day/firstday_afternoon/LiteOS_Lab_STM32_IoT/iot_link/network/tcpip/esp8266_socket\esp8266_socket_imp.c **** 
 394:c:/Users/lenovo/Desktop/AIoT/first_day/firstday_afternoon/LiteOS_Lab_STM32_IoT/iot_link/network/tcpip/esp8266_socket\esp8266_socket_imp.c **** static int esp8266_shutdown(int fd, int how)
 395:c:/Users/lenovo/Desktop/AIoT/first_day/firstday_afternoon/LiteOS_Lab_STM32_IoT/iot_link/network/tcpip/esp8266_socket\esp8266_socket_imp.c **** {
 1461              		.loc 1 395 1
 1462              		.cfi_startproc
 1463              		@ args = 0, pretend = 0, frame = 8
 1464              		@ frame_needed = 1, uses_anonymous_args = 0
 1465 0000 80B5     		push	{r7, lr}
 1466              	.LCFI81:
 1467              		.cfi_def_cfa_offset 8
 1468              		.cfi_offset 7, -8
 1469              		.cfi_offset 14, -4
 1470 0002 82B0     		sub	sp, sp, #8
 1471              	.LCFI82:
 1472              		.cfi_def_cfa_offset 16
 1473 0004 00AF     		add	r7, sp, #0
 1474              	.LCFI83:
 1475              		.cfi_def_cfa_register 7
 1476 0006 7860     		str	r0, [r7, #4]
 1477 0008 3960     		str	r1, [r7]
 396:c:/Users/lenovo/Desktop/AIoT/first_day/firstday_afternoon/LiteOS_Lab_STM32_IoT/iot_link/network/tcpip/esp8266_socket\esp8266_socket_imp.c **** 	return esp8266_close(fd);
 1478              		.loc 1 396 9
 1479 000a 7868     		ldr	r0, [r7, #4]
ARM GAS  C:\Users\lenovo\AppData\Local\Temp\cc815I9s.s 			page 34


 1480 000c FFF7FEFF 		bl	esp8266_close
 1481 0010 0346     		mov	r3, r0
 397:c:/Users/lenovo/Desktop/AIoT/first_day/firstday_afternoon/LiteOS_Lab_STM32_IoT/iot_link/network/tcpip/esp8266_socket\esp8266_socket_imp.c **** }
 1482              		.loc 1 397 1
 1483 0012 1846     		mov	r0, r3
 1484 0014 0837     		adds	r7, r7, #8
 1485              	.LCFI84:
 1486              		.cfi_def_cfa_offset 8
 1487 0016 BD46     		mov	sp, r7
 1488              	.LCFI85:
 1489              		.cfi_def_cfa_register 13
 1490              		@ sp needed
 1491 0018 80BD     		pop	{r7, pc}
 1492              		.cfi_endproc
 1493              	.LFE18:
 1495              		.section	.text.esp8266_getsockname,"ax",%progbits
 1496              		.align	1
 1497              		.syntax unified
 1498              		.thumb
 1499              		.thumb_func
 1500              		.fpu fpv4-sp-d16
 1502              	esp8266_getsockname:
 1503              	.LFB19:
 398:c:/Users/lenovo/Desktop/AIoT/first_day/firstday_afternoon/LiteOS_Lab_STM32_IoT/iot_link/network/tcpip/esp8266_socket\esp8266_socket_imp.c **** 
 399:c:/Users/lenovo/Desktop/AIoT/first_day/firstday_afternoon/LiteOS_Lab_STM32_IoT/iot_link/network/tcpip/esp8266_socket\esp8266_socket_imp.c **** static int esp8266_getsockname(int fd, struct sockaddr *addr,socklen_t *addrlen)
 400:c:/Users/lenovo/Desktop/AIoT/first_day/firstday_afternoon/LiteOS_Lab_STM32_IoT/iot_link/network/tcpip/esp8266_socket\esp8266_socket_imp.c **** {
 1504              		.loc 1 400 1
 1505              		.cfi_startproc
 1506              		@ args = 0, pretend = 0, frame = 16
 1507              		@ frame_needed = 1, uses_anonymous_args = 0
 1508              		@ link register save eliminated.
 1509 0000 80B4     		push	{r7}
 1510              	.LCFI86:
 1511              		.cfi_def_cfa_offset 4
 1512              		.cfi_offset 7, -4
 1513 0002 85B0     		sub	sp, sp, #20
 1514              	.LCFI87:
 1515              		.cfi_def_cfa_offset 24
 1516 0004 00AF     		add	r7, sp, #0
 1517              	.LCFI88:
 1518              		.cfi_def_cfa_register 7
 1519 0006 F860     		str	r0, [r7, #12]
 1520 0008 B960     		str	r1, [r7, #8]
 1521 000a 7A60     		str	r2, [r7, #4]
 401:c:/Users/lenovo/Desktop/AIoT/first_day/firstday_afternoon/LiteOS_Lab_STM32_IoT/iot_link/network/tcpip/esp8266_socket\esp8266_socket_imp.c ****     //not implemented
 402:c:/Users/lenovo/Desktop/AIoT/first_day/firstday_afternoon/LiteOS_Lab_STM32_IoT/iot_link/network/tcpip/esp8266_socket\esp8266_socket_imp.c ****     return 0;
 1522              		.loc 1 402 12
 1523 000c 0023     		movs	r3, #0
 403:c:/Users/lenovo/Desktop/AIoT/first_day/firstday_afternoon/LiteOS_Lab_STM32_IoT/iot_link/network/tcpip/esp8266_socket\esp8266_socket_imp.c **** }
 1524              		.loc 1 403 1
 1525 000e 1846     		mov	r0, r3
 1526 0010 1437     		adds	r7, r7, #20
 1527              	.LCFI89:
 1528              		.cfi_def_cfa_offset 4
 1529 0012 BD46     		mov	sp, r7
 1530              	.LCFI90:
 1531              		.cfi_def_cfa_register 13
ARM GAS  C:\Users\lenovo\AppData\Local\Temp\cc815I9s.s 			page 35


 1532              		@ sp needed
 1533 0014 5DF8047B 		ldr	r7, [sp], #4
 1534              	.LCFI91:
 1535              		.cfi_restore 7
 1536              		.cfi_def_cfa_offset 0
 1537 0018 7047     		bx	lr
 1538              		.cfi_endproc
 1539              	.LFE19:
 1541              		.section	.text.esp8266_getpeername,"ax",%progbits
 1542              		.align	1
 1543              		.syntax unified
 1544              		.thumb
 1545              		.thumb_func
 1546              		.fpu fpv4-sp-d16
 1548              	esp8266_getpeername:
 1549              	.LFB20:
 404:c:/Users/lenovo/Desktop/AIoT/first_day/firstday_afternoon/LiteOS_Lab_STM32_IoT/iot_link/network/tcpip/esp8266_socket\esp8266_socket_imp.c **** 
 405:c:/Users/lenovo/Desktop/AIoT/first_day/firstday_afternoon/LiteOS_Lab_STM32_IoT/iot_link/network/tcpip/esp8266_socket\esp8266_socket_imp.c **** static int esp8266_getpeername(int fd, struct sockaddr *addr,socklen_t *addrlen)
 406:c:/Users/lenovo/Desktop/AIoT/first_day/firstday_afternoon/LiteOS_Lab_STM32_IoT/iot_link/network/tcpip/esp8266_socket\esp8266_socket_imp.c **** {
 1550              		.loc 1 406 1
 1551              		.cfi_startproc
 1552              		@ args = 0, pretend = 0, frame = 16
 1553              		@ frame_needed = 1, uses_anonymous_args = 0
 1554              		@ link register save eliminated.
 1555 0000 80B4     		push	{r7}
 1556              	.LCFI92:
 1557              		.cfi_def_cfa_offset 4
 1558              		.cfi_offset 7, -4
 1559 0002 85B0     		sub	sp, sp, #20
 1560              	.LCFI93:
 1561              		.cfi_def_cfa_offset 24
 1562 0004 00AF     		add	r7, sp, #0
 1563              	.LCFI94:
 1564              		.cfi_def_cfa_register 7
 1565 0006 F860     		str	r0, [r7, #12]
 1566 0008 B960     		str	r1, [r7, #8]
 1567 000a 7A60     		str	r2, [r7, #4]
 407:c:/Users/lenovo/Desktop/AIoT/first_day/firstday_afternoon/LiteOS_Lab_STM32_IoT/iot_link/network/tcpip/esp8266_socket\esp8266_socket_imp.c ****     //not implemented
 408:c:/Users/lenovo/Desktop/AIoT/first_day/firstday_afternoon/LiteOS_Lab_STM32_IoT/iot_link/network/tcpip/esp8266_socket\esp8266_socket_imp.c ****     return 0;
 1568              		.loc 1 408 12
 1569 000c 0023     		movs	r3, #0
 409:c:/Users/lenovo/Desktop/AIoT/first_day/firstday_afternoon/LiteOS_Lab_STM32_IoT/iot_link/network/tcpip/esp8266_socket\esp8266_socket_imp.c **** }
 1570              		.loc 1 409 1
 1571 000e 1846     		mov	r0, r3
 1572 0010 1437     		adds	r7, r7, #20
 1573              	.LCFI95:
 1574              		.cfi_def_cfa_offset 4
 1575 0012 BD46     		mov	sp, r7
 1576              	.LCFI96:
 1577              		.cfi_def_cfa_register 13
 1578              		@ sp needed
 1579 0014 5DF8047B 		ldr	r7, [sp], #4
 1580              	.LCFI97:
 1581              		.cfi_restore 7
 1582              		.cfi_def_cfa_offset 0
 1583 0018 7047     		bx	lr
 1584              		.cfi_endproc
ARM GAS  C:\Users\lenovo\AppData\Local\Temp\cc815I9s.s 			page 36


 1585              	.LFE20:
 1587              		.section	.bss.s_esp8266_hostent,"aw",%nobits
 1588              		.align	2
 1591              	s_esp8266_hostent:
 1592 0000 00000000 		.space	20
 1592      00000000 
 1592      00000000 
 1592      00000000 
 1592      00000000 
 1593              		.section	.bss.s_esp8266_ipv4_addr,"aw",%nobits
 1594              		.align	2
 1597              	s_esp8266_ipv4_addr:
 1598 0000 00000000 		.space	4
 1599              		.section	.bss.s_esp8266_ipv4_lst,"aw",%nobits
 1600              		.align	2
 1603              	s_esp8266_ipv4_lst:
 1604 0000 00000000 		.space	8
 1604      00000000 
 1605              		.section	.rodata
 1606 00a2 0000     		.align	2
 1607              	.LC10:
 1608 00a4 41542B43 		.ascii	"AT+CIPDOMAIN=\"%s\"\015\012\000"
 1608      4950444F 
 1608      4D41494E 
 1608      3D222573 
 1608      220D0A00 
 1609              		.align	2
 1610              	.LC11:
 1611 00b8 2B434950 		.ascii	"+CIPDOMAIN\000"
 1611      444F4D41 
 1611      494E00
 1612 00c3 00       		.align	2
 1613              	.LC12:
 1614 00c4 25642E25 		.ascii	"%d.%d.%d.%d\000"
 1614      642E2564 
 1614      2E256400 
 1615              		.section	.text.esp8266_gethostbyname,"ax",%progbits
 1616              		.align	1
 1617              		.syntax unified
 1618              		.thumb
 1619              		.thumb_func
 1620              		.fpu fpv4-sp-d16
 1622              	esp8266_gethostbyname:
 1623              	.LFB21:
 410:c:/Users/lenovo/Desktop/AIoT/first_day/firstday_afternoon/LiteOS_Lab_STM32_IoT/iot_link/network/tcpip/esp8266_socket\esp8266_socket_imp.c **** 
 411:c:/Users/lenovo/Desktop/AIoT/first_day/firstday_afternoon/LiteOS_Lab_STM32_IoT/iot_link/network/tcpip/esp8266_socket\esp8266_socket_imp.c **** ///< here we must make sure that the hostent returned by gethostbyname won't be freeed, and
 412:c:/Users/lenovo/Desktop/AIoT/first_day/firstday_afternoon/LiteOS_Lab_STM32_IoT/iot_link/network/tcpip/esp8266_socket\esp8266_socket_imp.c **** ///< this data structure must be a static one, so we set it as a local global one
 413:c:/Users/lenovo/Desktop/AIoT/first_day/firstday_afternoon/LiteOS_Lab_STM32_IoT/iot_link/network/tcpip/esp8266_socket\esp8266_socket_imp.c **** 
 414:c:/Users/lenovo/Desktop/AIoT/first_day/firstday_afternoon/LiteOS_Lab_STM32_IoT/iot_link/network/tcpip/esp8266_socket\esp8266_socket_imp.c **** static struct hostent s_esp8266_hostent;
 415:c:/Users/lenovo/Desktop/AIoT/first_day/firstday_afternoon/LiteOS_Lab_STM32_IoT/iot_link/network/tcpip/esp8266_socket\esp8266_socket_imp.c **** static uint8_t        s_esp8266_ipv4_addr[4];
 416:c:/Users/lenovo/Desktop/AIoT/first_day/firstday_afternoon/LiteOS_Lab_STM32_IoT/iot_link/network/tcpip/esp8266_socket\esp8266_socket_imp.c **** static char          *s_esp8266_ipv4_lst[2];    ///< must be 2 or more because it terminated by NUL
 417:c:/Users/lenovo/Desktop/AIoT/first_day/firstday_afternoon/LiteOS_Lab_STM32_IoT/iot_link/network/tcpip/esp8266_socket\esp8266_socket_imp.c **** static struct hostent *esp8266_gethostbyname(const char *name)
 418:c:/Users/lenovo/Desktop/AIoT/first_day/firstday_afternoon/LiteOS_Lab_STM32_IoT/iot_link/network/tcpip/esp8266_socket\esp8266_socket_imp.c **** {
 1624              		.loc 1 418 1
 1625              		.cfi_startproc
 1626              		@ args = 0, pretend = 0, frame = 168
 1627              		@ frame_needed = 1, uses_anonymous_args = 0
ARM GAS  C:\Users\lenovo\AppData\Local\Temp\cc815I9s.s 			page 37


 1628 0000 80B5     		push	{r7, lr}
 1629              	.LCFI98:
 1630              		.cfi_def_cfa_offset 8
 1631              		.cfi_offset 7, -8
 1632              		.cfi_offset 14, -4
 1633 0002 ACB0     		sub	sp, sp, #176
 1634              	.LCFI99:
 1635              		.cfi_def_cfa_offset 184
 1636 0004 02AF     		add	r7, sp, #8
 1637              	.LCFI100:
 1638              		.cfi_def_cfa 7, 176
 1639 0006 7860     		str	r0, [r7, #4]
 419:c:/Users/lenovo/Desktop/AIoT/first_day/firstday_afternoon/LiteOS_Lab_STM32_IoT/iot_link/network/tcpip/esp8266_socket\esp8266_socket_imp.c **** 	char cmd[64];
 420:c:/Users/lenovo/Desktop/AIoT/first_day/firstday_afternoon/LiteOS_Lab_STM32_IoT/iot_link/network/tcpip/esp8266_socket\esp8266_socket_imp.c **** 	char resp[64];
 421:c:/Users/lenovo/Desktop/AIoT/first_day/firstday_afternoon/LiteOS_Lab_STM32_IoT/iot_link/network/tcpip/esp8266_socket\esp8266_socket_imp.c **** 
 422:c:/Users/lenovo/Desktop/AIoT/first_day/firstday_afternoon/LiteOS_Lab_STM32_IoT/iot_link/network/tcpip/esp8266_socket\esp8266_socket_imp.c **** 	char *str;
 423:c:/Users/lenovo/Desktop/AIoT/first_day/firstday_afternoon/LiteOS_Lab_STM32_IoT/iot_link/network/tcpip/esp8266_socket\esp8266_socket_imp.c **** 	int ipv4[4];
 424:c:/Users/lenovo/Desktop/AIoT/first_day/firstday_afternoon/LiteOS_Lab_STM32_IoT/iot_link/network/tcpip/esp8266_socket\esp8266_socket_imp.c **** 	int fmt_num;
 425:c:/Users/lenovo/Desktop/AIoT/first_day/firstday_afternoon/LiteOS_Lab_STM32_IoT/iot_link/network/tcpip/esp8266_socket\esp8266_socket_imp.c **** 
 426:c:/Users/lenovo/Desktop/AIoT/first_day/firstday_afternoon/LiteOS_Lab_STM32_IoT/iot_link/network/tcpip/esp8266_socket\esp8266_socket_imp.c **** 	struct hostent *hptr = NULL;
 1640              		.loc 1 426 18
 1641 0008 0023     		movs	r3, #0
 1642 000a C7F8A430 		str	r3, [r7, #164]
 427:c:/Users/lenovo/Desktop/AIoT/first_day/firstday_afternoon/LiteOS_Lab_STM32_IoT/iot_link/network/tcpip/esp8266_socket\esp8266_socket_imp.c **** 
 428:c:/Users/lenovo/Desktop/AIoT/first_day/firstday_afternoon/LiteOS_Lab_STM32_IoT/iot_link/network/tcpip/esp8266_socket\esp8266_socket_imp.c **** 	memset(cmd,0,64);
 1643              		.loc 1 428 2
 1644 000e 07F15C03 		add	r3, r7, #92
 1645 0012 4022     		movs	r2, #64
 1646 0014 0021     		movs	r1, #0
 1647 0016 1846     		mov	r0, r3
 1648 0018 FFF7FEFF 		bl	memset
 429:c:/Users/lenovo/Desktop/AIoT/first_day/firstday_afternoon/LiteOS_Lab_STM32_IoT/iot_link/network/tcpip/esp8266_socket\esp8266_socket_imp.c **** 	snprintf(cmd,64,"AT+CIPDOMAIN=\"%s\"\r\n",name);
 1649              		.loc 1 429 2
 1650 001c 07F15C00 		add	r0, r7, #92
 1651 0020 7B68     		ldr	r3, [r7, #4]
 1652 0022 584A     		ldr	r2, .L95
 1653 0024 4021     		movs	r1, #64
 1654 0026 FFF7FEFF 		bl	snprintf
 430:c:/Users/lenovo/Desktop/AIoT/first_day/firstday_afternoon/LiteOS_Lab_STM32_IoT/iot_link/network/tcpip/esp8266_socket\esp8266_socket_imp.c **** 	if(false == esp8266_atcmd_response(cmd,"+CIPDOMAIN",resp,64))
 1655              		.loc 1 430 14
 1656 002a 07F11C02 		add	r2, r7, #28
 1657 002e 07F15C00 		add	r0, r7, #92
 1658 0032 4023     		movs	r3, #64
 1659 0034 5449     		ldr	r1, .L95+4
 1660 0036 FFF7FEFF 		bl	esp8266_atcmd_response
 1661 003a 0346     		mov	r3, r0
 1662              		.loc 1 430 4
 1663 003c 002B     		cmp	r3, #0
 1664 003e 47D1     		bne	.L90
 431:c:/Users/lenovo/Desktop/AIoT/first_day/firstday_afternoon/LiteOS_Lab_STM32_IoT/iot_link/network/tcpip/esp8266_socket\esp8266_socket_imp.c **** 	{
 432:c:/Users/lenovo/Desktop/AIoT/first_day/firstday_afternoon/LiteOS_Lab_STM32_IoT/iot_link/network/tcpip/esp8266_socket\esp8266_socket_imp.c **** 	    hptr = &s_esp8266_hostent;
 1665              		.loc 1 432 11
 1666 0040 524B     		ldr	r3, .L95+8
 1667 0042 C7F8A430 		str	r3, [r7, #164]
 433:c:/Users/lenovo/Desktop/AIoT/first_day/firstday_afternoon/LiteOS_Lab_STM32_IoT/iot_link/network/tcpip/esp8266_socket\esp8266_socket_imp.c **** 	    memset(hptr,0,sizeof(struct hostent));
 1668              		.loc 1 433 6
 1669 0046 1422     		movs	r2, #20
ARM GAS  C:\Users\lenovo\AppData\Local\Temp\cc815I9s.s 			page 38


 1670 0048 0021     		movs	r1, #0
 1671 004a D7F8A400 		ldr	r0, [r7, #164]
 1672 004e FFF7FEFF 		bl	memset
 434:c:/Users/lenovo/Desktop/AIoT/first_day/firstday_afternoon/LiteOS_Lab_STM32_IoT/iot_link/network/tcpip/esp8266_socket\esp8266_socket_imp.c **** 	    ///< we could not resolve it by the at device, so we check if your address if dot point
 435:c:/Users/lenovo/Desktop/AIoT/first_day/firstday_afternoon/LiteOS_Lab_STM32_IoT/iot_link/network/tcpip/esp8266_socket\esp8266_socket_imp.c ****         fmt_num = sscanf(name,"%d.%d.%d.%d",&ipv4[0],&ipv4[1],&ipv4[2],&ipv4[3]);
 1673              		.loc 1 435 19
 1674 0052 07F10C03 		add	r3, r7, #12
 1675 0056 191D     		adds	r1, r3, #4
 1676 0058 07F10C02 		add	r2, r7, #12
 1677 005c 07F10C03 		add	r3, r7, #12
 1678 0060 0C33     		adds	r3, r3, #12
 1679 0062 0193     		str	r3, [sp, #4]
 1680 0064 07F10C03 		add	r3, r7, #12
 1681 0068 0833     		adds	r3, r3, #8
 1682 006a 0093     		str	r3, [sp]
 1683 006c 0B46     		mov	r3, r1
 1684 006e 4849     		ldr	r1, .L95+12
 1685 0070 7868     		ldr	r0, [r7, #4]
 1686 0072 FFF7FEFF 		bl	sscanf
 1687 0076 C7F89C00 		str	r0, [r7, #156]
 436:c:/Users/lenovo/Desktop/AIoT/first_day/firstday_afternoon/LiteOS_Lab_STM32_IoT/iot_link/network/tcpip/esp8266_socket\esp8266_socket_imp.c ****         if(fmt_num > 0)
 1688              		.loc 1 436 11
 1689 007a D7F89C30 		ldr	r3, [r7, #156]
 1690 007e 002B     		cmp	r3, #0
 1691 0080 24DD     		ble	.L91
 437:c:/Users/lenovo/Desktop/AIoT/first_day/firstday_afternoon/LiteOS_Lab_STM32_IoT/iot_link/network/tcpip/esp8266_socket\esp8266_socket_imp.c ****         {
 438:c:/Users/lenovo/Desktop/AIoT/first_day/firstday_afternoon/LiteOS_Lab_STM32_IoT/iot_link/network/tcpip/esp8266_socket\esp8266_socket_imp.c ****             hptr->h_addrtype = AF_INET;
 1692              		.loc 1 438 30
 1693 0082 D7F8A430 		ldr	r3, [r7, #164]
 1694 0086 0222     		movs	r2, #2
 1695 0088 9A60     		str	r2, [r3, #8]
 439:c:/Users/lenovo/Desktop/AIoT/first_day/firstday_afternoon/LiteOS_Lab_STM32_IoT/iot_link/network/tcpip/esp8266_socket\esp8266_socket_imp.c ****             hptr->h_length = 4;
 1696              		.loc 1 439 28
 1697 008a D7F8A430 		ldr	r3, [r7, #164]
 1698 008e 0422     		movs	r2, #4
 1699 0090 DA60     		str	r2, [r3, #12]
 440:c:/Users/lenovo/Desktop/AIoT/first_day/firstday_afternoon/LiteOS_Lab_STM32_IoT/iot_link/network/tcpip/esp8266_socket\esp8266_socket_imp.c ****             s_esp8266_ipv4_addr[0] = ipv4[0];
 1700              		.loc 1 440 42
 1701 0092 FB68     		ldr	r3, [r7, #12]
 1702              		.loc 1 440 36
 1703 0094 DAB2     		uxtb	r2, r3
 1704 0096 3F4B     		ldr	r3, .L95+16
 1705 0098 1A70     		strb	r2, [r3]
 441:c:/Users/lenovo/Desktop/AIoT/first_day/firstday_afternoon/LiteOS_Lab_STM32_IoT/iot_link/network/tcpip/esp8266_socket\esp8266_socket_imp.c ****             s_esp8266_ipv4_addr[1] = ipv4[1];
 1706              		.loc 1 441 42
 1707 009a 3B69     		ldr	r3, [r7, #16]
 1708              		.loc 1 441 36
 1709 009c DAB2     		uxtb	r2, r3
 1710 009e 3D4B     		ldr	r3, .L95+16
 1711 00a0 5A70     		strb	r2, [r3, #1]
 442:c:/Users/lenovo/Desktop/AIoT/first_day/firstday_afternoon/LiteOS_Lab_STM32_IoT/iot_link/network/tcpip/esp8266_socket\esp8266_socket_imp.c ****             s_esp8266_ipv4_addr[2] = ipv4[2];
 1712              		.loc 1 442 42
 1713 00a2 7B69     		ldr	r3, [r7, #20]
 1714              		.loc 1 442 36
 1715 00a4 DAB2     		uxtb	r2, r3
 1716 00a6 3B4B     		ldr	r3, .L95+16
 1717 00a8 9A70     		strb	r2, [r3, #2]
ARM GAS  C:\Users\lenovo\AppData\Local\Temp\cc815I9s.s 			page 39


 443:c:/Users/lenovo/Desktop/AIoT/first_day/firstday_afternoon/LiteOS_Lab_STM32_IoT/iot_link/network/tcpip/esp8266_socket\esp8266_socket_imp.c ****             s_esp8266_ipv4_addr[3] = ipv4[3];
 1718              		.loc 1 443 42
 1719 00aa BB69     		ldr	r3, [r7, #24]
 1720              		.loc 1 443 36
 1721 00ac DAB2     		uxtb	r2, r3
 1722 00ae 394B     		ldr	r3, .L95+16
 1723 00b0 DA70     		strb	r2, [r3, #3]
 444:c:/Users/lenovo/Desktop/AIoT/first_day/firstday_afternoon/LiteOS_Lab_STM32_IoT/iot_link/network/tcpip/esp8266_socket\esp8266_socket_imp.c **** 
 445:c:/Users/lenovo/Desktop/AIoT/first_day/firstday_afternoon/LiteOS_Lab_STM32_IoT/iot_link/network/tcpip/esp8266_socket\esp8266_socket_imp.c ****             s_esp8266_ipv4_lst[0] = (char *)&s_esp8266_ipv4_addr[0];
 1724              		.loc 1 445 35
 1725 00b2 394B     		ldr	r3, .L95+20
 1726 00b4 374A     		ldr	r2, .L95+16
 1727 00b6 1A60     		str	r2, [r3]
 446:c:/Users/lenovo/Desktop/AIoT/first_day/firstday_afternoon/LiteOS_Lab_STM32_IoT/iot_link/network/tcpip/esp8266_socket\esp8266_socket_imp.c ****             s_esp8266_ipv4_lst[1] = NULL;
 1728              		.loc 1 446 35
 1729 00b8 374B     		ldr	r3, .L95+20
 1730 00ba 0022     		movs	r2, #0
 1731 00bc 5A60     		str	r2, [r3, #4]
 447:c:/Users/lenovo/Desktop/AIoT/first_day/firstday_afternoon/LiteOS_Lab_STM32_IoT/iot_link/network/tcpip/esp8266_socket\esp8266_socket_imp.c **** 
 448:c:/Users/lenovo/Desktop/AIoT/first_day/firstday_afternoon/LiteOS_Lab_STM32_IoT/iot_link/network/tcpip/esp8266_socket\esp8266_socket_imp.c ****             hptr->h_addr_list = &s_esp8266_ipv4_lst[0];
 1732              		.loc 1 448 31
 1733 00be D7F8A430 		ldr	r3, [r7, #164]
 1734 00c2 354A     		ldr	r2, .L95+20
 1735 00c4 1A61     		str	r2, [r3, #16]
 449:c:/Users/lenovo/Desktop/AIoT/first_day/firstday_afternoon/LiteOS_Lab_STM32_IoT/iot_link/network/tcpip/esp8266_socket\esp8266_socket_imp.c ****             return hptr;
 1736              		.loc 1 449 20
 1737 00c6 D7F8A430 		ldr	r3, [r7, #164]
 1738 00ca 56E0     		b	.L94
 1739              	.L91:
 450:c:/Users/lenovo/Desktop/AIoT/first_day/firstday_afternoon/LiteOS_Lab_STM32_IoT/iot_link/network/tcpip/esp8266_socket\esp8266_socket_imp.c **** 
 451:c:/Users/lenovo/Desktop/AIoT/first_day/firstday_afternoon/LiteOS_Lab_STM32_IoT/iot_link/network/tcpip/esp8266_socket\esp8266_socket_imp.c ****         }
 452:c:/Users/lenovo/Desktop/AIoT/first_day/firstday_afternoon/LiteOS_Lab_STM32_IoT/iot_link/network/tcpip/esp8266_socket\esp8266_socket_imp.c ****         else
 453:c:/Users/lenovo/Desktop/AIoT/first_day/firstday_afternoon/LiteOS_Lab_STM32_IoT/iot_link/network/tcpip/esp8266_socket\esp8266_socket_imp.c ****         {
 454:c:/Users/lenovo/Desktop/AIoT/first_day/firstday_afternoon/LiteOS_Lab_STM32_IoT/iot_link/network/tcpip/esp8266_socket\esp8266_socket_imp.c ****             return NULL;
 1740              		.loc 1 454 20
 1741 00cc 0023     		movs	r3, #0
 1742 00ce 54E0     		b	.L94
 1743              	.L90:
 455:c:/Users/lenovo/Desktop/AIoT/first_day/firstday_afternoon/LiteOS_Lab_STM32_IoT/iot_link/network/tcpip/esp8266_socket\esp8266_socket_imp.c ****         }
 456:c:/Users/lenovo/Desktop/AIoT/first_day/firstday_afternoon/LiteOS_Lab_STM32_IoT/iot_link/network/tcpip/esp8266_socket\esp8266_socket_imp.c **** 	}
 457:c:/Users/lenovo/Desktop/AIoT/first_day/firstday_afternoon/LiteOS_Lab_STM32_IoT/iot_link/network/tcpip/esp8266_socket\esp8266_socket_imp.c **** 	else  ///< decode it by the response
 458:c:/Users/lenovo/Desktop/AIoT/first_day/firstday_afternoon/LiteOS_Lab_STM32_IoT/iot_link/network/tcpip/esp8266_socket\esp8266_socket_imp.c **** 	{
 459:c:/Users/lenovo/Desktop/AIoT/first_day/firstday_afternoon/LiteOS_Lab_STM32_IoT/iot_link/network/tcpip/esp8266_socket\esp8266_socket_imp.c **** 	    str = strstr(resp,":");
 1744              		.loc 1 459 12
 1745 00d0 07F11C03 		add	r3, r7, #28
 1746 00d4 3A21     		movs	r1, #58
 1747 00d6 1846     		mov	r0, r3
 1748 00d8 FFF7FEFF 		bl	strchr
 1749 00dc C7F8A000 		str	r0, [r7, #160]
 460:c:/Users/lenovo/Desktop/AIoT/first_day/firstday_afternoon/LiteOS_Lab_STM32_IoT/iot_link/network/tcpip/esp8266_socket\esp8266_socket_imp.c **** 	    str++;
 1750              		.loc 1 460 9
 1751 00e0 D7F8A030 		ldr	r3, [r7, #160]
 1752 00e4 0133     		adds	r3, r3, #1
 1753 00e6 C7F8A030 		str	r3, [r7, #160]
 461:c:/Users/lenovo/Desktop/AIoT/first_day/firstday_afternoon/LiteOS_Lab_STM32_IoT/iot_link/network/tcpip/esp8266_socket\esp8266_socket_imp.c **** 
 462:c:/Users/lenovo/Desktop/AIoT/first_day/firstday_afternoon/LiteOS_Lab_STM32_IoT/iot_link/network/tcpip/esp8266_socket\esp8266_socket_imp.c ****         hptr = &s_esp8266_hostent;
 1754              		.loc 1 462 14
ARM GAS  C:\Users\lenovo\AppData\Local\Temp\cc815I9s.s 			page 40


 1755 00ea 284B     		ldr	r3, .L95+8
 1756 00ec C7F8A430 		str	r3, [r7, #164]
 463:c:/Users/lenovo/Desktop/AIoT/first_day/firstday_afternoon/LiteOS_Lab_STM32_IoT/iot_link/network/tcpip/esp8266_socket\esp8266_socket_imp.c ****         memset(hptr,0,sizeof(struct hostent));
 1757              		.loc 1 463 9
 1758 00f0 1422     		movs	r2, #20
 1759 00f2 0021     		movs	r1, #0
 1760 00f4 D7F8A400 		ldr	r0, [r7, #164]
 1761 00f8 FFF7FEFF 		bl	memset
 464:c:/Users/lenovo/Desktop/AIoT/first_day/firstday_afternoon/LiteOS_Lab_STM32_IoT/iot_link/network/tcpip/esp8266_socket\esp8266_socket_imp.c ****         ///< we could not resolve it by the at device, so we check if your address if dot point
 465:c:/Users/lenovo/Desktop/AIoT/first_day/firstday_afternoon/LiteOS_Lab_STM32_IoT/iot_link/network/tcpip/esp8266_socket\esp8266_socket_imp.c ****         fmt_num = sscanf(str,"%d.%d.%d.%d",&ipv4[0],&ipv4[1],&ipv4[2],&ipv4[3]);
 1762              		.loc 1 465 19
 1763 00fc 07F10C03 		add	r3, r7, #12
 1764 0100 191D     		adds	r1, r3, #4
 1765 0102 07F10C02 		add	r2, r7, #12
 1766 0106 07F10C03 		add	r3, r7, #12
 1767 010a 0C33     		adds	r3, r3, #12
 1768 010c 0193     		str	r3, [sp, #4]
 1769 010e 07F10C03 		add	r3, r7, #12
 1770 0112 0833     		adds	r3, r3, #8
 1771 0114 0093     		str	r3, [sp]
 1772 0116 0B46     		mov	r3, r1
 1773 0118 1D49     		ldr	r1, .L95+12
 1774 011a D7F8A000 		ldr	r0, [r7, #160]
 1775 011e FFF7FEFF 		bl	sscanf
 1776 0122 C7F89C00 		str	r0, [r7, #156]
 466:c:/Users/lenovo/Desktop/AIoT/first_day/firstday_afternoon/LiteOS_Lab_STM32_IoT/iot_link/network/tcpip/esp8266_socket\esp8266_socket_imp.c ****         if(fmt_num > 0)
 1777              		.loc 1 466 11
 1778 0126 D7F89C30 		ldr	r3, [r7, #156]
 1779 012a 002B     		cmp	r3, #0
 1780 012c 24DD     		ble	.L93
 467:c:/Users/lenovo/Desktop/AIoT/first_day/firstday_afternoon/LiteOS_Lab_STM32_IoT/iot_link/network/tcpip/esp8266_socket\esp8266_socket_imp.c ****         {
 468:c:/Users/lenovo/Desktop/AIoT/first_day/firstday_afternoon/LiteOS_Lab_STM32_IoT/iot_link/network/tcpip/esp8266_socket\esp8266_socket_imp.c ****             hptr->h_addrtype = AF_INET;
 1781              		.loc 1 468 30
 1782 012e D7F8A430 		ldr	r3, [r7, #164]
 1783 0132 0222     		movs	r2, #2
 1784 0134 9A60     		str	r2, [r3, #8]
 469:c:/Users/lenovo/Desktop/AIoT/first_day/firstday_afternoon/LiteOS_Lab_STM32_IoT/iot_link/network/tcpip/esp8266_socket\esp8266_socket_imp.c ****             hptr->h_length = 4;
 1785              		.loc 1 469 28
 1786 0136 D7F8A430 		ldr	r3, [r7, #164]
 1787 013a 0422     		movs	r2, #4
 1788 013c DA60     		str	r2, [r3, #12]
 470:c:/Users/lenovo/Desktop/AIoT/first_day/firstday_afternoon/LiteOS_Lab_STM32_IoT/iot_link/network/tcpip/esp8266_socket\esp8266_socket_imp.c ****             s_esp8266_ipv4_addr[0] = ipv4[0];
 1789              		.loc 1 470 42
 1790 013e FB68     		ldr	r3, [r7, #12]
 1791              		.loc 1 470 36
 1792 0140 DAB2     		uxtb	r2, r3
 1793 0142 144B     		ldr	r3, .L95+16
 1794 0144 1A70     		strb	r2, [r3]
 471:c:/Users/lenovo/Desktop/AIoT/first_day/firstday_afternoon/LiteOS_Lab_STM32_IoT/iot_link/network/tcpip/esp8266_socket\esp8266_socket_imp.c ****             s_esp8266_ipv4_addr[1] = ipv4[1];
 1795              		.loc 1 471 42
 1796 0146 3B69     		ldr	r3, [r7, #16]
 1797              		.loc 1 471 36
 1798 0148 DAB2     		uxtb	r2, r3
 1799 014a 124B     		ldr	r3, .L95+16
 1800 014c 5A70     		strb	r2, [r3, #1]
 472:c:/Users/lenovo/Desktop/AIoT/first_day/firstday_afternoon/LiteOS_Lab_STM32_IoT/iot_link/network/tcpip/esp8266_socket\esp8266_socket_imp.c ****             s_esp8266_ipv4_addr[2] = ipv4[2];
 1801              		.loc 1 472 42
ARM GAS  C:\Users\lenovo\AppData\Local\Temp\cc815I9s.s 			page 41


 1802 014e 7B69     		ldr	r3, [r7, #20]
 1803              		.loc 1 472 36
 1804 0150 DAB2     		uxtb	r2, r3
 1805 0152 104B     		ldr	r3, .L95+16
 1806 0154 9A70     		strb	r2, [r3, #2]
 473:c:/Users/lenovo/Desktop/AIoT/first_day/firstday_afternoon/LiteOS_Lab_STM32_IoT/iot_link/network/tcpip/esp8266_socket\esp8266_socket_imp.c ****             s_esp8266_ipv4_addr[3] = ipv4[3];
 1807              		.loc 1 473 42
 1808 0156 BB69     		ldr	r3, [r7, #24]
 1809              		.loc 1 473 36
 1810 0158 DAB2     		uxtb	r2, r3
 1811 015a 0E4B     		ldr	r3, .L95+16
 1812 015c DA70     		strb	r2, [r3, #3]
 474:c:/Users/lenovo/Desktop/AIoT/first_day/firstday_afternoon/LiteOS_Lab_STM32_IoT/iot_link/network/tcpip/esp8266_socket\esp8266_socket_imp.c **** 
 475:c:/Users/lenovo/Desktop/AIoT/first_day/firstday_afternoon/LiteOS_Lab_STM32_IoT/iot_link/network/tcpip/esp8266_socket\esp8266_socket_imp.c ****             s_esp8266_ipv4_lst[0] = (char *)&s_esp8266_ipv4_addr[0];
 1813              		.loc 1 475 35
 1814 015e 0E4B     		ldr	r3, .L95+20
 1815 0160 0C4A     		ldr	r2, .L95+16
 1816 0162 1A60     		str	r2, [r3]
 476:c:/Users/lenovo/Desktop/AIoT/first_day/firstday_afternoon/LiteOS_Lab_STM32_IoT/iot_link/network/tcpip/esp8266_socket\esp8266_socket_imp.c ****             s_esp8266_ipv4_lst[1] = NULL;
 1817              		.loc 1 476 35
 1818 0164 0C4B     		ldr	r3, .L95+20
 1819 0166 0022     		movs	r2, #0
 1820 0168 5A60     		str	r2, [r3, #4]
 477:c:/Users/lenovo/Desktop/AIoT/first_day/firstday_afternoon/LiteOS_Lab_STM32_IoT/iot_link/network/tcpip/esp8266_socket\esp8266_socket_imp.c **** 
 478:c:/Users/lenovo/Desktop/AIoT/first_day/firstday_afternoon/LiteOS_Lab_STM32_IoT/iot_link/network/tcpip/esp8266_socket\esp8266_socket_imp.c ****             hptr->h_addr_list = &s_esp8266_ipv4_lst[0];
 1821              		.loc 1 478 31
 1822 016a D7F8A430 		ldr	r3, [r7, #164]
 1823 016e 0A4A     		ldr	r2, .L95+20
 1824 0170 1A61     		str	r2, [r3, #16]
 479:c:/Users/lenovo/Desktop/AIoT/first_day/firstday_afternoon/LiteOS_Lab_STM32_IoT/iot_link/network/tcpip/esp8266_socket\esp8266_socket_imp.c ****             return hptr;
 1825              		.loc 1 479 20
 1826 0172 D7F8A430 		ldr	r3, [r7, #164]
 1827 0176 00E0     		b	.L94
 1828              	.L93:
 480:c:/Users/lenovo/Desktop/AIoT/first_day/firstday_afternoon/LiteOS_Lab_STM32_IoT/iot_link/network/tcpip/esp8266_socket\esp8266_socket_imp.c ****         }
 481:c:/Users/lenovo/Desktop/AIoT/first_day/firstday_afternoon/LiteOS_Lab_STM32_IoT/iot_link/network/tcpip/esp8266_socket\esp8266_socket_imp.c ****         else
 482:c:/Users/lenovo/Desktop/AIoT/first_day/firstday_afternoon/LiteOS_Lab_STM32_IoT/iot_link/network/tcpip/esp8266_socket\esp8266_socket_imp.c ****         {
 483:c:/Users/lenovo/Desktop/AIoT/first_day/firstday_afternoon/LiteOS_Lab_STM32_IoT/iot_link/network/tcpip/esp8266_socket\esp8266_socket_imp.c ****             return NULL;
 1829              		.loc 1 483 20
 1830 0178 0023     		movs	r3, #0
 1831              	.L94:
 484:c:/Users/lenovo/Desktop/AIoT/first_day/firstday_afternoon/LiteOS_Lab_STM32_IoT/iot_link/network/tcpip/esp8266_socket\esp8266_socket_imp.c ****         }
 485:c:/Users/lenovo/Desktop/AIoT/first_day/firstday_afternoon/LiteOS_Lab_STM32_IoT/iot_link/network/tcpip/esp8266_socket\esp8266_socket_imp.c **** 	}
 486:c:/Users/lenovo/Desktop/AIoT/first_day/firstday_afternoon/LiteOS_Lab_STM32_IoT/iot_link/network/tcpip/esp8266_socket\esp8266_socket_imp.c **** }
 1832              		.loc 1 486 1 discriminator 1
 1833 017a 1846     		mov	r0, r3
 1834 017c A837     		adds	r7, r7, #168
 1835              	.LCFI101:
 1836              		.cfi_def_cfa_offset 8
 1837 017e BD46     		mov	sp, r7
 1838              	.LCFI102:
 1839              		.cfi_def_cfa_register 13
 1840              		@ sp needed
 1841 0180 80BD     		pop	{r7, pc}
 1842              	.L96:
 1843 0182 00BF     		.align	2
 1844              	.L95:
ARM GAS  C:\Users\lenovo\AppData\Local\Temp\cc815I9s.s 			page 42


 1845 0184 A4000000 		.word	.LC10
 1846 0188 B8000000 		.word	.LC11
 1847 018c 00000000 		.word	s_esp8266_hostent
 1848 0190 C4000000 		.word	.LC12
 1849 0194 00000000 		.word	s_esp8266_ipv4_addr
 1850 0198 00000000 		.word	s_esp8266_ipv4_lst
 1851              		.cfi_endproc
 1852              	.LFE21:
 1854              		.section	.rodata.s_tcpip_socket_ops,"a"
 1855              		.align	2
 1858              	s_tcpip_socket_ops:
 1859 0000 00000000 		.word	esp8266_socket
 1860 0004 00000000 		.word	__esp8266_bind
 1861 0008 00000000 		.word	esp8266_listen
 1862 000c 00000000 		.word	__esp8266_accept
 1863 0010 00000000 		.word	__esp8266_connect
 1864 0014 00000000 		.word	esp8266_getsockname
 1865 0018 00000000 		.word	esp8266_getpeername
 1866 001c 00000000 		.word	__esp8266_setsockopt
 1867 0020 00000000 		.word	esp8266_getsockopt
 1868 0024 00000000 		.word	esp8266_send
 1869 0028 00000000 		.word	__esp8266_sendto
 1870 002c 00000000 		.word	esp8266_recv
 1871 0030 00000000 		.word	__esp8266_recvfrom
 1872 0034 00000000 		.word	esp8266_shutdown
 1873 0038 00000000 		.word	esp8266_close
 1874 003c 00000000 		.word	esp8266_gethostbyname
 1875 0040 00000000 		.space	4
 1876              		.section	.rodata
 1877              		.align	2
 1878              	.LC13:
 1879 00d0 65737038 		.ascii	"esp8266 socket\000"
 1879      32363620 
 1879      736F636B 
 1879      657400
 1880              		.section	.rodata.s_tcpip_socket,"a"
 1881              		.align	2
 1884              	s_tcpip_socket:
 1885 0000 D0000000 		.word	.LC13
 1886 0004 02000000 		.word	2
 1887 0008 00000000 		.word	s_tcpip_socket_ops
 1888              		.section	.rodata
 1889 00df 00       		.align	2
 1890              	.LC14:
 1891 00e0 72656164 		.ascii	"ready\000"
 1891      7900
 1892 00e6 0000     		.align	2
 1893              	.LC15:
 1894 00e8 41542B52 		.ascii	"AT+RST\015\012\000"
 1894      53540D0A 
 1894      00
 1895              		.section	.text.esp8266_reset,"ax",%progbits
 1896              		.align	1
 1897              		.syntax unified
 1898              		.thumb
 1899              		.thumb_func
 1900              		.fpu fpv4-sp-d16
ARM GAS  C:\Users\lenovo\AppData\Local\Temp\cc815I9s.s 			page 43


 1902              	esp8266_reset:
 1903              	.LFB22:
 487:c:/Users/lenovo/Desktop/AIoT/first_day/firstday_afternoon/LiteOS_Lab_STM32_IoT/iot_link/network/tcpip/esp8266_socket\esp8266_socket_imp.c **** 
 488:c:/Users/lenovo/Desktop/AIoT/first_day/firstday_afternoon/LiteOS_Lab_STM32_IoT/iot_link/network/tcpip/esp8266_socket\esp8266_socket_imp.c **** static const tag_tcpip_ops s_tcpip_socket_ops =
 489:c:/Users/lenovo/Desktop/AIoT/first_day/firstday_afternoon/LiteOS_Lab_STM32_IoT/iot_link/network/tcpip/esp8266_socket\esp8266_socket_imp.c **** {
 490:c:/Users/lenovo/Desktop/AIoT/first_day/firstday_afternoon/LiteOS_Lab_STM32_IoT/iot_link/network/tcpip/esp8266_socket\esp8266_socket_imp.c ****    .socket = (fn_sal_socket)esp8266_socket,
 491:c:/Users/lenovo/Desktop/AIoT/first_day/firstday_afternoon/LiteOS_Lab_STM32_IoT/iot_link/network/tcpip/esp8266_socket\esp8266_socket_imp.c ****    .bind = (fn_sal_bind)__esp8266_bind,
 492:c:/Users/lenovo/Desktop/AIoT/first_day/firstday_afternoon/LiteOS_Lab_STM32_IoT/iot_link/network/tcpip/esp8266_socket\esp8266_socket_imp.c ****    .listen = (fn_sal_listen)esp8266_listen,
 493:c:/Users/lenovo/Desktop/AIoT/first_day/firstday_afternoon/LiteOS_Lab_STM32_IoT/iot_link/network/tcpip/esp8266_socket\esp8266_socket_imp.c ****    .connect = (fn_sal_connect)__esp8266_connect,
 494:c:/Users/lenovo/Desktop/AIoT/first_day/firstday_afternoon/LiteOS_Lab_STM32_IoT/iot_link/network/tcpip/esp8266_socket\esp8266_socket_imp.c ****    .accept = (fn_sal_accept)__esp8266_accept,
 495:c:/Users/lenovo/Desktop/AIoT/first_day/firstday_afternoon/LiteOS_Lab_STM32_IoT/iot_link/network/tcpip/esp8266_socket\esp8266_socket_imp.c ****    .send = (fn_sal_send)esp8266_send,
 496:c:/Users/lenovo/Desktop/AIoT/first_day/firstday_afternoon/LiteOS_Lab_STM32_IoT/iot_link/network/tcpip/esp8266_socket\esp8266_socket_imp.c ****    .sendto = (fn_sal_sendto)__esp8266_sendto,
 497:c:/Users/lenovo/Desktop/AIoT/first_day/firstday_afternoon/LiteOS_Lab_STM32_IoT/iot_link/network/tcpip/esp8266_socket\esp8266_socket_imp.c ****    .recv = (fn_sal_recv)esp8266_recv,
 498:c:/Users/lenovo/Desktop/AIoT/first_day/firstday_afternoon/LiteOS_Lab_STM32_IoT/iot_link/network/tcpip/esp8266_socket\esp8266_socket_imp.c ****    .recvfrom = (fn_sal_recvfrom)__esp8266_recvfrom,
 499:c:/Users/lenovo/Desktop/AIoT/first_day/firstday_afternoon/LiteOS_Lab_STM32_IoT/iot_link/network/tcpip/esp8266_socket\esp8266_socket_imp.c ****    .setsockopt = (fn_sal_setsockopt)__esp8266_setsockopt,
 500:c:/Users/lenovo/Desktop/AIoT/first_day/firstday_afternoon/LiteOS_Lab_STM32_IoT/iot_link/network/tcpip/esp8266_socket\esp8266_socket_imp.c ****    .getsockopt = (fn_sal_getsockopt)esp8266_getsockopt,
 501:c:/Users/lenovo/Desktop/AIoT/first_day/firstday_afternoon/LiteOS_Lab_STM32_IoT/iot_link/network/tcpip/esp8266_socket\esp8266_socket_imp.c ****    .shutdown =(fn_sal_shutdown)esp8266_shutdown,
 502:c:/Users/lenovo/Desktop/AIoT/first_day/firstday_afternoon/LiteOS_Lab_STM32_IoT/iot_link/network/tcpip/esp8266_socket\esp8266_socket_imp.c ****    .closesocket =(fn_sal_closesocket)esp8266_close,
 503:c:/Users/lenovo/Desktop/AIoT/first_day/firstday_afternoon/LiteOS_Lab_STM32_IoT/iot_link/network/tcpip/esp8266_socket\esp8266_socket_imp.c ****    .getpeername =(fn_sal_getpeername)esp8266_getpeername,
 504:c:/Users/lenovo/Desktop/AIoT/first_day/firstday_afternoon/LiteOS_Lab_STM32_IoT/iot_link/network/tcpip/esp8266_socket\esp8266_socket_imp.c ****    .getsockname = (fn_sal_getsockname)esp8266_getsockname,
 505:c:/Users/lenovo/Desktop/AIoT/first_day/firstday_afternoon/LiteOS_Lab_STM32_IoT/iot_link/network/tcpip/esp8266_socket\esp8266_socket_imp.c ****    .gethostbyname = (fn_sal_gethostbyname)esp8266_gethostbyname,
 506:c:/Users/lenovo/Desktop/AIoT/first_day/firstday_afternoon/LiteOS_Lab_STM32_IoT/iot_link/network/tcpip/esp8266_socket\esp8266_socket_imp.c **** };
 507:c:/Users/lenovo/Desktop/AIoT/first_day/firstday_afternoon/LiteOS_Lab_STM32_IoT/iot_link/network/tcpip/esp8266_socket\esp8266_socket_imp.c **** 
 508:c:/Users/lenovo/Desktop/AIoT/first_day/firstday_afternoon/LiteOS_Lab_STM32_IoT/iot_link/network/tcpip/esp8266_socket\esp8266_socket_imp.c **** static const tag_tcpip_domain s_tcpip_socket =
 509:c:/Users/lenovo/Desktop/AIoT/first_day/firstday_afternoon/LiteOS_Lab_STM32_IoT/iot_link/network/tcpip/esp8266_socket\esp8266_socket_imp.c **** {
 510:c:/Users/lenovo/Desktop/AIoT/first_day/firstday_afternoon/LiteOS_Lab_STM32_IoT/iot_link/network/tcpip/esp8266_socket\esp8266_socket_imp.c ****     .name = "esp8266 socket",
 511:c:/Users/lenovo/Desktop/AIoT/first_day/firstday_afternoon/LiteOS_Lab_STM32_IoT/iot_link/network/tcpip/esp8266_socket\esp8266_socket_imp.c ****     .domain = AF_INET,
 512:c:/Users/lenovo/Desktop/AIoT/first_day/firstday_afternoon/LiteOS_Lab_STM32_IoT/iot_link/network/tcpip/esp8266_socket\esp8266_socket_imp.c ****     .ops = &s_tcpip_socket_ops,
 513:c:/Users/lenovo/Desktop/AIoT/first_day/firstday_afternoon/LiteOS_Lab_STM32_IoT/iot_link/network/tcpip/esp8266_socket\esp8266_socket_imp.c **** };
 514:c:/Users/lenovo/Desktop/AIoT/first_day/firstday_afternoon/LiteOS_Lab_STM32_IoT/iot_link/network/tcpip/esp8266_socket\esp8266_socket_imp.c **** 
 515:c:/Users/lenovo/Desktop/AIoT/first_day/firstday_afternoon/LiteOS_Lab_STM32_IoT/iot_link/network/tcpip/esp8266_socket\esp8266_socket_imp.c **** 
 516:c:/Users/lenovo/Desktop/AIoT/first_day/firstday_afternoon/LiteOS_Lab_STM32_IoT/iot_link/network/tcpip/esp8266_socket\esp8266_socket_imp.c **** 
 517:c:/Users/lenovo/Desktop/AIoT/first_day/firstday_afternoon/LiteOS_Lab_STM32_IoT/iot_link/network/tcpip/esp8266_socket\esp8266_socket_imp.c **** static bool_t esp8266_reset(void)
 518:c:/Users/lenovo/Desktop/AIoT/first_day/firstday_afternoon/LiteOS_Lab_STM32_IoT/iot_link/network/tcpip/esp8266_socket\esp8266_socket_imp.c **** {
 1904              		.loc 1 518 1
 1905              		.cfi_startproc
 1906              		@ args = 0, pretend = 0, frame = 0
 1907              		@ frame_needed = 1, uses_anonymous_args = 0
 1908 0000 80B5     		push	{r7, lr}
 1909              	.LCFI103:
 1910              		.cfi_def_cfa_offset 8
 1911              		.cfi_offset 7, -8
 1912              		.cfi_offset 14, -4
 1913 0002 00AF     		add	r7, sp, #0
 1914              	.LCFI104:
 1915              		.cfi_def_cfa_register 7
 519:c:/Users/lenovo/Desktop/AIoT/first_day/firstday_afternoon/LiteOS_Lab_STM32_IoT/iot_link/network/tcpip/esp8266_socket\esp8266_socket_imp.c ****     return esp8266_atcmd("AT+RST\r\n","ready");
 1916              		.loc 1 519 12
 1917 0004 0349     		ldr	r1, .L99
 1918 0006 0448     		ldr	r0, .L99+4
 1919 0008 FFF7FEFF 		bl	esp8266_atcmd
 1920 000c 0346     		mov	r3, r0
 520:c:/Users/lenovo/Desktop/AIoT/first_day/firstday_afternoon/LiteOS_Lab_STM32_IoT/iot_link/network/tcpip/esp8266_socket\esp8266_socket_imp.c **** }
 1921              		.loc 1 520 1
 1922 000e 1846     		mov	r0, r3
 1923 0010 80BD     		pop	{r7, pc}
 1924              	.L100:
ARM GAS  C:\Users\lenovo\AppData\Local\Temp\cc815I9s.s 			page 44


 1925 0012 00BF     		.align	2
 1926              	.L99:
 1927 0014 E0000000 		.word	.LC14
 1928 0018 E8000000 		.word	.LC15
 1929              		.cfi_endproc
 1930              	.LFE22:
 1932              		.section	.rodata
 1933 00f1 000000   		.align	2
 1934              	.LC16:
 1935 00f4 41544530 		.ascii	"ATE0\015\012\000"
 1935      0D0A00
 1936              		.section	.text.esp8266_echo_off,"ax",%progbits
 1937              		.align	1
 1938              		.syntax unified
 1939              		.thumb
 1940              		.thumb_func
 1941              		.fpu fpv4-sp-d16
 1943              	esp8266_echo_off:
 1944              	.LFB23:
 521:c:/Users/lenovo/Desktop/AIoT/first_day/firstday_afternoon/LiteOS_Lab_STM32_IoT/iot_link/network/tcpip/esp8266_socket\esp8266_socket_imp.c **** 
 522:c:/Users/lenovo/Desktop/AIoT/first_day/firstday_afternoon/LiteOS_Lab_STM32_IoT/iot_link/network/tcpip/esp8266_socket\esp8266_socket_imp.c **** static bool_t esp8266_echo_off(void)
 523:c:/Users/lenovo/Desktop/AIoT/first_day/firstday_afternoon/LiteOS_Lab_STM32_IoT/iot_link/network/tcpip/esp8266_socket\esp8266_socket_imp.c **** {
 1945              		.loc 1 523 1
 1946              		.cfi_startproc
 1947              		@ args = 0, pretend = 0, frame = 0
 1948              		@ frame_needed = 1, uses_anonymous_args = 0
 1949 0000 80B5     		push	{r7, lr}
 1950              	.LCFI105:
 1951              		.cfi_def_cfa_offset 8
 1952              		.cfi_offset 7, -8
 1953              		.cfi_offset 14, -4
 1954 0002 00AF     		add	r7, sp, #0
 1955              	.LCFI106:
 1956              		.cfi_def_cfa_register 7
 524:c:/Users/lenovo/Desktop/AIoT/first_day/firstday_afternoon/LiteOS_Lab_STM32_IoT/iot_link/network/tcpip/esp8266_socket\esp8266_socket_imp.c ****     return esp8266_atcmd("ATE0\r\n","OK");
 1957              		.loc 1 524 12
 1958 0004 0349     		ldr	r1, .L103
 1959 0006 0448     		ldr	r0, .L103+4
 1960 0008 FFF7FEFF 		bl	esp8266_atcmd
 1961 000c 0346     		mov	r3, r0
 525:c:/Users/lenovo/Desktop/AIoT/first_day/firstday_afternoon/LiteOS_Lab_STM32_IoT/iot_link/network/tcpip/esp8266_socket\esp8266_socket_imp.c **** }
 1962              		.loc 1 525 1
 1963 000e 1846     		mov	r0, r3
 1964 0010 80BD     		pop	{r7, pc}
 1965              	.L104:
 1966 0012 00BF     		.align	2
 1967              	.L103:
 1968 0014 6C000000 		.word	.LC4
 1969 0018 F4000000 		.word	.LC16
 1970              		.cfi_endproc
 1971              	.LFE23:
 1973              		.section	.rodata
 1974 00fb 00       		.align	2
 1975              	.LC17:
 1976 00fc 41542B43 		.ascii	"AT+CIPDINFO=%d\015\012\000"
 1976      49504449 
 1976      4E464F3D 
ARM GAS  C:\Users\lenovo\AppData\Local\Temp\cc815I9s.s 			page 45


 1976      25640D0A 
 1976      00
 1977              		.section	.text.esp8266_show_dinfo,"ax",%progbits
 1978              		.align	1
 1979              		.syntax unified
 1980              		.thumb
 1981              		.thumb_func
 1982              		.fpu fpv4-sp-d16
 1984              	esp8266_show_dinfo:
 1985              	.LFB24:
 526:c:/Users/lenovo/Desktop/AIoT/first_day/firstday_afternoon/LiteOS_Lab_STM32_IoT/iot_link/network/tcpip/esp8266_socket\esp8266_socket_imp.c **** 
 527:c:/Users/lenovo/Desktop/AIoT/first_day/firstday_afternoon/LiteOS_Lab_STM32_IoT/iot_link/network/tcpip/esp8266_socket\esp8266_socket_imp.c **** static bool_t esp8266_show_dinfo(int flag)
 528:c:/Users/lenovo/Desktop/AIoT/first_day/firstday_afternoon/LiteOS_Lab_STM32_IoT/iot_link/network/tcpip/esp8266_socket\esp8266_socket_imp.c **** {
 1986              		.loc 1 528 1
 1987              		.cfi_startproc
 1988              		@ args = 0, pretend = 0, frame = 72
 1989              		@ frame_needed = 1, uses_anonymous_args = 0
 1990 0000 80B5     		push	{r7, lr}
 1991              	.LCFI107:
 1992              		.cfi_def_cfa_offset 8
 1993              		.cfi_offset 7, -8
 1994              		.cfi_offset 14, -4
 1995 0002 92B0     		sub	sp, sp, #72
 1996              	.LCFI108:
 1997              		.cfi_def_cfa_offset 80
 1998 0004 00AF     		add	r7, sp, #0
 1999              	.LCFI109:
 2000              		.cfi_def_cfa_register 7
 2001 0006 7860     		str	r0, [r7, #4]
 529:c:/Users/lenovo/Desktop/AIoT/first_day/firstday_afternoon/LiteOS_Lab_STM32_IoT/iot_link/network/tcpip/esp8266_socket\esp8266_socket_imp.c **** 	char cmd[64];
 530:c:/Users/lenovo/Desktop/AIoT/first_day/firstday_afternoon/LiteOS_Lab_STM32_IoT/iot_link/network/tcpip/esp8266_socket\esp8266_socket_imp.c **** 	memset(cmd,0,64);
 2002              		.loc 1 530 2
 2003 0008 07F10803 		add	r3, r7, #8
 2004 000c 4022     		movs	r2, #64
 2005 000e 0021     		movs	r1, #0
 2006 0010 1846     		mov	r0, r3
 2007 0012 FFF7FEFF 		bl	memset
 531:c:/Users/lenovo/Desktop/AIoT/first_day/firstday_afternoon/LiteOS_Lab_STM32_IoT/iot_link/network/tcpip/esp8266_socket\esp8266_socket_imp.c **** 	snprintf(cmd,64,"AT+CIPDINFO=%d\r\n",flag);
 2008              		.loc 1 531 2
 2009 0016 07F10800 		add	r0, r7, #8
 2010 001a 7B68     		ldr	r3, [r7, #4]
 2011 001c 074A     		ldr	r2, .L107
 2012 001e 4021     		movs	r1, #64
 2013 0020 FFF7FEFF 		bl	snprintf
 532:c:/Users/lenovo/Desktop/AIoT/first_day/firstday_afternoon/LiteOS_Lab_STM32_IoT/iot_link/network/tcpip/esp8266_socket\esp8266_socket_imp.c ****     return esp8266_atcmd(cmd,"OK");
 2014              		.loc 1 532 12
 2015 0024 07F10803 		add	r3, r7, #8
 2016 0028 0549     		ldr	r1, .L107+4
 2017 002a 1846     		mov	r0, r3
 2018 002c FFF7FEFF 		bl	esp8266_atcmd
 2019 0030 0346     		mov	r3, r0
 533:c:/Users/lenovo/Desktop/AIoT/first_day/firstday_afternoon/LiteOS_Lab_STM32_IoT/iot_link/network/tcpip/esp8266_socket\esp8266_socket_imp.c **** }
 2020              		.loc 1 533 1
 2021 0032 1846     		mov	r0, r3
 2022 0034 4837     		adds	r7, r7, #72
 2023              	.LCFI110:
 2024              		.cfi_def_cfa_offset 8
ARM GAS  C:\Users\lenovo\AppData\Local\Temp\cc815I9s.s 			page 46


 2025 0036 BD46     		mov	sp, r7
 2026              	.LCFI111:
 2027              		.cfi_def_cfa_register 13
 2028              		@ sp needed
 2029 0038 80BD     		pop	{r7, pc}
 2030              	.L108:
 2031 003a 00BF     		.align	2
 2032              	.L107:
 2033 003c FC000000 		.word	.LC17
 2034 0040 6C000000 		.word	.LC4
 2035              		.cfi_endproc
 2036              	.LFE24:
 2038              		.section	.rodata
 2039 010d 000000   		.align	2
 2040              	.LC18:
 2041 0110 41542B43 		.ascii	"AT+CWMODE_CUR=%d\015\012\000"
 2041      574D4F44 
 2041      455F4355 
 2041      523D2564 
 2041      0D0A00
 2042              		.section	.text.esp8266_set_mode,"ax",%progbits
 2043              		.align	1
 2044              		.syntax unified
 2045              		.thumb
 2046              		.thumb_func
 2047              		.fpu fpv4-sp-d16
 2049              	esp8266_set_mode:
 2050              	.LFB25:
 534:c:/Users/lenovo/Desktop/AIoT/first_day/firstday_afternoon/LiteOS_Lab_STM32_IoT/iot_link/network/tcpip/esp8266_socket\esp8266_socket_imp.c **** 
 535:c:/Users/lenovo/Desktop/AIoT/first_day/firstday_afternoon/LiteOS_Lab_STM32_IoT/iot_link/network/tcpip/esp8266_socket\esp8266_socket_imp.c **** static bool_t esp8266_set_mode(enum_net_mode mode)
 536:c:/Users/lenovo/Desktop/AIoT/first_day/firstday_afternoon/LiteOS_Lab_STM32_IoT/iot_link/network/tcpip/esp8266_socket\esp8266_socket_imp.c **** {
 2051              		.loc 1 536 1
 2052              		.cfi_startproc
 2053              		@ args = 0, pretend = 0, frame = 72
 2054              		@ frame_needed = 1, uses_anonymous_args = 0
 2055 0000 80B5     		push	{r7, lr}
 2056              	.LCFI112:
 2057              		.cfi_def_cfa_offset 8
 2058              		.cfi_offset 7, -8
 2059              		.cfi_offset 14, -4
 2060 0002 92B0     		sub	sp, sp, #72
 2061              	.LCFI113:
 2062              		.cfi_def_cfa_offset 80
 2063 0004 00AF     		add	r7, sp, #0
 2064              	.LCFI114:
 2065              		.cfi_def_cfa_register 7
 2066 0006 0346     		mov	r3, r0
 2067 0008 FB71     		strb	r3, [r7, #7]
 537:c:/Users/lenovo/Desktop/AIoT/first_day/firstday_afternoon/LiteOS_Lab_STM32_IoT/iot_link/network/tcpip/esp8266_socket\esp8266_socket_imp.c **** 	char cmd[64];
 538:c:/Users/lenovo/Desktop/AIoT/first_day/firstday_afternoon/LiteOS_Lab_STM32_IoT/iot_link/network/tcpip/esp8266_socket\esp8266_socket_imp.c **** 	memset(cmd,0,64);
 2068              		.loc 1 538 2
 2069 000a 07F10803 		add	r3, r7, #8
 2070 000e 4022     		movs	r2, #64
 2071 0010 0021     		movs	r1, #0
 2072 0012 1846     		mov	r0, r3
 2073 0014 FFF7FEFF 		bl	memset
 539:c:/Users/lenovo/Desktop/AIoT/first_day/firstday_afternoon/LiteOS_Lab_STM32_IoT/iot_link/network/tcpip/esp8266_socket\esp8266_socket_imp.c **** 	snprintf(cmd,64,"AT+CWMODE_CUR=%d\r\n",(int)mode);
ARM GAS  C:\Users\lenovo\AppData\Local\Temp\cc815I9s.s 			page 47


 2074              		.loc 1 539 2
 2075 0018 FB79     		ldrb	r3, [r7, #7]	@ zero_extendqisi2
 2076 001a 07F10800 		add	r0, r7, #8
 2077 001e 074A     		ldr	r2, .L111
 2078 0020 4021     		movs	r1, #64
 2079 0022 FFF7FEFF 		bl	snprintf
 540:c:/Users/lenovo/Desktop/AIoT/first_day/firstday_afternoon/LiteOS_Lab_STM32_IoT/iot_link/network/tcpip/esp8266_socket\esp8266_socket_imp.c **** 	return esp8266_atcmd(cmd,"OK");
 2080              		.loc 1 540 9
 2081 0026 07F10803 		add	r3, r7, #8
 2082 002a 0549     		ldr	r1, .L111+4
 2083 002c 1846     		mov	r0, r3
 2084 002e FFF7FEFF 		bl	esp8266_atcmd
 2085 0032 0346     		mov	r3, r0
 541:c:/Users/lenovo/Desktop/AIoT/first_day/firstday_afternoon/LiteOS_Lab_STM32_IoT/iot_link/network/tcpip/esp8266_socket\esp8266_socket_imp.c **** }
 2086              		.loc 1 541 1
 2087 0034 1846     		mov	r0, r3
 2088 0036 4837     		adds	r7, r7, #72
 2089              	.LCFI115:
 2090              		.cfi_def_cfa_offset 8
 2091 0038 BD46     		mov	sp, r7
 2092              	.LCFI116:
 2093              		.cfi_def_cfa_register 13
 2094              		@ sp needed
 2095 003a 80BD     		pop	{r7, pc}
 2096              	.L112:
 2097              		.align	2
 2098              	.L111:
 2099 003c 10010000 		.word	.LC18
 2100 0040 6C000000 		.word	.LC4
 2101              		.cfi_endproc
 2102              	.LFE25:
 2104              		.section	.rodata
 2105 0123 00       		.align	2
 2106              	.LC19:
 2107 0124 41542B43 		.ascii	"AT+CWJAP_CUR=\"%s\",\"%s\"\015\012\000"
 2107      574A4150 
 2107      5F435552 
 2107      3D222573 
 2107      222C2225 
 2108              		.section	.text.esp8266_joinap,"ax",%progbits
 2109              		.align	1
 2110              		.syntax unified
 2111              		.thumb
 2112              		.thumb_func
 2113              		.fpu fpv4-sp-d16
 2115              	esp8266_joinap:
 2116              	.LFB26:
 542:c:/Users/lenovo/Desktop/AIoT/first_day/firstday_afternoon/LiteOS_Lab_STM32_IoT/iot_link/network/tcpip/esp8266_socket\esp8266_socket_imp.c **** 
 543:c:/Users/lenovo/Desktop/AIoT/first_day/firstday_afternoon/LiteOS_Lab_STM32_IoT/iot_link/network/tcpip/esp8266_socket\esp8266_socket_imp.c **** static bool_t esp8266_joinap(char *ssid, char *passwd)
 544:c:/Users/lenovo/Desktop/AIoT/first_day/firstday_afternoon/LiteOS_Lab_STM32_IoT/iot_link/network/tcpip/esp8266_socket\esp8266_socket_imp.c **** {
 2117              		.loc 1 544 1
 2118              		.cfi_startproc
 2119              		@ args = 0, pretend = 0, frame = 72
 2120              		@ frame_needed = 1, uses_anonymous_args = 0
 2121 0000 80B5     		push	{r7, lr}
 2122              	.LCFI117:
 2123              		.cfi_def_cfa_offset 8
ARM GAS  C:\Users\lenovo\AppData\Local\Temp\cc815I9s.s 			page 48


 2124              		.cfi_offset 7, -8
 2125              		.cfi_offset 14, -4
 2126 0002 94B0     		sub	sp, sp, #80
 2127              	.LCFI118:
 2128              		.cfi_def_cfa_offset 88
 2129 0004 02AF     		add	r7, sp, #8
 2130              	.LCFI119:
 2131              		.cfi_def_cfa 7, 80
 2132 0006 7860     		str	r0, [r7, #4]
 2133 0008 3960     		str	r1, [r7]
 545:c:/Users/lenovo/Desktop/AIoT/first_day/firstday_afternoon/LiteOS_Lab_STM32_IoT/iot_link/network/tcpip/esp8266_socket\esp8266_socket_imp.c **** 	char cmd[64];
 546:c:/Users/lenovo/Desktop/AIoT/first_day/firstday_afternoon/LiteOS_Lab_STM32_IoT/iot_link/network/tcpip/esp8266_socket\esp8266_socket_imp.c **** 	memset(cmd,0,64);
 2134              		.loc 1 546 2
 2135 000a 07F10803 		add	r3, r7, #8
 2136 000e 4022     		movs	r2, #64
 2137 0010 0021     		movs	r1, #0
 2138 0012 1846     		mov	r0, r3
 2139 0014 FFF7FEFF 		bl	memset
 547:c:/Users/lenovo/Desktop/AIoT/first_day/firstday_afternoon/LiteOS_Lab_STM32_IoT/iot_link/network/tcpip/esp8266_socket\esp8266_socket_imp.c ****     snprintf(cmd,64,"AT+CWJAP_CUR=\"%s\",\"%s\"\r\n",ssid, passwd);
 2140              		.loc 1 547 5
 2141 0018 07F10800 		add	r0, r7, #8
 2142 001c 3B68     		ldr	r3, [r7]
 2143 001e 0093     		str	r3, [sp]
 2144 0020 7B68     		ldr	r3, [r7, #4]
 2145 0022 074A     		ldr	r2, .L115
 2146 0024 4021     		movs	r1, #64
 2147 0026 FFF7FEFF 		bl	snprintf
 548:c:/Users/lenovo/Desktop/AIoT/first_day/firstday_afternoon/LiteOS_Lab_STM32_IoT/iot_link/network/tcpip/esp8266_socket\esp8266_socket_imp.c ****     return esp8266_atcmd(cmd,"OK");
 2148              		.loc 1 548 12
 2149 002a 07F10803 		add	r3, r7, #8
 2150 002e 0549     		ldr	r1, .L115+4
 2151 0030 1846     		mov	r0, r3
 2152 0032 FFF7FEFF 		bl	esp8266_atcmd
 2153 0036 0346     		mov	r3, r0
 549:c:/Users/lenovo/Desktop/AIoT/first_day/firstday_afternoon/LiteOS_Lab_STM32_IoT/iot_link/network/tcpip/esp8266_socket\esp8266_socket_imp.c **** }
 2154              		.loc 1 549 1
 2155 0038 1846     		mov	r0, r3
 2156 003a 4837     		adds	r7, r7, #72
 2157              	.LCFI120:
 2158              		.cfi_def_cfa_offset 8
 2159 003c BD46     		mov	sp, r7
 2160              	.LCFI121:
 2161              		.cfi_def_cfa_register 13
 2162              		@ sp needed
 2163 003e 80BD     		pop	{r7, pc}
 2164              	.L116:
 2165              		.align	2
 2166              	.L115:
 2167 0040 24010000 		.word	.LC19
 2168 0044 6C000000 		.word	.LC4
 2169              		.cfi_endproc
 2170              	.LFE26:
 2172              		.section	.rodata
 2173 013d 000000   		.align	2
 2174              	.LC20:
 2175 0140 41542B43 		.ascii	"AT+CIPMUX=%d\015\012\000"
 2175      49504D55 
ARM GAS  C:\Users\lenovo\AppData\Local\Temp\cc815I9s.s 			page 49


 2175      583D2564 
 2175      0D0A00
 2176              		.section	.text.esp8266_set_mux,"ax",%progbits
 2177              		.align	1
 2178              		.syntax unified
 2179              		.thumb
 2180              		.thumb_func
 2181              		.fpu fpv4-sp-d16
 2183              	esp8266_set_mux:
 2184              	.LFB27:
 550:c:/Users/lenovo/Desktop/AIoT/first_day/firstday_afternoon/LiteOS_Lab_STM32_IoT/iot_link/network/tcpip/esp8266_socket\esp8266_socket_imp.c **** 
 551:c:/Users/lenovo/Desktop/AIoT/first_day/firstday_afternoon/LiteOS_Lab_STM32_IoT/iot_link/network/tcpip/esp8266_socket\esp8266_socket_imp.c **** static bool_t esp8266_set_mux(int mux)
 552:c:/Users/lenovo/Desktop/AIoT/first_day/firstday_afternoon/LiteOS_Lab_STM32_IoT/iot_link/network/tcpip/esp8266_socket\esp8266_socket_imp.c **** {
 2185              		.loc 1 552 1
 2186              		.cfi_startproc
 2187              		@ args = 0, pretend = 0, frame = 72
 2188              		@ frame_needed = 1, uses_anonymous_args = 0
 2189 0000 80B5     		push	{r7, lr}
 2190              	.LCFI122:
 2191              		.cfi_def_cfa_offset 8
 2192              		.cfi_offset 7, -8
 2193              		.cfi_offset 14, -4
 2194 0002 92B0     		sub	sp, sp, #72
 2195              	.LCFI123:
 2196              		.cfi_def_cfa_offset 80
 2197 0004 00AF     		add	r7, sp, #0
 2198              	.LCFI124:
 2199              		.cfi_def_cfa_register 7
 2200 0006 7860     		str	r0, [r7, #4]
 553:c:/Users/lenovo/Desktop/AIoT/first_day/firstday_afternoon/LiteOS_Lab_STM32_IoT/iot_link/network/tcpip/esp8266_socket\esp8266_socket_imp.c **** 	char cmd[64];
 554:c:/Users/lenovo/Desktop/AIoT/first_day/firstday_afternoon/LiteOS_Lab_STM32_IoT/iot_link/network/tcpip/esp8266_socket\esp8266_socket_imp.c **** 	memset(cmd,0,64);
 2201              		.loc 1 554 2
 2202 0008 07F10803 		add	r3, r7, #8
 2203 000c 4022     		movs	r2, #64
 2204 000e 0021     		movs	r1, #0
 2205 0010 1846     		mov	r0, r3
 2206 0012 FFF7FEFF 		bl	memset
 555:c:/Users/lenovo/Desktop/AIoT/first_day/firstday_afternoon/LiteOS_Lab_STM32_IoT/iot_link/network/tcpip/esp8266_socket\esp8266_socket_imp.c ****     snprintf(cmd,64,"AT+CIPMUX=%d\r\n",mux);
 2207              		.loc 1 555 5
 2208 0016 07F10800 		add	r0, r7, #8
 2209 001a 7B68     		ldr	r3, [r7, #4]
 2210 001c 074A     		ldr	r2, .L119
 2211 001e 4021     		movs	r1, #64
 2212 0020 FFF7FEFF 		bl	snprintf
 556:c:/Users/lenovo/Desktop/AIoT/first_day/firstday_afternoon/LiteOS_Lab_STM32_IoT/iot_link/network/tcpip/esp8266_socket\esp8266_socket_imp.c ****     return esp8266_atcmd(cmd,"OK");
 2213              		.loc 1 556 12
 2214 0024 07F10803 		add	r3, r7, #8
 2215 0028 0549     		ldr	r1, .L119+4
 2216 002a 1846     		mov	r0, r3
 2217 002c FFF7FEFF 		bl	esp8266_atcmd
 2218 0030 0346     		mov	r3, r0
 557:c:/Users/lenovo/Desktop/AIoT/first_day/firstday_afternoon/LiteOS_Lab_STM32_IoT/iot_link/network/tcpip/esp8266_socket\esp8266_socket_imp.c **** }
 2219              		.loc 1 557 1
 2220 0032 1846     		mov	r0, r3
 2221 0034 4837     		adds	r7, r7, #72
 2222              	.LCFI125:
 2223              		.cfi_def_cfa_offset 8
ARM GAS  C:\Users\lenovo\AppData\Local\Temp\cc815I9s.s 			page 50


 2224 0036 BD46     		mov	sp, r7
 2225              	.LCFI126:
 2226              		.cfi_def_cfa_register 13
 2227              		@ sp needed
 2228 0038 80BD     		pop	{r7, pc}
 2229              	.L120:
 2230 003a 00BF     		.align	2
 2231              	.L119:
 2232 003c 40010000 		.word	.LC20
 2233 0040 6C000000 		.word	.LC4
 2234              		.cfi_endproc
 2235              	.LFE27:
 2237              		.section	.rodata
 2238 014f 00       		.align	2
 2239              	.LC21:
 2240 0150 65737038 		.ascii	"esp8266rcv\000"
 2240      32363672 
 2240      637600
 2241 015b 00       		.align	2
 2242              	.LC22:
 2243 015c 636F6E6E 		.ascii	"connect ap failed, repeat...\015\000"
 2243      65637420 
 2243      61702066 
 2243      61696C65 
 2243      642C2072 
 2244 017a 0000     		.align	2
 2245              	.LC23:
 2246 017c 31323334 		.ascii	"123457789\000"
 2246      35373738 
 2246      3900
 2247 0186 0000     		.align	2
 2248              	.LC24:
 2249 0188 6E6F7661 		.ascii	"nova\000"
 2249      00
 2250 018d 000000   		.align	2
 2251              	.LC25:
 2252 0190 73616C3A 		.ascii	"sal:install socket success\015\000"
 2252      696E7374 
 2252      616C6C20 
 2252      736F636B 
 2252      65742073 
 2253              		.align	2
 2254              	.LC26:
 2255 01ac 73616C3A 		.ascii	"sal:install socket failed\015\000"
 2255      696E7374 
 2255      616C6C20 
 2255      736F636B 
 2255      65742066 
 2256              		.section	.text.link_tcpip_imp_init,"ax",%progbits
 2257              		.align	1
 2258              		.global	link_tcpip_imp_init
 2259              		.syntax unified
 2260              		.thumb
 2261              		.thumb_func
 2262              		.fpu fpv4-sp-d16
 2264              	link_tcpip_imp_init:
 2265              	.LFB28:
ARM GAS  C:\Users\lenovo\AppData\Local\Temp\cc815I9s.s 			page 51


 558:c:/Users/lenovo/Desktop/AIoT/first_day/firstday_afternoon/LiteOS_Lab_STM32_IoT/iot_link/network/tcpip/esp8266_socket\esp8266_socket_imp.c **** 
 559:c:/Users/lenovo/Desktop/AIoT/first_day/firstday_afternoon/LiteOS_Lab_STM32_IoT/iot_link/network/tcpip/esp8266_socket\esp8266_socket_imp.c **** int link_tcpip_imp_init(void)
 560:c:/Users/lenovo/Desktop/AIoT/first_day/firstday_afternoon/LiteOS_Lab_STM32_IoT/iot_link/network/tcpip/esp8266_socket\esp8266_socket_imp.c **** {
 2266              		.loc 1 560 1
 2267              		.cfi_startproc
 2268              		@ args = 0, pretend = 0, frame = 8
 2269              		@ frame_needed = 1, uses_anonymous_args = 0
 2270 0000 80B5     		push	{r7, lr}
 2271              	.LCFI127:
 2272              		.cfi_def_cfa_offset 8
 2273              		.cfi_offset 7, -8
 2274              		.cfi_offset 14, -4
 2275 0002 84B0     		sub	sp, sp, #16
 2276              	.LCFI128:
 2277              		.cfi_def_cfa_offset 24
 2278 0004 02AF     		add	r7, sp, #8
 2279              	.LCFI129:
 2280              		.cfi_def_cfa 7, 16
 561:c:/Users/lenovo/Desktop/AIoT/first_day/firstday_afternoon/LiteOS_Lab_STM32_IoT/iot_link/network/tcpip/esp8266_socket\esp8266_socket_imp.c ****     int ret = -1;
 2281              		.loc 1 561 9
 2282 0006 4FF0FF33 		mov	r3, #-1
 2283 000a 7B60     		str	r3, [r7, #4]
 562:c:/Users/lenovo/Desktop/AIoT/first_day/firstday_afternoon/LiteOS_Lab_STM32_IoT/iot_link/network/tcpip/esp8266_socket\esp8266_socket_imp.c **** 
 563:c:/Users/lenovo/Desktop/AIoT/first_day/firstday_afternoon/LiteOS_Lab_STM32_IoT/iot_link/network/tcpip/esp8266_socket\esp8266_socket_imp.c ****     at_oobregister("esp8266rcv",CN_ESP8266_RCVINDEX,strlen(CN_ESP8266_RCVINDEX),esp8266_rcvdeal,NUL
 2284              		.loc 1 563 5
 2285 000c 0023     		movs	r3, #0
 2286 000e 0093     		str	r3, [sp]
 2287 0010 1F4B     		ldr	r3, .L127
 2288 0012 0622     		movs	r2, #6
 2289 0014 1F49     		ldr	r1, .L127+4
 2290 0016 2048     		ldr	r0, .L127+8
 2291 0018 FFF7FEFF 		bl	at_oobregister
 564:c:/Users/lenovo/Desktop/AIoT/first_day/firstday_afternoon/LiteOS_Lab_STM32_IoT/iot_link/network/tcpip/esp8266_socket\esp8266_socket_imp.c ****     ring_buffer_init(&s_esp8266_sock_cb.esp8266_rcvring,s_esp8266_sock_cb.esp8266_rcvbuf,CN_ESP8266
 2292              		.loc 1 564 5
 2293 001c 0023     		movs	r3, #0
 2294 001e 0093     		str	r3, [sp]
 2295 0020 0023     		movs	r3, #0
 2296 0022 4FF4E162 		mov	r2, #1800
 2297 0026 1D49     		ldr	r1, .L127+12
 2298 0028 1D48     		ldr	r0, .L127+16
 2299 002a FFF7FEFF 		bl	ring_buffer_init
 565:c:/Users/lenovo/Desktop/AIoT/first_day/firstday_afternoon/LiteOS_Lab_STM32_IoT/iot_link/network/tcpip/esp8266_socket\esp8266_socket_imp.c ****     
 566:c:/Users/lenovo/Desktop/AIoT/first_day/firstday_afternoon/LiteOS_Lab_STM32_IoT/iot_link/network/tcpip/esp8266_socket\esp8266_socket_imp.c ****     osal_task_sleep(100);
 2300              		.loc 1 566 5
 2301 002e 6420     		movs	r0, #100
 2302 0030 FFF7FEFF 		bl	osal_task_sleep
 567:c:/Users/lenovo/Desktop/AIoT/first_day/firstday_afternoon/LiteOS_Lab_STM32_IoT/iot_link/network/tcpip/esp8266_socket\esp8266_socket_imp.c ****     esp8266_reset();
 2303              		.loc 1 567 5
 2304 0034 FFF7FEFF 		bl	esp8266_reset
 568:c:/Users/lenovo/Desktop/AIoT/first_day/firstday_afternoon/LiteOS_Lab_STM32_IoT/iot_link/network/tcpip/esp8266_socket\esp8266_socket_imp.c ****     esp8266_echo_off();
 2305              		.loc 1 568 5
 2306 0038 FFF7FEFF 		bl	esp8266_echo_off
 569:c:/Users/lenovo/Desktop/AIoT/first_day/firstday_afternoon/LiteOS_Lab_STM32_IoT/iot_link/network/tcpip/esp8266_socket\esp8266_socket_imp.c ****     esp8266_show_dinfo(0);
 2307              		.loc 1 569 5
 2308 003c 0020     		movs	r0, #0
 2309 003e FFF7FEFF 		bl	esp8266_show_dinfo
 570:c:/Users/lenovo/Desktop/AIoT/first_day/firstday_afternoon/LiteOS_Lab_STM32_IoT/iot_link/network/tcpip/esp8266_socket\esp8266_socket_imp.c ****     esp8266_set_mode(STA);
ARM GAS  C:\Users\lenovo\AppData\Local\Temp\cc815I9s.s 			page 52


 2310              		.loc 1 570 5
 2311 0042 0120     		movs	r0, #1
 2312 0044 FFF7FEFF 		bl	esp8266_set_mode
 571:c:/Users/lenovo/Desktop/AIoT/first_day/firstday_afternoon/LiteOS_Lab_STM32_IoT/iot_link/network/tcpip/esp8266_socket\esp8266_socket_imp.c ****     esp8266_set_mux(0);
 2313              		.loc 1 571 5
 2314 0048 0020     		movs	r0, #0
 2315 004a FFF7FEFF 		bl	esp8266_set_mux
 572:c:/Users/lenovo/Desktop/AIoT/first_day/firstday_afternoon/LiteOS_Lab_STM32_IoT/iot_link/network/tcpip/esp8266_socket\esp8266_socket_imp.c **** 
 573:c:/Users/lenovo/Desktop/AIoT/first_day/firstday_afternoon/LiteOS_Lab_STM32_IoT/iot_link/network/tcpip/esp8266_socket\esp8266_socket_imp.c ****     while(false == esp8266_joinap(WIFI_SSID, WIFI_PASSWD))
 2316              		.loc 1 573 10
 2317 004e 05E0     		b	.L122
 2318              	.L123:
 574:c:/Users/lenovo/Desktop/AIoT/first_day/firstday_afternoon/LiteOS_Lab_STM32_IoT/iot_link/network/tcpip/esp8266_socket\esp8266_socket_imp.c ****     {
 575:c:/Users/lenovo/Desktop/AIoT/first_day/firstday_afternoon/LiteOS_Lab_STM32_IoT/iot_link/network/tcpip/esp8266_socket\esp8266_socket_imp.c ****         osal_task_sleep(100);
 2319              		.loc 1 575 9
 2320 0050 6420     		movs	r0, #100
 2321 0052 FFF7FEFF 		bl	osal_task_sleep
 576:c:/Users/lenovo/Desktop/AIoT/first_day/firstday_afternoon/LiteOS_Lab_STM32_IoT/iot_link/network/tcpip/esp8266_socket\esp8266_socket_imp.c ****         printf("connect ap failed, repeat...\r\n");
 2322              		.loc 1 576 9
 2323 0056 1348     		ldr	r0, .L127+20
 2324 0058 FFF7FEFF 		bl	puts
 2325              	.L122:
 573:c:/Users/lenovo/Desktop/AIoT/first_day/firstday_afternoon/LiteOS_Lab_STM32_IoT/iot_link/network/tcpip/esp8266_socket\esp8266_socket_imp.c ****     {
 2326              		.loc 1 573 20
 2327 005c 1249     		ldr	r1, .L127+24
 2328 005e 1348     		ldr	r0, .L127+28
 2329 0060 FFF7FEFF 		bl	esp8266_joinap
 2330 0064 0346     		mov	r3, r0
 573:c:/Users/lenovo/Desktop/AIoT/first_day/firstday_afternoon/LiteOS_Lab_STM32_IoT/iot_link/network/tcpip/esp8266_socket\esp8266_socket_imp.c ****     {
 2331              		.loc 1 573 10
 2332 0066 002B     		cmp	r3, #0
 2333 0068 F2D0     		beq	.L123
 577:c:/Users/lenovo/Desktop/AIoT/first_day/firstday_afternoon/LiteOS_Lab_STM32_IoT/iot_link/network/tcpip/esp8266_socket\esp8266_socket_imp.c ****     }
 578:c:/Users/lenovo/Desktop/AIoT/first_day/firstday_afternoon/LiteOS_Lab_STM32_IoT/iot_link/network/tcpip/esp8266_socket\esp8266_socket_imp.c ****    //reach here means everything is ok, we can go now
 579:c:/Users/lenovo/Desktop/AIoT/first_day/firstday_afternoon/LiteOS_Lab_STM32_IoT/iot_link/network/tcpip/esp8266_socket\esp8266_socket_imp.c ****     ret = link_sal_install(&s_tcpip_socket);
 2334              		.loc 1 579 11
 2335 006a 1148     		ldr	r0, .L127+32
 2336 006c FFF7FEFF 		bl	link_sal_install
 2337 0070 7860     		str	r0, [r7, #4]
 580:c:/Users/lenovo/Desktop/AIoT/first_day/firstday_afternoon/LiteOS_Lab_STM32_IoT/iot_link/network/tcpip/esp8266_socket\esp8266_socket_imp.c **** 
 581:c:/Users/lenovo/Desktop/AIoT/first_day/firstday_afternoon/LiteOS_Lab_STM32_IoT/iot_link/network/tcpip/esp8266_socket\esp8266_socket_imp.c ****     if(0 == ret)
 2338              		.loc 1 581 7
 2339 0072 7B68     		ldr	r3, [r7, #4]
 2340 0074 002B     		cmp	r3, #0
 2341 0076 03D1     		bne	.L124
 582:c:/Users/lenovo/Desktop/AIoT/first_day/firstday_afternoon/LiteOS_Lab_STM32_IoT/iot_link/network/tcpip/esp8266_socket\esp8266_socket_imp.c ****     {
 583:c:/Users/lenovo/Desktop/AIoT/first_day/firstday_afternoon/LiteOS_Lab_STM32_IoT/iot_link/network/tcpip/esp8266_socket\esp8266_socket_imp.c ****         printf("sal:install socket success\r\n");
 2342              		.loc 1 583 9
 2343 0078 0E48     		ldr	r0, .L127+36
 2344 007a FFF7FEFF 		bl	puts
 2345 007e 02E0     		b	.L125
 2346              	.L124:
 584:c:/Users/lenovo/Desktop/AIoT/first_day/firstday_afternoon/LiteOS_Lab_STM32_IoT/iot_link/network/tcpip/esp8266_socket\esp8266_socket_imp.c ****     }
 585:c:/Users/lenovo/Desktop/AIoT/first_day/firstday_afternoon/LiteOS_Lab_STM32_IoT/iot_link/network/tcpip/esp8266_socket\esp8266_socket_imp.c ****     else
 586:c:/Users/lenovo/Desktop/AIoT/first_day/firstday_afternoon/LiteOS_Lab_STM32_IoT/iot_link/network/tcpip/esp8266_socket\esp8266_socket_imp.c ****     {
 587:c:/Users/lenovo/Desktop/AIoT/first_day/firstday_afternoon/LiteOS_Lab_STM32_IoT/iot_link/network/tcpip/esp8266_socket\esp8266_socket_imp.c ****         printf("sal:install socket failed\r\n");
 2347              		.loc 1 587 9
ARM GAS  C:\Users\lenovo\AppData\Local\Temp\cc815I9s.s 			page 53


 2348 0080 0D48     		ldr	r0, .L127+40
 2349 0082 FFF7FEFF 		bl	puts
 2350              	.L125:
 588:c:/Users/lenovo/Desktop/AIoT/first_day/firstday_afternoon/LiteOS_Lab_STM32_IoT/iot_link/network/tcpip/esp8266_socket\esp8266_socket_imp.c ****     }
 589:c:/Users/lenovo/Desktop/AIoT/first_day/firstday_afternoon/LiteOS_Lab_STM32_IoT/iot_link/network/tcpip/esp8266_socket\esp8266_socket_imp.c **** 
 590:c:/Users/lenovo/Desktop/AIoT/first_day/firstday_afternoon/LiteOS_Lab_STM32_IoT/iot_link/network/tcpip/esp8266_socket\esp8266_socket_imp.c ****     return ret;
 2351              		.loc 1 590 12
 2352 0086 7B68     		ldr	r3, [r7, #4]
 591:c:/Users/lenovo/Desktop/AIoT/first_day/firstday_afternoon/LiteOS_Lab_STM32_IoT/iot_link/network/tcpip/esp8266_socket\esp8266_socket_imp.c **** }
 2353              		.loc 1 591 1
 2354 0088 1846     		mov	r0, r3
 2355 008a 0837     		adds	r7, r7, #8
 2356              	.LCFI130:
 2357              		.cfi_def_cfa_offset 8
 2358 008c BD46     		mov	sp, r7
 2359              	.LCFI131:
 2360              		.cfi_def_cfa_register 13
 2361              		@ sp needed
 2362 008e 80BD     		pop	{r7, pc}
 2363              	.L128:
 2364              		.align	2
 2365              	.L127:
 2366 0090 00000000 		.word	esp8266_rcvdeal
 2367 0094 8C000000 		.word	.LC8
 2368 0098 50010000 		.word	.LC21
 2369 009c 30070000 		.word	s_esp8266_sock_cb+1840
 2370 00a0 18000000 		.word	s_esp8266_sock_cb+24
 2371 00a4 5C010000 		.word	.LC22
 2372 00a8 7C010000 		.word	.LC23
 2373 00ac 88010000 		.word	.LC24
 2374 00b0 00000000 		.word	s_tcpip_socket
 2375 00b4 90010000 		.word	.LC25
 2376 00b8 AC010000 		.word	.LC26
 2377              		.cfi_endproc
 2378              	.LFE28:
 2380              		.section	.rodata.__FUNCTION__.7508,"a"
 2381              		.align	2
 2384              	__FUNCTION__.7508:
 2385 0000 65737038 		.ascii	"esp8266_rcvdeal\000"
 2385      3236365F 
 2385      72637664 
 2385      65616C00 
 2386              		.text
 2387              	.Letext0:
 2388              		.file 2 "c:\\users\\lenovo\\.iotlink\\tools\\gcc-arm-none-eabi\\arm-none-eabi\\include\\machine\\_
 2389              		.file 3 "c:\\users\\lenovo\\.iotlink\\tools\\gcc-arm-none-eabi\\lib\\gcc\\arm-none-eabi\\9.2.1\\in
 2390              		.file 4 "c:\\users\\lenovo\\.iotlink\\tools\\gcc-arm-none-eabi\\arm-none-eabi\\include\\sys\\lock.
 2391              		.file 5 "c:\\users\\lenovo\\.iotlink\\tools\\gcc-arm-none-eabi\\arm-none-eabi\\include\\sys\\_type
 2392              		.file 6 "c:\\users\\lenovo\\.iotlink\\tools\\gcc-arm-none-eabi\\arm-none-eabi\\include\\sys\\reent
 2393              		.file 7 "c:\\users\\lenovo\\.iotlink\\tools\\gcc-arm-none-eabi\\arm-none-eabi\\include\\sys\\_stdi
 2394              		.file 8 "c:\\users\\lenovo\\.iotlink\\tools\\gcc-arm-none-eabi\\arm-none-eabi\\include\\sys\\_time
 2395              		.file 9 "c:\\users\\lenovo\\.iotlink\\tools\\gcc-arm-none-eabi\\arm-none-eabi\\include\\sys\\selec
 2396              		.file 10 "c:\\users\\lenovo\\.iotlink\\tools\\gcc-arm-none-eabi\\arm-none-eabi\\include\\sys\\unis
 2397              		.file 11 "c:/Users/lenovo/Desktop/AIoT/first_day/firstday_afternoon/LiteOS_Lab_STM32_IoT/iot_link/
 2398              		.file 12 "c:/Users/lenovo/Desktop/AIoT/first_day/firstday_afternoon/LiteOS_Lab_STM32_IoT/iot_link/
 2399              		.file 13 "c:/Users/lenovo/Desktop/AIoT/first_day/firstday_afternoon/LiteOS_Lab_STM32_IoT/iot_link/
ARM GAS  C:\Users\lenovo\AppData\Local\Temp\cc815I9s.s 			page 54

