ARM GAS  C:\Users\lenovo\AppData\Local\Temp\ccUTdDkL.s 			page 1


   1              		.cpu cortex-m4
   2              		.eabi_attribute 27, 1
   3              		.eabi_attribute 28, 1
   4              		.eabi_attribute 20, 1
   5              		.eabi_attribute 21, 1
   6              		.eabi_attribute 23, 3
   7              		.eabi_attribute 24, 1
   8              		.eabi_attribute 25, 1
   9              		.eabi_attribute 26, 1
  10              		.eabi_attribute 30, 6
  11              		.eabi_attribute 34, 1
  12              		.eabi_attribute 18, 4
  13              		.file	"main.c"
  14              		.text
  15              	.Ltext0:
  16              		.cfi_sections	.debug_frame
  17              		.global	system_phys_mem
  18              		.section	.rodata.system_phys_mem,"a"
  19              		.align	2
  22              	system_phys_mem:
  23 0000 00000000 		.word	__los_heap_addr_start__
  24 0004 00000000 		.word	__los_heap_addr_end__
  25 0008 00000000 		.word	0
  26 000c 00000000 		.word	0
  27              		.section	.rodata
  28              		.align	2
  29              	.LC0:
  30 0000 436F6E6E 		.ascii	"Connecting to\000"
  30      65637469 
  30      6E672074 
  30      6F00
  31 000e 0000     		.align	2
  32              	.LC1:
  33 0010 4E657477 		.ascii	"Network...\000"
  33      6F726B2E 
  33      2E2E00
  34              		.section	.text.HardWare_Init,"ax",%progbits
  35              		.align	1
  36              		.global	HardWare_Init
  37              		.arch armv7e-m
  38              		.syntax unified
  39              		.thumb
  40              		.thumb_func
  41              		.fpu fpv4-sp-d16
  43              	HardWare_Init:
  44              	.LFB324:
  45              		.file 1 "c:/Users/lenovo/Desktop/AIoT/test/LiteOS_Lab_STM32_IoT/targets/STM32L431_BearPi/Src/main.
   1:c:/Users/lenovo/Desktop/AIoT/test/LiteOS_Lab_STM32_IoT/targets/STM32L431_BearPi/Src\main.c **** /*----------------------------------------------------------------------------
   2:c:/Users/lenovo/Desktop/AIoT/test/LiteOS_Lab_STM32_IoT/targets/STM32L431_BearPi/Src\main.c ****  * Copyright (c) <2016-2018>, <Huawei Technologies Co., Ltd>
   3:c:/Users/lenovo/Desktop/AIoT/test/LiteOS_Lab_STM32_IoT/targets/STM32L431_BearPi/Src\main.c ****  * All rights reserved.
   4:c:/Users/lenovo/Desktop/AIoT/test/LiteOS_Lab_STM32_IoT/targets/STM32L431_BearPi/Src\main.c ****  * Redistribution and use in source and binary forms, with or without modification,
   5:c:/Users/lenovo/Desktop/AIoT/test/LiteOS_Lab_STM32_IoT/targets/STM32L431_BearPi/Src\main.c ****  * are permitted provided that the following conditions are met:
   6:c:/Users/lenovo/Desktop/AIoT/test/LiteOS_Lab_STM32_IoT/targets/STM32L431_BearPi/Src\main.c ****  * 1. Redistributions of source code must retain the above copyright notice, this list of
   7:c:/Users/lenovo/Desktop/AIoT/test/LiteOS_Lab_STM32_IoT/targets/STM32L431_BearPi/Src\main.c ****  * conditions and the following disclaimer.
   8:c:/Users/lenovo/Desktop/AIoT/test/LiteOS_Lab_STM32_IoT/targets/STM32L431_BearPi/Src\main.c ****  * 2. Redistributions in binary form must reproduce the above copyright notice, this list
   9:c:/Users/lenovo/Desktop/AIoT/test/LiteOS_Lab_STM32_IoT/targets/STM32L431_BearPi/Src\main.c ****  * of conditions and the following disclaimer in the documentation and/or other materials
  10:c:/Users/lenovo/Desktop/AIoT/test/LiteOS_Lab_STM32_IoT/targets/STM32L431_BearPi/Src\main.c ****  * provided with the distribution.
ARM GAS  C:\Users\lenovo\AppData\Local\Temp\ccUTdDkL.s 			page 2


  11:c:/Users/lenovo/Desktop/AIoT/test/LiteOS_Lab_STM32_IoT/targets/STM32L431_BearPi/Src\main.c ****  * 3. Neither the name of the copyright holder nor the names of its contributors may be used
  12:c:/Users/lenovo/Desktop/AIoT/test/LiteOS_Lab_STM32_IoT/targets/STM32L431_BearPi/Src\main.c ****  * to endorse or promote products derived from this software without specific prior written
  13:c:/Users/lenovo/Desktop/AIoT/test/LiteOS_Lab_STM32_IoT/targets/STM32L431_BearPi/Src\main.c ****  * permission.
  14:c:/Users/lenovo/Desktop/AIoT/test/LiteOS_Lab_STM32_IoT/targets/STM32L431_BearPi/Src\main.c ****  * THIS SOFTWARE IS PROVIDED BY THE COPYRIGHT HOLDERS AND CONTRIBUTORS
  15:c:/Users/lenovo/Desktop/AIoT/test/LiteOS_Lab_STM32_IoT/targets/STM32L431_BearPi/Src\main.c ****  * "AS IS" AND ANY EXPRESS OR IMPLIED WARRANTIES, INCLUDING, BUT NOT LIMITED TO,
  16:c:/Users/lenovo/Desktop/AIoT/test/LiteOS_Lab_STM32_IoT/targets/STM32L431_BearPi/Src\main.c ****  * THE IMPLIED WARRANTIES OF MERCHANTABILITY AND FITNESS FOR A PARTICULAR
  17:c:/Users/lenovo/Desktop/AIoT/test/LiteOS_Lab_STM32_IoT/targets/STM32L431_BearPi/Src\main.c ****  * PURPOSE ARE DISCLAIMED. IN NO EVENT SHALL THE COPYRIGHT HOLDER OR
  18:c:/Users/lenovo/Desktop/AIoT/test/LiteOS_Lab_STM32_IoT/targets/STM32L431_BearPi/Src\main.c ****  * CONTRIBUTORS BE LIABLE FOR ANY DIRECT, INDIRECT, INCIDENTAL, SPECIAL,
  19:c:/Users/lenovo/Desktop/AIoT/test/LiteOS_Lab_STM32_IoT/targets/STM32L431_BearPi/Src\main.c ****  * EXEMPLARY, OR CONSEQUENTIAL DAMAGES (INCLUDING, BUT NOT LIMITED TO,
  20:c:/Users/lenovo/Desktop/AIoT/test/LiteOS_Lab_STM32_IoT/targets/STM32L431_BearPi/Src\main.c ****  * PROCUREMENT OF SUBSTITUTE GOODS OR SERVICES; LOSS OF USE, DATA, OR PROFITS;
  21:c:/Users/lenovo/Desktop/AIoT/test/LiteOS_Lab_STM32_IoT/targets/STM32L431_BearPi/Src\main.c ****  * OR BUSINESS INTERRUPTION) HOWEVER CAUSED AND ON ANY THEORY OF LIABILITY,
  22:c:/Users/lenovo/Desktop/AIoT/test/LiteOS_Lab_STM32_IoT/targets/STM32L431_BearPi/Src\main.c ****  * WHETHER IN CONTRACT, STRICT LIABILITY, OR TORT (INCLUDING NEGLIGENCE OR
  23:c:/Users/lenovo/Desktop/AIoT/test/LiteOS_Lab_STM32_IoT/targets/STM32L431_BearPi/Src\main.c ****  * OTHERWISE) ARISING IN ANY WAY OUT OF THE USE OF THIS SOFTWARE, EVEN IF
  24:c:/Users/lenovo/Desktop/AIoT/test/LiteOS_Lab_STM32_IoT/targets/STM32L431_BearPi/Src\main.c ****  * ADVISED OF THE POSSIBILITY OF SUCH DAMAGE.
  25:c:/Users/lenovo/Desktop/AIoT/test/LiteOS_Lab_STM32_IoT/targets/STM32L431_BearPi/Src\main.c ****  *---------------------------------------------------------------------------*/
  26:c:/Users/lenovo/Desktop/AIoT/test/LiteOS_Lab_STM32_IoT/targets/STM32L431_BearPi/Src\main.c **** /*----------------------------------------------------------------------------
  27:c:/Users/lenovo/Desktop/AIoT/test/LiteOS_Lab_STM32_IoT/targets/STM32L431_BearPi/Src\main.c ****  * Notice of Export Control Law
  28:c:/Users/lenovo/Desktop/AIoT/test/LiteOS_Lab_STM32_IoT/targets/STM32L431_BearPi/Src\main.c ****  * ===============================================
  29:c:/Users/lenovo/Desktop/AIoT/test/LiteOS_Lab_STM32_IoT/targets/STM32L431_BearPi/Src\main.c ****  * Huawei LiteOS may be subject to applicable export control laws and regulations, which might
  30:c:/Users/lenovo/Desktop/AIoT/test/LiteOS_Lab_STM32_IoT/targets/STM32L431_BearPi/Src\main.c ****  * include those applicable to Huawei LiteOS of U.S. and the country in which you are located.
  31:c:/Users/lenovo/Desktop/AIoT/test/LiteOS_Lab_STM32_IoT/targets/STM32L431_BearPi/Src\main.c ****  * Import, export and usage of Huawei LiteOS in any manner by you shall be in compliance with such
  32:c:/Users/lenovo/Desktop/AIoT/test/LiteOS_Lab_STM32_IoT/targets/STM32L431_BearPi/Src\main.c ****  * applicable export control laws and regulations.
  33:c:/Users/lenovo/Desktop/AIoT/test/LiteOS_Lab_STM32_IoT/targets/STM32L431_BearPi/Src\main.c ****  *---------------------------------------------------------------------------*/
  34:c:/Users/lenovo/Desktop/AIoT/test/LiteOS_Lab_STM32_IoT/targets/STM32L431_BearPi/Src\main.c **** #include "main.h"
  35:c:/Users/lenovo/Desktop/AIoT/test/LiteOS_Lab_STM32_IoT/targets/STM32L431_BearPi/Src\main.c **** #include "sys_init.h"
  36:c:/Users/lenovo/Desktop/AIoT/test/LiteOS_Lab_STM32_IoT/targets/STM32L431_BearPi/Src\main.c **** #include "mem.h"
  37:c:/Users/lenovo/Desktop/AIoT/test/LiteOS_Lab_STM32_IoT/targets/STM32L431_BearPi/Src\main.c **** 
  38:c:/Users/lenovo/Desktop/AIoT/test/LiteOS_Lab_STM32_IoT/targets/STM32L431_BearPi/Src\main.c **** #include "los_base.h"
  39:c:/Users/lenovo/Desktop/AIoT/test/LiteOS_Lab_STM32_IoT/targets/STM32L431_BearPi/Src\main.c **** #include "los_task.ph"
  40:c:/Users/lenovo/Desktop/AIoT/test/LiteOS_Lab_STM32_IoT/targets/STM32L431_BearPi/Src\main.c **** #include "los_typedef.h"
  41:c:/Users/lenovo/Desktop/AIoT/test/LiteOS_Lab_STM32_IoT/targets/STM32L431_BearPi/Src\main.c **** #include "los_sys.h"
  42:c:/Users/lenovo/Desktop/AIoT/test/LiteOS_Lab_STM32_IoT/targets/STM32L431_BearPi/Src\main.c **** 
  43:c:/Users/lenovo/Desktop/AIoT/test/LiteOS_Lab_STM32_IoT/targets/STM32L431_BearPi/Src\main.c **** #if defined (__CC_ARM)
  44:c:/Users/lenovo/Desktop/AIoT/test/LiteOS_Lab_STM32_IoT/targets/STM32L431_BearPi/Src\main.c **** extern char Image$$RW_IRAM1$$ZI$$Limit [];
  45:c:/Users/lenovo/Desktop/AIoT/test/LiteOS_Lab_STM32_IoT/targets/STM32L431_BearPi/Src\main.c **** extern char Image$$ARM_LIB_STACKHEAP$$Base [];
  46:c:/Users/lenovo/Desktop/AIoT/test/LiteOS_Lab_STM32_IoT/targets/STM32L431_BearPi/Src\main.c **** #elif defined (__GNUC__)
  47:c:/Users/lenovo/Desktop/AIoT/test/LiteOS_Lab_STM32_IoT/targets/STM32L431_BearPi/Src\main.c **** extern char __los_heap_addr_start__ [];
  48:c:/Users/lenovo/Desktop/AIoT/test/LiteOS_Lab_STM32_IoT/targets/STM32L431_BearPi/Src\main.c **** extern char __los_heap_addr_end__ [];
  49:c:/Users/lenovo/Desktop/AIoT/test/LiteOS_Lab_STM32_IoT/targets/STM32L431_BearPi/Src\main.c **** #else
  50:c:/Users/lenovo/Desktop/AIoT/test/LiteOS_Lab_STM32_IoT/targets/STM32L431_BearPi/Src\main.c **** #error "fix me"
  51:c:/Users/lenovo/Desktop/AIoT/test/LiteOS_Lab_STM32_IoT/targets/STM32L431_BearPi/Src\main.c **** #endif
  52:c:/Users/lenovo/Desktop/AIoT/test/LiteOS_Lab_STM32_IoT/targets/STM32L431_BearPi/Src\main.c **** 
  53:c:/Users/lenovo/Desktop/AIoT/test/LiteOS_Lab_STM32_IoT/targets/STM32L431_BearPi/Src\main.c **** const struct phys_mem system_phys_mem [] =
  54:c:/Users/lenovo/Desktop/AIoT/test/LiteOS_Lab_STM32_IoT/targets/STM32L431_BearPi/Src\main.c ****     {
  55:c:/Users/lenovo/Desktop/AIoT/test/LiteOS_Lab_STM32_IoT/targets/STM32L431_BearPi/Src\main.c **** #if defined (__CC_ARM)
  56:c:/Users/lenovo/Desktop/AIoT/test/LiteOS_Lab_STM32_IoT/targets/STM32L431_BearPi/Src\main.c ****         { Image$$RW_IRAM1$$ZI$$Limit, Image$$ARM_LIB_STACKHEAP$$Base },
  57:c:/Users/lenovo/Desktop/AIoT/test/LiteOS_Lab_STM32_IoT/targets/STM32L431_BearPi/Src\main.c **** #elif defined (__GNUC__)
  58:c:/Users/lenovo/Desktop/AIoT/test/LiteOS_Lab_STM32_IoT/targets/STM32L431_BearPi/Src\main.c ****         {(unsigned long) __los_heap_addr_start__,(unsigned long) __los_heap_addr_end__ },
  59:c:/Users/lenovo/Desktop/AIoT/test/LiteOS_Lab_STM32_IoT/targets/STM32L431_BearPi/Src\main.c **** #else
  60:c:/Users/lenovo/Desktop/AIoT/test/LiteOS_Lab_STM32_IoT/targets/STM32L431_BearPi/Src\main.c **** #error "fix me"
  61:c:/Users/lenovo/Desktop/AIoT/test/LiteOS_Lab_STM32_IoT/targets/STM32L431_BearPi/Src\main.c **** #endif
  62:c:/Users/lenovo/Desktop/AIoT/test/LiteOS_Lab_STM32_IoT/targets/STM32L431_BearPi/Src\main.c ****         { 0, 0 }
  63:c:/Users/lenovo/Desktop/AIoT/test/LiteOS_Lab_STM32_IoT/targets/STM32L431_BearPi/Src\main.c ****     };
  64:c:/Users/lenovo/Desktop/AIoT/test/LiteOS_Lab_STM32_IoT/targets/STM32L431_BearPi/Src\main.c **** 
  65:c:/Users/lenovo/Desktop/AIoT/test/LiteOS_Lab_STM32_IoT/targets/STM32L431_BearPi/Src\main.c **** VOID HardWare_Init(VOID)
  66:c:/Users/lenovo/Desktop/AIoT/test/LiteOS_Lab_STM32_IoT/targets/STM32L431_BearPi/Src\main.c **** {
  46              		.loc 1 66 1
ARM GAS  C:\Users\lenovo\AppData\Local\Temp\ccUTdDkL.s 			page 3


  47              		.cfi_startproc
  48              		@ args = 0, pretend = 0, frame = 0
  49              		@ frame_needed = 1, uses_anonymous_args = 0
  50 0000 80B5     		push	{r7, lr}
  51              	.LCFI0:
  52              		.cfi_def_cfa_offset 8
  53              		.cfi_offset 7, -8
  54              		.cfi_offset 14, -4
  55 0002 82B0     		sub	sp, sp, #8
  56              	.LCFI1:
  57              		.cfi_def_cfa_offset 16
  58 0004 02AF     		add	r7, sp, #8
  59              	.LCFI2:
  60              		.cfi_def_cfa 7, 8
  67:c:/Users/lenovo/Desktop/AIoT/test/LiteOS_Lab_STM32_IoT/targets/STM32L431_BearPi/Src\main.c **** 	HAL_Init();
  61              		.loc 1 67 2
  62 0006 FFF7FEFF 		bl	HAL_Init
  68:c:/Users/lenovo/Desktop/AIoT/test/LiteOS_Lab_STM32_IoT/targets/STM32L431_BearPi/Src\main.c **** 	/* Configure the system clock */
  69:c:/Users/lenovo/Desktop/AIoT/test/LiteOS_Lab_STM32_IoT/targets/STM32L431_BearPi/Src\main.c **** 
  70:c:/Users/lenovo/Desktop/AIoT/test/LiteOS_Lab_STM32_IoT/targets/STM32L431_BearPi/Src\main.c **** 	SystemClock_Config();
  63              		.loc 1 70 2
  64 000a FFF7FEFF 		bl	SystemClock_Config
  71:c:/Users/lenovo/Desktop/AIoT/test/LiteOS_Lab_STM32_IoT/targets/STM32L431_BearPi/Src\main.c **** 	MX_GPIO_Init();
  65              		.loc 1 71 2
  66 000e FFF7FEFF 		bl	MX_GPIO_Init
  72:c:/Users/lenovo/Desktop/AIoT/test/LiteOS_Lab_STM32_IoT/targets/STM32L431_BearPi/Src\main.c **** 	MX_I2C1_Init();
  67              		.loc 1 72 2
  68 0012 FFF7FEFF 		bl	MX_I2C1_Init
  73:c:/Users/lenovo/Desktop/AIoT/test/LiteOS_Lab_STM32_IoT/targets/STM32L431_BearPi/Src\main.c **** 	MX_SPI2_Init();
  69              		.loc 1 73 2
  70 0016 FFF7FEFF 		bl	MX_SPI2_Init
  74:c:/Users/lenovo/Desktop/AIoT/test/LiteOS_Lab_STM32_IoT/targets/STM32L431_BearPi/Src\main.c **** 	dwt_delay_init(SystemCoreClock);
  71              		.loc 1 74 2
  72 001a 124B     		ldr	r3, .L2
  73 001c 1B68     		ldr	r3, [r3]
  74 001e 1846     		mov	r0, r3
  75 0020 FFF7FEFF 		bl	dwt_delay_init
  75:c:/Users/lenovo/Desktop/AIoT/test/LiteOS_Lab_STM32_IoT/targets/STM32L431_BearPi/Src\main.c **** 	LCD_Init();
  76              		.loc 1 75 2
  77 0024 FFF7FEFF 		bl	LCD_Init
  76:c:/Users/lenovo/Desktop/AIoT/test/LiteOS_Lab_STM32_IoT/targets/STM32L431_BearPi/Src\main.c ****     LCD_Clear(BLACK);		
  78              		.loc 1 76 5
  79 0028 0020     		movs	r0, #0
  80 002a FFF7FEFF 		bl	LCD_Clear
  77:c:/Users/lenovo/Desktop/AIoT/test/LiteOS_Lab_STM32_IoT/targets/STM32L431_BearPi/Src\main.c ****     LCD_ShowString(20, 110, 240, 24, 24, "Connecting to");
  81              		.loc 1 77 5
  82 002e 0E4B     		ldr	r3, .L2+4
  83 0030 0193     		str	r3, [sp, #4]
  84 0032 1823     		movs	r3, #24
  85 0034 0093     		str	r3, [sp]
  86 0036 1823     		movs	r3, #24
  87 0038 F022     		movs	r2, #240
  88 003a 6E21     		movs	r1, #110
  89 003c 1420     		movs	r0, #20
  90 003e FFF7FEFF 		bl	LCD_ShowString
  78:c:/Users/lenovo/Desktop/AIoT/test/LiteOS_Lab_STM32_IoT/targets/STM32L431_BearPi/Src\main.c ****     LCD_ShowString(20, 140, 240, 24, 24, "Network...");
  91              		.loc 1 78 5
ARM GAS  C:\Users\lenovo\AppData\Local\Temp\ccUTdDkL.s 			page 4


  92 0042 0A4B     		ldr	r3, .L2+8
  93 0044 0193     		str	r3, [sp, #4]
  94 0046 1823     		movs	r3, #24
  95 0048 0093     		str	r3, [sp]
  96 004a 1823     		movs	r3, #24
  97 004c F022     		movs	r2, #240
  98 004e 8C21     		movs	r1, #140
  99 0050 1420     		movs	r0, #20
 100 0052 FFF7FEFF 		bl	LCD_ShowString
  79:c:/Users/lenovo/Desktop/AIoT/test/LiteOS_Lab_STM32_IoT/targets/STM32L431_BearPi/Src\main.c **** 	POINT_COLOR = GREEN;
 101              		.loc 1 79 14
 102 0056 064B     		ldr	r3, .L2+12
 103 0058 4FF4FC62 		mov	r2, #2016
 104 005c 1A80     		strh	r2, [r3]	@ movhi
  80:c:/Users/lenovo/Desktop/AIoT/test/LiteOS_Lab_STM32_IoT/targets/STM32L431_BearPi/Src\main.c **** }
 105              		.loc 1 80 1
 106 005e 00BF     		nop
 107 0060 BD46     		mov	sp, r7
 108              	.LCFI3:
 109              		.cfi_def_cfa_register 13
 110              		@ sp needed
 111 0062 80BD     		pop	{r7, pc}
 112              	.L3:
 113              		.align	2
 114              	.L2:
 115 0064 00000000 		.word	SystemCoreClock
 116 0068 00000000 		.word	.LC0
 117 006c 10000000 		.word	.LC1
 118 0070 00000000 		.word	POINT_COLOR
 119              		.cfi_endproc
 120              	.LFE324:
 122              		.section	.rodata
 123 001b 00       		.align	2
 124              	.LC2:
 125 001c 6C696E6B 		.ascii	"link_main\000"
 125      5F6D6169 
 125      6E00
 126              		.section	.text.link_test,"ax",%progbits
 127              		.align	1
 128              		.syntax unified
 129              		.thumb
 130              		.thumb_func
 131              		.fpu fpv4-sp-d16
 133              	link_test:
 134              	.LFB325:
  81:c:/Users/lenovo/Desktop/AIoT/test/LiteOS_Lab_STM32_IoT/targets/STM32L431_BearPi/Src\main.c **** 
  82:c:/Users/lenovo/Desktop/AIoT/test/LiteOS_Lab_STM32_IoT/targets/STM32L431_BearPi/Src\main.c **** extern int link_main(void *args);
  83:c:/Users/lenovo/Desktop/AIoT/test/LiteOS_Lab_STM32_IoT/targets/STM32L431_BearPi/Src\main.c **** static int link_test()
  84:c:/Users/lenovo/Desktop/AIoT/test/LiteOS_Lab_STM32_IoT/targets/STM32L431_BearPi/Src\main.c **** {
 135              		.loc 1 84 1
 136              		.cfi_startproc
 137              		@ args = 0, pretend = 0, frame = 40
 138              		@ frame_needed = 1, uses_anonymous_args = 0
 139 0000 80B5     		push	{r7, lr}
 140              	.LCFI4:
 141              		.cfi_def_cfa_offset 8
 142              		.cfi_offset 7, -8
ARM GAS  C:\Users\lenovo\AppData\Local\Temp\ccUTdDkL.s 			page 5


 143              		.cfi_offset 14, -4
 144 0002 8AB0     		sub	sp, sp, #40
 145              	.LCFI5:
 146              		.cfi_def_cfa_offset 48
 147 0004 00AF     		add	r7, sp, #0
 148              	.LCFI6:
 149              		.cfi_def_cfa_register 7
  85:c:/Users/lenovo/Desktop/AIoT/test/LiteOS_Lab_STM32_IoT/targets/STM32L431_BearPi/Src\main.c ****     int ret = -1;
 150              		.loc 1 85 9
 151 0006 4FF0FF33 		mov	r3, #-1
 152 000a 7B62     		str	r3, [r7, #36]
  86:c:/Users/lenovo/Desktop/AIoT/test/LiteOS_Lab_STM32_IoT/targets/STM32L431_BearPi/Src\main.c ****     UINT32 uwRet = LOS_OK;
 153              		.loc 1 86 12
 154 000c 0023     		movs	r3, #0
 155 000e 3B62     		str	r3, [r7, #32]
  87:c:/Users/lenovo/Desktop/AIoT/test/LiteOS_Lab_STM32_IoT/targets/STM32L431_BearPi/Src\main.c ****     UINT32  handle;
  88:c:/Users/lenovo/Desktop/AIoT/test/LiteOS_Lab_STM32_IoT/targets/STM32L431_BearPi/Src\main.c ****     TSK_INIT_PARAM_S task_init_param;
  89:c:/Users/lenovo/Desktop/AIoT/test/LiteOS_Lab_STM32_IoT/targets/STM32L431_BearPi/Src\main.c **** 
  90:c:/Users/lenovo/Desktop/AIoT/test/LiteOS_Lab_STM32_IoT/targets/STM32L431_BearPi/Src\main.c ****     memset (&task_init_param, 0, sizeof (TSK_INIT_PARAM_S));
 156              		.loc 1 90 5
 157 0010 3B1D     		adds	r3, r7, #4
 158 0012 1822     		movs	r2, #24
 159 0014 0021     		movs	r1, #0
 160 0016 1846     		mov	r0, r3
 161 0018 FFF7FEFF 		bl	memset
  91:c:/Users/lenovo/Desktop/AIoT/test/LiteOS_Lab_STM32_IoT/targets/STM32L431_BearPi/Src\main.c ****     task_init_param.uwArg = (unsigned int)NULL;
 162              		.loc 1 91 27
 163 001c 0023     		movs	r3, #0
 164 001e FB60     		str	r3, [r7, #12]
  92:c:/Users/lenovo/Desktop/AIoT/test/LiteOS_Lab_STM32_IoT/targets/STM32L431_BearPi/Src\main.c ****     task_init_param.usTaskPrio = 2;
 165              		.loc 1 92 32
 166 0020 0223     		movs	r3, #2
 167 0022 3B81     		strh	r3, [r7, #8]	@ movhi
  93:c:/Users/lenovo/Desktop/AIoT/test/LiteOS_Lab_STM32_IoT/targets/STM32L431_BearPi/Src\main.c ****     task_init_param.pcName =(char *) "link_main";
 168              		.loc 1 93 28
 169 0024 0C4B     		ldr	r3, .L7
 170 0026 7B61     		str	r3, [r7, #20]
  94:c:/Users/lenovo/Desktop/AIoT/test/LiteOS_Lab_STM32_IoT/targets/STM32L431_BearPi/Src\main.c ****     task_init_param.pfnTaskEntry = (TSK_ENTRY_FUNC)link_main;
 171              		.loc 1 94 34
 172 0028 0C4B     		ldr	r3, .L7+4
 173 002a 7B60     		str	r3, [r7, #4]
  95:c:/Users/lenovo/Desktop/AIoT/test/LiteOS_Lab_STM32_IoT/targets/STM32L431_BearPi/Src\main.c ****     task_init_param.uwStackSize = 0x1000;
 174              		.loc 1 95 33
 175 002c 4FF48053 		mov	r3, #4096
 176 0030 3B61     		str	r3, [r7, #16]
  96:c:/Users/lenovo/Desktop/AIoT/test/LiteOS_Lab_STM32_IoT/targets/STM32L431_BearPi/Src\main.c ****     uwRet = LOS_TaskCreate(&handle, &task_init_param);
 177              		.loc 1 96 13
 178 0032 3A1D     		adds	r2, r7, #4
 179 0034 07F11C03 		add	r3, r7, #28
 180 0038 1146     		mov	r1, r2
 181 003a 1846     		mov	r0, r3
 182 003c FFF7FEFF 		bl	LOS_TaskCreate
 183 0040 3862     		str	r0, [r7, #32]
  97:c:/Users/lenovo/Desktop/AIoT/test/LiteOS_Lab_STM32_IoT/targets/STM32L431_BearPi/Src\main.c ****     if(LOS_OK == uwRet){
 184              		.loc 1 97 7
 185 0042 3B6A     		ldr	r3, [r7, #32]
 186 0044 002B     		cmp	r3, #0
ARM GAS  C:\Users\lenovo\AppData\Local\Temp\ccUTdDkL.s 			page 6


 187 0046 01D1     		bne	.L5
  98:c:/Users/lenovo/Desktop/AIoT/test/LiteOS_Lab_STM32_IoT/targets/STM32L431_BearPi/Src\main.c ****         ret = 0;
 188              		.loc 1 98 13
 189 0048 0023     		movs	r3, #0
 190 004a 7B62     		str	r3, [r7, #36]
 191              	.L5:
  99:c:/Users/lenovo/Desktop/AIoT/test/LiteOS_Lab_STM32_IoT/targets/STM32L431_BearPi/Src\main.c ****     }
 100:c:/Users/lenovo/Desktop/AIoT/test/LiteOS_Lab_STM32_IoT/targets/STM32L431_BearPi/Src\main.c ****     return ret;
 192              		.loc 1 100 12
 193 004c 7B6A     		ldr	r3, [r7, #36]
 101:c:/Users/lenovo/Desktop/AIoT/test/LiteOS_Lab_STM32_IoT/targets/STM32L431_BearPi/Src\main.c **** }
 194              		.loc 1 101 1
 195 004e 1846     		mov	r0, r3
 196 0050 2837     		adds	r7, r7, #40
 197              	.LCFI7:
 198              		.cfi_def_cfa_offset 8
 199 0052 BD46     		mov	sp, r7
 200              	.LCFI8:
 201              		.cfi_def_cfa_register 13
 202              		@ sp needed
 203 0054 80BD     		pop	{r7, pc}
 204              	.L8:
 205 0056 00BF     		.align	2
 206              	.L7:
 207 0058 1C000000 		.word	.LC2
 208 005c 00000000 		.word	link_main
 209              		.cfi_endproc
 210              	.LFE325:
 212              		.section	.text.main,"ax",%progbits
 213              		.align	1
 214              		.global	main
 215              		.syntax unified
 216              		.thumb
 217              		.thumb_func
 218              		.fpu fpv4-sp-d16
 220              	main:
 221              	.LFB326:
 102:c:/Users/lenovo/Desktop/AIoT/test/LiteOS_Lab_STM32_IoT/targets/STM32L431_BearPi/Src\main.c **** 
 103:c:/Users/lenovo/Desktop/AIoT/test/LiteOS_Lab_STM32_IoT/targets/STM32L431_BearPi/Src\main.c **** int main(void)
 104:c:/Users/lenovo/Desktop/AIoT/test/LiteOS_Lab_STM32_IoT/targets/STM32L431_BearPi/Src\main.c **** {
 222              		.loc 1 104 1
 223              		.cfi_startproc
 224              		@ args = 0, pretend = 0, frame = 8
 225              		@ frame_needed = 1, uses_anonymous_args = 0
 226 0000 80B5     		push	{r7, lr}
 227              	.LCFI9:
 228              		.cfi_def_cfa_offset 8
 229              		.cfi_offset 7, -8
 230              		.cfi_offset 14, -4
 231 0002 82B0     		sub	sp, sp, #8
 232              	.LCFI10:
 233              		.cfi_def_cfa_offset 16
 234 0004 00AF     		add	r7, sp, #0
 235              	.LCFI11:
 236              		.cfi_def_cfa_register 7
 105:c:/Users/lenovo/Desktop/AIoT/test/LiteOS_Lab_STM32_IoT/targets/STM32L431_BearPi/Src\main.c ****     UINT32 uwRet = LOS_OK;
 237              		.loc 1 105 12
ARM GAS  C:\Users\lenovo\AppData\Local\Temp\ccUTdDkL.s 			page 7


 238 0006 0023     		movs	r3, #0
 239 0008 7B60     		str	r3, [r7, #4]
 106:c:/Users/lenovo/Desktop/AIoT/test/LiteOS_Lab_STM32_IoT/targets/STM32L431_BearPi/Src\main.c ****     HardWare_Init();
 240              		.loc 1 106 5
 241 000a FFF7FEFF 		bl	HardWare_Init
 107:c:/Users/lenovo/Desktop/AIoT/test/LiteOS_Lab_STM32_IoT/targets/STM32L431_BearPi/Src\main.c ****     uwRet = LOS_KernelInit();
 242              		.loc 1 107 13
 243 000e FFF7FEFF 		bl	LOS_KernelInit
 244 0012 7860     		str	r0, [r7, #4]
 108:c:/Users/lenovo/Desktop/AIoT/test/LiteOS_Lab_STM32_IoT/targets/STM32L431_BearPi/Src\main.c ****     if (uwRet != LOS_OK)
 245              		.loc 1 108 8
 246 0014 7B68     		ldr	r3, [r7, #4]
 247 0016 002B     		cmp	r3, #0
 248 0018 01D0     		beq	.L10
 109:c:/Users/lenovo/Desktop/AIoT/test/LiteOS_Lab_STM32_IoT/targets/STM32L431_BearPi/Src\main.c ****     {
 110:c:/Users/lenovo/Desktop/AIoT/test/LiteOS_Lab_STM32_IoT/targets/STM32L431_BearPi/Src\main.c ****         return LOS_NOK;
 249              		.loc 1 110 16
 250 001a 0123     		movs	r3, #1
 251 001c 08E0     		b	.L11
 252              	.L10:
 111:c:/Users/lenovo/Desktop/AIoT/test/LiteOS_Lab_STM32_IoT/targets/STM32L431_BearPi/Src\main.c ****     }
 112:c:/Users/lenovo/Desktop/AIoT/test/LiteOS_Lab_STM32_IoT/targets/STM32L431_BearPi/Src\main.c **** 
 113:c:/Users/lenovo/Desktop/AIoT/test/LiteOS_Lab_STM32_IoT/targets/STM32L431_BearPi/Src\main.c ****     extern void shell_uart_init(int baud);
 114:c:/Users/lenovo/Desktop/AIoT/test/LiteOS_Lab_STM32_IoT/targets/STM32L431_BearPi/Src\main.c ****     shell_uart_init(115200);
 253              		.loc 1 114 5
 254 001e 4FF4E130 		mov	r0, #115200
 255 0022 FFF7FEFF 		bl	shell_uart_init
 115:c:/Users/lenovo/Desktop/AIoT/test/LiteOS_Lab_STM32_IoT/targets/STM32L431_BearPi/Src\main.c **** 
 116:c:/Users/lenovo/Desktop/AIoT/test/LiteOS_Lab_STM32_IoT/targets/STM32L431_BearPi/Src\main.c ****     link_test();
 256              		.loc 1 116 5
 257 0026 FFF7FEFF 		bl	link_test
 117:c:/Users/lenovo/Desktop/AIoT/test/LiteOS_Lab_STM32_IoT/targets/STM32L431_BearPi/Src\main.c **** 
 118:c:/Users/lenovo/Desktop/AIoT/test/LiteOS_Lab_STM32_IoT/targets/STM32L431_BearPi/Src\main.c ****     (void)LOS_Start();
 258              		.loc 1 118 11
 259 002a FFF7FEFF 		bl	LOS_Start
 119:c:/Users/lenovo/Desktop/AIoT/test/LiteOS_Lab_STM32_IoT/targets/STM32L431_BearPi/Src\main.c ****     return 0;
 260              		.loc 1 119 12
 261 002e 0023     		movs	r3, #0
 262              	.L11:
 120:c:/Users/lenovo/Desktop/AIoT/test/LiteOS_Lab_STM32_IoT/targets/STM32L431_BearPi/Src\main.c **** }
 263              		.loc 1 120 1
 264 0030 1846     		mov	r0, r3
 265 0032 0837     		adds	r7, r7, #8
 266              	.LCFI12:
 267              		.cfi_def_cfa_offset 8
 268 0034 BD46     		mov	sp, r7
 269              	.LCFI13:
 270              		.cfi_def_cfa_register 13
 271              		@ sp needed
 272 0036 80BD     		pop	{r7, pc}
 273              		.cfi_endproc
 274              	.LFE326:
 276              		.text
 277              	.Letext0:
 278              		.file 2 "c:\\users\\lenovo\\.iotlink\\tools\\gcc-arm-none-eabi\\lib\\gcc\\arm-none-eabi\\9.2.1\\in
 279              		.file 3 "c:\\users\\lenovo\\.iotlink\\tools\\gcc-arm-none-eabi\\arm-none-eabi\\include\\machine\\_
 280              		.file 4 "c:\\users\\lenovo\\.iotlink\\tools\\gcc-arm-none-eabi\\arm-none-eabi\\include\\sys\\lock.
ARM GAS  C:\Users\lenovo\AppData\Local\Temp\ccUTdDkL.s 			page 8


 281              		.file 5 "c:\\users\\lenovo\\.iotlink\\tools\\gcc-arm-none-eabi\\arm-none-eabi\\include\\sys\\_type
 282              		.file 6 "c:\\users\\lenovo\\.iotlink\\tools\\gcc-arm-none-eabi\\arm-none-eabi\\include\\sys\\reent
 283              		.file 7 "c:/Users/lenovo/Desktop/AIoT/test/LiteOS_Lab_STM32_IoT/iot_link/os/liteos/include/los_typ
 284              		.file 8 "c:\\users\\lenovo\\.iotlink\\tools\\gcc-arm-none-eabi\\arm-none-eabi\\include\\sys\\_stdi
 285              		.file 9 "c:/Users/lenovo/Desktop/AIoT/test/LiteOS_Lab_STM32_IoT/iot_link/os/liteos/arch/arm/common
 286              		.file 10 "c:/Users/lenovo/Desktop/AIoT/test/LiteOS_Lab_STM32_IoT/targets/STM32L431_BearPi/Inc/syst
 287              		.file 11 "c:/Users/lenovo/Desktop/AIoT/test/LiteOS_Lab_STM32_IoT/targets/STM32L431_BearPi/Inc/stm3
 288              		.file 12 "c:/Users/lenovo/Desktop/AIoT/test/LiteOS_Lab_STM32_IoT/drivers/third_party/ST/STM32L4xx_
 289              		.file 13 "c:/Users/lenovo/Desktop/AIoT/test/LiteOS_Lab_STM32_IoT/drivers/third_party/ST/STM32L4xx_
 290              		.file 14 "c:/Users/lenovo/Desktop/AIoT/test/LiteOS_Lab_STM32_IoT/drivers/third_party/ST/STM32L4xx_
 291              		.file 15 "c:/Users/lenovo/Desktop/AIoT/test/LiteOS_Lab_STM32_IoT/drivers/third_party/ST/STM32L4xx_
 292              		.file 16 "c:/Users/lenovo/Desktop/AIoT/test/LiteOS_Lab_STM32_IoT/drivers/third_party/ST/STM32L4xx_
 293              		.file 17 "c:/Users/lenovo/Desktop/AIoT/test/LiteOS_Lab_STM32_IoT/iot_link/os/liteos/include/los_co
 294              		.file 18 "c:/Users/lenovo/Desktop/AIoT/test/LiteOS_Lab_STM32_IoT/iot_link/os/liteos/include/los_li
 295              		.file 19 "c:/Users/lenovo/Desktop/AIoT/test/LiteOS_Lab_STM32_IoT/iot_link/os/liteos/include/los_er
 296              		.file 20 "c:/Users/lenovo/Desktop/AIoT/test/LiteOS_Lab_STM32_IoT/iot_link/os/liteos/arch/arm/arm-m
 297              		.file 21 "c:/Users/lenovo/Desktop/AIoT/test/LiteOS_Lab_STM32_IoT/iot_link/os/liteos/include/los_ev
 298              		.file 22 "c:/Users/lenovo/Desktop/AIoT/test/LiteOS_Lab_STM32_IoT/iot_link/os/liteos/include/los_ti
 299              		.file 23 "c:/Users/lenovo/Desktop/AIoT/test/LiteOS_Lab_STM32_IoT/iot_link/os/liteos/include/los_ta
 300              		.file 24 "c:/Users/lenovo/Desktop/AIoT/test/LiteOS_Lab_STM32_IoT/iot_link/os/liteos/base/include/l
 301              		.file 25 "c:/Users/lenovo/Desktop/AIoT/test/LiteOS_Lab_STM32_IoT/iot_link/os/liteos/base/include/l
 302              		.file 26 "c:/Users/lenovo/Desktop/AIoT/test/LiteOS_Lab_STM32_IoT/iot_link/os/liteos/include/los_me
 303              		.file 27 "c:/Users/lenovo/Desktop/AIoT/test/LiteOS_Lab_STM32_IoT/iot_link/os/liteos/base/include/l
 304              		.file 28 "c:\\users\\lenovo\\.iotlink\\tools\\gcc-arm-none-eabi\\arm-none-eabi\\include\\stdlib.h"
 305              		.file 29 "c:/Users/lenovo/Desktop/AIoT/test/LiteOS_Lab_STM32_IoT/targets/STM32L431_BearPi/Inc/usar
 306              		.file 30 "c:/Users/lenovo/Desktop/AIoT/test/LiteOS_Lab_STM32_IoT/targets/STM32L431_BearPi/Inc/i2c.
 307              		.file 31 "c:/Users/lenovo/Desktop/AIoT/test/LiteOS_Lab_STM32_IoT/targets/STM32L431_BearPi/Inc/spi.
 308              		.file 32 "c:/Users/lenovo/Desktop/AIoT/test/LiteOS_Lab_STM32_IoT/targets/STM32L431_BearPi/Hardware
 309              		.file 33 "c:/Users/lenovo/Desktop/AIoT/test/LiteOS_Lab_STM32_IoT/iot_link/os/liteos/include/list.h
 310              		.file 34 "c:/Users/lenovo/Desktop/AIoT/test/LiteOS_Lab_STM32_IoT/iot_link/os/liteos/base/include/c
 311              		.file 35 "c:/Users/lenovo/Desktop/AIoT/test/LiteOS_Lab_STM32_IoT/iot_link/os/liteos/base/include/c
 312              		.file 36 "c:/Users/lenovo/Desktop/AIoT/test/LiteOS_Lab_STM32_IoT/iot_link/os/liteos/base/include/h
 313              		.file 37 "c:/Users/lenovo/Desktop/AIoT/test/LiteOS_Lab_STM32_IoT/iot_link/os/liteos/base/include/m
ARM GAS  C:\Users\lenovo\AppData\Local\Temp\ccUTdDkL.s 			page 9


DEFINED SYMBOLS
                            *ABS*:00000000 main.c
C:\Users\lenovo\AppData\Local\Temp\ccUTdDkL.s:22     .rodata.system_phys_mem:00000000 system_phys_mem
C:\Users\lenovo\AppData\Local\Temp\ccUTdDkL.s:19     .rodata.system_phys_mem:00000000 $d
C:\Users\lenovo\AppData\Local\Temp\ccUTdDkL.s:28     .rodata:00000000 $d
C:\Users\lenovo\AppData\Local\Temp\ccUTdDkL.s:35     .text.HardWare_Init:00000000 $t
C:\Users\lenovo\AppData\Local\Temp\ccUTdDkL.s:43     .text.HardWare_Init:00000000 HardWare_Init
C:\Users\lenovo\AppData\Local\Temp\ccUTdDkL.s:115    .text.HardWare_Init:00000064 $d
C:\Users\lenovo\AppData\Local\Temp\ccUTdDkL.s:127    .text.link_test:00000000 $t
C:\Users\lenovo\AppData\Local\Temp\ccUTdDkL.s:133    .text.link_test:00000000 link_test
C:\Users\lenovo\AppData\Local\Temp\ccUTdDkL.s:207    .text.link_test:00000058 $d
C:\Users\lenovo\AppData\Local\Temp\ccUTdDkL.s:213    .text.main:00000000 $t
C:\Users\lenovo\AppData\Local\Temp\ccUTdDkL.s:220    .text.main:00000000 main

UNDEFINED SYMBOLS
__los_heap_addr_start__
__los_heap_addr_end__
HAL_Init
SystemClock_Config
MX_GPIO_Init
MX_I2C1_Init
MX_SPI2_Init
dwt_delay_init
LCD_Init
LCD_Clear
LCD_ShowString
SystemCoreClock
POINT_COLOR
memset
LOS_TaskCreate
link_main
LOS_KernelInit
shell_uart_init
LOS_Start
