ARM GAS  C:\Users\lenovo\AppData\Local\Temp\ccrl7sAh.s 			page 1


   1              		.cpu cortex-m4
   2              		.eabi_attribute 27, 1
   3              		.eabi_attribute 28, 1
   4              		.eabi_attribute 20, 1
   5              		.eabi_attribute 21, 1
   6              		.eabi_attribute 23, 3
   7              		.eabi_attribute 24, 1
   8              		.eabi_attribute 25, 1
   9              		.eabi_attribute 26, 1
  10              		.eabi_attribute 30, 6
  11              		.eabi_attribute 34, 1
  12              		.eabi_attribute 18, 4
  13              		.file	"MQTTUnsubscribeClient.c"
  14              		.text
  15              	.Ltext0:
  16              		.cfi_sections	.debug_frame
  17              		.section	.text.MQTTSerialize_unsubscribeLength,"ax",%progbits
  18              		.align	1
  19              		.global	MQTTSerialize_unsubscribeLength
  20              		.arch armv7e-m
  21              		.syntax unified
  22              		.thumb
  23              		.thumb_func
  24              		.fpu fpv4-sp-d16
  26              	MQTTSerialize_unsubscribeLength:
  27              	.LFB3:
  28              		.file 1 "c:/Users/lenovo/Desktop/AIoT/first_day/firstday_afternoon/LiteOS_Lab_STM32_IoT/iot_link/n
   1:c:/Users/lenovo/Desktop/AIoT/first_day/firstday_afternoon/LiteOS_Lab_STM32_IoT/iot_link/network/mqtt/paho_mqtt/paho/MQTTPacket/src\MQTTUnsubscribeClient.c **** /*******************************************************************************
   2:c:/Users/lenovo/Desktop/AIoT/first_day/firstday_afternoon/LiteOS_Lab_STM32_IoT/iot_link/network/mqtt/paho_mqtt/paho/MQTTPacket/src\MQTTUnsubscribeClient.c ****  * Copyright (c) 2014 IBM Corp.
   3:c:/Users/lenovo/Desktop/AIoT/first_day/firstday_afternoon/LiteOS_Lab_STM32_IoT/iot_link/network/mqtt/paho_mqtt/paho/MQTTPacket/src\MQTTUnsubscribeClient.c ****  *
   4:c:/Users/lenovo/Desktop/AIoT/first_day/firstday_afternoon/LiteOS_Lab_STM32_IoT/iot_link/network/mqtt/paho_mqtt/paho/MQTTPacket/src\MQTTUnsubscribeClient.c ****  * All rights reserved. This program and the accompanying materials
   5:c:/Users/lenovo/Desktop/AIoT/first_day/firstday_afternoon/LiteOS_Lab_STM32_IoT/iot_link/network/mqtt/paho_mqtt/paho/MQTTPacket/src\MQTTUnsubscribeClient.c ****  * are made available under the terms of the Eclipse Public License v1.0
   6:c:/Users/lenovo/Desktop/AIoT/first_day/firstday_afternoon/LiteOS_Lab_STM32_IoT/iot_link/network/mqtt/paho_mqtt/paho/MQTTPacket/src\MQTTUnsubscribeClient.c ****  * and Eclipse Distribution License v1.0 which accompany this distribution.
   7:c:/Users/lenovo/Desktop/AIoT/first_day/firstday_afternoon/LiteOS_Lab_STM32_IoT/iot_link/network/mqtt/paho_mqtt/paho/MQTTPacket/src\MQTTUnsubscribeClient.c ****  *
   8:c:/Users/lenovo/Desktop/AIoT/first_day/firstday_afternoon/LiteOS_Lab_STM32_IoT/iot_link/network/mqtt/paho_mqtt/paho/MQTTPacket/src\MQTTUnsubscribeClient.c ****  * The Eclipse Public License is available at
   9:c:/Users/lenovo/Desktop/AIoT/first_day/firstday_afternoon/LiteOS_Lab_STM32_IoT/iot_link/network/mqtt/paho_mqtt/paho/MQTTPacket/src\MQTTUnsubscribeClient.c ****  *    http://www.eclipse.org/legal/epl-v10.html
  10:c:/Users/lenovo/Desktop/AIoT/first_day/firstday_afternoon/LiteOS_Lab_STM32_IoT/iot_link/network/mqtt/paho_mqtt/paho/MQTTPacket/src\MQTTUnsubscribeClient.c ****  * and the Eclipse Distribution License is available at
  11:c:/Users/lenovo/Desktop/AIoT/first_day/firstday_afternoon/LiteOS_Lab_STM32_IoT/iot_link/network/mqtt/paho_mqtt/paho/MQTTPacket/src\MQTTUnsubscribeClient.c ****  *   http://www.eclipse.org/org/documents/edl-v10.php.
  12:c:/Users/lenovo/Desktop/AIoT/first_day/firstday_afternoon/LiteOS_Lab_STM32_IoT/iot_link/network/mqtt/paho_mqtt/paho/MQTTPacket/src\MQTTUnsubscribeClient.c ****  *
  13:c:/Users/lenovo/Desktop/AIoT/first_day/firstday_afternoon/LiteOS_Lab_STM32_IoT/iot_link/network/mqtt/paho_mqtt/paho/MQTTPacket/src\MQTTUnsubscribeClient.c ****  * Contributors:
  14:c:/Users/lenovo/Desktop/AIoT/first_day/firstday_afternoon/LiteOS_Lab_STM32_IoT/iot_link/network/mqtt/paho_mqtt/paho/MQTTPacket/src\MQTTUnsubscribeClient.c ****  *    Ian Craggs - initial API and implementation and/or initial documentation
  15:c:/Users/lenovo/Desktop/AIoT/first_day/firstday_afternoon/LiteOS_Lab_STM32_IoT/iot_link/network/mqtt/paho_mqtt/paho/MQTTPacket/src\MQTTUnsubscribeClient.c ****  *******************************************************************************/
  16:c:/Users/lenovo/Desktop/AIoT/first_day/firstday_afternoon/LiteOS_Lab_STM32_IoT/iot_link/network/mqtt/paho_mqtt/paho/MQTTPacket/src\MQTTUnsubscribeClient.c **** 
  17:c:/Users/lenovo/Desktop/AIoT/first_day/firstday_afternoon/LiteOS_Lab_STM32_IoT/iot_link/network/mqtt/paho_mqtt/paho/MQTTPacket/src\MQTTUnsubscribeClient.c **** #include "MQTTPacket.h"
  18:c:/Users/lenovo/Desktop/AIoT/first_day/firstday_afternoon/LiteOS_Lab_STM32_IoT/iot_link/network/mqtt/paho_mqtt/paho/MQTTPacket/src\MQTTUnsubscribeClient.c **** #include "StackTrace.h"
  19:c:/Users/lenovo/Desktop/AIoT/first_day/firstday_afternoon/LiteOS_Lab_STM32_IoT/iot_link/network/mqtt/paho_mqtt/paho/MQTTPacket/src\MQTTUnsubscribeClient.c **** 
  20:c:/Users/lenovo/Desktop/AIoT/first_day/firstday_afternoon/LiteOS_Lab_STM32_IoT/iot_link/network/mqtt/paho_mqtt/paho/MQTTPacket/src\MQTTUnsubscribeClient.c **** #include <string.h>
  21:c:/Users/lenovo/Desktop/AIoT/first_day/firstday_afternoon/LiteOS_Lab_STM32_IoT/iot_link/network/mqtt/paho_mqtt/paho/MQTTPacket/src\MQTTUnsubscribeClient.c **** 
  22:c:/Users/lenovo/Desktop/AIoT/first_day/firstday_afternoon/LiteOS_Lab_STM32_IoT/iot_link/network/mqtt/paho_mqtt/paho/MQTTPacket/src\MQTTUnsubscribeClient.c **** /**
  23:c:/Users/lenovo/Desktop/AIoT/first_day/firstday_afternoon/LiteOS_Lab_STM32_IoT/iot_link/network/mqtt/paho_mqtt/paho/MQTTPacket/src\MQTTUnsubscribeClient.c ****   * Determines the length of the MQTT unsubscribe packet that would be produced using the supplied 
  24:c:/Users/lenovo/Desktop/AIoT/first_day/firstday_afternoon/LiteOS_Lab_STM32_IoT/iot_link/network/mqtt/paho_mqtt/paho/MQTTPacket/src\MQTTUnsubscribeClient.c ****   * @param count the number of topic filter strings in topicFilters
  25:c:/Users/lenovo/Desktop/AIoT/first_day/firstday_afternoon/LiteOS_Lab_STM32_IoT/iot_link/network/mqtt/paho_mqtt/paho/MQTTPacket/src\MQTTUnsubscribeClient.c ****   * @param topicFilters the array of topic filter strings to be used in the publish
  26:c:/Users/lenovo/Desktop/AIoT/first_day/firstday_afternoon/LiteOS_Lab_STM32_IoT/iot_link/network/mqtt/paho_mqtt/paho/MQTTPacket/src\MQTTUnsubscribeClient.c ****   * @return the length of buffer needed to contain the serialized version of the packet
  27:c:/Users/lenovo/Desktop/AIoT/first_day/firstday_afternoon/LiteOS_Lab_STM32_IoT/iot_link/network/mqtt/paho_mqtt/paho/MQTTPacket/src\MQTTUnsubscribeClient.c ****   */
  28:c:/Users/lenovo/Desktop/AIoT/first_day/firstday_afternoon/LiteOS_Lab_STM32_IoT/iot_link/network/mqtt/paho_mqtt/paho/MQTTPacket/src\MQTTUnsubscribeClient.c **** int MQTTSerialize_unsubscribeLength(int count, MQTTString topicFilters[])
  29:c:/Users/lenovo/Desktop/AIoT/first_day/firstday_afternoon/LiteOS_Lab_STM32_IoT/iot_link/network/mqtt/paho_mqtt/paho/MQTTPacket/src\MQTTUnsubscribeClient.c **** {
  29              		.loc 1 29 1
ARM GAS  C:\Users\lenovo\AppData\Local\Temp\ccrl7sAh.s 			page 2


  30              		.cfi_startproc
  31              		@ args = 0, pretend = 0, frame = 16
  32              		@ frame_needed = 1, uses_anonymous_args = 0
  33 0000 80B5     		push	{r7, lr}
  34              	.LCFI0:
  35              		.cfi_def_cfa_offset 8
  36              		.cfi_offset 7, -8
  37              		.cfi_offset 14, -4
  38 0002 84B0     		sub	sp, sp, #16
  39              	.LCFI1:
  40              		.cfi_def_cfa_offset 24
  41 0004 00AF     		add	r7, sp, #0
  42              	.LCFI2:
  43              		.cfi_def_cfa_register 7
  44 0006 7860     		str	r0, [r7, #4]
  45 0008 3960     		str	r1, [r7]
  30:c:/Users/lenovo/Desktop/AIoT/first_day/firstday_afternoon/LiteOS_Lab_STM32_IoT/iot_link/network/mqtt/paho_mqtt/paho/MQTTPacket/src\MQTTUnsubscribeClient.c **** 	int i;
  31:c:/Users/lenovo/Desktop/AIoT/first_day/firstday_afternoon/LiteOS_Lab_STM32_IoT/iot_link/network/mqtt/paho_mqtt/paho/MQTTPacket/src\MQTTUnsubscribeClient.c **** 	int len = 2; /* packetid */
  46              		.loc 1 31 6
  47 000a 0223     		movs	r3, #2
  48 000c BB60     		str	r3, [r7, #8]
  32:c:/Users/lenovo/Desktop/AIoT/first_day/firstday_afternoon/LiteOS_Lab_STM32_IoT/iot_link/network/mqtt/paho_mqtt/paho/MQTTPacket/src\MQTTUnsubscribeClient.c **** 
  33:c:/Users/lenovo/Desktop/AIoT/first_day/firstday_afternoon/LiteOS_Lab_STM32_IoT/iot_link/network/mqtt/paho_mqtt/paho/MQTTPacket/src\MQTTUnsubscribeClient.c **** 	for (i = 0; i < count; ++i)
  49              		.loc 1 33 9
  50 000e 0023     		movs	r3, #0
  51 0010 FB60     		str	r3, [r7, #12]
  52              		.loc 1 33 2
  53 0012 13E0     		b	.L2
  54              	.L3:
  34:c:/Users/lenovo/Desktop/AIoT/first_day/firstday_afternoon/LiteOS_Lab_STM32_IoT/iot_link/network/mqtt/paho_mqtt/paho/MQTTPacket/src\MQTTUnsubscribeClient.c **** 		len += 2 + MQTTstrlen(topicFilters[i]); /* length + topic*/
  55              		.loc 1 34 37 discriminator 3
  56 0014 FA68     		ldr	r2, [r7, #12]
  57 0016 1346     		mov	r3, r2
  58 0018 5B00     		lsls	r3, r3, #1
  59 001a 1344     		add	r3, r3, r2
  60 001c 9B00     		lsls	r3, r3, #2
  61 001e 1A46     		mov	r2, r3
  62 0020 3B68     		ldr	r3, [r7]
  63 0022 1344     		add	r3, r3, r2
  64              		.loc 1 34 14 discriminator 3
  65 0024 93E80700 		ldm	r3, {r0, r1, r2}
  66 0028 FFF7FEFF 		bl	MQTTstrlen
  67 002c 0346     		mov	r3, r0
  68              		.loc 1 34 12 discriminator 3
  69 002e 0233     		adds	r3, r3, #2
  70              		.loc 1 34 7 discriminator 3
  71 0030 BA68     		ldr	r2, [r7, #8]
  72 0032 1344     		add	r3, r3, r2
  73 0034 BB60     		str	r3, [r7, #8]
  33:c:/Users/lenovo/Desktop/AIoT/first_day/firstday_afternoon/LiteOS_Lab_STM32_IoT/iot_link/network/mqtt/paho_mqtt/paho/MQTTPacket/src\MQTTUnsubscribeClient.c **** 		len += 2 + MQTTstrlen(topicFilters[i]); /* length + topic*/
  74              		.loc 1 33 25 discriminator 3
  75 0036 FB68     		ldr	r3, [r7, #12]
  76 0038 0133     		adds	r3, r3, #1
  77 003a FB60     		str	r3, [r7, #12]
  78              	.L2:
  33:c:/Users/lenovo/Desktop/AIoT/first_day/firstday_afternoon/LiteOS_Lab_STM32_IoT/iot_link/network/mqtt/paho_mqtt/paho/MQTTPacket/src\MQTTUnsubscribeClient.c **** 		len += 2 + MQTTstrlen(topicFilters[i]); /* length + topic*/
  79              		.loc 1 33 2 discriminator 1
ARM GAS  C:\Users\lenovo\AppData\Local\Temp\ccrl7sAh.s 			page 3


  80 003c FA68     		ldr	r2, [r7, #12]
  81 003e 7B68     		ldr	r3, [r7, #4]
  82 0040 9A42     		cmp	r2, r3
  83 0042 E7DB     		blt	.L3
  35:c:/Users/lenovo/Desktop/AIoT/first_day/firstday_afternoon/LiteOS_Lab_STM32_IoT/iot_link/network/mqtt/paho_mqtt/paho/MQTTPacket/src\MQTTUnsubscribeClient.c **** 	return len;
  84              		.loc 1 35 9
  85 0044 BB68     		ldr	r3, [r7, #8]
  36:c:/Users/lenovo/Desktop/AIoT/first_day/firstday_afternoon/LiteOS_Lab_STM32_IoT/iot_link/network/mqtt/paho_mqtt/paho/MQTTPacket/src\MQTTUnsubscribeClient.c **** }
  86              		.loc 1 36 1
  87 0046 1846     		mov	r0, r3
  88 0048 1037     		adds	r7, r7, #16
  89              	.LCFI3:
  90              		.cfi_def_cfa_offset 8
  91 004a BD46     		mov	sp, r7
  92              	.LCFI4:
  93              		.cfi_def_cfa_register 13
  94              		@ sp needed
  95 004c 80BD     		pop	{r7, pc}
  96              		.cfi_endproc
  97              	.LFE3:
  99              		.section	.text.MQTTSerialize_unsubscribe,"ax",%progbits
 100              		.align	1
 101              		.global	MQTTSerialize_unsubscribe
 102              		.syntax unified
 103              		.thumb
 104              		.thumb_func
 105              		.fpu fpv4-sp-d16
 107              	MQTTSerialize_unsubscribe:
 108              	.LFB4:
  37:c:/Users/lenovo/Desktop/AIoT/first_day/firstday_afternoon/LiteOS_Lab_STM32_IoT/iot_link/network/mqtt/paho_mqtt/paho/MQTTPacket/src\MQTTUnsubscribeClient.c **** 
  38:c:/Users/lenovo/Desktop/AIoT/first_day/firstday_afternoon/LiteOS_Lab_STM32_IoT/iot_link/network/mqtt/paho_mqtt/paho/MQTTPacket/src\MQTTUnsubscribeClient.c **** 
  39:c:/Users/lenovo/Desktop/AIoT/first_day/firstday_afternoon/LiteOS_Lab_STM32_IoT/iot_link/network/mqtt/paho_mqtt/paho/MQTTPacket/src\MQTTUnsubscribeClient.c **** /**
  40:c:/Users/lenovo/Desktop/AIoT/first_day/firstday_afternoon/LiteOS_Lab_STM32_IoT/iot_link/network/mqtt/paho_mqtt/paho/MQTTPacket/src\MQTTUnsubscribeClient.c ****   * Serializes the supplied unsubscribe data into the supplied buffer, ready for sending
  41:c:/Users/lenovo/Desktop/AIoT/first_day/firstday_afternoon/LiteOS_Lab_STM32_IoT/iot_link/network/mqtt/paho_mqtt/paho/MQTTPacket/src\MQTTUnsubscribeClient.c ****   * @param buf the raw buffer data, of the correct length determined by the remaining length field
  42:c:/Users/lenovo/Desktop/AIoT/first_day/firstday_afternoon/LiteOS_Lab_STM32_IoT/iot_link/network/mqtt/paho_mqtt/paho/MQTTPacket/src\MQTTUnsubscribeClient.c ****   * @param buflen the length in bytes of the data in the supplied buffer
  43:c:/Users/lenovo/Desktop/AIoT/first_day/firstday_afternoon/LiteOS_Lab_STM32_IoT/iot_link/network/mqtt/paho_mqtt/paho/MQTTPacket/src\MQTTUnsubscribeClient.c ****   * @param dup integer - the MQTT dup flag
  44:c:/Users/lenovo/Desktop/AIoT/first_day/firstday_afternoon/LiteOS_Lab_STM32_IoT/iot_link/network/mqtt/paho_mqtt/paho/MQTTPacket/src\MQTTUnsubscribeClient.c ****   * @param packetid integer - the MQTT packet identifier
  45:c:/Users/lenovo/Desktop/AIoT/first_day/firstday_afternoon/LiteOS_Lab_STM32_IoT/iot_link/network/mqtt/paho_mqtt/paho/MQTTPacket/src\MQTTUnsubscribeClient.c ****   * @param count - number of members in the topicFilters array
  46:c:/Users/lenovo/Desktop/AIoT/first_day/firstday_afternoon/LiteOS_Lab_STM32_IoT/iot_link/network/mqtt/paho_mqtt/paho/MQTTPacket/src\MQTTUnsubscribeClient.c ****   * @param topicFilters - array of topic filter names
  47:c:/Users/lenovo/Desktop/AIoT/first_day/firstday_afternoon/LiteOS_Lab_STM32_IoT/iot_link/network/mqtt/paho_mqtt/paho/MQTTPacket/src\MQTTUnsubscribeClient.c ****   * @return the length of the serialized data.  <= 0 indicates error
  48:c:/Users/lenovo/Desktop/AIoT/first_day/firstday_afternoon/LiteOS_Lab_STM32_IoT/iot_link/network/mqtt/paho_mqtt/paho/MQTTPacket/src\MQTTUnsubscribeClient.c ****   */
  49:c:/Users/lenovo/Desktop/AIoT/first_day/firstday_afternoon/LiteOS_Lab_STM32_IoT/iot_link/network/mqtt/paho_mqtt/paho/MQTTPacket/src\MQTTUnsubscribeClient.c **** int MQTTSerialize_unsubscribe(unsigned char* buf, int buflen, unsigned char dup, unsigned short pac
  50:c:/Users/lenovo/Desktop/AIoT/first_day/firstday_afternoon/LiteOS_Lab_STM32_IoT/iot_link/network/mqtt/paho_mqtt/paho/MQTTPacket/src\MQTTUnsubscribeClient.c **** 		int count, MQTTString topicFilters[])
  51:c:/Users/lenovo/Desktop/AIoT/first_day/firstday_afternoon/LiteOS_Lab_STM32_IoT/iot_link/network/mqtt/paho_mqtt/paho/MQTTPacket/src\MQTTUnsubscribeClient.c **** {
 109              		.loc 1 51 1
 110              		.cfi_startproc
 111              		@ args = 8, pretend = 0, frame = 40
 112              		@ frame_needed = 1, uses_anonymous_args = 0
 113 0000 80B5     		push	{r7, lr}
 114              	.LCFI5:
 115              		.cfi_def_cfa_offset 8
 116              		.cfi_offset 7, -8
 117              		.cfi_offset 14, -4
 118 0002 8AB0     		sub	sp, sp, #40
 119              	.LCFI6:
 120              		.cfi_def_cfa_offset 48
 121 0004 00AF     		add	r7, sp, #0
ARM GAS  C:\Users\lenovo\AppData\Local\Temp\ccrl7sAh.s 			page 4


 122              	.LCFI7:
 123              		.cfi_def_cfa_register 7
 124 0006 F860     		str	r0, [r7, #12]
 125 0008 B960     		str	r1, [r7, #8]
 126 000a 1146     		mov	r1, r2
 127 000c 1A46     		mov	r2, r3
 128 000e 0B46     		mov	r3, r1
 129 0010 FB71     		strb	r3, [r7, #7]
 130 0012 1346     		mov	r3, r2	@ movhi
 131 0014 BB80     		strh	r3, [r7, #4]	@ movhi
  52:c:/Users/lenovo/Desktop/AIoT/first_day/firstday_afternoon/LiteOS_Lab_STM32_IoT/iot_link/network/mqtt/paho_mqtt/paho/MQTTPacket/src\MQTTUnsubscribeClient.c **** 	unsigned char *ptr = buf;
 132              		.loc 1 52 17
 133 0016 FB68     		ldr	r3, [r7, #12]
 134 0018 BB61     		str	r3, [r7, #24]
  53:c:/Users/lenovo/Desktop/AIoT/first_day/firstday_afternoon/LiteOS_Lab_STM32_IoT/iot_link/network/mqtt/paho_mqtt/paho/MQTTPacket/src\MQTTUnsubscribeClient.c **** 	MQTTHeader header = {0};
 135              		.loc 1 53 13
 136 001a 0023     		movs	r3, #0
 137 001c 7B61     		str	r3, [r7, #20]
  54:c:/Users/lenovo/Desktop/AIoT/first_day/firstday_afternoon/LiteOS_Lab_STM32_IoT/iot_link/network/mqtt/paho_mqtt/paho/MQTTPacket/src\MQTTUnsubscribeClient.c **** 	int rem_len = 0;
 138              		.loc 1 54 6
 139 001e 0023     		movs	r3, #0
 140 0020 FB61     		str	r3, [r7, #28]
  55:c:/Users/lenovo/Desktop/AIoT/first_day/firstday_afternoon/LiteOS_Lab_STM32_IoT/iot_link/network/mqtt/paho_mqtt/paho/MQTTPacket/src\MQTTUnsubscribeClient.c **** 	int rc = -1;
 141              		.loc 1 55 6
 142 0022 4FF0FF33 		mov	r3, #-1
 143 0026 7B62     		str	r3, [r7, #36]
  56:c:/Users/lenovo/Desktop/AIoT/first_day/firstday_afternoon/LiteOS_Lab_STM32_IoT/iot_link/network/mqtt/paho_mqtt/paho/MQTTPacket/src\MQTTUnsubscribeClient.c **** 	int i = 0;
 144              		.loc 1 56 6
 145 0028 0023     		movs	r3, #0
 146 002a 3B62     		str	r3, [r7, #32]
  57:c:/Users/lenovo/Desktop/AIoT/first_day/firstday_afternoon/LiteOS_Lab_STM32_IoT/iot_link/network/mqtt/paho_mqtt/paho/MQTTPacket/src\MQTTUnsubscribeClient.c **** 
  58:c:/Users/lenovo/Desktop/AIoT/first_day/firstday_afternoon/LiteOS_Lab_STM32_IoT/iot_link/network/mqtt/paho_mqtt/paho/MQTTPacket/src\MQTTUnsubscribeClient.c **** 	FUNC_ENTRY;
  59:c:/Users/lenovo/Desktop/AIoT/first_day/firstday_afternoon/LiteOS_Lab_STM32_IoT/iot_link/network/mqtt/paho_mqtt/paho/MQTTPacket/src\MQTTUnsubscribeClient.c **** 	if (MQTTPacket_len(rem_len = MQTTSerialize_unsubscribeLength(count, topicFilters)) > buflen)
 147              		.loc 1 59 31
 148 002c 796B     		ldr	r1, [r7, #52]
 149 002e 386B     		ldr	r0, [r7, #48]
 150 0030 FFF7FEFF 		bl	MQTTSerialize_unsubscribeLength
 151 0034 F861     		str	r0, [r7, #28]
 152              		.loc 1 59 6
 153 0036 F869     		ldr	r0, [r7, #28]
 154 0038 FFF7FEFF 		bl	MQTTPacket_len
 155 003c 0246     		mov	r2, r0
 156              		.loc 1 59 5
 157 003e BB68     		ldr	r3, [r7, #8]
 158 0040 9342     		cmp	r3, r2
 159 0042 03DA     		bge	.L6
  60:c:/Users/lenovo/Desktop/AIoT/first_day/firstday_afternoon/LiteOS_Lab_STM32_IoT/iot_link/network/mqtt/paho_mqtt/paho/MQTTPacket/src\MQTTUnsubscribeClient.c **** 	{
  61:c:/Users/lenovo/Desktop/AIoT/first_day/firstday_afternoon/LiteOS_Lab_STM32_IoT/iot_link/network/mqtt/paho_mqtt/paho/MQTTPacket/src\MQTTUnsubscribeClient.c **** 		rc = MQTTPACKET_BUFFER_TOO_SHORT;
 160              		.loc 1 61 6
 161 0044 6FF00103 		mvn	r3, #1
 162 0048 7B62     		str	r3, [r7, #36]
  62:c:/Users/lenovo/Desktop/AIoT/first_day/firstday_afternoon/LiteOS_Lab_STM32_IoT/iot_link/network/mqtt/paho_mqtt/paho/MQTTPacket/src\MQTTUnsubscribeClient.c **** 		goto exit;
 163              		.loc 1 62 3
 164 004a 45E0     		b	.L7
 165              	.L6:
  63:c:/Users/lenovo/Desktop/AIoT/first_day/firstday_afternoon/LiteOS_Lab_STM32_IoT/iot_link/network/mqtt/paho_mqtt/paho/MQTTPacket/src\MQTTUnsubscribeClient.c **** 	}
  64:c:/Users/lenovo/Desktop/AIoT/first_day/firstday_afternoon/LiteOS_Lab_STM32_IoT/iot_link/network/mqtt/paho_mqtt/paho/MQTTPacket/src\MQTTUnsubscribeClient.c **** 
ARM GAS  C:\Users\lenovo\AppData\Local\Temp\ccrl7sAh.s 			page 5


  65:c:/Users/lenovo/Desktop/AIoT/first_day/firstday_afternoon/LiteOS_Lab_STM32_IoT/iot_link/network/mqtt/paho_mqtt/paho/MQTTPacket/src\MQTTUnsubscribeClient.c **** 	header.byte = 0;
 166              		.loc 1 65 14
 167 004c 0023     		movs	r3, #0
 168 004e 3B75     		strb	r3, [r7, #20]
  66:c:/Users/lenovo/Desktop/AIoT/first_day/firstday_afternoon/LiteOS_Lab_STM32_IoT/iot_link/network/mqtt/paho_mqtt/paho/MQTTPacket/src\MQTTUnsubscribeClient.c **** 	header.bits.type = UNSUBSCRIBE;
 169              		.loc 1 66 19
 170 0050 3B7D     		ldrb	r3, [r7, #20]
 171 0052 0A22     		movs	r2, #10
 172 0054 62F30713 		bfi	r3, r2, #4, #4
 173 0058 3B75     		strb	r3, [r7, #20]
  67:c:/Users/lenovo/Desktop/AIoT/first_day/firstday_afternoon/LiteOS_Lab_STM32_IoT/iot_link/network/mqtt/paho_mqtt/paho/MQTTPacket/src\MQTTUnsubscribeClient.c **** 	header.bits.dup = dup;
 174              		.loc 1 67 18
 175 005a FB79     		ldrb	r3, [r7, #7]
 176 005c 03F00103 		and	r3, r3, #1
 177 0060 DAB2     		uxtb	r2, r3
 178 0062 3B7D     		ldrb	r3, [r7, #20]
 179 0064 62F3C303 		bfi	r3, r2, #3, #1
 180 0068 3B75     		strb	r3, [r7, #20]
  68:c:/Users/lenovo/Desktop/AIoT/first_day/firstday_afternoon/LiteOS_Lab_STM32_IoT/iot_link/network/mqtt/paho_mqtt/paho/MQTTPacket/src\MQTTUnsubscribeClient.c **** 	header.bits.qos = 1;
 181              		.loc 1 68 18
 182 006a 3B7D     		ldrb	r3, [r7, #20]
 183 006c 0122     		movs	r2, #1
 184 006e 62F34203 		bfi	r3, r2, #1, #2
 185 0072 3B75     		strb	r3, [r7, #20]
  69:c:/Users/lenovo/Desktop/AIoT/first_day/firstday_afternoon/LiteOS_Lab_STM32_IoT/iot_link/network/mqtt/paho_mqtt/paho/MQTTPacket/src\MQTTUnsubscribeClient.c **** 	writeChar(&ptr, header.byte); /* write header */
 186              		.loc 1 69 24
 187 0074 3A7D     		ldrb	r2, [r7, #20]	@ zero_extendqisi2
 188              		.loc 1 69 2
 189 0076 07F11803 		add	r3, r7, #24
 190 007a 1146     		mov	r1, r2
 191 007c 1846     		mov	r0, r3
 192 007e FFF7FEFF 		bl	writeChar
  70:c:/Users/lenovo/Desktop/AIoT/first_day/firstday_afternoon/LiteOS_Lab_STM32_IoT/iot_link/network/mqtt/paho_mqtt/paho/MQTTPacket/src\MQTTUnsubscribeClient.c **** 
  71:c:/Users/lenovo/Desktop/AIoT/first_day/firstday_afternoon/LiteOS_Lab_STM32_IoT/iot_link/network/mqtt/paho_mqtt/paho/MQTTPacket/src\MQTTUnsubscribeClient.c **** 	ptr += MQTTPacket_encode(ptr, rem_len); /* write remaining length */;
 193              		.loc 1 71 9
 194 0082 BB69     		ldr	r3, [r7, #24]
 195 0084 F969     		ldr	r1, [r7, #28]
 196 0086 1846     		mov	r0, r3
 197 0088 FFF7FEFF 		bl	MQTTPacket_encode
 198 008c 0246     		mov	r2, r0
 199              		.loc 1 71 6
 200 008e BB69     		ldr	r3, [r7, #24]
 201 0090 1344     		add	r3, r3, r2
 202 0092 BB61     		str	r3, [r7, #24]
  72:c:/Users/lenovo/Desktop/AIoT/first_day/firstday_afternoon/LiteOS_Lab_STM32_IoT/iot_link/network/mqtt/paho_mqtt/paho/MQTTPacket/src\MQTTUnsubscribeClient.c **** 
  73:c:/Users/lenovo/Desktop/AIoT/first_day/firstday_afternoon/LiteOS_Lab_STM32_IoT/iot_link/network/mqtt/paho_mqtt/paho/MQTTPacket/src\MQTTUnsubscribeClient.c **** 	writeInt(&ptr, packetid);
 203              		.loc 1 73 2
 204 0094 BA88     		ldrh	r2, [r7, #4]
 205 0096 07F11803 		add	r3, r7, #24
 206 009a 1146     		mov	r1, r2
 207 009c 1846     		mov	r0, r3
 208 009e FFF7FEFF 		bl	writeInt
  74:c:/Users/lenovo/Desktop/AIoT/first_day/firstday_afternoon/LiteOS_Lab_STM32_IoT/iot_link/network/mqtt/paho_mqtt/paho/MQTTPacket/src\MQTTUnsubscribeClient.c **** 
  75:c:/Users/lenovo/Desktop/AIoT/first_day/firstday_afternoon/LiteOS_Lab_STM32_IoT/iot_link/network/mqtt/paho_mqtt/paho/MQTTPacket/src\MQTTUnsubscribeClient.c **** 	for (i = 0; i < count; ++i)
 209              		.loc 1 75 9
 210 00a2 0023     		movs	r3, #0
 211 00a4 3B62     		str	r3, [r7, #32]
ARM GAS  C:\Users\lenovo\AppData\Local\Temp\ccrl7sAh.s 			page 6


 212              		.loc 1 75 2
 213 00a6 0FE0     		b	.L8
 214              	.L9:
  76:c:/Users/lenovo/Desktop/AIoT/first_day/firstday_afternoon/LiteOS_Lab_STM32_IoT/iot_link/network/mqtt/paho_mqtt/paho/MQTTPacket/src\MQTTUnsubscribeClient.c **** 		writeMQTTString(&ptr, topicFilters[i]);
 215              		.loc 1 76 37 discriminator 3
 216 00a8 3A6A     		ldr	r2, [r7, #32]
 217 00aa 1346     		mov	r3, r2
 218 00ac 5B00     		lsls	r3, r3, #1
 219 00ae 1344     		add	r3, r3, r2
 220 00b0 9B00     		lsls	r3, r3, #2
 221 00b2 1A46     		mov	r2, r3
 222 00b4 7B6B     		ldr	r3, [r7, #52]
 223 00b6 1344     		add	r3, r3, r2
 224              		.loc 1 76 3 discriminator 3
 225 00b8 07F11800 		add	r0, r7, #24
 226 00bc 0ECB     		ldm	r3, {r1, r2, r3}
 227 00be FFF7FEFF 		bl	writeMQTTString
  75:c:/Users/lenovo/Desktop/AIoT/first_day/firstday_afternoon/LiteOS_Lab_STM32_IoT/iot_link/network/mqtt/paho_mqtt/paho/MQTTPacket/src\MQTTUnsubscribeClient.c **** 		writeMQTTString(&ptr, topicFilters[i]);
 228              		.loc 1 75 25 discriminator 3
 229 00c2 3B6A     		ldr	r3, [r7, #32]
 230 00c4 0133     		adds	r3, r3, #1
 231 00c6 3B62     		str	r3, [r7, #32]
 232              	.L8:
  75:c:/Users/lenovo/Desktop/AIoT/first_day/firstday_afternoon/LiteOS_Lab_STM32_IoT/iot_link/network/mqtt/paho_mqtt/paho/MQTTPacket/src\MQTTUnsubscribeClient.c **** 		writeMQTTString(&ptr, topicFilters[i]);
 233              		.loc 1 75 2 discriminator 1
 234 00c8 3A6A     		ldr	r2, [r7, #32]
 235 00ca 3B6B     		ldr	r3, [r7, #48]
 236 00cc 9A42     		cmp	r2, r3
 237 00ce EBDB     		blt	.L9
  77:c:/Users/lenovo/Desktop/AIoT/first_day/firstday_afternoon/LiteOS_Lab_STM32_IoT/iot_link/network/mqtt/paho_mqtt/paho/MQTTPacket/src\MQTTUnsubscribeClient.c **** 
  78:c:/Users/lenovo/Desktop/AIoT/first_day/firstday_afternoon/LiteOS_Lab_STM32_IoT/iot_link/network/mqtt/paho_mqtt/paho/MQTTPacket/src\MQTTUnsubscribeClient.c **** 	rc = ptr - buf;
 238              		.loc 1 78 11
 239 00d0 BA69     		ldr	r2, [r7, #24]
 240              		.loc 1 78 5
 241 00d2 FB68     		ldr	r3, [r7, #12]
 242 00d4 D31A     		subs	r3, r2, r3
 243 00d6 7B62     		str	r3, [r7, #36]
 244              	.L7:
  79:c:/Users/lenovo/Desktop/AIoT/first_day/firstday_afternoon/LiteOS_Lab_STM32_IoT/iot_link/network/mqtt/paho_mqtt/paho/MQTTPacket/src\MQTTUnsubscribeClient.c **** exit:
  80:c:/Users/lenovo/Desktop/AIoT/first_day/firstday_afternoon/LiteOS_Lab_STM32_IoT/iot_link/network/mqtt/paho_mqtt/paho/MQTTPacket/src\MQTTUnsubscribeClient.c **** 	FUNC_EXIT_RC(rc);
  81:c:/Users/lenovo/Desktop/AIoT/first_day/firstday_afternoon/LiteOS_Lab_STM32_IoT/iot_link/network/mqtt/paho_mqtt/paho/MQTTPacket/src\MQTTUnsubscribeClient.c **** 	return rc;
 245              		.loc 1 81 9
 246 00d8 7B6A     		ldr	r3, [r7, #36]
  82:c:/Users/lenovo/Desktop/AIoT/first_day/firstday_afternoon/LiteOS_Lab_STM32_IoT/iot_link/network/mqtt/paho_mqtt/paho/MQTTPacket/src\MQTTUnsubscribeClient.c **** }
 247              		.loc 1 82 1
 248 00da 1846     		mov	r0, r3
 249 00dc 2837     		adds	r7, r7, #40
 250              	.LCFI8:
 251              		.cfi_def_cfa_offset 8
 252 00de BD46     		mov	sp, r7
 253              	.LCFI9:
 254              		.cfi_def_cfa_register 13
 255              		@ sp needed
 256 00e0 80BD     		pop	{r7, pc}
 257              		.cfi_endproc
 258              	.LFE4:
 260              		.section	.text.MQTTDeserialize_unsuback,"ax",%progbits
ARM GAS  C:\Users\lenovo\AppData\Local\Temp\ccrl7sAh.s 			page 7


 261              		.align	1
 262              		.global	MQTTDeserialize_unsuback
 263              		.syntax unified
 264              		.thumb
 265              		.thumb_func
 266              		.fpu fpv4-sp-d16
 268              	MQTTDeserialize_unsuback:
 269              	.LFB5:
  83:c:/Users/lenovo/Desktop/AIoT/first_day/firstday_afternoon/LiteOS_Lab_STM32_IoT/iot_link/network/mqtt/paho_mqtt/paho/MQTTPacket/src\MQTTUnsubscribeClient.c **** 
  84:c:/Users/lenovo/Desktop/AIoT/first_day/firstday_afternoon/LiteOS_Lab_STM32_IoT/iot_link/network/mqtt/paho_mqtt/paho/MQTTPacket/src\MQTTUnsubscribeClient.c **** 
  85:c:/Users/lenovo/Desktop/AIoT/first_day/firstday_afternoon/LiteOS_Lab_STM32_IoT/iot_link/network/mqtt/paho_mqtt/paho/MQTTPacket/src\MQTTUnsubscribeClient.c **** /**
  86:c:/Users/lenovo/Desktop/AIoT/first_day/firstday_afternoon/LiteOS_Lab_STM32_IoT/iot_link/network/mqtt/paho_mqtt/paho/MQTTPacket/src\MQTTUnsubscribeClient.c ****   * Deserializes the supplied (wire) buffer into unsuback data
  87:c:/Users/lenovo/Desktop/AIoT/first_day/firstday_afternoon/LiteOS_Lab_STM32_IoT/iot_link/network/mqtt/paho_mqtt/paho/MQTTPacket/src\MQTTUnsubscribeClient.c ****   * @param packetid returned integer - the MQTT packet identifier
  88:c:/Users/lenovo/Desktop/AIoT/first_day/firstday_afternoon/LiteOS_Lab_STM32_IoT/iot_link/network/mqtt/paho_mqtt/paho/MQTTPacket/src\MQTTUnsubscribeClient.c ****   * @param buf the raw buffer data, of the correct length determined by the remaining length field
  89:c:/Users/lenovo/Desktop/AIoT/first_day/firstday_afternoon/LiteOS_Lab_STM32_IoT/iot_link/network/mqtt/paho_mqtt/paho/MQTTPacket/src\MQTTUnsubscribeClient.c ****   * @param buflen the length in bytes of the data in the supplied buffer
  90:c:/Users/lenovo/Desktop/AIoT/first_day/firstday_afternoon/LiteOS_Lab_STM32_IoT/iot_link/network/mqtt/paho_mqtt/paho/MQTTPacket/src\MQTTUnsubscribeClient.c ****   * @return error code.  1 is success, 0 is failure
  91:c:/Users/lenovo/Desktop/AIoT/first_day/firstday_afternoon/LiteOS_Lab_STM32_IoT/iot_link/network/mqtt/paho_mqtt/paho/MQTTPacket/src\MQTTUnsubscribeClient.c ****   */
  92:c:/Users/lenovo/Desktop/AIoT/first_day/firstday_afternoon/LiteOS_Lab_STM32_IoT/iot_link/network/mqtt/paho_mqtt/paho/MQTTPacket/src\MQTTUnsubscribeClient.c **** int MQTTDeserialize_unsuback(unsigned short* packetid, unsigned char* buf, int buflen)
  93:c:/Users/lenovo/Desktop/AIoT/first_day/firstday_afternoon/LiteOS_Lab_STM32_IoT/iot_link/network/mqtt/paho_mqtt/paho/MQTTPacket/src\MQTTUnsubscribeClient.c **** {
 270              		.loc 1 93 1
 271              		.cfi_startproc
 272              		@ args = 0, pretend = 0, frame = 24
 273              		@ frame_needed = 1, uses_anonymous_args = 0
 274 0000 80B5     		push	{r7, lr}
 275              	.LCFI10:
 276              		.cfi_def_cfa_offset 8
 277              		.cfi_offset 7, -8
 278              		.cfi_offset 14, -4
 279 0002 88B0     		sub	sp, sp, #32
 280              	.LCFI11:
 281              		.cfi_def_cfa_offset 40
 282 0004 02AF     		add	r7, sp, #8
 283              	.LCFI12:
 284              		.cfi_def_cfa 7, 32
 285 0006 F860     		str	r0, [r7, #12]
 286 0008 B960     		str	r1, [r7, #8]
 287 000a 7A60     		str	r2, [r7, #4]
  94:c:/Users/lenovo/Desktop/AIoT/first_day/firstday_afternoon/LiteOS_Lab_STM32_IoT/iot_link/network/mqtt/paho_mqtt/paho/MQTTPacket/src\MQTTUnsubscribeClient.c **** 	unsigned char type = 0;
 288              		.loc 1 94 16
 289 000c 0023     		movs	r3, #0
 290 000e FB74     		strb	r3, [r7, #19]
  95:c:/Users/lenovo/Desktop/AIoT/first_day/firstday_afternoon/LiteOS_Lab_STM32_IoT/iot_link/network/mqtt/paho_mqtt/paho/MQTTPacket/src\MQTTUnsubscribeClient.c **** 	unsigned char dup = 0;
 291              		.loc 1 95 16
 292 0010 0023     		movs	r3, #0
 293 0012 BB74     		strb	r3, [r7, #18]
  96:c:/Users/lenovo/Desktop/AIoT/first_day/firstday_afternoon/LiteOS_Lab_STM32_IoT/iot_link/network/mqtt/paho_mqtt/paho/MQTTPacket/src\MQTTUnsubscribeClient.c **** 	int rc = 0;
 294              		.loc 1 96 6
 295 0014 0023     		movs	r3, #0
 296 0016 7B61     		str	r3, [r7, #20]
  97:c:/Users/lenovo/Desktop/AIoT/first_day/firstday_afternoon/LiteOS_Lab_STM32_IoT/iot_link/network/mqtt/paho_mqtt/paho/MQTTPacket/src\MQTTUnsubscribeClient.c **** 
  98:c:/Users/lenovo/Desktop/AIoT/first_day/firstday_afternoon/LiteOS_Lab_STM32_IoT/iot_link/network/mqtt/paho_mqtt/paho/MQTTPacket/src\MQTTUnsubscribeClient.c **** 	FUNC_ENTRY;
  99:c:/Users/lenovo/Desktop/AIoT/first_day/firstday_afternoon/LiteOS_Lab_STM32_IoT/iot_link/network/mqtt/paho_mqtt/paho/MQTTPacket/src\MQTTUnsubscribeClient.c **** 	rc = MQTTDeserialize_ack(&type, &dup, packetid, buf, buflen);
 297              		.loc 1 99 7
 298 0018 07F11201 		add	r1, r7, #18
 299 001c 07F11300 		add	r0, r7, #19
 300 0020 7B68     		ldr	r3, [r7, #4]
 301 0022 0093     		str	r3, [sp]
ARM GAS  C:\Users\lenovo\AppData\Local\Temp\ccrl7sAh.s 			page 8


 302 0024 BB68     		ldr	r3, [r7, #8]
 303 0026 FA68     		ldr	r2, [r7, #12]
 304 0028 FFF7FEFF 		bl	MQTTDeserialize_ack
 305 002c 7861     		str	r0, [r7, #20]
 100:c:/Users/lenovo/Desktop/AIoT/first_day/firstday_afternoon/LiteOS_Lab_STM32_IoT/iot_link/network/mqtt/paho_mqtt/paho/MQTTPacket/src\MQTTUnsubscribeClient.c **** 	if (type == UNSUBACK)
 306              		.loc 1 100 11
 307 002e FB7C     		ldrb	r3, [r7, #19]	@ zero_extendqisi2
 308              		.loc 1 100 5
 309 0030 0B2B     		cmp	r3, #11
 310 0032 01D1     		bne	.L12
 101:c:/Users/lenovo/Desktop/AIoT/first_day/firstday_afternoon/LiteOS_Lab_STM32_IoT/iot_link/network/mqtt/paho_mqtt/paho/MQTTPacket/src\MQTTUnsubscribeClient.c **** 		rc = 1;
 311              		.loc 1 101 6
 312 0034 0123     		movs	r3, #1
 313 0036 7B61     		str	r3, [r7, #20]
 314              	.L12:
 102:c:/Users/lenovo/Desktop/AIoT/first_day/firstday_afternoon/LiteOS_Lab_STM32_IoT/iot_link/network/mqtt/paho_mqtt/paho/MQTTPacket/src\MQTTUnsubscribeClient.c **** 	FUNC_EXIT_RC(rc);
 103:c:/Users/lenovo/Desktop/AIoT/first_day/firstday_afternoon/LiteOS_Lab_STM32_IoT/iot_link/network/mqtt/paho_mqtt/paho/MQTTPacket/src\MQTTUnsubscribeClient.c **** 	return rc;
 315              		.loc 1 103 9
 316 0038 7B69     		ldr	r3, [r7, #20]
 104:c:/Users/lenovo/Desktop/AIoT/first_day/firstday_afternoon/LiteOS_Lab_STM32_IoT/iot_link/network/mqtt/paho_mqtt/paho/MQTTPacket/src\MQTTUnsubscribeClient.c **** }
 317              		.loc 1 104 1
 318 003a 1846     		mov	r0, r3
 319 003c 1837     		adds	r7, r7, #24
 320              	.LCFI13:
 321              		.cfi_def_cfa_offset 8
 322 003e BD46     		mov	sp, r7
 323              	.LCFI14:
 324              		.cfi_def_cfa_register 13
 325              		@ sp needed
 326 0040 80BD     		pop	{r7, pc}
 327              		.cfi_endproc
 328              	.LFE5:
 330              		.text
 331              	.Letext0:
 332              		.file 2 "c:/Users/lenovo/Desktop/AIoT/first_day/firstday_afternoon/LiteOS_Lab_STM32_IoT/iot_link/n
 333              		.file 3 "c:\\users\\lenovo\\.iotlink\\tools\\gcc-arm-none-eabi\\arm-none-eabi\\include\\sys\\lock.
 334              		.file 4 "c:\\users\\lenovo\\.iotlink\\tools\\gcc-arm-none-eabi\\arm-none-eabi\\include\\sys\\_type
 335              		.file 5 "c:\\users\\lenovo\\.iotlink\\tools\\gcc-arm-none-eabi\\lib\\gcc\\arm-none-eabi\\9.2.1\\in
 336              		.file 6 "c:\\users\\lenovo\\.iotlink\\tools\\gcc-arm-none-eabi\\arm-none-eabi\\include\\sys\\reent
ARM GAS  C:\Users\lenovo\AppData\Local\Temp\ccrl7sAh.s 			page 9

