ARM GAS  C:\Users\lenovo\AppData\Local\Temp\ccn5flpb.s 			page 1


   1              		.cpu cortex-m4
   2              		.eabi_attribute 27, 1
   3              		.eabi_attribute 28, 1
   4              		.eabi_attribute 20, 1
   5              		.eabi_attribute 21, 1
   6              		.eabi_attribute 23, 3
   7              		.eabi_attribute 24, 1
   8              		.eabi_attribute 25, 1
   9              		.eabi_attribute 26, 1
  10              		.eabi_attribute 30, 6
  11              		.eabi_attribute 34, 1
  12              		.eabi_attribute 18, 4
  13              		.file	"MQTTSerializePublish.c"
  14              		.text
  15              	.Ltext0:
  16              		.cfi_sections	.debug_frame
  17              		.section	.text.MQTTSerialize_publishLength,"ax",%progbits
  18              		.align	1
  19              		.global	MQTTSerialize_publishLength
  20              		.arch armv7e-m
  21              		.syntax unified
  22              		.thumb
  23              		.thumb_func
  24              		.fpu fpv4-sp-d16
  26              	MQTTSerialize_publishLength:
  27              	.LFB3:
  28              		.file 1 "c:/Users/lenovo/Desktop/AIoT/first_day/firstday_afternoon/LiteOS_Lab_STM32_IoT/iot_link/n
   1:c:/Users/lenovo/Desktop/AIoT/first_day/firstday_afternoon/LiteOS_Lab_STM32_IoT/iot_link/network/mqtt/paho_mqtt/paho/MQTTPacket/src\MQTTSerializePublish.c **** /*******************************************************************************
   2:c:/Users/lenovo/Desktop/AIoT/first_day/firstday_afternoon/LiteOS_Lab_STM32_IoT/iot_link/network/mqtt/paho_mqtt/paho/MQTTPacket/src\MQTTSerializePublish.c ****  * Copyright (c) 2014 IBM Corp.
   3:c:/Users/lenovo/Desktop/AIoT/first_day/firstday_afternoon/LiteOS_Lab_STM32_IoT/iot_link/network/mqtt/paho_mqtt/paho/MQTTPacket/src\MQTTSerializePublish.c ****  *
   4:c:/Users/lenovo/Desktop/AIoT/first_day/firstday_afternoon/LiteOS_Lab_STM32_IoT/iot_link/network/mqtt/paho_mqtt/paho/MQTTPacket/src\MQTTSerializePublish.c ****  * All rights reserved. This program and the accompanying materials
   5:c:/Users/lenovo/Desktop/AIoT/first_day/firstday_afternoon/LiteOS_Lab_STM32_IoT/iot_link/network/mqtt/paho_mqtt/paho/MQTTPacket/src\MQTTSerializePublish.c ****  * are made available under the terms of the Eclipse Public License v1.0
   6:c:/Users/lenovo/Desktop/AIoT/first_day/firstday_afternoon/LiteOS_Lab_STM32_IoT/iot_link/network/mqtt/paho_mqtt/paho/MQTTPacket/src\MQTTSerializePublish.c ****  * and Eclipse Distribution License v1.0 which accompany this distribution.
   7:c:/Users/lenovo/Desktop/AIoT/first_day/firstday_afternoon/LiteOS_Lab_STM32_IoT/iot_link/network/mqtt/paho_mqtt/paho/MQTTPacket/src\MQTTSerializePublish.c ****  *
   8:c:/Users/lenovo/Desktop/AIoT/first_day/firstday_afternoon/LiteOS_Lab_STM32_IoT/iot_link/network/mqtt/paho_mqtt/paho/MQTTPacket/src\MQTTSerializePublish.c ****  * The Eclipse Public License is available at
   9:c:/Users/lenovo/Desktop/AIoT/first_day/firstday_afternoon/LiteOS_Lab_STM32_IoT/iot_link/network/mqtt/paho_mqtt/paho/MQTTPacket/src\MQTTSerializePublish.c ****  *    http://www.eclipse.org/legal/epl-v10.html
  10:c:/Users/lenovo/Desktop/AIoT/first_day/firstday_afternoon/LiteOS_Lab_STM32_IoT/iot_link/network/mqtt/paho_mqtt/paho/MQTTPacket/src\MQTTSerializePublish.c ****  * and the Eclipse Distribution License is available at
  11:c:/Users/lenovo/Desktop/AIoT/first_day/firstday_afternoon/LiteOS_Lab_STM32_IoT/iot_link/network/mqtt/paho_mqtt/paho/MQTTPacket/src\MQTTSerializePublish.c ****  *   http://www.eclipse.org/org/documents/edl-v10.php.
  12:c:/Users/lenovo/Desktop/AIoT/first_day/firstday_afternoon/LiteOS_Lab_STM32_IoT/iot_link/network/mqtt/paho_mqtt/paho/MQTTPacket/src\MQTTSerializePublish.c ****  *
  13:c:/Users/lenovo/Desktop/AIoT/first_day/firstday_afternoon/LiteOS_Lab_STM32_IoT/iot_link/network/mqtt/paho_mqtt/paho/MQTTPacket/src\MQTTSerializePublish.c ****  * Contributors:
  14:c:/Users/lenovo/Desktop/AIoT/first_day/firstday_afternoon/LiteOS_Lab_STM32_IoT/iot_link/network/mqtt/paho_mqtt/paho/MQTTPacket/src\MQTTSerializePublish.c ****  *    Ian Craggs - initial API and implementation and/or initial documentation
  15:c:/Users/lenovo/Desktop/AIoT/first_day/firstday_afternoon/LiteOS_Lab_STM32_IoT/iot_link/network/mqtt/paho_mqtt/paho/MQTTPacket/src\MQTTSerializePublish.c ****  *    Ian Craggs - fix for https://bugs.eclipse.org/bugs/show_bug.cgi?id=453144
  16:c:/Users/lenovo/Desktop/AIoT/first_day/firstday_afternoon/LiteOS_Lab_STM32_IoT/iot_link/network/mqtt/paho_mqtt/paho/MQTTPacket/src\MQTTSerializePublish.c ****  *******************************************************************************/
  17:c:/Users/lenovo/Desktop/AIoT/first_day/firstday_afternoon/LiteOS_Lab_STM32_IoT/iot_link/network/mqtt/paho_mqtt/paho/MQTTPacket/src\MQTTSerializePublish.c **** 
  18:c:/Users/lenovo/Desktop/AIoT/first_day/firstday_afternoon/LiteOS_Lab_STM32_IoT/iot_link/network/mqtt/paho_mqtt/paho/MQTTPacket/src\MQTTSerializePublish.c **** #include "MQTTPacket.h"
  19:c:/Users/lenovo/Desktop/AIoT/first_day/firstday_afternoon/LiteOS_Lab_STM32_IoT/iot_link/network/mqtt/paho_mqtt/paho/MQTTPacket/src\MQTTSerializePublish.c **** #include "StackTrace.h"
  20:c:/Users/lenovo/Desktop/AIoT/first_day/firstday_afternoon/LiteOS_Lab_STM32_IoT/iot_link/network/mqtt/paho_mqtt/paho/MQTTPacket/src\MQTTSerializePublish.c **** 
  21:c:/Users/lenovo/Desktop/AIoT/first_day/firstday_afternoon/LiteOS_Lab_STM32_IoT/iot_link/network/mqtt/paho_mqtt/paho/MQTTPacket/src\MQTTSerializePublish.c **** #include <string.h>
  22:c:/Users/lenovo/Desktop/AIoT/first_day/firstday_afternoon/LiteOS_Lab_STM32_IoT/iot_link/network/mqtt/paho_mqtt/paho/MQTTPacket/src\MQTTSerializePublish.c **** 
  23:c:/Users/lenovo/Desktop/AIoT/first_day/firstday_afternoon/LiteOS_Lab_STM32_IoT/iot_link/network/mqtt/paho_mqtt/paho/MQTTPacket/src\MQTTSerializePublish.c **** 
  24:c:/Users/lenovo/Desktop/AIoT/first_day/firstday_afternoon/LiteOS_Lab_STM32_IoT/iot_link/network/mqtt/paho_mqtt/paho/MQTTPacket/src\MQTTSerializePublish.c **** /**
  25:c:/Users/lenovo/Desktop/AIoT/first_day/firstday_afternoon/LiteOS_Lab_STM32_IoT/iot_link/network/mqtt/paho_mqtt/paho/MQTTPacket/src\MQTTSerializePublish.c ****   * Determines the length of the MQTT publish packet that would be produced using the supplied para
  26:c:/Users/lenovo/Desktop/AIoT/first_day/firstday_afternoon/LiteOS_Lab_STM32_IoT/iot_link/network/mqtt/paho_mqtt/paho/MQTTPacket/src\MQTTSerializePublish.c ****   * @param qos the MQTT QoS of the publish (packetid is omitted for QoS 0)
  27:c:/Users/lenovo/Desktop/AIoT/first_day/firstday_afternoon/LiteOS_Lab_STM32_IoT/iot_link/network/mqtt/paho_mqtt/paho/MQTTPacket/src\MQTTSerializePublish.c ****   * @param topicName the topic name to be used in the publish  
  28:c:/Users/lenovo/Desktop/AIoT/first_day/firstday_afternoon/LiteOS_Lab_STM32_IoT/iot_link/network/mqtt/paho_mqtt/paho/MQTTPacket/src\MQTTSerializePublish.c ****   * @param payloadlen the length of the payload to be sent
  29:c:/Users/lenovo/Desktop/AIoT/first_day/firstday_afternoon/LiteOS_Lab_STM32_IoT/iot_link/network/mqtt/paho_mqtt/paho/MQTTPacket/src\MQTTSerializePublish.c ****   * @return the length of buffer needed to contain the serialized version of the packet
  30:c:/Users/lenovo/Desktop/AIoT/first_day/firstday_afternoon/LiteOS_Lab_STM32_IoT/iot_link/network/mqtt/paho_mqtt/paho/MQTTPacket/src\MQTTSerializePublish.c ****   */
ARM GAS  C:\Users\lenovo\AppData\Local\Temp\ccn5flpb.s 			page 2


  31:c:/Users/lenovo/Desktop/AIoT/first_day/firstday_afternoon/LiteOS_Lab_STM32_IoT/iot_link/network/mqtt/paho_mqtt/paho/MQTTPacket/src\MQTTSerializePublish.c **** int MQTTSerialize_publishLength(int qos, MQTTString topicName, int payloadlen)
  32:c:/Users/lenovo/Desktop/AIoT/first_day/firstday_afternoon/LiteOS_Lab_STM32_IoT/iot_link/network/mqtt/paho_mqtt/paho/MQTTPacket/src\MQTTSerializePublish.c **** {
  29              		.loc 1 32 1
  30              		.cfi_startproc
  31              		@ args = 4, pretend = 0, frame = 24
  32              		@ frame_needed = 1, uses_anonymous_args = 0
  33 0000 80B5     		push	{r7, lr}
  34              	.LCFI0:
  35              		.cfi_def_cfa_offset 8
  36              		.cfi_offset 7, -8
  37              		.cfi_offset 14, -4
  38 0002 86B0     		sub	sp, sp, #24
  39              	.LCFI1:
  40              		.cfi_def_cfa_offset 32
  41 0004 00AF     		add	r7, sp, #0
  42              	.LCFI2:
  43              		.cfi_def_cfa_register 7
  44 0006 F860     		str	r0, [r7, #12]
  45 0008 3846     		mov	r0, r7
  46 000a 80E80E00 		stm	r0, {r1, r2, r3}
  33:c:/Users/lenovo/Desktop/AIoT/first_day/firstday_afternoon/LiteOS_Lab_STM32_IoT/iot_link/network/mqtt/paho_mqtt/paho/MQTTPacket/src\MQTTSerializePublish.c **** 	int len = 0;
  47              		.loc 1 33 6
  48 000e 0023     		movs	r3, #0
  49 0010 7B61     		str	r3, [r7, #20]
  34:c:/Users/lenovo/Desktop/AIoT/first_day/firstday_afternoon/LiteOS_Lab_STM32_IoT/iot_link/network/mqtt/paho_mqtt/paho/MQTTPacket/src\MQTTSerializePublish.c **** 
  35:c:/Users/lenovo/Desktop/AIoT/first_day/firstday_afternoon/LiteOS_Lab_STM32_IoT/iot_link/network/mqtt/paho_mqtt/paho/MQTTPacket/src\MQTTSerializePublish.c **** 	len += 2 + MQTTstrlen(topicName) + payloadlen;
  50              		.loc 1 35 13
  51 0012 3B46     		mov	r3, r7
  52 0014 93E80700 		ldm	r3, {r0, r1, r2}
  53 0018 FFF7FEFF 		bl	MQTTstrlen
  54 001c 0346     		mov	r3, r0
  55              		.loc 1 35 11
  56 001e 9A1C     		adds	r2, r3, #2
  57              		.loc 1 35 35
  58 0020 3B6A     		ldr	r3, [r7, #32]
  59 0022 1344     		add	r3, r3, r2
  60              		.loc 1 35 6
  61 0024 7A69     		ldr	r2, [r7, #20]
  62 0026 1344     		add	r3, r3, r2
  63 0028 7B61     		str	r3, [r7, #20]
  36:c:/Users/lenovo/Desktop/AIoT/first_day/firstday_afternoon/LiteOS_Lab_STM32_IoT/iot_link/network/mqtt/paho_mqtt/paho/MQTTPacket/src\MQTTSerializePublish.c **** 	if (qos > 0)
  64              		.loc 1 36 5
  65 002a FB68     		ldr	r3, [r7, #12]
  66 002c 002B     		cmp	r3, #0
  67 002e 02DD     		ble	.L2
  37:c:/Users/lenovo/Desktop/AIoT/first_day/firstday_afternoon/LiteOS_Lab_STM32_IoT/iot_link/network/mqtt/paho_mqtt/paho/MQTTPacket/src\MQTTSerializePublish.c **** 		len += 2; /* packetid */
  68              		.loc 1 37 7
  69 0030 7B69     		ldr	r3, [r7, #20]
  70 0032 0233     		adds	r3, r3, #2
  71 0034 7B61     		str	r3, [r7, #20]
  72              	.L2:
  38:c:/Users/lenovo/Desktop/AIoT/first_day/firstday_afternoon/LiteOS_Lab_STM32_IoT/iot_link/network/mqtt/paho_mqtt/paho/MQTTPacket/src\MQTTSerializePublish.c **** 	return len;
  73              		.loc 1 38 9
  74 0036 7B69     		ldr	r3, [r7, #20]
  39:c:/Users/lenovo/Desktop/AIoT/first_day/firstday_afternoon/LiteOS_Lab_STM32_IoT/iot_link/network/mqtt/paho_mqtt/paho/MQTTPacket/src\MQTTSerializePublish.c **** }
  75              		.loc 1 39 1
  76 0038 1846     		mov	r0, r3
ARM GAS  C:\Users\lenovo\AppData\Local\Temp\ccn5flpb.s 			page 3


  77 003a 1837     		adds	r7, r7, #24
  78              	.LCFI3:
  79              		.cfi_def_cfa_offset 8
  80 003c BD46     		mov	sp, r7
  81              	.LCFI4:
  82              		.cfi_def_cfa_register 13
  83              		@ sp needed
  84 003e 80BD     		pop	{r7, pc}
  85              		.cfi_endproc
  86              	.LFE3:
  88              		.section	.text.MQTTSerialize_publish,"ax",%progbits
  89              		.align	1
  90              		.global	MQTTSerialize_publish
  91              		.syntax unified
  92              		.thumb
  93              		.thumb_func
  94              		.fpu fpv4-sp-d16
  96              	MQTTSerialize_publish:
  97              	.LFB4:
  40:c:/Users/lenovo/Desktop/AIoT/first_day/firstday_afternoon/LiteOS_Lab_STM32_IoT/iot_link/network/mqtt/paho_mqtt/paho/MQTTPacket/src\MQTTSerializePublish.c **** 
  41:c:/Users/lenovo/Desktop/AIoT/first_day/firstday_afternoon/LiteOS_Lab_STM32_IoT/iot_link/network/mqtt/paho_mqtt/paho/MQTTPacket/src\MQTTSerializePublish.c **** 
  42:c:/Users/lenovo/Desktop/AIoT/first_day/firstday_afternoon/LiteOS_Lab_STM32_IoT/iot_link/network/mqtt/paho_mqtt/paho/MQTTPacket/src\MQTTSerializePublish.c **** /**
  43:c:/Users/lenovo/Desktop/AIoT/first_day/firstday_afternoon/LiteOS_Lab_STM32_IoT/iot_link/network/mqtt/paho_mqtt/paho/MQTTPacket/src\MQTTSerializePublish.c ****   * Serializes the supplied publish data into the supplied buffer, ready for sending
  44:c:/Users/lenovo/Desktop/AIoT/first_day/firstday_afternoon/LiteOS_Lab_STM32_IoT/iot_link/network/mqtt/paho_mqtt/paho/MQTTPacket/src\MQTTSerializePublish.c ****   * @param buf the buffer into which the packet will be serialized
  45:c:/Users/lenovo/Desktop/AIoT/first_day/firstday_afternoon/LiteOS_Lab_STM32_IoT/iot_link/network/mqtt/paho_mqtt/paho/MQTTPacket/src\MQTTSerializePublish.c ****   * @param buflen the length in bytes of the supplied buffer
  46:c:/Users/lenovo/Desktop/AIoT/first_day/firstday_afternoon/LiteOS_Lab_STM32_IoT/iot_link/network/mqtt/paho_mqtt/paho/MQTTPacket/src\MQTTSerializePublish.c ****   * @param dup integer - the MQTT dup flag
  47:c:/Users/lenovo/Desktop/AIoT/first_day/firstday_afternoon/LiteOS_Lab_STM32_IoT/iot_link/network/mqtt/paho_mqtt/paho/MQTTPacket/src\MQTTSerializePublish.c ****   * @param qos integer - the MQTT QoS value
  48:c:/Users/lenovo/Desktop/AIoT/first_day/firstday_afternoon/LiteOS_Lab_STM32_IoT/iot_link/network/mqtt/paho_mqtt/paho/MQTTPacket/src\MQTTSerializePublish.c ****   * @param retained integer - the MQTT retained flag
  49:c:/Users/lenovo/Desktop/AIoT/first_day/firstday_afternoon/LiteOS_Lab_STM32_IoT/iot_link/network/mqtt/paho_mqtt/paho/MQTTPacket/src\MQTTSerializePublish.c ****   * @param packetid integer - the MQTT packet identifier
  50:c:/Users/lenovo/Desktop/AIoT/first_day/firstday_afternoon/LiteOS_Lab_STM32_IoT/iot_link/network/mqtt/paho_mqtt/paho/MQTTPacket/src\MQTTSerializePublish.c ****   * @param topicName MQTTString - the MQTT topic in the publish
  51:c:/Users/lenovo/Desktop/AIoT/first_day/firstday_afternoon/LiteOS_Lab_STM32_IoT/iot_link/network/mqtt/paho_mqtt/paho/MQTTPacket/src\MQTTSerializePublish.c ****   * @param payload byte buffer - the MQTT publish payload
  52:c:/Users/lenovo/Desktop/AIoT/first_day/firstday_afternoon/LiteOS_Lab_STM32_IoT/iot_link/network/mqtt/paho_mqtt/paho/MQTTPacket/src\MQTTSerializePublish.c ****   * @param payloadlen integer - the length of the MQTT payload
  53:c:/Users/lenovo/Desktop/AIoT/first_day/firstday_afternoon/LiteOS_Lab_STM32_IoT/iot_link/network/mqtt/paho_mqtt/paho/MQTTPacket/src\MQTTSerializePublish.c ****   * @return the length of the serialized data.  <= 0 indicates error
  54:c:/Users/lenovo/Desktop/AIoT/first_day/firstday_afternoon/LiteOS_Lab_STM32_IoT/iot_link/network/mqtt/paho_mqtt/paho/MQTTPacket/src\MQTTSerializePublish.c ****   */
  55:c:/Users/lenovo/Desktop/AIoT/first_day/firstday_afternoon/LiteOS_Lab_STM32_IoT/iot_link/network/mqtt/paho_mqtt/paho/MQTTPacket/src\MQTTSerializePublish.c **** int MQTTSerialize_publish(unsigned char* buf, int buflen, unsigned char dup, int qos, unsigned char
  56:c:/Users/lenovo/Desktop/AIoT/first_day/firstday_afternoon/LiteOS_Lab_STM32_IoT/iot_link/network/mqtt/paho_mqtt/paho/MQTTPacket/src\MQTTSerializePublish.c **** 		MQTTString topicName, unsigned char* payload, int payloadlen)
  57:c:/Users/lenovo/Desktop/AIoT/first_day/firstday_afternoon/LiteOS_Lab_STM32_IoT/iot_link/network/mqtt/paho_mqtt/paho/MQTTPacket/src\MQTTSerializePublish.c **** {
  98              		.loc 1 57 1
  99              		.cfi_startproc
 100              		@ args = 28, pretend = 0, frame = 32
 101              		@ frame_needed = 1, uses_anonymous_args = 0
 102 0000 80B5     		push	{r7, lr}
 103              	.LCFI5:
 104              		.cfi_def_cfa_offset 8
 105              		.cfi_offset 7, -8
 106              		.cfi_offset 14, -4
 107 0002 8AB0     		sub	sp, sp, #40
 108              	.LCFI6:
 109              		.cfi_def_cfa_offset 48
 110 0004 02AF     		add	r7, sp, #8
 111              	.LCFI7:
 112              		.cfi_def_cfa 7, 40
 113 0006 F860     		str	r0, [r7, #12]
 114 0008 B960     		str	r1, [r7, #8]
 115 000a 3B60     		str	r3, [r7]
 116 000c 1346     		mov	r3, r2
 117 000e FB71     		strb	r3, [r7, #7]
ARM GAS  C:\Users\lenovo\AppData\Local\Temp\ccn5flpb.s 			page 4


  58:c:/Users/lenovo/Desktop/AIoT/first_day/firstday_afternoon/LiteOS_Lab_STM32_IoT/iot_link/network/mqtt/paho_mqtt/paho/MQTTPacket/src\MQTTSerializePublish.c **** 	unsigned char *ptr = buf;
 118              		.loc 1 58 17
 119 0010 FB68     		ldr	r3, [r7, #12]
 120 0012 7B61     		str	r3, [r7, #20]
  59:c:/Users/lenovo/Desktop/AIoT/first_day/firstday_afternoon/LiteOS_Lab_STM32_IoT/iot_link/network/mqtt/paho_mqtt/paho/MQTTPacket/src\MQTTSerializePublish.c **** 	MQTTHeader header = {0};
 121              		.loc 1 59 13
 122 0014 0023     		movs	r3, #0
 123 0016 3B61     		str	r3, [r7, #16]
  60:c:/Users/lenovo/Desktop/AIoT/first_day/firstday_afternoon/LiteOS_Lab_STM32_IoT/iot_link/network/mqtt/paho_mqtt/paho/MQTTPacket/src\MQTTSerializePublish.c **** 	int rem_len = 0;
 124              		.loc 1 60 6
 125 0018 0023     		movs	r3, #0
 126 001a BB61     		str	r3, [r7, #24]
  61:c:/Users/lenovo/Desktop/AIoT/first_day/firstday_afternoon/LiteOS_Lab_STM32_IoT/iot_link/network/mqtt/paho_mqtt/paho/MQTTPacket/src\MQTTSerializePublish.c **** 	int rc = 0;
 127              		.loc 1 61 6
 128 001c 0023     		movs	r3, #0
 129 001e FB61     		str	r3, [r7, #28]
  62:c:/Users/lenovo/Desktop/AIoT/first_day/firstday_afternoon/LiteOS_Lab_STM32_IoT/iot_link/network/mqtt/paho_mqtt/paho/MQTTPacket/src\MQTTSerializePublish.c **** 
  63:c:/Users/lenovo/Desktop/AIoT/first_day/firstday_afternoon/LiteOS_Lab_STM32_IoT/iot_link/network/mqtt/paho_mqtt/paho/MQTTPacket/src\MQTTSerializePublish.c **** 	FUNC_ENTRY;
  64:c:/Users/lenovo/Desktop/AIoT/first_day/firstday_afternoon/LiteOS_Lab_STM32_IoT/iot_link/network/mqtt/paho_mqtt/paho/MQTTPacket/src\MQTTSerializePublish.c **** 	if (MQTTPacket_len(rem_len = MQTTSerialize_publishLength(qos, topicName, payloadlen)) > buflen)
 130              		.loc 1 64 31
 131 0020 3B6C     		ldr	r3, [r7, #64]
 132 0022 0093     		str	r3, [sp]
 133 0024 07F13003 		add	r3, r7, #48
 134 0028 0ECB     		ldm	r3, {r1, r2, r3}
 135 002a 3868     		ldr	r0, [r7]
 136 002c FFF7FEFF 		bl	MQTTSerialize_publishLength
 137 0030 B861     		str	r0, [r7, #24]
 138              		.loc 1 64 6
 139 0032 B869     		ldr	r0, [r7, #24]
 140 0034 FFF7FEFF 		bl	MQTTPacket_len
 141 0038 0246     		mov	r2, r0
 142              		.loc 1 64 5
 143 003a BB68     		ldr	r3, [r7, #8]
 144 003c 9342     		cmp	r3, r2
 145 003e 03DA     		bge	.L5
  65:c:/Users/lenovo/Desktop/AIoT/first_day/firstday_afternoon/LiteOS_Lab_STM32_IoT/iot_link/network/mqtt/paho_mqtt/paho/MQTTPacket/src\MQTTSerializePublish.c **** 	{
  66:c:/Users/lenovo/Desktop/AIoT/first_day/firstday_afternoon/LiteOS_Lab_STM32_IoT/iot_link/network/mqtt/paho_mqtt/paho/MQTTPacket/src\MQTTSerializePublish.c **** 		rc = MQTTPACKET_BUFFER_TOO_SHORT;
 146              		.loc 1 66 6
 147 0040 6FF00103 		mvn	r3, #1
 148 0044 FB61     		str	r3, [r7, #28]
  67:c:/Users/lenovo/Desktop/AIoT/first_day/firstday_afternoon/LiteOS_Lab_STM32_IoT/iot_link/network/mqtt/paho_mqtt/paho/MQTTPacket/src\MQTTSerializePublish.c **** 		goto exit;
 149              		.loc 1 67 3
 150 0046 4CE0     		b	.L6
 151              	.L5:
  68:c:/Users/lenovo/Desktop/AIoT/first_day/firstday_afternoon/LiteOS_Lab_STM32_IoT/iot_link/network/mqtt/paho_mqtt/paho/MQTTPacket/src\MQTTSerializePublish.c **** 	}
  69:c:/Users/lenovo/Desktop/AIoT/first_day/firstday_afternoon/LiteOS_Lab_STM32_IoT/iot_link/network/mqtt/paho_mqtt/paho/MQTTPacket/src\MQTTSerializePublish.c **** 
  70:c:/Users/lenovo/Desktop/AIoT/first_day/firstday_afternoon/LiteOS_Lab_STM32_IoT/iot_link/network/mqtt/paho_mqtt/paho/MQTTPacket/src\MQTTSerializePublish.c **** 	header.bits.type = PUBLISH;
 152              		.loc 1 70 19
 153 0048 3B7C     		ldrb	r3, [r7, #16]
 154 004a 0322     		movs	r2, #3
 155 004c 62F30713 		bfi	r3, r2, #4, #4
 156 0050 3B74     		strb	r3, [r7, #16]
  71:c:/Users/lenovo/Desktop/AIoT/first_day/firstday_afternoon/LiteOS_Lab_STM32_IoT/iot_link/network/mqtt/paho_mqtt/paho/MQTTPacket/src\MQTTSerializePublish.c **** 	header.bits.dup = dup;
 157              		.loc 1 71 18
 158 0052 FB79     		ldrb	r3, [r7, #7]
 159 0054 03F00103 		and	r3, r3, #1
 160 0058 DAB2     		uxtb	r2, r3
ARM GAS  C:\Users\lenovo\AppData\Local\Temp\ccn5flpb.s 			page 5


 161 005a 3B7C     		ldrb	r3, [r7, #16]
 162 005c 62F3C303 		bfi	r3, r2, #3, #1
 163 0060 3B74     		strb	r3, [r7, #16]
  72:c:/Users/lenovo/Desktop/AIoT/first_day/firstday_afternoon/LiteOS_Lab_STM32_IoT/iot_link/network/mqtt/paho_mqtt/paho/MQTTPacket/src\MQTTSerializePublish.c **** 	header.bits.qos = qos;
 164              		.loc 1 72 18
 165 0062 3B68     		ldr	r3, [r7]
 166 0064 03F00303 		and	r3, r3, #3
 167 0068 DAB2     		uxtb	r2, r3
 168 006a 3B7C     		ldrb	r3, [r7, #16]
 169 006c 62F34203 		bfi	r3, r2, #1, #2
 170 0070 3B74     		strb	r3, [r7, #16]
  73:c:/Users/lenovo/Desktop/AIoT/first_day/firstday_afternoon/LiteOS_Lab_STM32_IoT/iot_link/network/mqtt/paho_mqtt/paho/MQTTPacket/src\MQTTSerializePublish.c **** 	header.bits.retain = retained;
 171              		.loc 1 73 21
 172 0072 97F82830 		ldrb	r3, [r7, #40]
 173 0076 03F00103 		and	r3, r3, #1
 174 007a DAB2     		uxtb	r2, r3
 175 007c 3B7C     		ldrb	r3, [r7, #16]
 176 007e 62F30003 		bfi	r3, r2, #0, #1
 177 0082 3B74     		strb	r3, [r7, #16]
  74:c:/Users/lenovo/Desktop/AIoT/first_day/firstday_afternoon/LiteOS_Lab_STM32_IoT/iot_link/network/mqtt/paho_mqtt/paho/MQTTPacket/src\MQTTSerializePublish.c **** 	writeChar(&ptr, header.byte); /* write header */
 178              		.loc 1 74 24
 179 0084 3A7C     		ldrb	r2, [r7, #16]	@ zero_extendqisi2
 180              		.loc 1 74 2
 181 0086 07F11403 		add	r3, r7, #20
 182 008a 1146     		mov	r1, r2
 183 008c 1846     		mov	r0, r3
 184 008e FFF7FEFF 		bl	writeChar
  75:c:/Users/lenovo/Desktop/AIoT/first_day/firstday_afternoon/LiteOS_Lab_STM32_IoT/iot_link/network/mqtt/paho_mqtt/paho/MQTTPacket/src\MQTTSerializePublish.c **** 
  76:c:/Users/lenovo/Desktop/AIoT/first_day/firstday_afternoon/LiteOS_Lab_STM32_IoT/iot_link/network/mqtt/paho_mqtt/paho/MQTTPacket/src\MQTTSerializePublish.c **** 	ptr += MQTTPacket_encode(ptr, rem_len); /* write remaining length */;
 185              		.loc 1 76 9
 186 0092 7B69     		ldr	r3, [r7, #20]
 187 0094 B969     		ldr	r1, [r7, #24]
 188 0096 1846     		mov	r0, r3
 189 0098 FFF7FEFF 		bl	MQTTPacket_encode
 190 009c 0246     		mov	r2, r0
 191              		.loc 1 76 6
 192 009e 7B69     		ldr	r3, [r7, #20]
 193 00a0 1344     		add	r3, r3, r2
 194 00a2 7B61     		str	r3, [r7, #20]
  77:c:/Users/lenovo/Desktop/AIoT/first_day/firstday_afternoon/LiteOS_Lab_STM32_IoT/iot_link/network/mqtt/paho_mqtt/paho/MQTTPacket/src\MQTTSerializePublish.c **** 
  78:c:/Users/lenovo/Desktop/AIoT/first_day/firstday_afternoon/LiteOS_Lab_STM32_IoT/iot_link/network/mqtt/paho_mqtt/paho/MQTTPacket/src\MQTTSerializePublish.c **** 	writeMQTTString(&ptr, topicName);
 195              		.loc 1 78 2
 196 00a4 07F11400 		add	r0, r7, #20
 197 00a8 07F13003 		add	r3, r7, #48
 198 00ac 0ECB     		ldm	r3, {r1, r2, r3}
 199 00ae FFF7FEFF 		bl	writeMQTTString
  79:c:/Users/lenovo/Desktop/AIoT/first_day/firstday_afternoon/LiteOS_Lab_STM32_IoT/iot_link/network/mqtt/paho_mqtt/paho/MQTTPacket/src\MQTTSerializePublish.c **** 
  80:c:/Users/lenovo/Desktop/AIoT/first_day/firstday_afternoon/LiteOS_Lab_STM32_IoT/iot_link/network/mqtt/paho_mqtt/paho/MQTTPacket/src\MQTTSerializePublish.c **** 	if (qos > 0)
 200              		.loc 1 80 5
 201 00b2 3B68     		ldr	r3, [r7]
 202 00b4 002B     		cmp	r3, #0
 203 00b6 06DD     		ble	.L7
  81:c:/Users/lenovo/Desktop/AIoT/first_day/firstday_afternoon/LiteOS_Lab_STM32_IoT/iot_link/network/mqtt/paho_mqtt/paho/MQTTPacket/src\MQTTSerializePublish.c **** 		writeInt(&ptr, packetid);
 204              		.loc 1 81 3
 205 00b8 BA8D     		ldrh	r2, [r7, #44]
 206 00ba 07F11403 		add	r3, r7, #20
 207 00be 1146     		mov	r1, r2
ARM GAS  C:\Users\lenovo\AppData\Local\Temp\ccn5flpb.s 			page 6


 208 00c0 1846     		mov	r0, r3
 209 00c2 FFF7FEFF 		bl	writeInt
 210              	.L7:
  82:c:/Users/lenovo/Desktop/AIoT/first_day/firstday_afternoon/LiteOS_Lab_STM32_IoT/iot_link/network/mqtt/paho_mqtt/paho/MQTTPacket/src\MQTTSerializePublish.c **** 
  83:c:/Users/lenovo/Desktop/AIoT/first_day/firstday_afternoon/LiteOS_Lab_STM32_IoT/iot_link/network/mqtt/paho_mqtt/paho/MQTTPacket/src\MQTTSerializePublish.c **** 	memcpy(ptr, payload, payloadlen);
 211              		.loc 1 83 2
 212 00c6 7B69     		ldr	r3, [r7, #20]
 213 00c8 3A6C     		ldr	r2, [r7, #64]
 214 00ca F96B     		ldr	r1, [r7, #60]
 215 00cc 1846     		mov	r0, r3
 216 00ce FFF7FEFF 		bl	memcpy
  84:c:/Users/lenovo/Desktop/AIoT/first_day/firstday_afternoon/LiteOS_Lab_STM32_IoT/iot_link/network/mqtt/paho_mqtt/paho/MQTTPacket/src\MQTTSerializePublish.c **** 	ptr += payloadlen;
 217              		.loc 1 84 6
 218 00d2 7A69     		ldr	r2, [r7, #20]
 219 00d4 3B6C     		ldr	r3, [r7, #64]
 220 00d6 1344     		add	r3, r3, r2
 221 00d8 7B61     		str	r3, [r7, #20]
  85:c:/Users/lenovo/Desktop/AIoT/first_day/firstday_afternoon/LiteOS_Lab_STM32_IoT/iot_link/network/mqtt/paho_mqtt/paho/MQTTPacket/src\MQTTSerializePublish.c **** 
  86:c:/Users/lenovo/Desktop/AIoT/first_day/firstday_afternoon/LiteOS_Lab_STM32_IoT/iot_link/network/mqtt/paho_mqtt/paho/MQTTPacket/src\MQTTSerializePublish.c **** 	rc = ptr - buf;
 222              		.loc 1 86 11
 223 00da 7A69     		ldr	r2, [r7, #20]
 224              		.loc 1 86 5
 225 00dc FB68     		ldr	r3, [r7, #12]
 226 00de D31A     		subs	r3, r2, r3
 227 00e0 FB61     		str	r3, [r7, #28]
 228              	.L6:
  87:c:/Users/lenovo/Desktop/AIoT/first_day/firstday_afternoon/LiteOS_Lab_STM32_IoT/iot_link/network/mqtt/paho_mqtt/paho/MQTTPacket/src\MQTTSerializePublish.c **** 
  88:c:/Users/lenovo/Desktop/AIoT/first_day/firstday_afternoon/LiteOS_Lab_STM32_IoT/iot_link/network/mqtt/paho_mqtt/paho/MQTTPacket/src\MQTTSerializePublish.c **** exit:
  89:c:/Users/lenovo/Desktop/AIoT/first_day/firstday_afternoon/LiteOS_Lab_STM32_IoT/iot_link/network/mqtt/paho_mqtt/paho/MQTTPacket/src\MQTTSerializePublish.c **** 	FUNC_EXIT_RC(rc);
  90:c:/Users/lenovo/Desktop/AIoT/first_day/firstday_afternoon/LiteOS_Lab_STM32_IoT/iot_link/network/mqtt/paho_mqtt/paho/MQTTPacket/src\MQTTSerializePublish.c **** 	return rc;
 229              		.loc 1 90 9
 230 00e2 FB69     		ldr	r3, [r7, #28]
  91:c:/Users/lenovo/Desktop/AIoT/first_day/firstday_afternoon/LiteOS_Lab_STM32_IoT/iot_link/network/mqtt/paho_mqtt/paho/MQTTPacket/src\MQTTSerializePublish.c **** }
 231              		.loc 1 91 1
 232 00e4 1846     		mov	r0, r3
 233 00e6 2037     		adds	r7, r7, #32
 234              	.LCFI8:
 235              		.cfi_def_cfa_offset 8
 236 00e8 BD46     		mov	sp, r7
 237              	.LCFI9:
 238              		.cfi_def_cfa_register 13
 239              		@ sp needed
 240 00ea 80BD     		pop	{r7, pc}
 241              		.cfi_endproc
 242              	.LFE4:
 244              		.section	.text.MQTTSerialize_ack,"ax",%progbits
 245              		.align	1
 246              		.global	MQTTSerialize_ack
 247              		.syntax unified
 248              		.thumb
 249              		.thumb_func
 250              		.fpu fpv4-sp-d16
 252              	MQTTSerialize_ack:
 253              	.LFB5:
  92:c:/Users/lenovo/Desktop/AIoT/first_day/firstday_afternoon/LiteOS_Lab_STM32_IoT/iot_link/network/mqtt/paho_mqtt/paho/MQTTPacket/src\MQTTSerializePublish.c **** 
  93:c:/Users/lenovo/Desktop/AIoT/first_day/firstday_afternoon/LiteOS_Lab_STM32_IoT/iot_link/network/mqtt/paho_mqtt/paho/MQTTPacket/src\MQTTSerializePublish.c **** 
  94:c:/Users/lenovo/Desktop/AIoT/first_day/firstday_afternoon/LiteOS_Lab_STM32_IoT/iot_link/network/mqtt/paho_mqtt/paho/MQTTPacket/src\MQTTSerializePublish.c **** 
ARM GAS  C:\Users\lenovo\AppData\Local\Temp\ccn5flpb.s 			page 7


  95:c:/Users/lenovo/Desktop/AIoT/first_day/firstday_afternoon/LiteOS_Lab_STM32_IoT/iot_link/network/mqtt/paho_mqtt/paho/MQTTPacket/src\MQTTSerializePublish.c **** /**
  96:c:/Users/lenovo/Desktop/AIoT/first_day/firstday_afternoon/LiteOS_Lab_STM32_IoT/iot_link/network/mqtt/paho_mqtt/paho/MQTTPacket/src\MQTTSerializePublish.c ****   * Serializes the ack packet into the supplied buffer.
  97:c:/Users/lenovo/Desktop/AIoT/first_day/firstday_afternoon/LiteOS_Lab_STM32_IoT/iot_link/network/mqtt/paho_mqtt/paho/MQTTPacket/src\MQTTSerializePublish.c ****   * @param buf the buffer into which the packet will be serialized
  98:c:/Users/lenovo/Desktop/AIoT/first_day/firstday_afternoon/LiteOS_Lab_STM32_IoT/iot_link/network/mqtt/paho_mqtt/paho/MQTTPacket/src\MQTTSerializePublish.c ****   * @param buflen the length in bytes of the supplied buffer
  99:c:/Users/lenovo/Desktop/AIoT/first_day/firstday_afternoon/LiteOS_Lab_STM32_IoT/iot_link/network/mqtt/paho_mqtt/paho/MQTTPacket/src\MQTTSerializePublish.c ****   * @param type the MQTT packet type
 100:c:/Users/lenovo/Desktop/AIoT/first_day/firstday_afternoon/LiteOS_Lab_STM32_IoT/iot_link/network/mqtt/paho_mqtt/paho/MQTTPacket/src\MQTTSerializePublish.c ****   * @param dup the MQTT dup flag
 101:c:/Users/lenovo/Desktop/AIoT/first_day/firstday_afternoon/LiteOS_Lab_STM32_IoT/iot_link/network/mqtt/paho_mqtt/paho/MQTTPacket/src\MQTTSerializePublish.c ****   * @param packetid the MQTT packet identifier
 102:c:/Users/lenovo/Desktop/AIoT/first_day/firstday_afternoon/LiteOS_Lab_STM32_IoT/iot_link/network/mqtt/paho_mqtt/paho/MQTTPacket/src\MQTTSerializePublish.c ****   * @return serialized length, or error if 0
 103:c:/Users/lenovo/Desktop/AIoT/first_day/firstday_afternoon/LiteOS_Lab_STM32_IoT/iot_link/network/mqtt/paho_mqtt/paho/MQTTPacket/src\MQTTSerializePublish.c ****   */
 104:c:/Users/lenovo/Desktop/AIoT/first_day/firstday_afternoon/LiteOS_Lab_STM32_IoT/iot_link/network/mqtt/paho_mqtt/paho/MQTTPacket/src\MQTTSerializePublish.c **** int MQTTSerialize_ack(unsigned char* buf, int buflen, unsigned char packettype, unsigned char dup, 
 105:c:/Users/lenovo/Desktop/AIoT/first_day/firstday_afternoon/LiteOS_Lab_STM32_IoT/iot_link/network/mqtt/paho_mqtt/paho/MQTTPacket/src\MQTTSerializePublish.c **** {
 254              		.loc 1 105 1
 255              		.cfi_startproc
 256              		@ args = 4, pretend = 0, frame = 32
 257              		@ frame_needed = 1, uses_anonymous_args = 0
 258 0000 80B5     		push	{r7, lr}
 259              	.LCFI10:
 260              		.cfi_def_cfa_offset 8
 261              		.cfi_offset 7, -8
 262              		.cfi_offset 14, -4
 263 0002 88B0     		sub	sp, sp, #32
 264              	.LCFI11:
 265              		.cfi_def_cfa_offset 40
 266 0004 00AF     		add	r7, sp, #0
 267              	.LCFI12:
 268              		.cfi_def_cfa_register 7
 269 0006 F860     		str	r0, [r7, #12]
 270 0008 B960     		str	r1, [r7, #8]
 271 000a 1146     		mov	r1, r2
 272 000c 1A46     		mov	r2, r3
 273 000e 0B46     		mov	r3, r1
 274 0010 FB71     		strb	r3, [r7, #7]
 275 0012 1346     		mov	r3, r2
 276 0014 BB71     		strb	r3, [r7, #6]
 106:c:/Users/lenovo/Desktop/AIoT/first_day/firstday_afternoon/LiteOS_Lab_STM32_IoT/iot_link/network/mqtt/paho_mqtt/paho/MQTTPacket/src\MQTTSerializePublish.c **** 	MQTTHeader header = {0};
 277              		.loc 1 106 13
 278 0016 0023     		movs	r3, #0
 279 0018 BB61     		str	r3, [r7, #24]
 107:c:/Users/lenovo/Desktop/AIoT/first_day/firstday_afternoon/LiteOS_Lab_STM32_IoT/iot_link/network/mqtt/paho_mqtt/paho/MQTTPacket/src\MQTTSerializePublish.c **** 	int rc = 0;
 280              		.loc 1 107 6
 281 001a 0023     		movs	r3, #0
 282 001c FB61     		str	r3, [r7, #28]
 108:c:/Users/lenovo/Desktop/AIoT/first_day/firstday_afternoon/LiteOS_Lab_STM32_IoT/iot_link/network/mqtt/paho_mqtt/paho/MQTTPacket/src\MQTTSerializePublish.c **** 	unsigned char *ptr = buf;
 283              		.loc 1 108 17
 284 001e FB68     		ldr	r3, [r7, #12]
 285 0020 7B61     		str	r3, [r7, #20]
 109:c:/Users/lenovo/Desktop/AIoT/first_day/firstday_afternoon/LiteOS_Lab_STM32_IoT/iot_link/network/mqtt/paho_mqtt/paho/MQTTPacket/src\MQTTSerializePublish.c **** 
 110:c:/Users/lenovo/Desktop/AIoT/first_day/firstday_afternoon/LiteOS_Lab_STM32_IoT/iot_link/network/mqtt/paho_mqtt/paho/MQTTPacket/src\MQTTSerializePublish.c **** 	FUNC_ENTRY;
 111:c:/Users/lenovo/Desktop/AIoT/first_day/firstday_afternoon/LiteOS_Lab_STM32_IoT/iot_link/network/mqtt/paho_mqtt/paho/MQTTPacket/src\MQTTSerializePublish.c **** 	if (buflen < 4)
 286              		.loc 1 111 5
 287 0022 BB68     		ldr	r3, [r7, #8]
 288 0024 032B     		cmp	r3, #3
 289 0026 03DC     		bgt	.L10
 112:c:/Users/lenovo/Desktop/AIoT/first_day/firstday_afternoon/LiteOS_Lab_STM32_IoT/iot_link/network/mqtt/paho_mqtt/paho/MQTTPacket/src\MQTTSerializePublish.c **** 	{
 113:c:/Users/lenovo/Desktop/AIoT/first_day/firstday_afternoon/LiteOS_Lab_STM32_IoT/iot_link/network/mqtt/paho_mqtt/paho/MQTTPacket/src\MQTTSerializePublish.c **** 		rc = MQTTPACKET_BUFFER_TOO_SHORT;
 290              		.loc 1 113 6
 291 0028 6FF00103 		mvn	r3, #1
ARM GAS  C:\Users\lenovo\AppData\Local\Temp\ccn5flpb.s 			page 8


 292 002c FB61     		str	r3, [r7, #28]
 114:c:/Users/lenovo/Desktop/AIoT/first_day/firstday_afternoon/LiteOS_Lab_STM32_IoT/iot_link/network/mqtt/paho_mqtt/paho/MQTTPacket/src\MQTTSerializePublish.c **** 		goto exit;
 293              		.loc 1 114 3
 294 002e 37E0     		b	.L11
 295              	.L10:
 115:c:/Users/lenovo/Desktop/AIoT/first_day/firstday_afternoon/LiteOS_Lab_STM32_IoT/iot_link/network/mqtt/paho_mqtt/paho/MQTTPacket/src\MQTTSerializePublish.c **** 	}
 116:c:/Users/lenovo/Desktop/AIoT/first_day/firstday_afternoon/LiteOS_Lab_STM32_IoT/iot_link/network/mqtt/paho_mqtt/paho/MQTTPacket/src\MQTTSerializePublish.c **** 	header.bits.type = packettype;
 296              		.loc 1 116 19
 297 0030 FB79     		ldrb	r3, [r7, #7]
 298 0032 03F00F03 		and	r3, r3, #15
 299 0036 DAB2     		uxtb	r2, r3
 300 0038 3B7E     		ldrb	r3, [r7, #24]
 301 003a 62F30713 		bfi	r3, r2, #4, #4
 302 003e 3B76     		strb	r3, [r7, #24]
 117:c:/Users/lenovo/Desktop/AIoT/first_day/firstday_afternoon/LiteOS_Lab_STM32_IoT/iot_link/network/mqtt/paho_mqtt/paho/MQTTPacket/src\MQTTSerializePublish.c **** 	header.bits.dup = dup;
 303              		.loc 1 117 18
 304 0040 BB79     		ldrb	r3, [r7, #6]
 305 0042 03F00103 		and	r3, r3, #1
 306 0046 DAB2     		uxtb	r2, r3
 307 0048 3B7E     		ldrb	r3, [r7, #24]
 308 004a 62F3C303 		bfi	r3, r2, #3, #1
 309 004e 3B76     		strb	r3, [r7, #24]
 118:c:/Users/lenovo/Desktop/AIoT/first_day/firstday_afternoon/LiteOS_Lab_STM32_IoT/iot_link/network/mqtt/paho_mqtt/paho/MQTTPacket/src\MQTTSerializePublish.c **** 	header.bits.qos = (packettype == PUBREL) ? 1 : 0;
 310              		.loc 1 118 47
 311 0050 FB79     		ldrb	r3, [r7, #7]	@ zero_extendqisi2
 312 0052 062B     		cmp	r3, #6
 313 0054 0CBF     		ite	eq
 314 0056 0123     		moveq	r3, #1
 315 0058 0023     		movne	r3, #0
 316 005a DBB2     		uxtb	r3, r3
 317 005c 03F00303 		and	r3, r3, #3
 318 0060 DAB2     		uxtb	r2, r3
 319              		.loc 1 118 18
 320 0062 3B7E     		ldrb	r3, [r7, #24]
 321 0064 62F34203 		bfi	r3, r2, #1, #2
 322 0068 3B76     		strb	r3, [r7, #24]
 119:c:/Users/lenovo/Desktop/AIoT/first_day/firstday_afternoon/LiteOS_Lab_STM32_IoT/iot_link/network/mqtt/paho_mqtt/paho/MQTTPacket/src\MQTTSerializePublish.c **** 	writeChar(&ptr, header.byte); /* write header */
 323              		.loc 1 119 24
 324 006a 3A7E     		ldrb	r2, [r7, #24]	@ zero_extendqisi2
 325              		.loc 1 119 2
 326 006c 07F11403 		add	r3, r7, #20
 327 0070 1146     		mov	r1, r2
 328 0072 1846     		mov	r0, r3
 329 0074 FFF7FEFF 		bl	writeChar
 120:c:/Users/lenovo/Desktop/AIoT/first_day/firstday_afternoon/LiteOS_Lab_STM32_IoT/iot_link/network/mqtt/paho_mqtt/paho/MQTTPacket/src\MQTTSerializePublish.c **** 
 121:c:/Users/lenovo/Desktop/AIoT/first_day/firstday_afternoon/LiteOS_Lab_STM32_IoT/iot_link/network/mqtt/paho_mqtt/paho/MQTTPacket/src\MQTTSerializePublish.c **** 	ptr += MQTTPacket_encode(ptr, 2); /* write remaining length */
 330              		.loc 1 121 9
 331 0078 7B69     		ldr	r3, [r7, #20]
 332 007a 0221     		movs	r1, #2
 333 007c 1846     		mov	r0, r3
 334 007e FFF7FEFF 		bl	MQTTPacket_encode
 335 0082 0246     		mov	r2, r0
 336              		.loc 1 121 6
 337 0084 7B69     		ldr	r3, [r7, #20]
 338 0086 1344     		add	r3, r3, r2
 339 0088 7B61     		str	r3, [r7, #20]
 122:c:/Users/lenovo/Desktop/AIoT/first_day/firstday_afternoon/LiteOS_Lab_STM32_IoT/iot_link/network/mqtt/paho_mqtt/paho/MQTTPacket/src\MQTTSerializePublish.c **** 	writeInt(&ptr, packetid);
ARM GAS  C:\Users\lenovo\AppData\Local\Temp\ccn5flpb.s 			page 9


 340              		.loc 1 122 2
 341 008a 3A8D     		ldrh	r2, [r7, #40]
 342 008c 07F11403 		add	r3, r7, #20
 343 0090 1146     		mov	r1, r2
 344 0092 1846     		mov	r0, r3
 345 0094 FFF7FEFF 		bl	writeInt
 123:c:/Users/lenovo/Desktop/AIoT/first_day/firstday_afternoon/LiteOS_Lab_STM32_IoT/iot_link/network/mqtt/paho_mqtt/paho/MQTTPacket/src\MQTTSerializePublish.c **** 	rc = ptr - buf;
 346              		.loc 1 123 11
 347 0098 7A69     		ldr	r2, [r7, #20]
 348              		.loc 1 123 5
 349 009a FB68     		ldr	r3, [r7, #12]
 350 009c D31A     		subs	r3, r2, r3
 351 009e FB61     		str	r3, [r7, #28]
 352              	.L11:
 124:c:/Users/lenovo/Desktop/AIoT/first_day/firstday_afternoon/LiteOS_Lab_STM32_IoT/iot_link/network/mqtt/paho_mqtt/paho/MQTTPacket/src\MQTTSerializePublish.c **** exit:
 125:c:/Users/lenovo/Desktop/AIoT/first_day/firstday_afternoon/LiteOS_Lab_STM32_IoT/iot_link/network/mqtt/paho_mqtt/paho/MQTTPacket/src\MQTTSerializePublish.c **** 	FUNC_EXIT_RC(rc);
 126:c:/Users/lenovo/Desktop/AIoT/first_day/firstday_afternoon/LiteOS_Lab_STM32_IoT/iot_link/network/mqtt/paho_mqtt/paho/MQTTPacket/src\MQTTSerializePublish.c **** 	return rc;
 353              		.loc 1 126 9
 354 00a0 FB69     		ldr	r3, [r7, #28]
 127:c:/Users/lenovo/Desktop/AIoT/first_day/firstday_afternoon/LiteOS_Lab_STM32_IoT/iot_link/network/mqtt/paho_mqtt/paho/MQTTPacket/src\MQTTSerializePublish.c **** }
 355              		.loc 1 127 1
 356 00a2 1846     		mov	r0, r3
 357 00a4 2037     		adds	r7, r7, #32
 358              	.LCFI13:
 359              		.cfi_def_cfa_offset 8
 360 00a6 BD46     		mov	sp, r7
 361              	.LCFI14:
 362              		.cfi_def_cfa_register 13
 363              		@ sp needed
 364 00a8 80BD     		pop	{r7, pc}
 365              		.cfi_endproc
 366              	.LFE5:
 368              		.section	.text.MQTTSerialize_puback,"ax",%progbits
 369              		.align	1
 370              		.global	MQTTSerialize_puback
 371              		.syntax unified
 372              		.thumb
 373              		.thumb_func
 374              		.fpu fpv4-sp-d16
 376              	MQTTSerialize_puback:
 377              	.LFB6:
 128:c:/Users/lenovo/Desktop/AIoT/first_day/firstday_afternoon/LiteOS_Lab_STM32_IoT/iot_link/network/mqtt/paho_mqtt/paho/MQTTPacket/src\MQTTSerializePublish.c **** 
 129:c:/Users/lenovo/Desktop/AIoT/first_day/firstday_afternoon/LiteOS_Lab_STM32_IoT/iot_link/network/mqtt/paho_mqtt/paho/MQTTPacket/src\MQTTSerializePublish.c **** 
 130:c:/Users/lenovo/Desktop/AIoT/first_day/firstday_afternoon/LiteOS_Lab_STM32_IoT/iot_link/network/mqtt/paho_mqtt/paho/MQTTPacket/src\MQTTSerializePublish.c **** /**
 131:c:/Users/lenovo/Desktop/AIoT/first_day/firstday_afternoon/LiteOS_Lab_STM32_IoT/iot_link/network/mqtt/paho_mqtt/paho/MQTTPacket/src\MQTTSerializePublish.c ****   * Serializes a puback packet into the supplied buffer.
 132:c:/Users/lenovo/Desktop/AIoT/first_day/firstday_afternoon/LiteOS_Lab_STM32_IoT/iot_link/network/mqtt/paho_mqtt/paho/MQTTPacket/src\MQTTSerializePublish.c ****   * @param buf the buffer into which the packet will be serialized
 133:c:/Users/lenovo/Desktop/AIoT/first_day/firstday_afternoon/LiteOS_Lab_STM32_IoT/iot_link/network/mqtt/paho_mqtt/paho/MQTTPacket/src\MQTTSerializePublish.c ****   * @param buflen the length in bytes of the supplied buffer
 134:c:/Users/lenovo/Desktop/AIoT/first_day/firstday_afternoon/LiteOS_Lab_STM32_IoT/iot_link/network/mqtt/paho_mqtt/paho/MQTTPacket/src\MQTTSerializePublish.c ****   * @param packetid integer - the MQTT packet identifier
 135:c:/Users/lenovo/Desktop/AIoT/first_day/firstday_afternoon/LiteOS_Lab_STM32_IoT/iot_link/network/mqtt/paho_mqtt/paho/MQTTPacket/src\MQTTSerializePublish.c ****   * @return serialized length, or error if 0
 136:c:/Users/lenovo/Desktop/AIoT/first_day/firstday_afternoon/LiteOS_Lab_STM32_IoT/iot_link/network/mqtt/paho_mqtt/paho/MQTTPacket/src\MQTTSerializePublish.c ****   */
 137:c:/Users/lenovo/Desktop/AIoT/first_day/firstday_afternoon/LiteOS_Lab_STM32_IoT/iot_link/network/mqtt/paho_mqtt/paho/MQTTPacket/src\MQTTSerializePublish.c **** int MQTTSerialize_puback(unsigned char* buf, int buflen, unsigned short packetid)
 138:c:/Users/lenovo/Desktop/AIoT/first_day/firstday_afternoon/LiteOS_Lab_STM32_IoT/iot_link/network/mqtt/paho_mqtt/paho/MQTTPacket/src\MQTTSerializePublish.c **** {
 378              		.loc 1 138 1
 379              		.cfi_startproc
 380              		@ args = 0, pretend = 0, frame = 16
 381              		@ frame_needed = 1, uses_anonymous_args = 0
 382 0000 80B5     		push	{r7, lr}
ARM GAS  C:\Users\lenovo\AppData\Local\Temp\ccn5flpb.s 			page 10


 383              	.LCFI15:
 384              		.cfi_def_cfa_offset 8
 385              		.cfi_offset 7, -8
 386              		.cfi_offset 14, -4
 387 0002 86B0     		sub	sp, sp, #24
 388              	.LCFI16:
 389              		.cfi_def_cfa_offset 32
 390 0004 02AF     		add	r7, sp, #8
 391              	.LCFI17:
 392              		.cfi_def_cfa 7, 24
 393 0006 F860     		str	r0, [r7, #12]
 394 0008 B960     		str	r1, [r7, #8]
 395 000a 1346     		mov	r3, r2
 396 000c FB80     		strh	r3, [r7, #6]	@ movhi
 139:c:/Users/lenovo/Desktop/AIoT/first_day/firstday_afternoon/LiteOS_Lab_STM32_IoT/iot_link/network/mqtt/paho_mqtt/paho/MQTTPacket/src\MQTTSerializePublish.c **** 	return MQTTSerialize_ack(buf, buflen, PUBACK, 0, packetid);
 397              		.loc 1 139 9
 398 000e FB88     		ldrh	r3, [r7, #6]
 399 0010 0093     		str	r3, [sp]
 400 0012 0023     		movs	r3, #0
 401 0014 0422     		movs	r2, #4
 402 0016 B968     		ldr	r1, [r7, #8]
 403 0018 F868     		ldr	r0, [r7, #12]
 404 001a FFF7FEFF 		bl	MQTTSerialize_ack
 405 001e 0346     		mov	r3, r0
 140:c:/Users/lenovo/Desktop/AIoT/first_day/firstday_afternoon/LiteOS_Lab_STM32_IoT/iot_link/network/mqtt/paho_mqtt/paho/MQTTPacket/src\MQTTSerializePublish.c **** }
 406              		.loc 1 140 1
 407 0020 1846     		mov	r0, r3
 408 0022 1037     		adds	r7, r7, #16
 409              	.LCFI18:
 410              		.cfi_def_cfa_offset 8
 411 0024 BD46     		mov	sp, r7
 412              	.LCFI19:
 413              		.cfi_def_cfa_register 13
 414              		@ sp needed
 415 0026 80BD     		pop	{r7, pc}
 416              		.cfi_endproc
 417              	.LFE6:
 419              		.section	.text.MQTTSerialize_pubrel,"ax",%progbits
 420              		.align	1
 421              		.global	MQTTSerialize_pubrel
 422              		.syntax unified
 423              		.thumb
 424              		.thumb_func
 425              		.fpu fpv4-sp-d16
 427              	MQTTSerialize_pubrel:
 428              	.LFB7:
 141:c:/Users/lenovo/Desktop/AIoT/first_day/firstday_afternoon/LiteOS_Lab_STM32_IoT/iot_link/network/mqtt/paho_mqtt/paho/MQTTPacket/src\MQTTSerializePublish.c **** 
 142:c:/Users/lenovo/Desktop/AIoT/first_day/firstday_afternoon/LiteOS_Lab_STM32_IoT/iot_link/network/mqtt/paho_mqtt/paho/MQTTPacket/src\MQTTSerializePublish.c **** 
 143:c:/Users/lenovo/Desktop/AIoT/first_day/firstday_afternoon/LiteOS_Lab_STM32_IoT/iot_link/network/mqtt/paho_mqtt/paho/MQTTPacket/src\MQTTSerializePublish.c **** /**
 144:c:/Users/lenovo/Desktop/AIoT/first_day/firstday_afternoon/LiteOS_Lab_STM32_IoT/iot_link/network/mqtt/paho_mqtt/paho/MQTTPacket/src\MQTTSerializePublish.c ****   * Serializes a pubrel packet into the supplied buffer.
 145:c:/Users/lenovo/Desktop/AIoT/first_day/firstday_afternoon/LiteOS_Lab_STM32_IoT/iot_link/network/mqtt/paho_mqtt/paho/MQTTPacket/src\MQTTSerializePublish.c ****   * @param buf the buffer into which the packet will be serialized
 146:c:/Users/lenovo/Desktop/AIoT/first_day/firstday_afternoon/LiteOS_Lab_STM32_IoT/iot_link/network/mqtt/paho_mqtt/paho/MQTTPacket/src\MQTTSerializePublish.c ****   * @param buflen the length in bytes of the supplied buffer
 147:c:/Users/lenovo/Desktop/AIoT/first_day/firstday_afternoon/LiteOS_Lab_STM32_IoT/iot_link/network/mqtt/paho_mqtt/paho/MQTTPacket/src\MQTTSerializePublish.c ****   * @param dup integer - the MQTT dup flag
 148:c:/Users/lenovo/Desktop/AIoT/first_day/firstday_afternoon/LiteOS_Lab_STM32_IoT/iot_link/network/mqtt/paho_mqtt/paho/MQTTPacket/src\MQTTSerializePublish.c ****   * @param packetid integer - the MQTT packet identifier
 149:c:/Users/lenovo/Desktop/AIoT/first_day/firstday_afternoon/LiteOS_Lab_STM32_IoT/iot_link/network/mqtt/paho_mqtt/paho/MQTTPacket/src\MQTTSerializePublish.c ****   * @return serialized length, or error if 0
 150:c:/Users/lenovo/Desktop/AIoT/first_day/firstday_afternoon/LiteOS_Lab_STM32_IoT/iot_link/network/mqtt/paho_mqtt/paho/MQTTPacket/src\MQTTSerializePublish.c ****   */
 151:c:/Users/lenovo/Desktop/AIoT/first_day/firstday_afternoon/LiteOS_Lab_STM32_IoT/iot_link/network/mqtt/paho_mqtt/paho/MQTTPacket/src\MQTTSerializePublish.c **** int MQTTSerialize_pubrel(unsigned char* buf, int buflen, unsigned char dup, unsigned short packetid
ARM GAS  C:\Users\lenovo\AppData\Local\Temp\ccn5flpb.s 			page 11


 152:c:/Users/lenovo/Desktop/AIoT/first_day/firstday_afternoon/LiteOS_Lab_STM32_IoT/iot_link/network/mqtt/paho_mqtt/paho/MQTTPacket/src\MQTTSerializePublish.c **** {
 429              		.loc 1 152 1
 430              		.cfi_startproc
 431              		@ args = 0, pretend = 0, frame = 16
 432              		@ frame_needed = 1, uses_anonymous_args = 0
 433 0000 80B5     		push	{r7, lr}
 434              	.LCFI20:
 435              		.cfi_def_cfa_offset 8
 436              		.cfi_offset 7, -8
 437              		.cfi_offset 14, -4
 438 0002 86B0     		sub	sp, sp, #24
 439              	.LCFI21:
 440              		.cfi_def_cfa_offset 32
 441 0004 02AF     		add	r7, sp, #8
 442              	.LCFI22:
 443              		.cfi_def_cfa 7, 24
 444 0006 F860     		str	r0, [r7, #12]
 445 0008 B960     		str	r1, [r7, #8]
 446 000a 1146     		mov	r1, r2
 447 000c 1A46     		mov	r2, r3
 448 000e 0B46     		mov	r3, r1
 449 0010 FB71     		strb	r3, [r7, #7]
 450 0012 1346     		mov	r3, r2	@ movhi
 451 0014 BB80     		strh	r3, [r7, #4]	@ movhi
 153:c:/Users/lenovo/Desktop/AIoT/first_day/firstday_afternoon/LiteOS_Lab_STM32_IoT/iot_link/network/mqtt/paho_mqtt/paho/MQTTPacket/src\MQTTSerializePublish.c **** 	return MQTTSerialize_ack(buf, buflen, PUBREL, dup, packetid);
 452              		.loc 1 153 9
 453 0016 FA79     		ldrb	r2, [r7, #7]	@ zero_extendqisi2
 454 0018 BB88     		ldrh	r3, [r7, #4]
 455 001a 0093     		str	r3, [sp]
 456 001c 1346     		mov	r3, r2
 457 001e 0622     		movs	r2, #6
 458 0020 B968     		ldr	r1, [r7, #8]
 459 0022 F868     		ldr	r0, [r7, #12]
 460 0024 FFF7FEFF 		bl	MQTTSerialize_ack
 461 0028 0346     		mov	r3, r0
 154:c:/Users/lenovo/Desktop/AIoT/first_day/firstday_afternoon/LiteOS_Lab_STM32_IoT/iot_link/network/mqtt/paho_mqtt/paho/MQTTPacket/src\MQTTSerializePublish.c **** }
 462              		.loc 1 154 1
 463 002a 1846     		mov	r0, r3
 464 002c 1037     		adds	r7, r7, #16
 465              	.LCFI23:
 466              		.cfi_def_cfa_offset 8
 467 002e BD46     		mov	sp, r7
 468              	.LCFI24:
 469              		.cfi_def_cfa_register 13
 470              		@ sp needed
 471 0030 80BD     		pop	{r7, pc}
 472              		.cfi_endproc
 473              	.LFE7:
 475              		.section	.text.MQTTSerialize_pubcomp,"ax",%progbits
 476              		.align	1
 477              		.global	MQTTSerialize_pubcomp
 478              		.syntax unified
 479              		.thumb
 480              		.thumb_func
 481              		.fpu fpv4-sp-d16
 483              	MQTTSerialize_pubcomp:
 484              	.LFB8:
ARM GAS  C:\Users\lenovo\AppData\Local\Temp\ccn5flpb.s 			page 12


 155:c:/Users/lenovo/Desktop/AIoT/first_day/firstday_afternoon/LiteOS_Lab_STM32_IoT/iot_link/network/mqtt/paho_mqtt/paho/MQTTPacket/src\MQTTSerializePublish.c **** 
 156:c:/Users/lenovo/Desktop/AIoT/first_day/firstday_afternoon/LiteOS_Lab_STM32_IoT/iot_link/network/mqtt/paho_mqtt/paho/MQTTPacket/src\MQTTSerializePublish.c **** 
 157:c:/Users/lenovo/Desktop/AIoT/first_day/firstday_afternoon/LiteOS_Lab_STM32_IoT/iot_link/network/mqtt/paho_mqtt/paho/MQTTPacket/src\MQTTSerializePublish.c **** /**
 158:c:/Users/lenovo/Desktop/AIoT/first_day/firstday_afternoon/LiteOS_Lab_STM32_IoT/iot_link/network/mqtt/paho_mqtt/paho/MQTTPacket/src\MQTTSerializePublish.c ****   * Serializes a pubrel packet into the supplied buffer.
 159:c:/Users/lenovo/Desktop/AIoT/first_day/firstday_afternoon/LiteOS_Lab_STM32_IoT/iot_link/network/mqtt/paho_mqtt/paho/MQTTPacket/src\MQTTSerializePublish.c ****   * @param buf the buffer into which the packet will be serialized
 160:c:/Users/lenovo/Desktop/AIoT/first_day/firstday_afternoon/LiteOS_Lab_STM32_IoT/iot_link/network/mqtt/paho_mqtt/paho/MQTTPacket/src\MQTTSerializePublish.c ****   * @param buflen the length in bytes of the supplied buffer
 161:c:/Users/lenovo/Desktop/AIoT/first_day/firstday_afternoon/LiteOS_Lab_STM32_IoT/iot_link/network/mqtt/paho_mqtt/paho/MQTTPacket/src\MQTTSerializePublish.c ****   * @param packetid integer - the MQTT packet identifier
 162:c:/Users/lenovo/Desktop/AIoT/first_day/firstday_afternoon/LiteOS_Lab_STM32_IoT/iot_link/network/mqtt/paho_mqtt/paho/MQTTPacket/src\MQTTSerializePublish.c ****   * @return serialized length, or error if 0
 163:c:/Users/lenovo/Desktop/AIoT/first_day/firstday_afternoon/LiteOS_Lab_STM32_IoT/iot_link/network/mqtt/paho_mqtt/paho/MQTTPacket/src\MQTTSerializePublish.c ****   */
 164:c:/Users/lenovo/Desktop/AIoT/first_day/firstday_afternoon/LiteOS_Lab_STM32_IoT/iot_link/network/mqtt/paho_mqtt/paho/MQTTPacket/src\MQTTSerializePublish.c **** int MQTTSerialize_pubcomp(unsigned char* buf, int buflen, unsigned short packetid)
 165:c:/Users/lenovo/Desktop/AIoT/first_day/firstday_afternoon/LiteOS_Lab_STM32_IoT/iot_link/network/mqtt/paho_mqtt/paho/MQTTPacket/src\MQTTSerializePublish.c **** {
 485              		.loc 1 165 1
 486              		.cfi_startproc
 487              		@ args = 0, pretend = 0, frame = 16
 488              		@ frame_needed = 1, uses_anonymous_args = 0
 489 0000 80B5     		push	{r7, lr}
 490              	.LCFI25:
 491              		.cfi_def_cfa_offset 8
 492              		.cfi_offset 7, -8
 493              		.cfi_offset 14, -4
 494 0002 86B0     		sub	sp, sp, #24
 495              	.LCFI26:
 496              		.cfi_def_cfa_offset 32
 497 0004 02AF     		add	r7, sp, #8
 498              	.LCFI27:
 499              		.cfi_def_cfa 7, 24
 500 0006 F860     		str	r0, [r7, #12]
 501 0008 B960     		str	r1, [r7, #8]
 502 000a 1346     		mov	r3, r2
 503 000c FB80     		strh	r3, [r7, #6]	@ movhi
 166:c:/Users/lenovo/Desktop/AIoT/first_day/firstday_afternoon/LiteOS_Lab_STM32_IoT/iot_link/network/mqtt/paho_mqtt/paho/MQTTPacket/src\MQTTSerializePublish.c **** 	return MQTTSerialize_ack(buf, buflen, PUBCOMP, 0, packetid);
 504              		.loc 1 166 9
 505 000e FB88     		ldrh	r3, [r7, #6]
 506 0010 0093     		str	r3, [sp]
 507 0012 0023     		movs	r3, #0
 508 0014 0722     		movs	r2, #7
 509 0016 B968     		ldr	r1, [r7, #8]
 510 0018 F868     		ldr	r0, [r7, #12]
 511 001a FFF7FEFF 		bl	MQTTSerialize_ack
 512 001e 0346     		mov	r3, r0
 167:c:/Users/lenovo/Desktop/AIoT/first_day/firstday_afternoon/LiteOS_Lab_STM32_IoT/iot_link/network/mqtt/paho_mqtt/paho/MQTTPacket/src\MQTTSerializePublish.c **** }
 513              		.loc 1 167 1
 514 0020 1846     		mov	r0, r3
 515 0022 1037     		adds	r7, r7, #16
 516              	.LCFI28:
 517              		.cfi_def_cfa_offset 8
 518 0024 BD46     		mov	sp, r7
 519              	.LCFI29:
 520              		.cfi_def_cfa_register 13
 521              		@ sp needed
 522 0026 80BD     		pop	{r7, pc}
 523              		.cfi_endproc
 524              	.LFE8:
 526              		.text
 527              	.Letext0:
 528              		.file 2 "c:/Users/lenovo/Desktop/AIoT/first_day/firstday_afternoon/LiteOS_Lab_STM32_IoT/iot_link/n
 529              		.file 3 "c:\\users\\lenovo\\.iotlink\\tools\\gcc-arm-none-eabi\\arm-none-eabi\\include\\sys\\lock.
ARM GAS  C:\Users\lenovo\AppData\Local\Temp\ccn5flpb.s 			page 13


 530              		.file 4 "c:\\users\\lenovo\\.iotlink\\tools\\gcc-arm-none-eabi\\arm-none-eabi\\include\\sys\\_type
 531              		.file 5 "c:\\users\\lenovo\\.iotlink\\tools\\gcc-arm-none-eabi\\lib\\gcc\\arm-none-eabi\\9.2.1\\in
 532              		.file 6 "c:\\users\\lenovo\\.iotlink\\tools\\gcc-arm-none-eabi\\arm-none-eabi\\include\\sys\\reent
ARM GAS  C:\Users\lenovo\AppData\Local\Temp\ccn5flpb.s 			page 14

