ARM GAS  C:\Users\lenovo\AppData\Local\Temp\cceHxmqh.s 			page 1


   1              		.cpu cortex-m4
   2              		.eabi_attribute 27, 1
   3              		.eabi_attribute 28, 1
   4              		.eabi_attribute 20, 1
   5              		.eabi_attribute 21, 1
   6              		.eabi_attribute 23, 3
   7              		.eabi_attribute 24, 1
   8              		.eabi_attribute 25, 1
   9              		.eabi_attribute 26, 1
  10              		.eabi_attribute 30, 6
  11              		.eabi_attribute 34, 1
  12              		.eabi_attribute 18, 4
  13              		.file	"oc_mqtt_tiny.c"
  14              		.text
  15              	.Ltext0:
  16              		.cfi_sections	.debug_frame
  17              		.section	.rodata.s_oc_mqtt_ca_crt,"a"
  18              		.align	2
  21              	s_oc_mqtt_ca_crt:
  22 0000 202D2D2D 		.ascii	" -----BEGIN CERTIFICATE-----\015\012MIIDrzCCApegAwI"
  22      2D2D4245 
  22      47494E20 
  22      43455254 
  22      49464943 
  23 002d 42416749 		.ascii	"BAgIQCDvgVpBCRrGhdWrJWZHHSjANBgkqhkiG9w0BAQUFADBh\015"
  23      51434476 
  23      67567042 
  23      43527247 
  23      68645772 
  24 005f 0A4D5173 		.ascii	"\012MQswCQYDVQQGEwJVUzEVMBMGA1UEChMMRGlnaUNlcnQgSW5"
  24      77435159 
  24      44565151 
  24      4745774A 
  24      56557A45 
  25 008f 6A4D526B 		.ascii	"jMRkwFwYDVQQLExB3\015\012d3cuZGlnaWNlcnQuY29tMSAwHg"
  25      77467759 
  25      44565151 
  25      4C457842 
  25      330D0A64 
  26 00bc 59445651 		.ascii	"YDVQQDExdEaWdpQ2VydCBHbG9iYWwgUm9vdCBD\015\012QTAeF"
  26      51444578 
  26      64456157 
  26      64705132 
  26      56796443 
  27 00e9 7730774E 		.ascii	"w0wNjExMTAwMDAwMDBaFw0zMTExMTAwMDAwMDBaMGExCzAJBgNV"
  27      6A45784D 
  27      5441774D 
  27      4441774D 
  27      44426146 
  28 011c 42415954 		.ascii	"BAYTAlVT\015\012MRUwEwYDVQQKEwxEaWdpQ2VydCBJbmMxGTA"
  28      416C5654 
  28      0D0A4D52 
  28      55774577 
  28      59445651 
  29 0149 5842674E 		.ascii	"XBgNVBAsTEHd3dy5kaWdpY2VydC5j\015\012b20xIDAeBgNVBA"
  29      56424173 
  29      54454864 
ARM GAS  C:\Users\lenovo\AppData\Local\Temp\cceHxmqh.s 			page 2


  29      33647935 
  29      6B615764 
  30 0176 4D544630 		.ascii	"MTF0RpZ2lDZXJ0IEdsb2JhbCBSb290IENBMIIBIjANBgkqhkiG\015"
  30      52705A32 
  30      6C445A58 
  30      4A304945 
  30      64736232 
  31 01a9 0A397730 		.ascii	"\0129w0BAQEFAAOCAQ8AMIIBCgKCAQEA4jvhEXLeqKTTo1eqUKK"
  31      42415145 
  31      4641414F 
  31      43415138 
  31      414D4949 
  32 01d9 50433365 		.ascii	"PC3eQyaKl7hLOllsB\015\012CSDMAZOnTjC3U/dDxGkAV53ijS"
  32      5179614B 
  32      6C37684C 
  32      4F6C6C73 
  32      420D0A43 
  33 0206 4C646877 		.ascii	"LdhwZAAIEJzs4bg7/fzTtxRuLWZscFs3YnFo97\015\012nh6Vf"
  33      5A414149 
  33      454A7A73 
  33      34626737 
  33      2F667A54 
  34 0233 65363353 		.ascii	"e63SKMI2tavegw5BmV/Sl0fvBf4q77uKNd0f3p4mVmFaG5cIzJL"
  34      4B4D4932 
  34      74617665 
  34      67773542 
  34      6D562F53 
  35 0266 76303741 		.ascii	"v07A6Fpt\015\01243C/dxC//AH2hdmoRBBYMql1GNXRor5H4id"
  35      36467074 
  35      0D0A3433 
  35      432F6478 
  35      432F2F41 
  36 0293 71394A6F 		.ascii	"q9Joz+EkIYIvUX7Q6hL+hqkpMfT7P\015\012T19sdl6gSzeRnt"
  36      7A2B456B 
  36      49594976 
  36      55583751 
  36      36684C2B 
  37 02c0 7769356D 		.ascii	"wi5m3OFBqOasv+zbMUZBfHWymeMr/y7vrTC0LUq7dBMtoM1O/4\015"
  37      334F4642 
  37      714F6173 
  37      762B7A62 
  37      4D555A42 
  38 02f3 0A676457 		.ascii	"\012gdW7jVg/tRvoSSiicNoxBN33shbyTApOB6jtSj1etX+jkMO"
  38      376A5667 
  38      2F745276 
  38      6F535369 
  38      69634E6F 
  39 0323 764A7749 		.ascii	"vJwIDAQABo2MwYTAO\015\012BgNVHQ8BAf8EBAMCAYYwDwYDVR"
  39      44415141 
  39      426F324D 
  39      77595441 
  39      4F0D0A42 
  40 0350 30544151 		.ascii	"0TAQH/BAUwAwEB/zAdBgNVHQ4EFgQUA95QNVbR\015\012TLtm8"
  40      482F4241 
  40      55774177 
  40      45422F7A 
  40      41644267 
ARM GAS  C:\Users\lenovo\AppData\Local\Temp\cceHxmqh.s 			page 3


  41 037d 4B506947 		.ascii	"KPiGxvDl7I90VUwHwYDVR0jBBgwFoAUA95QNVbRTLtm8KPiGxvD"
  41      7876446C 
  41      37493930 
  41      56557748 
  41      77594456 
  42 03b0 6C374939 		.ascii	"l7I90VUw\015\012DQYJKoZIhvcNAQEFBQADggEBAMucN6pIExI"
  42      30565577 
  42      0D0A4451 
  42      594A4B6F 
  42      5A496876 
  43 03dd 4B2B7431 		.ascii	"K+t1EnE9SsPTfrgT1eXkIoyQY/Esr\015\012hMAtudXH/vTBH1"
  43      456E4539 
  43      53735054 
  43      66726754 
  43      3165586B 
  44 040a 6A4C7547 		.ascii	"jLuG2cenTnmCmrEbXjcKChzUyImZOMkXDiqw8cvpOp/2PV5Adg\015"
  44      3263656E 
  44      546E6D43 
  44      6D724562 
  44      586A634B 
  45 043d 0A30364F 		.ascii	"\01206O/nVsJ8dWO41P0jmP6P6fbtGbfYmbW0W5BjfIttep3Sp+"
  45      2F6E5673 
  45      4A386457 
  45      4F343150 
  45      306A6D50 
  46 046d 64574F49 		.ascii	"dWOIrWcBAI+0tKIJF\015\012PnlUkiaY4IBIqDfv8NZ5YBberO"
  46      72576342 
  46      41492B30 
  46      744B494A 
  46      460D0A50 
  47 049a 674F7A57 		.ascii	"gOzW6sRBc4L0na4UU+Krk2U886UAb3LujEV0ls\015\012YSEY1"
  47      36735242 
  47      63344C30 
  47      6E613455 
  47      552B4B72 
  48 04c7 51537465 		.ascii	"QSteDwsOoBrp+uvFRTp2InBuThs4pFsiv9kuXclVzDAGySj4dzp"
  48      4477734F 
  48      6F427270 
  48      2B757646 
  48      52547032 
  49 04fa 33306438 		.ascii	"30d8tbQk\015\012CAUw7C29C79Fv1C5qfPrmAESrciIxpg0X40"
  49      7462516B 
  49      0D0A4341 
  49      55773743 
  49      32394337 
  50 0527 4B504D62 		.ascii	"KPMbp1ZWVbd4=\015\012-----END CERTIFICATE-----\015\012"
  50      70315A57 
  50      56626434 
  50      3D0D0A2D 
  50      2D2D2D2D 
  51 0551 00       		.ascii	"\000"
  52              		.global	s_new_topic_fmt
  53              		.section	.rodata
  54              		.align	2
  55              	.LC0:
  56 0000 246F632F 		.ascii	"$oc/devices/%s/sys/commands/#\000"
  56      64657669 
ARM GAS  C:\Users\lenovo\AppData\Local\Temp\cceHxmqh.s 			page 4


  56      6365732F 
  56      25732F73 
  56      79732F63 
  57 001e 0000     		.align	2
  58              	.LC1:
  59 0020 246F632F 		.ascii	"$oc/devices/%s/sys/properties/set/#\000"
  59      64657669 
  59      6365732F 
  59      25732F73 
  59      79732F70 
  60              		.align	2
  61              	.LC2:
  62 0044 246F632F 		.ascii	"$oc/devices/%s/sys/properties/get/#\000"
  62      64657669 
  62      6365732F 
  62      25732F73 
  62      79732F70 
  63              		.align	2
  64              	.LC3:
  65 0068 246F632F 		.ascii	"$oc/devices/%s/sys/shadow/get/response/#\000"
  65      64657669 
  65      6365732F 
  65      25732F73 
  65      79732F73 
  66 0091 000000   		.align	2
  67              	.LC4:
  68 0094 246F632F 		.ascii	"$oc/devices/%s/sys/events/down\000"
  68      64657669 
  68      6365732F 
  68      25732F73 
  68      79732F65 
  69              		.section	.data.s_new_topic_fmt,"aw"
  70              		.align	2
  73              	s_new_topic_fmt:
  74 0000 00000000 		.word	.LC0
  75 0004 20000000 		.word	.LC1
  76 0008 44000000 		.word	.LC2
  77 000c 68000000 		.word	.LC3
  78 0010 94000000 		.word	.LC4
  79              		.section	.bss.s_oc_mqtt_tiny_cb,"aw",%nobits
  80              		.align	2
  83              	s_oc_mqtt_tiny_cb:
  84 0000 00000000 		.space	4
  85              		.section	.rodata
  86 00b3 00       		.align	2
  87              	.LC5:
  88 00b4 636D6400 		.ascii	"cmd\000"
  89              		.align	2
  90              	.LC6:
  91 00b8 73657276 		.ascii	"serviceid\000"
  91      69636569 
  91      6400
  92 00c2 0000     		.align	2
  93              	.LC7:
  94 00c4 426F6F74 		.ascii	"BootstrapRequestTrigger\000"
  94      73747261 
  94      70526571 
ARM GAS  C:\Users\lenovo\AppData\Local\Temp\cceHxmqh.s 			page 5


  94      75657374 
  94      54726967 
  95              		.align	2
  96              	.LC8:
  97 00dc 494F5448 		.ascii	"IOTHUB.BS\000"
  97      55422E42 
  97      5300
  98              		.section	.text.hub_msg_default_deal,"ax",%progbits
  99              		.align	1
 100              		.arch armv7e-m
 101              		.syntax unified
 102              		.thumb
 103              		.thumb_func
 104              		.fpu fpv4-sp-d16
 106              	hub_msg_default_deal:
 107              	.LFB3:
 108              		.file 1 "c:/Users/lenovo/Desktop/AIoT/first_day/firstday_afternoon/LiteOS_Lab_STM32_IoT/iot_link/o
   1:c:/Users/lenovo/Desktop/AIoT/first_day/firstday_afternoon/LiteOS_Lab_STM32_IoT/iot_link/oc/oc_mqtt/oc_mqtt_tiny_v5\oc_mqtt_tiny.c **** /*----------------------------------------------------------------------------
   2:c:/Users/lenovo/Desktop/AIoT/first_day/firstday_afternoon/LiteOS_Lab_STM32_IoT/iot_link/oc/oc_mqtt/oc_mqtt_tiny_v5\oc_mqtt_tiny.c ****  * Copyright (c) <2018>, <Huawei Technologies Co., Ltd>
   3:c:/Users/lenovo/Desktop/AIoT/first_day/firstday_afternoon/LiteOS_Lab_STM32_IoT/iot_link/oc/oc_mqtt/oc_mqtt_tiny_v5\oc_mqtt_tiny.c ****  * All rights reserved.
   4:c:/Users/lenovo/Desktop/AIoT/first_day/firstday_afternoon/LiteOS_Lab_STM32_IoT/iot_link/oc/oc_mqtt/oc_mqtt_tiny_v5\oc_mqtt_tiny.c ****  * Redistribution and use in source and binary forms, with or without modification,
   5:c:/Users/lenovo/Desktop/AIoT/first_day/firstday_afternoon/LiteOS_Lab_STM32_IoT/iot_link/oc/oc_mqtt/oc_mqtt_tiny_v5\oc_mqtt_tiny.c ****  * are permitted provided that the following conditions are met:
   6:c:/Users/lenovo/Desktop/AIoT/first_day/firstday_afternoon/LiteOS_Lab_STM32_IoT/iot_link/oc/oc_mqtt/oc_mqtt_tiny_v5\oc_mqtt_tiny.c ****  * 1. Redistributions of source code must retain the above copyright notice, this list of
   7:c:/Users/lenovo/Desktop/AIoT/first_day/firstday_afternoon/LiteOS_Lab_STM32_IoT/iot_link/oc/oc_mqtt/oc_mqtt_tiny_v5\oc_mqtt_tiny.c ****  * conditions and the following disclaimer.
   8:c:/Users/lenovo/Desktop/AIoT/first_day/firstday_afternoon/LiteOS_Lab_STM32_IoT/iot_link/oc/oc_mqtt/oc_mqtt_tiny_v5\oc_mqtt_tiny.c ****  * 2. Redistributions in binary form must reproduce the above copyright notice, this list
   9:c:/Users/lenovo/Desktop/AIoT/first_day/firstday_afternoon/LiteOS_Lab_STM32_IoT/iot_link/oc/oc_mqtt/oc_mqtt_tiny_v5\oc_mqtt_tiny.c ****  * of conditions and the following disclaimer in the documentation and/or other materials
  10:c:/Users/lenovo/Desktop/AIoT/first_day/firstday_afternoon/LiteOS_Lab_STM32_IoT/iot_link/oc/oc_mqtt/oc_mqtt_tiny_v5\oc_mqtt_tiny.c ****  * provided with the distribution.
  11:c:/Users/lenovo/Desktop/AIoT/first_day/firstday_afternoon/LiteOS_Lab_STM32_IoT/iot_link/oc/oc_mqtt/oc_mqtt_tiny_v5\oc_mqtt_tiny.c ****  * 3. Neither the name of the copyright holder nor the names of its contributors may be used
  12:c:/Users/lenovo/Desktop/AIoT/first_day/firstday_afternoon/LiteOS_Lab_STM32_IoT/iot_link/oc/oc_mqtt/oc_mqtt_tiny_v5\oc_mqtt_tiny.c ****  * to endorse or promote products derived from this software without specific prior written
  13:c:/Users/lenovo/Desktop/AIoT/first_day/firstday_afternoon/LiteOS_Lab_STM32_IoT/iot_link/oc/oc_mqtt/oc_mqtt_tiny_v5\oc_mqtt_tiny.c ****  * permission.
  14:c:/Users/lenovo/Desktop/AIoT/first_day/firstday_afternoon/LiteOS_Lab_STM32_IoT/iot_link/oc/oc_mqtt/oc_mqtt_tiny_v5\oc_mqtt_tiny.c ****  * THIS SOFTWARE IS PROVIDED BY THE COPYRIGHT HOLDERS AND CONTRIBUTORS
  15:c:/Users/lenovo/Desktop/AIoT/first_day/firstday_afternoon/LiteOS_Lab_STM32_IoT/iot_link/oc/oc_mqtt/oc_mqtt_tiny_v5\oc_mqtt_tiny.c ****  * "AS IS" AND ANY EXPRESS OR IMPLIED WARRANTIES, INCLUDING, BUT NOT LIMITED TO,
  16:c:/Users/lenovo/Desktop/AIoT/first_day/firstday_afternoon/LiteOS_Lab_STM32_IoT/iot_link/oc/oc_mqtt/oc_mqtt_tiny_v5\oc_mqtt_tiny.c ****  * THE IMPLIED WARRANTIES OF MERCHANTABILITY AND FITNESS FOR A PARTICULAR
  17:c:/Users/lenovo/Desktop/AIoT/first_day/firstday_afternoon/LiteOS_Lab_STM32_IoT/iot_link/oc/oc_mqtt/oc_mqtt_tiny_v5\oc_mqtt_tiny.c ****  * PURPOSE ARE DISCLAIMED. IN NO EVENT SHALL THE COPYRIGHT HOLDER OR
  18:c:/Users/lenovo/Desktop/AIoT/first_day/firstday_afternoon/LiteOS_Lab_STM32_IoT/iot_link/oc/oc_mqtt/oc_mqtt_tiny_v5\oc_mqtt_tiny.c ****  * CONTRIBUTORS BE LIABLE FOR ANY DIRECT, INDIRECT, INCIDENTAL, SPECIAL,
  19:c:/Users/lenovo/Desktop/AIoT/first_day/firstday_afternoon/LiteOS_Lab_STM32_IoT/iot_link/oc/oc_mqtt/oc_mqtt_tiny_v5\oc_mqtt_tiny.c ****  * EXEMPLARY, OR CONSEQUENTIAL DAMAGES (INCLUDING, BUT NOT LIMITED TO,
  20:c:/Users/lenovo/Desktop/AIoT/first_day/firstday_afternoon/LiteOS_Lab_STM32_IoT/iot_link/oc/oc_mqtt/oc_mqtt_tiny_v5\oc_mqtt_tiny.c ****  * PROCUREMENT OF SUBSTITUTE GOODS OR SERVICES; LOSS OF USE, DATA, OR PROFITS;
  21:c:/Users/lenovo/Desktop/AIoT/first_day/firstday_afternoon/LiteOS_Lab_STM32_IoT/iot_link/oc/oc_mqtt/oc_mqtt_tiny_v5\oc_mqtt_tiny.c ****  * OR BUSINESS INTERRUPTION) HOWEVER CAUSED AND ON ANY THEORY OF LIABILITY,
  22:c:/Users/lenovo/Desktop/AIoT/first_day/firstday_afternoon/LiteOS_Lab_STM32_IoT/iot_link/oc/oc_mqtt/oc_mqtt_tiny_v5\oc_mqtt_tiny.c ****  * WHETHER IN CONTRACT, STRICT LIABILITY, OR TORT (INCLUDING NEGLIGENCE OR
  23:c:/Users/lenovo/Desktop/AIoT/first_day/firstday_afternoon/LiteOS_Lab_STM32_IoT/iot_link/oc/oc_mqtt/oc_mqtt_tiny_v5\oc_mqtt_tiny.c ****  * OTHERWISE) ARISING IN ANY WAY OUT OF THE USE OF THIS SOFTWARE, EVEN IF
  24:c:/Users/lenovo/Desktop/AIoT/first_day/firstday_afternoon/LiteOS_Lab_STM32_IoT/iot_link/oc/oc_mqtt/oc_mqtt_tiny_v5\oc_mqtt_tiny.c ****  * ADVISED OF THE POSSIBILITY OF SUCH DAMAGE.
  25:c:/Users/lenovo/Desktop/AIoT/first_day/firstday_afternoon/LiteOS_Lab_STM32_IoT/iot_link/oc/oc_mqtt/oc_mqtt_tiny_v5\oc_mqtt_tiny.c ****  *---------------------------------------------------------------------------*/
  26:c:/Users/lenovo/Desktop/AIoT/first_day/firstday_afternoon/LiteOS_Lab_STM32_IoT/iot_link/oc/oc_mqtt/oc_mqtt_tiny_v5\oc_mqtt_tiny.c **** /*----------------------------------------------------------------------------
  27:c:/Users/lenovo/Desktop/AIoT/first_day/firstday_afternoon/LiteOS_Lab_STM32_IoT/iot_link/oc/oc_mqtt/oc_mqtt_tiny_v5\oc_mqtt_tiny.c ****  * Notice of Export Control Law
  28:c:/Users/lenovo/Desktop/AIoT/first_day/firstday_afternoon/LiteOS_Lab_STM32_IoT/iot_link/oc/oc_mqtt/oc_mqtt_tiny_v5\oc_mqtt_tiny.c ****  * ===============================================
  29:c:/Users/lenovo/Desktop/AIoT/first_day/firstday_afternoon/LiteOS_Lab_STM32_IoT/iot_link/oc/oc_mqtt/oc_mqtt_tiny_v5\oc_mqtt_tiny.c ****  * Huawei LiteOS may be subject to applicable export control laws and regulations, which might
  30:c:/Users/lenovo/Desktop/AIoT/first_day/firstday_afternoon/LiteOS_Lab_STM32_IoT/iot_link/oc/oc_mqtt/oc_mqtt_tiny_v5\oc_mqtt_tiny.c ****  * include those applicable to Huawei LiteOS of U.S. and the country in which you are located.
  31:c:/Users/lenovo/Desktop/AIoT/first_day/firstday_afternoon/LiteOS_Lab_STM32_IoT/iot_link/oc/oc_mqtt/oc_mqtt_tiny_v5\oc_mqtt_tiny.c ****  * Import, export and usage of Huawei LiteOS in any manner by you shall be in compliance with such
  32:c:/Users/lenovo/Desktop/AIoT/first_day/firstday_afternoon/LiteOS_Lab_STM32_IoT/iot_link/oc/oc_mqtt/oc_mqtt_tiny_v5\oc_mqtt_tiny.c ****  * applicable export control laws and regulations.
  33:c:/Users/lenovo/Desktop/AIoT/first_day/firstday_afternoon/LiteOS_Lab_STM32_IoT/iot_link/oc/oc_mqtt/oc_mqtt_tiny_v5\oc_mqtt_tiny.c ****  *---------------------------------------------------------------------------*/
  34:c:/Users/lenovo/Desktop/AIoT/first_day/firstday_afternoon/LiteOS_Lab_STM32_IoT/iot_link/oc/oc_mqtt/oc_mqtt_tiny_v5\oc_mqtt_tiny.c **** /**
  35:c:/Users/lenovo/Desktop/AIoT/first_day/firstday_afternoon/LiteOS_Lab_STM32_IoT/iot_link/oc/oc_mqtt/oc_mqtt_tiny_v5\oc_mqtt_tiny.c ****  *  DATE                AUTHOR      INSTRUCTION
  36:c:/Users/lenovo/Desktop/AIoT/first_day/firstday_afternoon/LiteOS_Lab_STM32_IoT/iot_link/oc/oc_mqtt/oc_mqtt_tiny_v5\oc_mqtt_tiny.c ****  *  2019-11-10 22:42  zhangqianfu  The first version
  37:c:/Users/lenovo/Desktop/AIoT/first_day/firstday_afternoon/LiteOS_Lab_STM32_IoT/iot_link/oc/oc_mqtt/oc_mqtt_tiny_v5\oc_mqtt_tiny.c ****  *
  38:c:/Users/lenovo/Desktop/AIoT/first_day/firstday_afternoon/LiteOS_Lab_STM32_IoT/iot_link/oc/oc_mqtt/oc_mqtt_tiny_v5\oc_mqtt_tiny.c ****  *
  39:c:/Users/lenovo/Desktop/AIoT/first_day/firstday_afternoon/LiteOS_Lab_STM32_IoT/iot_link/oc/oc_mqtt/oc_mqtt_tiny_v5\oc_mqtt_tiny.c ****  *   *
  40:c:/Users/lenovo/Desktop/AIoT/first_day/firstday_afternoon/LiteOS_Lab_STM32_IoT/iot_link/oc/oc_mqtt/oc_mqtt_tiny_v5\oc_mqtt_tiny.c ****  *  1, only support CRT tls mode
ARM GAS  C:\Users\lenovo\AppData\Local\Temp\cceHxmqh.s 			page 6


  41:c:/Users/lenovo/Desktop/AIoT/first_day/firstday_afternoon/LiteOS_Lab_STM32_IoT/iot_link/oc/oc_mqtt/oc_mqtt_tiny_v5\oc_mqtt_tiny.c ****  *  2, the data encode only support the json mode
  42:c:/Users/lenovo/Desktop/AIoT/first_day/firstday_afternoon/LiteOS_Lab_STM32_IoT/iot_link/oc/oc_mqtt/oc_mqtt_tiny_v5\oc_mqtt_tiny.c ****  *  3, the passwd only support the no check time mode
  43:c:/Users/lenovo/Desktop/AIoT/first_day/firstday_afternoon/LiteOS_Lab_STM32_IoT/iot_link/oc/oc_mqtt/oc_mqtt_tiny_v5\oc_mqtt_tiny.c ****  *
  44:c:/Users/lenovo/Desktop/AIoT/first_day/firstday_afternoon/LiteOS_Lab_STM32_IoT/iot_link/oc/oc_mqtt/oc_mqtt_tiny_v5\oc_mqtt_tiny.c ****  */
  45:c:/Users/lenovo/Desktop/AIoT/first_day/firstday_afternoon/LiteOS_Lab_STM32_IoT/iot_link/oc/oc_mqtt/oc_mqtt_tiny_v5\oc_mqtt_tiny.c **** #include <stdint.h>
  46:c:/Users/lenovo/Desktop/AIoT/first_day/firstday_afternoon/LiteOS_Lab_STM32_IoT/iot_link/oc/oc_mqtt/oc_mqtt_tiny_v5\oc_mqtt_tiny.c **** #include <stddef.h>
  47:c:/Users/lenovo/Desktop/AIoT/first_day/firstday_afternoon/LiteOS_Lab_STM32_IoT/iot_link/oc/oc_mqtt/oc_mqtt_tiny_v5\oc_mqtt_tiny.c **** #include <stdlib.h>
  48:c:/Users/lenovo/Desktop/AIoT/first_day/firstday_afternoon/LiteOS_Lab_STM32_IoT/iot_link/oc/oc_mqtt/oc_mqtt_tiny_v5\oc_mqtt_tiny.c **** #include <string.h>
  49:c:/Users/lenovo/Desktop/AIoT/first_day/firstday_afternoon/LiteOS_Lab_STM32_IoT/iot_link/oc/oc_mqtt/oc_mqtt_tiny_v5\oc_mqtt_tiny.c **** #include <link_misc.h>
  50:c:/Users/lenovo/Desktop/AIoT/first_day/firstday_afternoon/LiteOS_Lab_STM32_IoT/iot_link/oc/oc_mqtt/oc_mqtt_tiny_v5\oc_mqtt_tiny.c **** #include <time.h>
  51:c:/Users/lenovo/Desktop/AIoT/first_day/firstday_afternoon/LiteOS_Lab_STM32_IoT/iot_link/oc/oc_mqtt/oc_mqtt_tiny_v5\oc_mqtt_tiny.c **** 
  52:c:/Users/lenovo/Desktop/AIoT/first_day/firstday_afternoon/LiteOS_Lab_STM32_IoT/iot_link/oc/oc_mqtt/oc_mqtt_tiny_v5\oc_mqtt_tiny.c **** #include <queue.h>
  53:c:/Users/lenovo/Desktop/AIoT/first_day/firstday_afternoon/LiteOS_Lab_STM32_IoT/iot_link/oc/oc_mqtt/oc_mqtt_tiny_v5\oc_mqtt_tiny.c **** #include <osal.h>
  54:c:/Users/lenovo/Desktop/AIoT/first_day/firstday_afternoon/LiteOS_Lab_STM32_IoT/iot_link/oc/oc_mqtt/oc_mqtt_tiny_v5\oc_mqtt_tiny.c **** #include <mqtt_al.h>
  55:c:/Users/lenovo/Desktop/AIoT/first_day/firstday_afternoon/LiteOS_Lab_STM32_IoT/iot_link/oc/oc_mqtt/oc_mqtt_tiny_v5\oc_mqtt_tiny.c **** #include <oc_mqtt_al.h>
  56:c:/Users/lenovo/Desktop/AIoT/first_day/firstday_afternoon/LiteOS_Lab_STM32_IoT/iot_link/oc/oc_mqtt/oc_mqtt_tiny_v5\oc_mqtt_tiny.c **** #include <sal.h>
  57:c:/Users/lenovo/Desktop/AIoT/first_day/firstday_afternoon/LiteOS_Lab_STM32_IoT/iot_link/oc/oc_mqtt/oc_mqtt_tiny_v5\oc_mqtt_tiny.c **** 
  58:c:/Users/lenovo/Desktop/AIoT/first_day/firstday_afternoon/LiteOS_Lab_STM32_IoT/iot_link/oc/oc_mqtt/oc_mqtt_tiny_v5\oc_mqtt_tiny.c **** #include <cJSON.h>           //json mode
  59:c:/Users/lenovo/Desktop/AIoT/first_day/firstday_afternoon/LiteOS_Lab_STM32_IoT/iot_link/oc/oc_mqtt/oc_mqtt_tiny_v5\oc_mqtt_tiny.c **** #include "hmac.h"            //used to generate the user passwd
  60:c:/Users/lenovo/Desktop/AIoT/first_day/firstday_afternoon/LiteOS_Lab_STM32_IoT/iot_link/oc/oc_mqtt/oc_mqtt_tiny_v5\oc_mqtt_tiny.c **** 
  61:c:/Users/lenovo/Desktop/AIoT/first_day/firstday_afternoon/LiteOS_Lab_STM32_IoT/iot_link/oc/oc_mqtt/oc_mqtt_tiny_v5\oc_mqtt_tiny.c **** ////CRT FOR THE OC
  62:c:/Users/lenovo/Desktop/AIoT/first_day/firstday_afternoon/LiteOS_Lab_STM32_IoT/iot_link/oc/oc_mqtt/oc_mqtt_tiny_v5\oc_mqtt_tiny.c **** static const char s_oc_mqtt_ca_crt[] =
  63:c:/Users/lenovo/Desktop/AIoT/first_day/firstday_afternoon/LiteOS_Lab_STM32_IoT/iot_link/oc/oc_mqtt/oc_mqtt_tiny_v5\oc_mqtt_tiny.c **** " -----BEGIN CERTIFICATE-----\r\n"
  64:c:/Users/lenovo/Desktop/AIoT/first_day/firstday_afternoon/LiteOS_Lab_STM32_IoT/iot_link/oc/oc_mqtt/oc_mqtt_tiny_v5\oc_mqtt_tiny.c **** "MIIDrzCCApegAwIBAgIQCDvgVpBCRrGhdWrJWZHHSjANBgkqhkiG9w0BAQUFADBh\r\n"
  65:c:/Users/lenovo/Desktop/AIoT/first_day/firstday_afternoon/LiteOS_Lab_STM32_IoT/iot_link/oc/oc_mqtt/oc_mqtt_tiny_v5\oc_mqtt_tiny.c **** "MQswCQYDVQQGEwJVUzEVMBMGA1UEChMMRGlnaUNlcnQgSW5jMRkwFwYDVQQLExB3\r\n"
  66:c:/Users/lenovo/Desktop/AIoT/first_day/firstday_afternoon/LiteOS_Lab_STM32_IoT/iot_link/oc/oc_mqtt/oc_mqtt_tiny_v5\oc_mqtt_tiny.c **** "d3cuZGlnaWNlcnQuY29tMSAwHgYDVQQDExdEaWdpQ2VydCBHbG9iYWwgUm9vdCBD\r\n"
  67:c:/Users/lenovo/Desktop/AIoT/first_day/firstday_afternoon/LiteOS_Lab_STM32_IoT/iot_link/oc/oc_mqtt/oc_mqtt_tiny_v5\oc_mqtt_tiny.c **** "QTAeFw0wNjExMTAwMDAwMDBaFw0zMTExMTAwMDAwMDBaMGExCzAJBgNVBAYTAlVT\r\n"
  68:c:/Users/lenovo/Desktop/AIoT/first_day/firstday_afternoon/LiteOS_Lab_STM32_IoT/iot_link/oc/oc_mqtt/oc_mqtt_tiny_v5\oc_mqtt_tiny.c **** "MRUwEwYDVQQKEwxEaWdpQ2VydCBJbmMxGTAXBgNVBAsTEHd3dy5kaWdpY2VydC5j\r\n"
  69:c:/Users/lenovo/Desktop/AIoT/first_day/firstday_afternoon/LiteOS_Lab_STM32_IoT/iot_link/oc/oc_mqtt/oc_mqtt_tiny_v5\oc_mqtt_tiny.c **** "b20xIDAeBgNVBAMTF0RpZ2lDZXJ0IEdsb2JhbCBSb290IENBMIIBIjANBgkqhkiG\r\n"
  70:c:/Users/lenovo/Desktop/AIoT/first_day/firstday_afternoon/LiteOS_Lab_STM32_IoT/iot_link/oc/oc_mqtt/oc_mqtt_tiny_v5\oc_mqtt_tiny.c **** "9w0BAQEFAAOCAQ8AMIIBCgKCAQEA4jvhEXLeqKTTo1eqUKKPC3eQyaKl7hLOllsB\r\n"
  71:c:/Users/lenovo/Desktop/AIoT/first_day/firstday_afternoon/LiteOS_Lab_STM32_IoT/iot_link/oc/oc_mqtt/oc_mqtt_tiny_v5\oc_mqtt_tiny.c **** "CSDMAZOnTjC3U/dDxGkAV53ijSLdhwZAAIEJzs4bg7/fzTtxRuLWZscFs3YnFo97\r\n"
  72:c:/Users/lenovo/Desktop/AIoT/first_day/firstday_afternoon/LiteOS_Lab_STM32_IoT/iot_link/oc/oc_mqtt/oc_mqtt_tiny_v5\oc_mqtt_tiny.c **** "nh6Vfe63SKMI2tavegw5BmV/Sl0fvBf4q77uKNd0f3p4mVmFaG5cIzJLv07A6Fpt\r\n"
  73:c:/Users/lenovo/Desktop/AIoT/first_day/firstday_afternoon/LiteOS_Lab_STM32_IoT/iot_link/oc/oc_mqtt/oc_mqtt_tiny_v5\oc_mqtt_tiny.c **** "43C/dxC//AH2hdmoRBBYMql1GNXRor5H4idq9Joz+EkIYIvUX7Q6hL+hqkpMfT7P\r\n"
  74:c:/Users/lenovo/Desktop/AIoT/first_day/firstday_afternoon/LiteOS_Lab_STM32_IoT/iot_link/oc/oc_mqtt/oc_mqtt_tiny_v5\oc_mqtt_tiny.c **** "T19sdl6gSzeRntwi5m3OFBqOasv+zbMUZBfHWymeMr/y7vrTC0LUq7dBMtoM1O/4\r\n"
  75:c:/Users/lenovo/Desktop/AIoT/first_day/firstday_afternoon/LiteOS_Lab_STM32_IoT/iot_link/oc/oc_mqtt/oc_mqtt_tiny_v5\oc_mqtt_tiny.c **** "gdW7jVg/tRvoSSiicNoxBN33shbyTApOB6jtSj1etX+jkMOvJwIDAQABo2MwYTAO\r\n"
  76:c:/Users/lenovo/Desktop/AIoT/first_day/firstday_afternoon/LiteOS_Lab_STM32_IoT/iot_link/oc/oc_mqtt/oc_mqtt_tiny_v5\oc_mqtt_tiny.c **** "BgNVHQ8BAf8EBAMCAYYwDwYDVR0TAQH/BAUwAwEB/zAdBgNVHQ4EFgQUA95QNVbR\r\n"
  77:c:/Users/lenovo/Desktop/AIoT/first_day/firstday_afternoon/LiteOS_Lab_STM32_IoT/iot_link/oc/oc_mqtt/oc_mqtt_tiny_v5\oc_mqtt_tiny.c **** "TLtm8KPiGxvDl7I90VUwHwYDVR0jBBgwFoAUA95QNVbRTLtm8KPiGxvDl7I90VUw\r\n"
  78:c:/Users/lenovo/Desktop/AIoT/first_day/firstday_afternoon/LiteOS_Lab_STM32_IoT/iot_link/oc/oc_mqtt/oc_mqtt_tiny_v5\oc_mqtt_tiny.c **** "DQYJKoZIhvcNAQEFBQADggEBAMucN6pIExIK+t1EnE9SsPTfrgT1eXkIoyQY/Esr\r\n"
  79:c:/Users/lenovo/Desktop/AIoT/first_day/firstday_afternoon/LiteOS_Lab_STM32_IoT/iot_link/oc/oc_mqtt/oc_mqtt_tiny_v5\oc_mqtt_tiny.c **** "hMAtudXH/vTBH1jLuG2cenTnmCmrEbXjcKChzUyImZOMkXDiqw8cvpOp/2PV5Adg\r\n"
  80:c:/Users/lenovo/Desktop/AIoT/first_day/firstday_afternoon/LiteOS_Lab_STM32_IoT/iot_link/oc/oc_mqtt/oc_mqtt_tiny_v5\oc_mqtt_tiny.c **** "06O/nVsJ8dWO41P0jmP6P6fbtGbfYmbW0W5BjfIttep3Sp+dWOIrWcBAI+0tKIJF\r\n"
  81:c:/Users/lenovo/Desktop/AIoT/first_day/firstday_afternoon/LiteOS_Lab_STM32_IoT/iot_link/oc/oc_mqtt/oc_mqtt_tiny_v5\oc_mqtt_tiny.c **** "PnlUkiaY4IBIqDfv8NZ5YBberOgOzW6sRBc4L0na4UU+Krk2U886UAb3LujEV0ls\r\n"
  82:c:/Users/lenovo/Desktop/AIoT/first_day/firstday_afternoon/LiteOS_Lab_STM32_IoT/iot_link/oc/oc_mqtt/oc_mqtt_tiny_v5\oc_mqtt_tiny.c **** "YSEY1QSteDwsOoBrp+uvFRTp2InBuThs4pFsiv9kuXclVzDAGySj4dzp30d8tbQk\r\n"
  83:c:/Users/lenovo/Desktop/AIoT/first_day/firstday_afternoon/LiteOS_Lab_STM32_IoT/iot_link/oc/oc_mqtt/oc_mqtt_tiny_v5\oc_mqtt_tiny.c **** "CAUw7C29C79Fv1C5qfPrmAESrciIxpg0X40KPMbp1ZWVbd4=\r\n"
  84:c:/Users/lenovo/Desktop/AIoT/first_day/firstday_afternoon/LiteOS_Lab_STM32_IoT/iot_link/oc/oc_mqtt/oc_mqtt_tiny_v5\oc_mqtt_tiny.c **** "-----END CERTIFICATE-----\r\n";
  85:c:/Users/lenovo/Desktop/AIoT/first_day/firstday_afternoon/LiteOS_Lab_STM32_IoT/iot_link/oc/oc_mqtt/oc_mqtt_tiny_v5\oc_mqtt_tiny.c **** 
  86:c:/Users/lenovo/Desktop/AIoT/first_day/firstday_afternoon/LiteOS_Lab_STM32_IoT/iot_link/oc/oc_mqtt/oc_mqtt_tiny_v5\oc_mqtt_tiny.c **** 
  87:c:/Users/lenovo/Desktop/AIoT/first_day/firstday_afternoon/LiteOS_Lab_STM32_IoT/iot_link/oc/oc_mqtt/oc_mqtt_tiny_v5\oc_mqtt_tiny.c **** ///< devices normal data report and receive topic format
  88:c:/Users/lenovo/Desktop/AIoT/first_day/firstday_afternoon/LiteOS_Lab_STM32_IoT/iot_link/oc/oc_mqtt/oc_mqtt_tiny_v5\oc_mqtt_tiny.c **** #define CN_CLIENT_ID_FMT                    "%s_0_0_%s"
  89:c:/Users/lenovo/Desktop/AIoT/first_day/firstday_afternoon/LiteOS_Lab_STM32_IoT/iot_link/oc/oc_mqtt/oc_mqtt_tiny_v5\oc_mqtt_tiny.c **** 
  90:c:/Users/lenovo/Desktop/AIoT/first_day/firstday_afternoon/LiteOS_Lab_STM32_IoT/iot_link/oc/oc_mqtt/oc_mqtt_tiny_v5\oc_mqtt_tiny.c **** #define CN_OC_BS_REPORT_TOPIC_FMT           "/huawei/v1/devices/%s/iodpsData"
  91:c:/Users/lenovo/Desktop/AIoT/first_day/firstday_afternoon/LiteOS_Lab_STM32_IoT/iot_link/oc/oc_mqtt/oc_mqtt_tiny_v5\oc_mqtt_tiny.c **** #define CN_OC_BS_CMD_TOPIC_FMT              "/huawei/v1/devices/%s/iodpsCommand"
  92:c:/Users/lenovo/Desktop/AIoT/first_day/firstday_afternoon/LiteOS_Lab_STM32_IoT/iot_link/oc/oc_mqtt/oc_mqtt_tiny_v5\oc_mqtt_tiny.c **** #define CN_OC_HUB_SUBTOPIC_DEFAULT_FMT      "$oc/devices/%s/sys/messages/down"
  93:c:/Users/lenovo/Desktop/AIoT/first_day/firstday_afternoon/LiteOS_Lab_STM32_IoT/iot_link/oc/oc_mqtt/oc_mqtt_tiny_v5\oc_mqtt_tiny.c **** #define CN_OC_HUB_PUBTOPIC_DEFAULT_FMT      "$oc/devices/%s/sys/messages/up"
  94:c:/Users/lenovo/Desktop/AIoT/first_day/firstday_afternoon/LiteOS_Lab_STM32_IoT/iot_link/oc/oc_mqtt/oc_mqtt_tiny_v5\oc_mqtt_tiny.c **** 
  95:c:/Users/lenovo/Desktop/AIoT/first_day/firstday_afternoon/LiteOS_Lab_STM32_IoT/iot_link/oc/oc_mqtt/oc_mqtt_tiny_v5\oc_mqtt_tiny.c **** /*The unit is millisecond*/
  96:c:/Users/lenovo/Desktop/AIoT/first_day/firstday_afternoon/LiteOS_Lab_STM32_IoT/iot_link/oc/oc_mqtt/oc_mqtt_tiny_v5\oc_mqtt_tiny.c **** #define CN_CON_BACKOFF_TIME     (1000)   ///< UNIT:ms
  97:c:/Users/lenovo/Desktop/AIoT/first_day/firstday_afternoon/LiteOS_Lab_STM32_IoT/iot_link/oc/oc_mqtt/oc_mqtt_tiny_v5\oc_mqtt_tiny.c **** #define CN_CON_BACKOFF_MAXTIMES  20      ///< WHEN WAIT OR GET ADDRESS ,WE COULD TRY MAX TIMES
ARM GAS  C:\Users\lenovo\AppData\Local\Temp\cceHxmqh.s 			page 7


  98:c:/Users/lenovo/Desktop/AIoT/first_day/firstday_afternoon/LiteOS_Lab_STM32_IoT/iot_link/oc/oc_mqtt/oc_mqtt_tiny_v5\oc_mqtt_tiny.c **** #define CN_HMAC_LEN              32
  99:c:/Users/lenovo/Desktop/AIoT/first_day/firstday_afternoon/LiteOS_Lab_STM32_IoT/iot_link/oc/oc_mqtt/oc_mqtt_tiny_v5\oc_mqtt_tiny.c **** #define CN_STRING_MAXLEN         127
 100:c:/Users/lenovo/Desktop/AIoT/first_day/firstday_afternoon/LiteOS_Lab_STM32_IoT/iot_link/oc/oc_mqtt/oc_mqtt_tiny_v5\oc_mqtt_tiny.c **** 
 101:c:/Users/lenovo/Desktop/AIoT/first_day/firstday_afternoon/LiteOS_Lab_STM32_IoT/iot_link/oc/oc_mqtt/oc_mqtt_tiny_v5\oc_mqtt_tiny.c **** #define CN_OC_MQTT_TIMEOUT      (10*1000)
 102:c:/Users/lenovo/Desktop/AIoT/first_day/firstday_afternoon/LiteOS_Lab_STM32_IoT/iot_link/oc/oc_mqtt/oc_mqtt_tiny_v5\oc_mqtt_tiny.c **** 
 103:c:/Users/lenovo/Desktop/AIoT/first_day/firstday_afternoon/LiteOS_Lab_STM32_IoT/iot_link/oc/oc_mqtt/oc_mqtt_tiny_v5\oc_mqtt_tiny.c **** const char *s_new_topic_fmt[]=
 104:c:/Users/lenovo/Desktop/AIoT/first_day/firstday_afternoon/LiteOS_Lab_STM32_IoT/iot_link/oc/oc_mqtt/oc_mqtt_tiny_v5\oc_mqtt_tiny.c **** {
 105:c:/Users/lenovo/Desktop/AIoT/first_day/firstday_afternoon/LiteOS_Lab_STM32_IoT/iot_link/oc/oc_mqtt/oc_mqtt_tiny_v5\oc_mqtt_tiny.c ****     "$oc/devices/%s/sys/commands/#",
 106:c:/Users/lenovo/Desktop/AIoT/first_day/firstday_afternoon/LiteOS_Lab_STM32_IoT/iot_link/oc/oc_mqtt/oc_mqtt_tiny_v5\oc_mqtt_tiny.c ****     "$oc/devices/%s/sys/properties/set/#",
 107:c:/Users/lenovo/Desktop/AIoT/first_day/firstday_afternoon/LiteOS_Lab_STM32_IoT/iot_link/oc/oc_mqtt/oc_mqtt_tiny_v5\oc_mqtt_tiny.c ****     "$oc/devices/%s/sys/properties/get/#",
 108:c:/Users/lenovo/Desktop/AIoT/first_day/firstday_afternoon/LiteOS_Lab_STM32_IoT/iot_link/oc/oc_mqtt/oc_mqtt_tiny_v5\oc_mqtt_tiny.c ****     "$oc/devices/%s/sys/shadow/get/response/#",
 109:c:/Users/lenovo/Desktop/AIoT/first_day/firstday_afternoon/LiteOS_Lab_STM32_IoT/iot_link/oc/oc_mqtt/oc_mqtt_tiny_v5\oc_mqtt_tiny.c ****     "$oc/devices/%s/sys/events/down",
 110:c:/Users/lenovo/Desktop/AIoT/first_day/firstday_afternoon/LiteOS_Lab_STM32_IoT/iot_link/oc/oc_mqtt/oc_mqtt_tiny_v5\oc_mqtt_tiny.c **** };
 111:c:/Users/lenovo/Desktop/AIoT/first_day/firstday_afternoon/LiteOS_Lab_STM32_IoT/iot_link/oc/oc_mqtt/oc_mqtt_tiny_v5\oc_mqtt_tiny.c **** #define CN_NEW_TOPIC_NUM     (sizeof(s_new_topic_fmt)/sizeof(const char *))
 112:c:/Users/lenovo/Desktop/AIoT/first_day/firstday_afternoon/LiteOS_Lab_STM32_IoT/iot_link/oc/oc_mqtt/oc_mqtt_tiny_v5\oc_mqtt_tiny.c **** 
 113:c:/Users/lenovo/Desktop/AIoT/first_day/firstday_afternoon/LiteOS_Lab_STM32_IoT/iot_link/oc/oc_mqtt/oc_mqtt_tiny_v5\oc_mqtt_tiny.c **** 
 114:c:/Users/lenovo/Desktop/AIoT/first_day/firstday_afternoon/LiteOS_Lab_STM32_IoT/iot_link/oc/oc_mqtt/oc_mqtt_tiny_v5\oc_mqtt_tiny.c **** typedef struct
 115:c:/Users/lenovo/Desktop/AIoT/first_day/firstday_afternoon/LiteOS_Lab_STM32_IoT/iot_link/oc/oc_mqtt/oc_mqtt_tiny_v5\oc_mqtt_tiny.c **** {
 116:c:/Users/lenovo/Desktop/AIoT/first_day/firstday_afternoon/LiteOS_Lab_STM32_IoT/iot_link/oc/oc_mqtt/oc_mqtt_tiny_v5\oc_mqtt_tiny.c ****     char *hubserver_addr;     ///< we get from the bs server
 117:c:/Users/lenovo/Desktop/AIoT/first_day/firstday_afternoon/LiteOS_Lab_STM32_IoT/iot_link/oc/oc_mqtt/oc_mqtt_tiny_v5\oc_mqtt_tiny.c ****     char *hubserver_port;     ///< we get from the bs server
 118:c:/Users/lenovo/Desktop/AIoT/first_day/firstday_afternoon/LiteOS_Lab_STM32_IoT/iot_link/oc/oc_mqtt/oc_mqtt_tiny_v5\oc_mqtt_tiny.c **** }oc_bs_mqtt_cb_t;             ///< when we used
 119:c:/Users/lenovo/Desktop/AIoT/first_day/firstday_afternoon/LiteOS_Lab_STM32_IoT/iot_link/oc/oc_mqtt/oc_mqtt_tiny_v5\oc_mqtt_tiny.c **** 
 120:c:/Users/lenovo/Desktop/AIoT/first_day/firstday_afternoon/LiteOS_Lab_STM32_IoT/iot_link/oc/oc_mqtt/oc_mqtt_tiny_v5\oc_mqtt_tiny.c **** 
 121:c:/Users/lenovo/Desktop/AIoT/first_day/firstday_afternoon/LiteOS_Lab_STM32_IoT/iot_link/oc/oc_mqtt/oc_mqtt_tiny_v5\oc_mqtt_tiny.c **** typedef struct
 122:c:/Users/lenovo/Desktop/AIoT/first_day/firstday_afternoon/LiteOS_Lab_STM32_IoT/iot_link/oc/oc_mqtt/oc_mqtt_tiny_v5\oc_mqtt_tiny.c **** {
 123:c:/Users/lenovo/Desktop/AIoT/first_day/firstday_afternoon/LiteOS_Lab_STM32_IoT/iot_link/oc/oc_mqtt/oc_mqtt_tiny_v5\oc_mqtt_tiny.c ****     ///< these parameter has been generated when configured
 124:c:/Users/lenovo/Desktop/AIoT/first_day/firstday_afternoon/LiteOS_Lab_STM32_IoT/iot_link/oc/oc_mqtt/oc_mqtt_tiny_v5\oc_mqtt_tiny.c ****     char   *mqtt_clientid;
 125:c:/Users/lenovo/Desktop/AIoT/first_day/firstday_afternoon/LiteOS_Lab_STM32_IoT/iot_link/oc/oc_mqtt/oc_mqtt_tiny_v5\oc_mqtt_tiny.c ****     char   *mqtt_user;
 126:c:/Users/lenovo/Desktop/AIoT/first_day/firstday_afternoon/LiteOS_Lab_STM32_IoT/iot_link/oc/oc_mqtt/oc_mqtt_tiny_v5\oc_mqtt_tiny.c ****     char   *mqtt_passwd;
 127:c:/Users/lenovo/Desktop/AIoT/first_day/firstday_afternoon/LiteOS_Lab_STM32_IoT/iot_link/oc/oc_mqtt/oc_mqtt_tiny_v5\oc_mqtt_tiny.c ****     char   *server_addr;
 128:c:/Users/lenovo/Desktop/AIoT/first_day/firstday_afternoon/LiteOS_Lab_STM32_IoT/iot_link/oc/oc_mqtt/oc_mqtt_tiny_v5\oc_mqtt_tiny.c ****     char   *server_port;
 129:c:/Users/lenovo/Desktop/AIoT/first_day/firstday_afternoon/LiteOS_Lab_STM32_IoT/iot_link/oc/oc_mqtt/oc_mqtt_tiny_v5\oc_mqtt_tiny.c ****     char   *default_pub_topic;
 130:c:/Users/lenovo/Desktop/AIoT/first_day/firstday_afternoon/LiteOS_Lab_STM32_IoT/iot_link/oc/oc_mqtt/oc_mqtt_tiny_v5\oc_mqtt_tiny.c ****     char   *default_sub_topic;
 131:c:/Users/lenovo/Desktop/AIoT/first_day/firstday_afternoon/LiteOS_Lab_STM32_IoT/iot_link/oc/oc_mqtt/oc_mqtt_tiny_v5\oc_mqtt_tiny.c ****     fn_mqtt_al_msg_dealer default_msg_deal;
 132:c:/Users/lenovo/Desktop/AIoT/first_day/firstday_afternoon/LiteOS_Lab_STM32_IoT/iot_link/oc/oc_mqtt/oc_mqtt_tiny_v5\oc_mqtt_tiny.c ****     ///< these parameter is dynamic  and will changed in the connection process
 133:c:/Users/lenovo/Desktop/AIoT/first_day/firstday_afternoon/LiteOS_Lab_STM32_IoT/iot_link/oc/oc_mqtt/oc_mqtt_tiny_v5\oc_mqtt_tiny.c ****     void   *mqtt_handle;
 134:c:/Users/lenovo/Desktop/AIoT/first_day/firstday_afternoon/LiteOS_Lab_STM32_IoT/iot_link/oc/oc_mqtt/oc_mqtt_tiny_v5\oc_mqtt_tiny.c **** }oc_mqtt_para_t;
 135:c:/Users/lenovo/Desktop/AIoT/first_day/firstday_afternoon/LiteOS_Lab_STM32_IoT/iot_link/oc/oc_mqtt/oc_mqtt_tiny_v5\oc_mqtt_tiny.c **** 
 136:c:/Users/lenovo/Desktop/AIoT/first_day/firstday_afternoon/LiteOS_Lab_STM32_IoT/iot_link/oc/oc_mqtt/oc_mqtt_tiny_v5\oc_mqtt_tiny.c **** 
 137:c:/Users/lenovo/Desktop/AIoT/first_day/firstday_afternoon/LiteOS_Lab_STM32_IoT/iot_link/oc/oc_mqtt/oc_mqtt_tiny_v5\oc_mqtt_tiny.c **** typedef enum
 138:c:/Users/lenovo/Desktop/AIoT/first_day/firstday_afternoon/LiteOS_Lab_STM32_IoT/iot_link/oc/oc_mqtt/oc_mqtt_tiny_v5\oc_mqtt_tiny.c **** {
 139:c:/Users/lenovo/Desktop/AIoT/first_day/firstday_afternoon/LiteOS_Lab_STM32_IoT/iot_link/oc/oc_mqtt/oc_mqtt_tiny_v5\oc_mqtt_tiny.c ****     en_daemon_status_idle = 0,
 140:c:/Users/lenovo/Desktop/AIoT/first_day/firstday_afternoon/LiteOS_Lab_STM32_IoT/iot_link/oc/oc_mqtt/oc_mqtt_tiny_v5\oc_mqtt_tiny.c ****     en_daemon_status_bs_getaddr,
 141:c:/Users/lenovo/Desktop/AIoT/first_day/firstday_afternoon/LiteOS_Lab_STM32_IoT/iot_link/oc/oc_mqtt/oc_mqtt_tiny_v5\oc_mqtt_tiny.c ****     en_daemon_status_dmp_connecting,
 142:c:/Users/lenovo/Desktop/AIoT/first_day/firstday_afternoon/LiteOS_Lab_STM32_IoT/iot_link/oc/oc_mqtt/oc_mqtt_tiny_v5\oc_mqtt_tiny.c ****     en_daemon_status_hub_keep,
 143:c:/Users/lenovo/Desktop/AIoT/first_day/firstday_afternoon/LiteOS_Lab_STM32_IoT/iot_link/oc/oc_mqtt/oc_mqtt_tiny_v5\oc_mqtt_tiny.c **** }en_daemon_status_t;
 144:c:/Users/lenovo/Desktop/AIoT/first_day/firstday_afternoon/LiteOS_Lab_STM32_IoT/iot_link/oc/oc_mqtt/oc_mqtt_tiny_v5\oc_mqtt_tiny.c **** 
 145:c:/Users/lenovo/Desktop/AIoT/first_day/firstday_afternoon/LiteOS_Lab_STM32_IoT/iot_link/oc/oc_mqtt/oc_mqtt_tiny_v5\oc_mqtt_tiny.c **** typedef struct
 146:c:/Users/lenovo/Desktop/AIoT/first_day/firstday_afternoon/LiteOS_Lab_STM32_IoT/iot_link/oc/oc_mqtt/oc_mqtt_tiny_v5\oc_mqtt_tiny.c **** {
 147:c:/Users/lenovo/Desktop/AIoT/first_day/firstday_afternoon/LiteOS_Lab_STM32_IoT/iot_link/oc/oc_mqtt/oc_mqtt_tiny_v5\oc_mqtt_tiny.c ****     void  *nxt;
 148:c:/Users/lenovo/Desktop/AIoT/first_day/firstday_afternoon/LiteOS_Lab_STM32_IoT/iot_link/oc/oc_mqtt/oc_mqtt_tiny_v5\oc_mqtt_tiny.c ****     char  *topic;
 149:c:/Users/lenovo/Desktop/AIoT/first_day/firstday_afternoon/LiteOS_Lab_STM32_IoT/iot_link/oc/oc_mqtt/oc_mqtt_tiny_v5\oc_mqtt_tiny.c ****     int    qos;
 150:c:/Users/lenovo/Desktop/AIoT/first_day/firstday_afternoon/LiteOS_Lab_STM32_IoT/iot_link/oc/oc_mqtt/oc_mqtt_tiny_v5\oc_mqtt_tiny.c **** }tiny_topic_sub_t;
 151:c:/Users/lenovo/Desktop/AIoT/first_day/firstday_afternoon/LiteOS_Lab_STM32_IoT/iot_link/oc/oc_mqtt/oc_mqtt_tiny_v5\oc_mqtt_tiny.c **** 
 152:c:/Users/lenovo/Desktop/AIoT/first_day/firstday_afternoon/LiteOS_Lab_STM32_IoT/iot_link/oc/oc_mqtt/oc_mqtt_tiny_v5\oc_mqtt_tiny.c **** 
 153:c:/Users/lenovo/Desktop/AIoT/first_day/firstday_afternoon/LiteOS_Lab_STM32_IoT/iot_link/oc/oc_mqtt/oc_mqtt_tiny_v5\oc_mqtt_tiny.c **** typedef struct
 154:c:/Users/lenovo/Desktop/AIoT/first_day/firstday_afternoon/LiteOS_Lab_STM32_IoT/iot_link/oc/oc_mqtt/oc_mqtt_tiny_v5\oc_mqtt_tiny.c **** {
ARM GAS  C:\Users\lenovo\AppData\Local\Temp\cceHxmqh.s 			page 8


 155:c:/Users/lenovo/Desktop/AIoT/first_day/firstday_afternoon/LiteOS_Lab_STM32_IoT/iot_link/oc/oc_mqtt/oc_mqtt_tiny_v5\oc_mqtt_tiny.c ****     char                   *config_mem;   ///< used to storage the configuration information
 156:c:/Users/lenovo/Desktop/AIoT/first_day/firstday_afternoon/LiteOS_Lab_STM32_IoT/iot_link/oc/oc_mqtt/oc_mqtt_tiny_v5\oc_mqtt_tiny.c ****     oc_mqtt_config_t        config;
 157:c:/Users/lenovo/Desktop/AIoT/first_day/firstday_afternoon/LiteOS_Lab_STM32_IoT/iot_link/oc/oc_mqtt/oc_mqtt_tiny_v5\oc_mqtt_tiny.c ****     oc_mqtt_para_t          mqtt_para;
 158:c:/Users/lenovo/Desktop/AIoT/first_day/firstday_afternoon/LiteOS_Lab_STM32_IoT/iot_link/oc/oc_mqtt/oc_mqtt_tiny_v5\oc_mqtt_tiny.c ****     union{
 159:c:/Users/lenovo/Desktop/AIoT/first_day/firstday_afternoon/LiteOS_Lab_STM32_IoT/iot_link/oc/oc_mqtt/oc_mqtt_tiny_v5\oc_mqtt_tiny.c **** 
 160:c:/Users/lenovo/Desktop/AIoT/first_day/firstday_afternoon/LiteOS_Lab_STM32_IoT/iot_link/oc/oc_mqtt/oc_mqtt_tiny_v5\oc_mqtt_tiny.c ****         uint32_t value;
 161:c:/Users/lenovo/Desktop/AIoT/first_day/firstday_afternoon/LiteOS_Lab_STM32_IoT/iot_link/oc/oc_mqtt/oc_mqtt_tiny_v5\oc_mqtt_tiny.c ****         struct
 162:c:/Users/lenovo/Desktop/AIoT/first_day/firstday_afternoon/LiteOS_Lab_STM32_IoT/iot_link/oc/oc_mqtt/oc_mqtt_tiny_v5\oc_mqtt_tiny.c ****         {
 163:c:/Users/lenovo/Desktop/AIoT/first_day/firstday_afternoon/LiteOS_Lab_STM32_IoT/iot_link/oc/oc_mqtt/oc_mqtt_tiny_v5\oc_mqtt_tiny.c ****             uint32_t bit_bs_enable:1;
 164:c:/Users/lenovo/Desktop/AIoT/first_day/firstday_afternoon/LiteOS_Lab_STM32_IoT/iot_link/oc/oc_mqtt/oc_mqtt_tiny_v5\oc_mqtt_tiny.c ****             uint32_t bit_daemon_status:3;
 165:c:/Users/lenovo/Desktop/AIoT/first_day/firstday_afternoon/LiteOS_Lab_STM32_IoT/iot_link/oc/oc_mqtt/oc_mqtt_tiny_v5\oc_mqtt_tiny.c ****             uint32_t bit_get_hubaddr:1;
 166:c:/Users/lenovo/Desktop/AIoT/first_day/firstday_afternoon/LiteOS_Lab_STM32_IoT/iot_link/oc/oc_mqtt/oc_mqtt_tiny_v5\oc_mqtt_tiny.c ****             uint32_t bit_do_bootstrap:1;
 167:c:/Users/lenovo/Desktop/AIoT/first_day/firstday_afternoon/LiteOS_Lab_STM32_IoT/iot_link/oc/oc_mqtt/oc_mqtt_tiny_v5\oc_mqtt_tiny.c **** 
 168:c:/Users/lenovo/Desktop/AIoT/first_day/firstday_afternoon/LiteOS_Lab_STM32_IoT/iot_link/oc/oc_mqtt/oc_mqtt_tiny_v5\oc_mqtt_tiny.c ****         }bits;
 169:c:/Users/lenovo/Desktop/AIoT/first_day/firstday_afternoon/LiteOS_Lab_STM32_IoT/iot_link/oc/oc_mqtt/oc_mqtt_tiny_v5\oc_mqtt_tiny.c ****     }flag;
 170:c:/Users/lenovo/Desktop/AIoT/first_day/firstday_afternoon/LiteOS_Lab_STM32_IoT/iot_link/oc/oc_mqtt/oc_mqtt_tiny_v5\oc_mqtt_tiny.c ****     oc_bs_mqtt_cb_t     bs_cb;
 171:c:/Users/lenovo/Desktop/AIoT/first_day/firstday_afternoon/LiteOS_Lab_STM32_IoT/iot_link/oc/oc_mqtt/oc_mqtt_tiny_v5\oc_mqtt_tiny.c ****     void               *task_daemon;                ///< oc mqtt lite daemon task
 172:c:/Users/lenovo/Desktop/AIoT/first_day/firstday_afternoon/LiteOS_Lab_STM32_IoT/iot_link/oc/oc_mqtt/oc_mqtt_tiny_v5\oc_mqtt_tiny.c ****     queue_t            *task_daemon_cmd_queue;      ///< oc mqtt lite daemon task command queue
 173:c:/Users/lenovo/Desktop/AIoT/first_day/firstday_afternoon/LiteOS_Lab_STM32_IoT/iot_link/oc/oc_mqtt/oc_mqtt_tiny_v5\oc_mqtt_tiny.c ****     char                salt_time[16];              ///< salt time for the connect
 174:c:/Users/lenovo/Desktop/AIoT/first_day/firstday_afternoon/LiteOS_Lab_STM32_IoT/iot_link/oc/oc_mqtt/oc_mqtt_tiny_v5\oc_mqtt_tiny.c ****     char               *hub_sub_topic[CN_NEW_TOPIC_NUM];
 175:c:/Users/lenovo/Desktop/AIoT/first_day/firstday_afternoon/LiteOS_Lab_STM32_IoT/iot_link/oc/oc_mqtt/oc_mqtt_tiny_v5\oc_mqtt_tiny.c ****     tiny_topic_sub_t   *subscribe_lst;
 176:c:/Users/lenovo/Desktop/AIoT/first_day/firstday_afternoon/LiteOS_Lab_STM32_IoT/iot_link/oc/oc_mqtt/oc_mqtt_tiny_v5\oc_mqtt_tiny.c **** }oc_mqtt_tiny_cb_t;   ///< i think we may only got one mqtt
 177:c:/Users/lenovo/Desktop/AIoT/first_day/firstday_afternoon/LiteOS_Lab_STM32_IoT/iot_link/oc/oc_mqtt/oc_mqtt_tiny_v5\oc_mqtt_tiny.c **** static oc_mqtt_tiny_cb_t *s_oc_mqtt_tiny_cb;
 178:c:/Users/lenovo/Desktop/AIoT/first_day/firstday_afternoon/LiteOS_Lab_STM32_IoT/iot_link/oc/oc_mqtt/oc_mqtt_tiny_v5\oc_mqtt_tiny.c **** 
 179:c:/Users/lenovo/Desktop/AIoT/first_day/firstday_afternoon/LiteOS_Lab_STM32_IoT/iot_link/oc/oc_mqtt/oc_mqtt_tiny_v5\oc_mqtt_tiny.c **** typedef enum
 180:c:/Users/lenovo/Desktop/AIoT/first_day/firstday_afternoon/LiteOS_Lab_STM32_IoT/iot_link/oc/oc_mqtt/oc_mqtt_tiny_v5\oc_mqtt_tiny.c **** {
 181:c:/Users/lenovo/Desktop/AIoT/first_day/firstday_afternoon/LiteOS_Lab_STM32_IoT/iot_link/oc/oc_mqtt/oc_mqtt_tiny_v5\oc_mqtt_tiny.c ****     en_oc_mqtt_daemon_cmd_connect = 0,
 182:c:/Users/lenovo/Desktop/AIoT/first_day/firstday_afternoon/LiteOS_Lab_STM32_IoT/iot_link/oc/oc_mqtt/oc_mqtt_tiny_v5\oc_mqtt_tiny.c ****     en_oc_mqtt_daemon_cmd_send,           ///< when api need send message, then it post this comman
 183:c:/Users/lenovo/Desktop/AIoT/first_day/firstday_afternoon/LiteOS_Lab_STM32_IoT/iot_link/oc/oc_mqtt/oc_mqtt_tiny_v5\oc_mqtt_tiny.c ****     en_oc_mqtt_daemon_cmd_publish,        ///< when api need publish message, then it post this com
 184:c:/Users/lenovo/Desktop/AIoT/first_day/firstday_afternoon/LiteOS_Lab_STM32_IoT/iot_link/oc/oc_mqtt/oc_mqtt_tiny_v5\oc_mqtt_tiny.c ****     en_oc_mqtt_daemon_cmd_subscribe,      ///< when api need subscribe a topic, then it post this c
 185:c:/Users/lenovo/Desktop/AIoT/first_day/firstday_afternoon/LiteOS_Lab_STM32_IoT/iot_link/oc/oc_mqtt/oc_mqtt_tiny_v5\oc_mqtt_tiny.c ****     en_oc_mqtt_daemon_cmd_unsubscribe,    ///< when api need un-subscribe a topic,then it post this
 186:c:/Users/lenovo/Desktop/AIoT/first_day/firstday_afternoon/LiteOS_Lab_STM32_IoT/iot_link/oc/oc_mqtt/oc_mqtt_tiny_v5\oc_mqtt_tiny.c ****     en_oc_mqtt_daemon_cmd_disconnect,     ///< when api need to stop the connect, then it post this
 187:c:/Users/lenovo/Desktop/AIoT/first_day/firstday_afternoon/LiteOS_Lab_STM32_IoT/iot_link/oc/oc_mqtt/oc_mqtt_tiny_v5\oc_mqtt_tiny.c ****     en_oc_mqtt_daemon_cmd_bsgetaddr,      ///< the bs callback post this command to the daemon when
 188:c:/Users/lenovo/Desktop/AIoT/first_day/firstday_afternoon/LiteOS_Lab_STM32_IoT/iot_link/oc/oc_mqtt/oc_mqtt_tiny_v5\oc_mqtt_tiny.c ****     en_oc_mqtt_daemon_cmd_rebootstrap,    ///< the hub callback post this command to the daemon whe
 189:c:/Users/lenovo/Desktop/AIoT/first_day/firstday_afternoon/LiteOS_Lab_STM32_IoT/iot_link/oc/oc_mqtt/oc_mqtt_tiny_v5\oc_mqtt_tiny.c **** }en_oc_mqtt_daemon_cmd;
 190:c:/Users/lenovo/Desktop/AIoT/first_day/firstday_afternoon/LiteOS_Lab_STM32_IoT/iot_link/oc/oc_mqtt/oc_mqtt_tiny_v5\oc_mqtt_tiny.c **** 
 191:c:/Users/lenovo/Desktop/AIoT/first_day/firstday_afternoon/LiteOS_Lab_STM32_IoT/iot_link/oc/oc_mqtt/oc_mqtt_tiny_v5\oc_mqtt_tiny.c **** typedef struct
 192:c:/Users/lenovo/Desktop/AIoT/first_day/firstday_afternoon/LiteOS_Lab_STM32_IoT/iot_link/oc/oc_mqtt/oc_mqtt_tiny_v5\oc_mqtt_tiny.c **** {
 193:c:/Users/lenovo/Desktop/AIoT/first_day/firstday_afternoon/LiteOS_Lab_STM32_IoT/iot_link/oc/oc_mqtt/oc_mqtt_tiny_v5\oc_mqtt_tiny.c ****     en_oc_mqtt_daemon_cmd   cmd;       ///< this is the command
 194:c:/Users/lenovo/Desktop/AIoT/first_day/firstday_afternoon/LiteOS_Lab_STM32_IoT/iot_link/oc/oc_mqtt/oc_mqtt_tiny_v5\oc_mqtt_tiny.c ****     void                   *arg;       ///< this is used for the argument
 195:c:/Users/lenovo/Desktop/AIoT/first_day/firstday_afternoon/LiteOS_Lab_STM32_IoT/iot_link/oc/oc_mqtt/oc_mqtt_tiny_v5\oc_mqtt_tiny.c ****     osal_semp_t             signal;    ///< when done the command, please light this signal
 196:c:/Users/lenovo/Desktop/AIoT/first_day/firstday_afternoon/LiteOS_Lab_STM32_IoT/iot_link/oc/oc_mqtt/oc_mqtt_tiny_v5\oc_mqtt_tiny.c ****     int                     retcode;   ///< this is the operation code for the command
 197:c:/Users/lenovo/Desktop/AIoT/first_day/firstday_afternoon/LiteOS_Lab_STM32_IoT/iot_link/oc/oc_mqtt/oc_mqtt_tiny_v5\oc_mqtt_tiny.c **** }oc_mqtt_daemon_cmd_t;                 ///< use this to do the command for the api
 198:c:/Users/lenovo/Desktop/AIoT/first_day/firstday_afternoon/LiteOS_Lab_STM32_IoT/iot_link/oc/oc_mqtt/oc_mqtt_tiny_v5\oc_mqtt_tiny.c **** 
 199:c:/Users/lenovo/Desktop/AIoT/first_day/firstday_afternoon/LiteOS_Lab_STM32_IoT/iot_link/oc/oc_mqtt/oc_mqtt_tiny_v5\oc_mqtt_tiny.c **** 
 200:c:/Users/lenovo/Desktop/AIoT/first_day/firstday_afternoon/LiteOS_Lab_STM32_IoT/iot_link/oc/oc_mqtt/oc_mqtt_tiny_v5\oc_mqtt_tiny.c **** ///< here we implement the hub and bootstrap server command dealer
 201:c:/Users/lenovo/Desktop/AIoT/first_day/firstday_afternoon/LiteOS_Lab_STM32_IoT/iot_link/oc/oc_mqtt/oc_mqtt_tiny_v5\oc_mqtt_tiny.c **** 
 202:c:/Users/lenovo/Desktop/AIoT/first_day/firstday_afternoon/LiteOS_Lab_STM32_IoT/iot_link/oc/oc_mqtt/oc_mqtt_tiny_v5\oc_mqtt_tiny.c **** static void hub_msg_default_deal(void *arg,mqtt_al_msgrcv_t  *msg)
 203:c:/Users/lenovo/Desktop/AIoT/first_day/firstday_afternoon/LiteOS_Lab_STM32_IoT/iot_link/oc/oc_mqtt/oc_mqtt_tiny_v5\oc_mqtt_tiny.c **** {
 109              		.loc 1 203 1
 110              		.cfi_startproc
 111              		@ args = 0, pretend = 0, frame = 56
 112              		@ frame_needed = 1, uses_anonymous_args = 0
 113 0000 90B5     		push	{r4, r7, lr}
 114              	.LCFI0:
 115              		.cfi_def_cfa_offset 12
 116              		.cfi_offset 4, -12
ARM GAS  C:\Users\lenovo\AppData\Local\Temp\cceHxmqh.s 			page 9


 117              		.cfi_offset 7, -8
 118              		.cfi_offset 14, -4
 119 0002 8FB0     		sub	sp, sp, #60
 120              	.LCFI1:
 121              		.cfi_def_cfa_offset 72
 122 0004 00AF     		add	r7, sp, #0
 123              	.LCFI2:
 124              		.cfi_def_cfa_register 7
 125 0006 7860     		str	r0, [r7, #4]
 126 0008 3960     		str	r1, [r7]
 204:c:/Users/lenovo/Desktop/AIoT/first_day/firstday_afternoon/LiteOS_Lab_STM32_IoT/iot_link/oc/oc_mqtt/oc_mqtt_tiny_v5\oc_mqtt_tiny.c ****     cJSON  *root = NULL;
 127              		.loc 1 204 13
 128 000a 0023     		movs	r3, #0
 129 000c 3B63     		str	r3, [r7, #48]
 205:c:/Users/lenovo/Desktop/AIoT/first_day/firstday_afternoon/LiteOS_Lab_STM32_IoT/iot_link/oc/oc_mqtt/oc_mqtt_tiny_v5\oc_mqtt_tiny.c ****     cJSON  *cmd_item = NULL;
 130              		.loc 1 205 13
 131 000e 0023     		movs	r3, #0
 132 0010 FB62     		str	r3, [r7, #44]
 206:c:/Users/lenovo/Desktop/AIoT/first_day/firstday_afternoon/LiteOS_Lab_STM32_IoT/iot_link/oc/oc_mqtt/oc_mqtt_tiny_v5\oc_mqtt_tiny.c ****     cJSON  *serviceid_item = NULL;
 133              		.loc 1 206 13
 134 0012 0023     		movs	r3, #0
 135 0014 BB62     		str	r3, [r7, #40]
 207:c:/Users/lenovo/Desktop/AIoT/first_day/firstday_afternoon/LiteOS_Lab_STM32_IoT/iot_link/oc/oc_mqtt/oc_mqtt_tiny_v5\oc_mqtt_tiny.c ****     char   *json_buf;
 208:c:/Users/lenovo/Desktop/AIoT/first_day/firstday_afternoon/LiteOS_Lab_STM32_IoT/iot_link/oc/oc_mqtt/oc_mqtt_tiny_v5\oc_mqtt_tiny.c ****     int     pass2user = 1;
 136              		.loc 1 208 13
 137 0016 0123     		movs	r3, #1
 138 0018 7B63     		str	r3, [r7, #52]
 209:c:/Users/lenovo/Desktop/AIoT/first_day/firstday_afternoon/LiteOS_Lab_STM32_IoT/iot_link/oc/oc_mqtt/oc_mqtt_tiny_v5\oc_mqtt_tiny.c **** 
 210:c:/Users/lenovo/Desktop/AIoT/first_day/firstday_afternoon/LiteOS_Lab_STM32_IoT/iot_link/oc/oc_mqtt/oc_mqtt_tiny_v5\oc_mqtt_tiny.c ****     mqtt_al_msgrcv_t normal_msg;
 211:c:/Users/lenovo/Desktop/AIoT/first_day/firstday_afternoon/LiteOS_Lab_STM32_IoT/iot_link/oc/oc_mqtt/oc_mqtt_tiny_v5\oc_mqtt_tiny.c **** 
 212:c:/Users/lenovo/Desktop/AIoT/first_day/firstday_afternoon/LiteOS_Lab_STM32_IoT/iot_link/oc/oc_mqtt/oc_mqtt_tiny_v5\oc_mqtt_tiny.c ****     //for we must add the '/0' to the end to make sure the json parse correct
 213:c:/Users/lenovo/Desktop/AIoT/first_day/firstday_afternoon/LiteOS_Lab_STM32_IoT/iot_link/oc/oc_mqtt/oc_mqtt_tiny_v5\oc_mqtt_tiny.c ****     if ((msg == NULL) || ( msg->msg.data == NULL) ||(msg->msg.len == 0))
 139              		.loc 1 213 8
 140 001a 3B68     		ldr	r3, [r7]
 141 001c 002B     		cmp	r3, #0
 142 001e 00F09E80 		beq	.L10
 143              		.loc 1 213 36 discriminator 1
 144 0022 3B68     		ldr	r3, [r7]
 145 0024 9B68     		ldr	r3, [r3, #8]
 146              		.loc 1 213 23 discriminator 1
 147 0026 002B     		cmp	r3, #0
 148 0028 00F09980 		beq	.L10
 149              		.loc 1 213 62 discriminator 2
 150 002c 3B68     		ldr	r3, [r7]
 151 002e DB68     		ldr	r3, [r3, #12]
 152              		.loc 1 213 51 discriminator 2
 153 0030 002B     		cmp	r3, #0
 154 0032 00F09480 		beq	.L10
 214:c:/Users/lenovo/Desktop/AIoT/first_day/firstday_afternoon/LiteOS_Lab_STM32_IoT/iot_link/oc/oc_mqtt/oc_mqtt_tiny_v5\oc_mqtt_tiny.c ****     {
 215:c:/Users/lenovo/Desktop/AIoT/first_day/firstday_afternoon/LiteOS_Lab_STM32_IoT/iot_link/oc/oc_mqtt/oc_mqtt_tiny_v5\oc_mqtt_tiny.c ****         return;
 216:c:/Users/lenovo/Desktop/AIoT/first_day/firstday_afternoon/LiteOS_Lab_STM32_IoT/iot_link/oc/oc_mqtt/oc_mqtt_tiny_v5\oc_mqtt_tiny.c ****     }
 217:c:/Users/lenovo/Desktop/AIoT/first_day/firstday_afternoon/LiteOS_Lab_STM32_IoT/iot_link/oc/oc_mqtt/oc_mqtt_tiny_v5\oc_mqtt_tiny.c **** 
 218:c:/Users/lenovo/Desktop/AIoT/first_day/firstday_afternoon/LiteOS_Lab_STM32_IoT/iot_link/oc/oc_mqtt/oc_mqtt_tiny_v5\oc_mqtt_tiny.c ****     if(s_oc_mqtt_tiny_cb->flag.bits.bit_bs_enable)
 155              		.loc 1 218 25
 156 0036 4D4B     		ldr	r3, .L12
 157 0038 1B68     		ldr	r3, [r3]
 158              		.loc 1 218 8
ARM GAS  C:\Users\lenovo\AppData\Local\Temp\cceHxmqh.s 			page 10


 159 003a 93F86C30 		ldrb	r3, [r3, #108]	@ zero_extendqisi2
 160 003e 03F00103 		and	r3, r3, #1
 161 0042 DBB2     		uxtb	r3, r3
 162              		.loc 1 218 7
 163 0044 002B     		cmp	r3, #0
 164 0046 5FD0     		beq	.L5
 219:c:/Users/lenovo/Desktop/AIoT/first_day/firstday_afternoon/LiteOS_Lab_STM32_IoT/iot_link/oc/oc_mqtt/oc_mqtt_tiny_v5\oc_mqtt_tiny.c ****     {
 220:c:/Users/lenovo/Desktop/AIoT/first_day/firstday_afternoon/LiteOS_Lab_STM32_IoT/iot_link/oc/oc_mqtt/oc_mqtt_tiny_v5\oc_mqtt_tiny.c ****         json_buf = osal_malloc(msg->msg.len + 1);
 165              		.loc 1 220 40
 166 0048 3B68     		ldr	r3, [r7]
 167 004a DB68     		ldr	r3, [r3, #12]
 168              		.loc 1 220 45
 169 004c 0133     		adds	r3, r3, #1
 170              		.loc 1 220 20
 171 004e 1846     		mov	r0, r3
 172 0050 FFF7FEFF 		bl	osal_malloc
 173 0054 7862     		str	r0, [r7, #36]
 221:c:/Users/lenovo/Desktop/AIoT/first_day/firstday_afternoon/LiteOS_Lab_STM32_IoT/iot_link/oc/oc_mqtt/oc_mqtt_tiny_v5\oc_mqtt_tiny.c ****         if(NULL != json_buf)
 174              		.loc 1 221 11
 175 0056 7B6A     		ldr	r3, [r7, #36]
 176 0058 002B     		cmp	r3, #0
 177 005a 55D0     		beq	.L5
 222:c:/Users/lenovo/Desktop/AIoT/first_day/firstday_afternoon/LiteOS_Lab_STM32_IoT/iot_link/oc/oc_mqtt/oc_mqtt_tiny_v5\oc_mqtt_tiny.c ****         {
 223:c:/Users/lenovo/Desktop/AIoT/first_day/firstday_afternoon/LiteOS_Lab_STM32_IoT/iot_link/oc/oc_mqtt/oc_mqtt_tiny_v5\oc_mqtt_tiny.c ****             memcpy(json_buf,msg->msg.data,msg->msg.len);
 178              		.loc 1 223 37
 179 005c 3B68     		ldr	r3, [r7]
 180 005e 9968     		ldr	r1, [r3, #8]
 181              		.loc 1 223 51
 182 0060 3B68     		ldr	r3, [r7]
 183 0062 DB68     		ldr	r3, [r3, #12]
 184              		.loc 1 223 13
 185 0064 1A46     		mov	r2, r3
 186 0066 786A     		ldr	r0, [r7, #36]
 187 0068 FFF7FEFF 		bl	memcpy
 224:c:/Users/lenovo/Desktop/AIoT/first_day/firstday_afternoon/LiteOS_Lab_STM32_IoT/iot_link/oc/oc_mqtt/oc_mqtt_tiny_v5\oc_mqtt_tiny.c ****             json_buf[msg->msg.len] = '\0';
 188              		.loc 1 224 30
 189 006c 3B68     		ldr	r3, [r7]
 190 006e DB68     		ldr	r3, [r3, #12]
 191 0070 1A46     		mov	r2, r3
 192              		.loc 1 224 21
 193 0072 7B6A     		ldr	r3, [r7, #36]
 194 0074 1344     		add	r3, r3, r2
 195              		.loc 1 224 36
 196 0076 0022     		movs	r2, #0
 197 0078 1A70     		strb	r2, [r3]
 225:c:/Users/lenovo/Desktop/AIoT/first_day/firstday_afternoon/LiteOS_Lab_STM32_IoT/iot_link/oc/oc_mqtt/oc_mqtt_tiny_v5\oc_mqtt_tiny.c ****             root = cJSON_Parse(json_buf);
 198              		.loc 1 225 20
 199 007a 786A     		ldr	r0, [r7, #36]
 200 007c FFF7FEFF 		bl	cJSON_Parse
 201 0080 3863     		str	r0, [r7, #48]
 226:c:/Users/lenovo/Desktop/AIoT/first_day/firstday_afternoon/LiteOS_Lab_STM32_IoT/iot_link/oc/oc_mqtt/oc_mqtt_tiny_v5\oc_mqtt_tiny.c ****             if(NULL != root)
 202              		.loc 1 226 15
 203 0082 3B6B     		ldr	r3, [r7, #48]
 204 0084 002B     		cmp	r3, #0
 205 0086 3CD0     		beq	.L6
 227:c:/Users/lenovo/Desktop/AIoT/first_day/firstday_afternoon/LiteOS_Lab_STM32_IoT/iot_link/oc/oc_mqtt/oc_mqtt_tiny_v5\oc_mqtt_tiny.c ****             {
 228:c:/Users/lenovo/Desktop/AIoT/first_day/firstday_afternoon/LiteOS_Lab_STM32_IoT/iot_link/oc/oc_mqtt/oc_mqtt_tiny_v5\oc_mqtt_tiny.c ****                 cmd_item = cJSON_GetObjectItem(root,"cmd");
ARM GAS  C:\Users\lenovo\AppData\Local\Temp\cceHxmqh.s 			page 11


 206              		.loc 1 228 28
 207 0088 3949     		ldr	r1, .L12+4
 208 008a 386B     		ldr	r0, [r7, #48]
 209 008c FFF7FEFF 		bl	cJSON_GetObjectItem
 210 0090 F862     		str	r0, [r7, #44]
 229:c:/Users/lenovo/Desktop/AIoT/first_day/firstday_afternoon/LiteOS_Lab_STM32_IoT/iot_link/oc/oc_mqtt/oc_mqtt_tiny_v5\oc_mqtt_tiny.c ****                 serviceid_item = cJSON_GetObjectItem(root,"serviceid");
 211              		.loc 1 229 34
 212 0092 3849     		ldr	r1, .L12+8
 213 0094 386B     		ldr	r0, [r7, #48]
 214 0096 FFF7FEFF 		bl	cJSON_GetObjectItem
 215 009a B862     		str	r0, [r7, #40]
 230:c:/Users/lenovo/Desktop/AIoT/first_day/firstday_afternoon/LiteOS_Lab_STM32_IoT/iot_link/oc/oc_mqtt/oc_mqtt_tiny_v5\oc_mqtt_tiny.c ****                 if(((NULL != cmd_item) && (strncmp(cmd_item->valuestring, "BootstrapRequestTrigger"
 216              		.loc 1 230 19
 217 009c FB6A     		ldr	r3, [r7, #44]
 218 009e 002B     		cmp	r3, #0
 219 00a0 2CD0     		beq	.L7
 220              		.loc 1 230 60 discriminator 1
 221 00a2 FB6A     		ldr	r3, [r7, #44]
 222 00a4 1C69     		ldr	r4, [r3, #16]
 223              		.loc 1 230 117 discriminator 1
 224 00a6 FB6A     		ldr	r3, [r7, #44]
 225 00a8 1B69     		ldr	r3, [r3, #16]
 226              		.loc 1 230 44 discriminator 1
 227 00aa 1846     		mov	r0, r3
 228 00ac FFF7FEFF 		bl	strlen
 229 00b0 0346     		mov	r3, r0
 230 00b2 1A46     		mov	r2, r3
 231 00b4 3049     		ldr	r1, .L12+12
 232 00b6 2046     		mov	r0, r4
 233 00b8 FFF7FEFF 		bl	strncmp
 234 00bc 0346     		mov	r3, r0
 235              		.loc 1 230 40 discriminator 1
 236 00be 002B     		cmp	r3, #0
 237 00c0 1CD1     		bne	.L7
 238              		.loc 1 230 140 discriminator 2
 239 00c2 BB6A     		ldr	r3, [r7, #40]
 240 00c4 002B     		cmp	r3, #0
 241 00c6 19D0     		beq	.L7
 231:c:/Users/lenovo/Desktop/AIoT/first_day/firstday_afternoon/LiteOS_Lab_STM32_IoT/iot_link/oc/oc_mqtt/oc_mqtt_tiny_v5\oc_mqtt_tiny.c ****                   ((NULL != serviceid_item) && (strncmp(serviceid_item->valuestring, "IOTHUB.BS", s
 242              		.loc 1 231 71
 243 00c8 BB6A     		ldr	r3, [r7, #40]
 244 00ca 1C69     		ldr	r4, [r3, #16]
 245              		.loc 1 231 120
 246 00cc BB6A     		ldr	r3, [r7, #40]
 247 00ce 1B69     		ldr	r3, [r3, #16]
 248              		.loc 1 231 49
 249 00d0 1846     		mov	r0, r3
 250 00d2 FFF7FEFF 		bl	strlen
 251 00d6 0346     		mov	r3, r0
 252 00d8 1A46     		mov	r2, r3
 253 00da 2849     		ldr	r1, .L12+16
 254 00dc 2046     		mov	r0, r4
 255 00de FFF7FEFF 		bl	strncmp
 256 00e2 0346     		mov	r3, r0
 257              		.loc 1 231 45
 258 00e4 002B     		cmp	r3, #0
 259 00e6 09D1     		bne	.L7
ARM GAS  C:\Users\lenovo\AppData\Local\Temp\cceHxmqh.s 			page 12


 232:c:/Users/lenovo/Desktop/AIoT/first_day/firstday_afternoon/LiteOS_Lab_STM32_IoT/iot_link/oc/oc_mqtt/oc_mqtt_tiny_v5\oc_mqtt_tiny.c ****                 {
 233:c:/Users/lenovo/Desktop/AIoT/first_day/firstday_afternoon/LiteOS_Lab_STM32_IoT/iot_link/oc/oc_mqtt/oc_mqtt_tiny_v5\oc_mqtt_tiny.c ****                     s_oc_mqtt_tiny_cb->flag.bits.bit_do_bootstrap =1;
 260              		.loc 1 233 38
 261 00e8 204B     		ldr	r3, .L12
 262 00ea 1A68     		ldr	r2, [r3]
 263              		.loc 1 233 67
 264 00ec 92F86C30 		ldrb	r3, [r2, #108]
 265 00f0 43F02003 		orr	r3, r3, #32
 266 00f4 82F86C30 		strb	r3, [r2, #108]
 234:c:/Users/lenovo/Desktop/AIoT/first_day/firstday_afternoon/LiteOS_Lab_STM32_IoT/iot_link/oc/oc_mqtt/oc_mqtt_tiny_v5\oc_mqtt_tiny.c ****                     pass2user = 0;  ///< this is a bootstrap message and we should not pass to the 
 267              		.loc 1 234 31
 268 00f8 0023     		movs	r3, #0
 269 00fa 7B63     		str	r3, [r7, #52]
 270              	.L7:
 235:c:/Users/lenovo/Desktop/AIoT/first_day/firstday_afternoon/LiteOS_Lab_STM32_IoT/iot_link/oc/oc_mqtt/oc_mqtt_tiny_v5\oc_mqtt_tiny.c ****                 }
 236:c:/Users/lenovo/Desktop/AIoT/first_day/firstday_afternoon/LiteOS_Lab_STM32_IoT/iot_link/oc/oc_mqtt/oc_mqtt_tiny_v5\oc_mqtt_tiny.c ****                 cJSON_Delete(root);
 271              		.loc 1 236 17
 272 00fc 386B     		ldr	r0, [r7, #48]
 273 00fe FFF7FEFF 		bl	cJSON_Delete
 274              	.L6:
 237:c:/Users/lenovo/Desktop/AIoT/first_day/firstday_afternoon/LiteOS_Lab_STM32_IoT/iot_link/oc/oc_mqtt/oc_mqtt_tiny_v5\oc_mqtt_tiny.c ****             }
 238:c:/Users/lenovo/Desktop/AIoT/first_day/firstday_afternoon/LiteOS_Lab_STM32_IoT/iot_link/oc/oc_mqtt/oc_mqtt_tiny_v5\oc_mqtt_tiny.c ****             osal_free(json_buf);
 275              		.loc 1 238 13
 276 0102 786A     		ldr	r0, [r7, #36]
 277 0104 FFF7FEFF 		bl	osal_free
 278              	.L5:
 239:c:/Users/lenovo/Desktop/AIoT/first_day/firstday_afternoon/LiteOS_Lab_STM32_IoT/iot_link/oc/oc_mqtt/oc_mqtt_tiny_v5\oc_mqtt_tiny.c ****         }
 240:c:/Users/lenovo/Desktop/AIoT/first_day/firstday_afternoon/LiteOS_Lab_STM32_IoT/iot_link/oc/oc_mqtt/oc_mqtt_tiny_v5\oc_mqtt_tiny.c ****     }
 241:c:/Users/lenovo/Desktop/AIoT/first_day/firstday_afternoon/LiteOS_Lab_STM32_IoT/iot_link/oc/oc_mqtt/oc_mqtt_tiny_v5\oc_mqtt_tiny.c **** 
 242:c:/Users/lenovo/Desktop/AIoT/first_day/firstday_afternoon/LiteOS_Lab_STM32_IoT/iot_link/oc/oc_mqtt/oc_mqtt_tiny_v5\oc_mqtt_tiny.c **** 
 243:c:/Users/lenovo/Desktop/AIoT/first_day/firstday_afternoon/LiteOS_Lab_STM32_IoT/iot_link/oc/oc_mqtt/oc_mqtt_tiny_v5\oc_mqtt_tiny.c ****     if((1 == pass2user)&&(NULL != s_oc_mqtt_tiny_cb->config.msg_deal))
 279              		.loc 1 243 7
 280 0108 7B6B     		ldr	r3, [r7, #52]
 281 010a 012B     		cmp	r3, #1
 282 010c 29D1     		bne	.L11
 283              		.loc 1 243 52 discriminator 1
 284 010e 174B     		ldr	r3, .L12
 285 0110 1B68     		ldr	r3, [r3]
 286              		.loc 1 243 60 discriminator 1
 287 0112 1B6C     		ldr	r3, [r3, #64]
 288              		.loc 1 243 24 discriminator 1
 289 0114 002B     		cmp	r3, #0
 290 0116 24D0     		beq	.L11
 244:c:/Users/lenovo/Desktop/AIoT/first_day/firstday_afternoon/LiteOS_Lab_STM32_IoT/iot_link/oc/oc_mqtt/oc_mqtt_tiny_v5\oc_mqtt_tiny.c ****     {
 245:c:/Users/lenovo/Desktop/AIoT/first_day/firstday_afternoon/LiteOS_Lab_STM32_IoT/iot_link/oc/oc_mqtt/oc_mqtt_tiny_v5\oc_mqtt_tiny.c ****         normal_msg.dup = msg->dup;
 291              		.loc 1 245 29
 292 0118 3B68     		ldr	r3, [r7]
 293 011a 5B69     		ldr	r3, [r3, #20]
 294              		.loc 1 245 24
 295 011c FB61     		str	r3, [r7, #28]
 246:c:/Users/lenovo/Desktop/AIoT/first_day/firstday_afternoon/LiteOS_Lab_STM32_IoT/iot_link/oc/oc_mqtt/oc_mqtt_tiny_v5\oc_mqtt_tiny.c ****         normal_msg.qos = msg->qos;
 296              		.loc 1 246 29
 297 011e 3B68     		ldr	r3, [r7]
 298 0120 1B7C     		ldrb	r3, [r3, #16]	@ zero_extendqisi2
 299              		.loc 1 246 24
 300 0122 3B76     		strb	r3, [r7, #24]
 247:c:/Users/lenovo/Desktop/AIoT/first_day/firstday_afternoon/LiteOS_Lab_STM32_IoT/iot_link/oc/oc_mqtt/oc_mqtt_tiny_v5\oc_mqtt_tiny.c ****         normal_msg.retain = msg->retain;
ARM GAS  C:\Users\lenovo\AppData\Local\Temp\cceHxmqh.s 			page 13


 301              		.loc 1 247 32
 302 0124 3B68     		ldr	r3, [r7]
 303 0126 9B69     		ldr	r3, [r3, #24]
 304              		.loc 1 247 27
 305 0128 3B62     		str	r3, [r7, #32]
 248:c:/Users/lenovo/Desktop/AIoT/first_day/firstday_afternoon/LiteOS_Lab_STM32_IoT/iot_link/oc/oc_mqtt/oc_mqtt_tiny_v5\oc_mqtt_tiny.c ****         normal_msg.msg = msg->msg;
 306              		.loc 1 248 24
 307 012a 3A68     		ldr	r2, [r7]
 308 012c 07F11003 		add	r3, r7, #16
 309 0130 0832     		adds	r2, r2, #8
 310 0132 92E80300 		ldm	r2, {r0, r1}
 311 0136 83E80300 		stm	r3, {r0, r1}
 249:c:/Users/lenovo/Desktop/AIoT/first_day/firstday_afternoon/LiteOS_Lab_STM32_IoT/iot_link/oc/oc_mqtt/oc_mqtt_tiny_v5\oc_mqtt_tiny.c ****         normal_msg.topic = msg->topic;
 312              		.loc 1 249 26
 313 013a 3A68     		ldr	r2, [r7]
 314 013c 07F10803 		add	r3, r7, #8
 315 0140 92E80300 		ldm	r2, {r0, r1}
 316 0144 83E80300 		stm	r3, {r0, r1}
 250:c:/Users/lenovo/Desktop/AIoT/first_day/firstday_afternoon/LiteOS_Lab_STM32_IoT/iot_link/oc/oc_mqtt/oc_mqtt_tiny_v5\oc_mqtt_tiny.c ****         s_oc_mqtt_tiny_cb->config.msg_deal(s_oc_mqtt_tiny_cb->config.msg_deal_arg,&normal_msg);
 317              		.loc 1 250 26
 318 0148 084B     		ldr	r3, .L12
 319 014a 1B68     		ldr	r3, [r3]
 320              		.loc 1 250 34
 321 014c 1B6C     		ldr	r3, [r3, #64]
 322              		.loc 1 250 61
 323 014e 074A     		ldr	r2, .L12
 324 0150 1268     		ldr	r2, [r2]
 325              		.loc 1 250 9
 326 0152 526C     		ldr	r2, [r2, #68]
 327 0154 07F10801 		add	r1, r7, #8
 328 0158 1046     		mov	r0, r2
 329 015a 9847     		blx	r3
 330              	.LVL0:
 251:c:/Users/lenovo/Desktop/AIoT/first_day/firstday_afternoon/LiteOS_Lab_STM32_IoT/iot_link/oc/oc_mqtt/oc_mqtt_tiny_v5\oc_mqtt_tiny.c ****     }
 252:c:/Users/lenovo/Desktop/AIoT/first_day/firstday_afternoon/LiteOS_Lab_STM32_IoT/iot_link/oc/oc_mqtt/oc_mqtt_tiny_v5\oc_mqtt_tiny.c **** 
 253:c:/Users/lenovo/Desktop/AIoT/first_day/firstday_afternoon/LiteOS_Lab_STM32_IoT/iot_link/oc/oc_mqtt/oc_mqtt_tiny_v5\oc_mqtt_tiny.c **** 
 254:c:/Users/lenovo/Desktop/AIoT/first_day/firstday_afternoon/LiteOS_Lab_STM32_IoT/iot_link/oc/oc_mqtt/oc_mqtt_tiny_v5\oc_mqtt_tiny.c ****     return;
 331              		.loc 1 254 5
 332 015c 01E0     		b	.L11
 333              	.L10:
 215:c:/Users/lenovo/Desktop/AIoT/first_day/firstday_afternoon/LiteOS_Lab_STM32_IoT/iot_link/oc/oc_mqtt/oc_mqtt_tiny_v5\oc_mqtt_tiny.c ****     }
 334              		.loc 1 215 9
 335 015e 00BF     		nop
 336 0160 00E0     		b	.L1
 337              	.L11:
 338              		.loc 1 254 5
 339 0162 00BF     		nop
 340              	.L1:
 255:c:/Users/lenovo/Desktop/AIoT/first_day/firstday_afternoon/LiteOS_Lab_STM32_IoT/iot_link/oc/oc_mqtt/oc_mqtt_tiny_v5\oc_mqtt_tiny.c **** }
 341              		.loc 1 255 1
 342 0164 3C37     		adds	r7, r7, #60
 343              	.LCFI3:
 344              		.cfi_def_cfa_offset 12
 345 0166 BD46     		mov	sp, r7
 346              	.LCFI4:
 347              		.cfi_def_cfa_register 13
 348              		@ sp needed
ARM GAS  C:\Users\lenovo\AppData\Local\Temp\cceHxmqh.s 			page 14


 349 0168 90BD     		pop	{r4, r7, pc}
 350              	.L13:
 351 016a 00BF     		.align	2
 352              	.L12:
 353 016c 00000000 		.word	s_oc_mqtt_tiny_cb
 354 0170 B4000000 		.word	.LC5
 355 0174 B8000000 		.word	.LC6
 356 0178 C4000000 		.word	.LC7
 357 017c DC000000 		.word	.LC8
 358              		.cfi_endproc
 359              	.LFE3:
 361              		.section	.rodata
 362 00e6 0000     		.align	2
 363              	.LC9:
 364 00e8 62732074 		.ascii	"bs topic:%s qos:%d\012\015\000"
 364      6F706963 
 364      3A257320 
 364      716F733A 
 364      25640A0D 
 365 00fd 000000   		.align	2
 366              	.LC10:
 367 0100 6D73673A 		.ascii	"msg:%s\012\015\000"
 367      25730A0D 
 367      00
 368 0109 000000   		.align	2
 369              	.LC11:
 370 010c 61646472 		.ascii	"address\000"
 370      65737300 
 371              		.align	2
 372              	.LC12:
 373 0114 61646472 		.ascii	"address:%s\012\015\000"
 373      6573733A 
 373      25730A0D 
 373      00
 374              		.section	.text.bs_msg_default_deal,"ax",%progbits
 375              		.align	1
 376              		.syntax unified
 377              		.thumb
 378              		.thumb_func
 379              		.fpu fpv4-sp-d16
 381              	bs_msg_default_deal:
 382              	.LFB4:
 256:c:/Users/lenovo/Desktop/AIoT/first_day/firstday_afternoon/LiteOS_Lab_STM32_IoT/iot_link/oc/oc_mqtt/oc_mqtt_tiny_v5\oc_mqtt_tiny.c **** 
 257:c:/Users/lenovo/Desktop/AIoT/first_day/firstday_afternoon/LiteOS_Lab_STM32_IoT/iot_link/oc/oc_mqtt/oc_mqtt_tiny_v5\oc_mqtt_tiny.c **** 
 258:c:/Users/lenovo/Desktop/AIoT/first_day/firstday_afternoon/LiteOS_Lab_STM32_IoT/iot_link/oc/oc_mqtt/oc_mqtt_tiny_v5\oc_mqtt_tiny.c **** 
 259:c:/Users/lenovo/Desktop/AIoT/first_day/firstday_afternoon/LiteOS_Lab_STM32_IoT/iot_link/oc/oc_mqtt/oc_mqtt_tiny_v5\oc_mqtt_tiny.c **** ///< deal the bootstrap server messages
 260:c:/Users/lenovo/Desktop/AIoT/first_day/firstday_afternoon/LiteOS_Lab_STM32_IoT/iot_link/oc/oc_mqtt/oc_mqtt_tiny_v5\oc_mqtt_tiny.c **** static void bs_msg_default_deal(void *arg,mqtt_al_msgrcv_t *msg)
 261:c:/Users/lenovo/Desktop/AIoT/first_day/firstday_afternoon/LiteOS_Lab_STM32_IoT/iot_link/oc/oc_mqtt/oc_mqtt_tiny_v5\oc_mqtt_tiny.c **** {
 383              		.loc 1 261 1
 384              		.cfi_startproc
 385              		@ args = 0, pretend = 0, frame = 32
 386              		@ frame_needed = 1, uses_anonymous_args = 0
 387 0000 90B5     		push	{r4, r7, lr}
 388              	.LCFI5:
 389              		.cfi_def_cfa_offset 12
 390              		.cfi_offset 4, -12
 391              		.cfi_offset 7, -8
ARM GAS  C:\Users\lenovo\AppData\Local\Temp\cceHxmqh.s 			page 15


 392              		.cfi_offset 14, -4
 393 0002 89B0     		sub	sp, sp, #36
 394              	.LCFI6:
 395              		.cfi_def_cfa_offset 48
 396 0004 00AF     		add	r7, sp, #0
 397              	.LCFI7:
 398              		.cfi_def_cfa_register 7
 399 0006 7860     		str	r0, [r7, #4]
 400 0008 3960     		str	r1, [r7]
 262:c:/Users/lenovo/Desktop/AIoT/first_day/firstday_afternoon/LiteOS_Lab_STM32_IoT/iot_link/oc/oc_mqtt/oc_mqtt_tiny_v5\oc_mqtt_tiny.c ****    cJSON  *root = NULL;
 401              		.loc 1 262 12
 402 000a 0023     		movs	r3, #0
 403 000c FB61     		str	r3, [r7, #28]
 263:c:/Users/lenovo/Desktop/AIoT/first_day/firstday_afternoon/LiteOS_Lab_STM32_IoT/iot_link/oc/oc_mqtt/oc_mqtt_tiny_v5\oc_mqtt_tiny.c ****    cJSON  *addr_item = NULL;
 404              		.loc 1 263 12
 405 000e 0023     		movs	r3, #0
 406 0010 BB61     		str	r3, [r7, #24]
 264:c:/Users/lenovo/Desktop/AIoT/first_day/firstday_afternoon/LiteOS_Lab_STM32_IoT/iot_link/oc/oc_mqtt/oc_mqtt_tiny_v5\oc_mqtt_tiny.c ****    char   *port = NULL;
 407              		.loc 1 264 12
 408 0012 0023     		movs	r3, #0
 409 0014 7B61     		str	r3, [r7, #20]
 265:c:/Users/lenovo/Desktop/AIoT/first_day/firstday_afternoon/LiteOS_Lab_STM32_IoT/iot_link/oc/oc_mqtt/oc_mqtt_tiny_v5\oc_mqtt_tiny.c ****    char   *server = NULL;
 410              		.loc 1 265 12
 411 0016 0023     		movs	r3, #0
 412 0018 3B61     		str	r3, [r7, #16]
 266:c:/Users/lenovo/Desktop/AIoT/first_day/firstday_afternoon/LiteOS_Lab_STM32_IoT/iot_link/oc/oc_mqtt/oc_mqtt_tiny_v5\oc_mqtt_tiny.c **** 
 267:c:/Users/lenovo/Desktop/AIoT/first_day/firstday_afternoon/LiteOS_Lab_STM32_IoT/iot_link/oc/oc_mqtt/oc_mqtt_tiny_v5\oc_mqtt_tiny.c ****    char   *json_buf;
 268:c:/Users/lenovo/Desktop/AIoT/first_day/firstday_afternoon/LiteOS_Lab_STM32_IoT/iot_link/oc/oc_mqtt/oc_mqtt_tiny_v5\oc_mqtt_tiny.c **** 
 269:c:/Users/lenovo/Desktop/AIoT/first_day/firstday_afternoon/LiteOS_Lab_STM32_IoT/iot_link/oc/oc_mqtt/oc_mqtt_tiny_v5\oc_mqtt_tiny.c ****    printf("bs topic:%s qos:%d\n\r",msg->topic.data,msg->qos);
 413              		.loc 1 269 4
 414 001a 3B68     		ldr	r3, [r7]
 415 001c 1968     		ldr	r1, [r3]
 416              		.loc 1 269 55
 417 001e 3B68     		ldr	r3, [r7]
 418 0020 1B7C     		ldrb	r3, [r3, #16]	@ zero_extendqisi2
 419              		.loc 1 269 4
 420 0022 1A46     		mov	r2, r3
 421 0024 3F48     		ldr	r0, .L20
 422 0026 FFF7FEFF 		bl	printf
 270:c:/Users/lenovo/Desktop/AIoT/first_day/firstday_afternoon/LiteOS_Lab_STM32_IoT/iot_link/oc/oc_mqtt/oc_mqtt_tiny_v5\oc_mqtt_tiny.c **** 
 271:c:/Users/lenovo/Desktop/AIoT/first_day/firstday_afternoon/LiteOS_Lab_STM32_IoT/iot_link/oc/oc_mqtt/oc_mqtt_tiny_v5\oc_mqtt_tiny.c ****    json_buf = osal_malloc(msg->msg.len + 1);
 423              		.loc 1 271 35
 424 002a 3B68     		ldr	r3, [r7]
 425 002c DB68     		ldr	r3, [r3, #12]
 426              		.loc 1 271 40
 427 002e 0133     		adds	r3, r3, #1
 428              		.loc 1 271 15
 429 0030 1846     		mov	r0, r3
 430 0032 FFF7FEFF 		bl	osal_malloc
 431 0036 F860     		str	r0, [r7, #12]
 272:c:/Users/lenovo/Desktop/AIoT/first_day/firstday_afternoon/LiteOS_Lab_STM32_IoT/iot_link/oc/oc_mqtt/oc_mqtt_tiny_v5\oc_mqtt_tiny.c ****    if(NULL == json_buf)
 432              		.loc 1 272 6
 433 0038 FB68     		ldr	r3, [r7, #12]
 434 003a 002B     		cmp	r3, #0
 435 003c 6DD0     		beq	.L19
 273:c:/Users/lenovo/Desktop/AIoT/first_day/firstday_afternoon/LiteOS_Lab_STM32_IoT/iot_link/oc/oc_mqtt/oc_mqtt_tiny_v5\oc_mqtt_tiny.c ****    {
 274:c:/Users/lenovo/Desktop/AIoT/first_day/firstday_afternoon/LiteOS_Lab_STM32_IoT/iot_link/oc/oc_mqtt/oc_mqtt_tiny_v5\oc_mqtt_tiny.c ****        return;
ARM GAS  C:\Users\lenovo\AppData\Local\Temp\cceHxmqh.s 			page 16


 275:c:/Users/lenovo/Desktop/AIoT/first_day/firstday_afternoon/LiteOS_Lab_STM32_IoT/iot_link/oc/oc_mqtt/oc_mqtt_tiny_v5\oc_mqtt_tiny.c ****    }
 276:c:/Users/lenovo/Desktop/AIoT/first_day/firstday_afternoon/LiteOS_Lab_STM32_IoT/iot_link/oc/oc_mqtt/oc_mqtt_tiny_v5\oc_mqtt_tiny.c **** 
 277:c:/Users/lenovo/Desktop/AIoT/first_day/firstday_afternoon/LiteOS_Lab_STM32_IoT/iot_link/oc/oc_mqtt/oc_mqtt_tiny_v5\oc_mqtt_tiny.c ****    memcpy(json_buf,msg->msg.data,msg->msg.len);
 436              		.loc 1 277 28
 437 003e 3B68     		ldr	r3, [r7]
 438 0040 9968     		ldr	r1, [r3, #8]
 439              		.loc 1 277 42
 440 0042 3B68     		ldr	r3, [r7]
 441 0044 DB68     		ldr	r3, [r3, #12]
 442              		.loc 1 277 4
 443 0046 1A46     		mov	r2, r3
 444 0048 F868     		ldr	r0, [r7, #12]
 445 004a FFF7FEFF 		bl	memcpy
 278:c:/Users/lenovo/Desktop/AIoT/first_day/firstday_afternoon/LiteOS_Lab_STM32_IoT/iot_link/oc/oc_mqtt/oc_mqtt_tiny_v5\oc_mqtt_tiny.c ****    json_buf[msg->msg.len] = '\0';
 446              		.loc 1 278 21
 447 004e 3B68     		ldr	r3, [r7]
 448 0050 DB68     		ldr	r3, [r3, #12]
 449 0052 1A46     		mov	r2, r3
 450              		.loc 1 278 12
 451 0054 FB68     		ldr	r3, [r7, #12]
 452 0056 1344     		add	r3, r3, r2
 453              		.loc 1 278 27
 454 0058 0022     		movs	r2, #0
 455 005a 1A70     		strb	r2, [r3]
 279:c:/Users/lenovo/Desktop/AIoT/first_day/firstday_afternoon/LiteOS_Lab_STM32_IoT/iot_link/oc/oc_mqtt/oc_mqtt_tiny_v5\oc_mqtt_tiny.c **** 
 280:c:/Users/lenovo/Desktop/AIoT/first_day/firstday_afternoon/LiteOS_Lab_STM32_IoT/iot_link/oc/oc_mqtt/oc_mqtt_tiny_v5\oc_mqtt_tiny.c ****    printf("msg:%s\n\r",json_buf);
 456              		.loc 1 280 4
 457 005c F968     		ldr	r1, [r7, #12]
 458 005e 3248     		ldr	r0, .L20+4
 459 0060 FFF7FEFF 		bl	printf
 281:c:/Users/lenovo/Desktop/AIoT/first_day/firstday_afternoon/LiteOS_Lab_STM32_IoT/iot_link/oc/oc_mqtt/oc_mqtt_tiny_v5\oc_mqtt_tiny.c ****    root = cJSON_Parse(json_buf);
 460              		.loc 1 281 11
 461 0064 F868     		ldr	r0, [r7, #12]
 462 0066 FFF7FEFF 		bl	cJSON_Parse
 463 006a F861     		str	r0, [r7, #28]
 282:c:/Users/lenovo/Desktop/AIoT/first_day/firstday_afternoon/LiteOS_Lab_STM32_IoT/iot_link/oc/oc_mqtt/oc_mqtt_tiny_v5\oc_mqtt_tiny.c ****    if(NULL != root)
 464              		.loc 1 282 6
 465 006c FB69     		ldr	r3, [r7, #28]
 466 006e 002B     		cmp	r3, #0
 467 0070 4FD0     		beq	.L17
 283:c:/Users/lenovo/Desktop/AIoT/first_day/firstday_afternoon/LiteOS_Lab_STM32_IoT/iot_link/oc/oc_mqtt/oc_mqtt_tiny_v5\oc_mqtt_tiny.c ****    {
 284:c:/Users/lenovo/Desktop/AIoT/first_day/firstday_afternoon/LiteOS_Lab_STM32_IoT/iot_link/oc/oc_mqtt/oc_mqtt_tiny_v5\oc_mqtt_tiny.c ****        addr_item = cJSON_GetObjectItem(root,"address");
 468              		.loc 1 284 20
 469 0072 2E49     		ldr	r1, .L20+8
 470 0074 F869     		ldr	r0, [r7, #28]
 471 0076 FFF7FEFF 		bl	cJSON_GetObjectItem
 472 007a B861     		str	r0, [r7, #24]
 285:c:/Users/lenovo/Desktop/AIoT/first_day/firstday_afternoon/LiteOS_Lab_STM32_IoT/iot_link/oc/oc_mqtt/oc_mqtt_tiny_v5\oc_mqtt_tiny.c ****        if(NULL != addr_item)
 473              		.loc 1 285 10
 474 007c BB69     		ldr	r3, [r7, #24]
 475 007e 002B     		cmp	r3, #0
 476 0080 44D0     		beq	.L18
 286:c:/Users/lenovo/Desktop/AIoT/first_day/firstday_afternoon/LiteOS_Lab_STM32_IoT/iot_link/oc/oc_mqtt/oc_mqtt_tiny_v5\oc_mqtt_tiny.c ****        {
 287:c:/Users/lenovo/Desktop/AIoT/first_day/firstday_afternoon/LiteOS_Lab_STM32_IoT/iot_link/oc/oc_mqtt/oc_mqtt_tiny_v5\oc_mqtt_tiny.c ****            printf("address:%s\n\r", addr_item->valuestring);
 477              		.loc 1 287 12
 478 0082 BB69     		ldr	r3, [r7, #24]
 479 0084 1B69     		ldr	r3, [r3, #16]
ARM GAS  C:\Users\lenovo\AppData\Local\Temp\cceHxmqh.s 			page 17


 480 0086 1946     		mov	r1, r3
 481 0088 2948     		ldr	r0, .L20+12
 482 008a FFF7FEFF 		bl	printf
 288:c:/Users/lenovo/Desktop/AIoT/first_day/firstday_afternoon/LiteOS_Lab_STM32_IoT/iot_link/oc/oc_mqtt/oc_mqtt_tiny_v5\oc_mqtt_tiny.c ****            port = strrchr(addr_item->valuestring, ':');
 483              		.loc 1 288 36
 484 008e BB69     		ldr	r3, [r7, #24]
 485 0090 1B69     		ldr	r3, [r3, #16]
 486              		.loc 1 288 19
 487 0092 3A21     		movs	r1, #58
 488 0094 1846     		mov	r0, r3
 489 0096 FFF7FEFF 		bl	strrchr
 490 009a 7861     		str	r0, [r7, #20]
 289:c:/Users/lenovo/Desktop/AIoT/first_day/firstday_afternoon/LiteOS_Lab_STM32_IoT/iot_link/oc/oc_mqtt/oc_mqtt_tiny_v5\oc_mqtt_tiny.c ****            if(NULL != port)
 491              		.loc 1 289 14
 492 009c 7B69     		ldr	r3, [r7, #20]
 493 009e 002B     		cmp	r3, #0
 494 00a0 34D0     		beq	.L18
 290:c:/Users/lenovo/Desktop/AIoT/first_day/firstday_afternoon/LiteOS_Lab_STM32_IoT/iot_link/oc/oc_mqtt/oc_mqtt_tiny_v5\oc_mqtt_tiny.c ****            {
 291:c:/Users/lenovo/Desktop/AIoT/first_day/firstday_afternoon/LiteOS_Lab_STM32_IoT/iot_link/oc/oc_mqtt/oc_mqtt_tiny_v5\oc_mqtt_tiny.c ****                server = addr_item->valuestring;
 495              		.loc 1 291 23
 496 00a2 BB69     		ldr	r3, [r7, #24]
 497 00a4 1B69     		ldr	r3, [r3, #16]
 498 00a6 3B61     		str	r3, [r7, #16]
 292:c:/Users/lenovo/Desktop/AIoT/first_day/firstday_afternoon/LiteOS_Lab_STM32_IoT/iot_link/oc/oc_mqtt/oc_mqtt_tiny_v5\oc_mqtt_tiny.c ****                *port = '\0';
 499              		.loc 1 292 22
 500 00a8 7B69     		ldr	r3, [r7, #20]
 501 00aa 0022     		movs	r2, #0
 502 00ac 1A70     		strb	r2, [r3]
 293:c:/Users/lenovo/Desktop/AIoT/first_day/firstday_afternoon/LiteOS_Lab_STM32_IoT/iot_link/oc/oc_mqtt/oc_mqtt_tiny_v5\oc_mqtt_tiny.c ****                port++;
 503              		.loc 1 293 20
 504 00ae 7B69     		ldr	r3, [r7, #20]
 505 00b0 0133     		adds	r3, r3, #1
 506 00b2 7B61     		str	r3, [r7, #20]
 294:c:/Users/lenovo/Desktop/AIoT/first_day/firstday_afternoon/LiteOS_Lab_STM32_IoT/iot_link/oc/oc_mqtt/oc_mqtt_tiny_v5\oc_mqtt_tiny.c ****                osal_free(s_oc_mqtt_tiny_cb->bs_cb.hubserver_addr);
 507              		.loc 1 294 43
 508 00b4 1F4B     		ldr	r3, .L20+16
 509 00b6 1B68     		ldr	r3, [r3]
 510              		.loc 1 294 50
 511 00b8 1B6F     		ldr	r3, [r3, #112]
 512              		.loc 1 294 16
 513 00ba 1846     		mov	r0, r3
 514 00bc FFF7FEFF 		bl	osal_free
 295:c:/Users/lenovo/Desktop/AIoT/first_day/firstday_afternoon/LiteOS_Lab_STM32_IoT/iot_link/oc/oc_mqtt/oc_mqtt_tiny_v5\oc_mqtt_tiny.c ****                osal_free(s_oc_mqtt_tiny_cb->bs_cb.hubserver_port);
 515              		.loc 1 295 43
 516 00c0 1C4B     		ldr	r3, .L20+16
 517 00c2 1B68     		ldr	r3, [r3]
 518              		.loc 1 295 50
 519 00c4 5B6F     		ldr	r3, [r3, #116]
 520              		.loc 1 295 16
 521 00c6 1846     		mov	r0, r3
 522 00c8 FFF7FEFF 		bl	osal_free
 296:c:/Users/lenovo/Desktop/AIoT/first_day/firstday_afternoon/LiteOS_Lab_STM32_IoT/iot_link/oc/oc_mqtt/oc_mqtt_tiny_v5\oc_mqtt_tiny.c **** 
 297:c:/Users/lenovo/Desktop/AIoT/first_day/firstday_afternoon/LiteOS_Lab_STM32_IoT/iot_link/oc/oc_mqtt/oc_mqtt_tiny_v5\oc_mqtt_tiny.c ****                s_oc_mqtt_tiny_cb->bs_cb.hubserver_addr = osal_strdup(server);
 523              		.loc 1 297 33
 524 00cc 194B     		ldr	r3, .L20+16
 525 00ce 1C68     		ldr	r4, [r3]
 526              		.loc 1 297 58
ARM GAS  C:\Users\lenovo\AppData\Local\Temp\cceHxmqh.s 			page 18


 527 00d0 3869     		ldr	r0, [r7, #16]
 528 00d2 FFF7FEFF 		bl	osal_strdup
 529 00d6 0346     		mov	r3, r0
 530              		.loc 1 297 56
 531 00d8 2367     		str	r3, [r4, #112]
 298:c:/Users/lenovo/Desktop/AIoT/first_day/firstday_afternoon/LiteOS_Lab_STM32_IoT/iot_link/oc/oc_mqtt/oc_mqtt_tiny_v5\oc_mqtt_tiny.c ****                s_oc_mqtt_tiny_cb->bs_cb.hubserver_port = osal_strdup(port);
 532              		.loc 1 298 33
 533 00da 164B     		ldr	r3, .L20+16
 534 00dc 1C68     		ldr	r4, [r3]
 535              		.loc 1 298 58
 536 00de 7869     		ldr	r0, [r7, #20]
 537 00e0 FFF7FEFF 		bl	osal_strdup
 538 00e4 0346     		mov	r3, r0
 539              		.loc 1 298 56
 540 00e6 6367     		str	r3, [r4, #116]
 299:c:/Users/lenovo/Desktop/AIoT/first_day/firstday_afternoon/LiteOS_Lab_STM32_IoT/iot_link/oc/oc_mqtt/oc_mqtt_tiny_v5\oc_mqtt_tiny.c **** 
 300:c:/Users/lenovo/Desktop/AIoT/first_day/firstday_afternoon/LiteOS_Lab_STM32_IoT/iot_link/oc/oc_mqtt/oc_mqtt_tiny_v5\oc_mqtt_tiny.c ****                if((NULL != s_oc_mqtt_tiny_cb->bs_cb.hubserver_addr) && \
 541              		.loc 1 300 45
 542 00e8 124B     		ldr	r3, .L20+16
 543 00ea 1B68     		ldr	r3, [r3]
 544              		.loc 1 300 52
 545 00ec 1B6F     		ldr	r3, [r3, #112]
 546              		.loc 1 300 18
 547 00ee 002B     		cmp	r3, #0
 548 00f0 0CD0     		beq	.L18
 301:c:/Users/lenovo/Desktop/AIoT/first_day/firstday_afternoon/LiteOS_Lab_STM32_IoT/iot_link/oc/oc_mqtt/oc_mqtt_tiny_v5\oc_mqtt_tiny.c ****                        (NULL != s_oc_mqtt_tiny_cb->bs_cb.hubserver_port))
 549              		.loc 1 301 50 discriminator 1
 550 00f2 104B     		ldr	r3, .L20+16
 551 00f4 1B68     		ldr	r3, [r3]
 552              		.loc 1 301 57 discriminator 1
 553 00f6 5B6F     		ldr	r3, [r3, #116]
 300:c:/Users/lenovo/Desktop/AIoT/first_day/firstday_afternoon/LiteOS_Lab_STM32_IoT/iot_link/oc/oc_mqtt/oc_mqtt_tiny_v5\oc_mqtt_tiny.c ****                        (NULL != s_oc_mqtt_tiny_cb->bs_cb.hubserver_port))
 554              		.loc 1 300 69 discriminator 1
 555 00f8 002B     		cmp	r3, #0
 556 00fa 07D0     		beq	.L18
 302:c:/Users/lenovo/Desktop/AIoT/first_day/firstday_afternoon/LiteOS_Lab_STM32_IoT/iot_link/oc/oc_mqtt/oc_mqtt_tiny_v5\oc_mqtt_tiny.c ****                {
 303:c:/Users/lenovo/Desktop/AIoT/first_day/firstday_afternoon/LiteOS_Lab_STM32_IoT/iot_link/oc/oc_mqtt/oc_mqtt_tiny_v5\oc_mqtt_tiny.c ****                    s_oc_mqtt_tiny_cb->flag.bits.bit_get_hubaddr =1;
 557              		.loc 1 303 37
 558 00fc 0D4B     		ldr	r3, .L20+16
 559 00fe 1A68     		ldr	r2, [r3]
 560              		.loc 1 303 65
 561 0100 92F86C30 		ldrb	r3, [r2, #108]
 562 0104 43F01003 		orr	r3, r3, #16
 563 0108 82F86C30 		strb	r3, [r2, #108]
 564              	.L18:
 304:c:/Users/lenovo/Desktop/AIoT/first_day/firstday_afternoon/LiteOS_Lab_STM32_IoT/iot_link/oc/oc_mqtt/oc_mqtt_tiny_v5\oc_mqtt_tiny.c ****                }
 305:c:/Users/lenovo/Desktop/AIoT/first_day/firstday_afternoon/LiteOS_Lab_STM32_IoT/iot_link/oc/oc_mqtt/oc_mqtt_tiny_v5\oc_mqtt_tiny.c **** 
 306:c:/Users/lenovo/Desktop/AIoT/first_day/firstday_afternoon/LiteOS_Lab_STM32_IoT/iot_link/oc/oc_mqtt/oc_mqtt_tiny_v5\oc_mqtt_tiny.c ****            }
 307:c:/Users/lenovo/Desktop/AIoT/first_day/firstday_afternoon/LiteOS_Lab_STM32_IoT/iot_link/oc/oc_mqtt/oc_mqtt_tiny_v5\oc_mqtt_tiny.c ****        }
 308:c:/Users/lenovo/Desktop/AIoT/first_day/firstday_afternoon/LiteOS_Lab_STM32_IoT/iot_link/oc/oc_mqtt/oc_mqtt_tiny_v5\oc_mqtt_tiny.c ****        cJSON_Delete(root);
 565              		.loc 1 308 8
 566 010c F869     		ldr	r0, [r7, #28]
 567 010e FFF7FEFF 		bl	cJSON_Delete
 568              	.L17:
 309:c:/Users/lenovo/Desktop/AIoT/first_day/firstday_afternoon/LiteOS_Lab_STM32_IoT/iot_link/oc/oc_mqtt/oc_mqtt_tiny_v5\oc_mqtt_tiny.c ****    }
 310:c:/Users/lenovo/Desktop/AIoT/first_day/firstday_afternoon/LiteOS_Lab_STM32_IoT/iot_link/oc/oc_mqtt/oc_mqtt_tiny_v5\oc_mqtt_tiny.c ****    osal_free(json_buf);
 569              		.loc 1 310 4
ARM GAS  C:\Users\lenovo\AppData\Local\Temp\cceHxmqh.s 			page 19


 570 0112 F868     		ldr	r0, [r7, #12]
 571 0114 FFF7FEFF 		bl	osal_free
 311:c:/Users/lenovo/Desktop/AIoT/first_day/firstday_afternoon/LiteOS_Lab_STM32_IoT/iot_link/oc/oc_mqtt/oc_mqtt_tiny_v5\oc_mqtt_tiny.c **** 
 312:c:/Users/lenovo/Desktop/AIoT/first_day/firstday_afternoon/LiteOS_Lab_STM32_IoT/iot_link/oc/oc_mqtt/oc_mqtt_tiny_v5\oc_mqtt_tiny.c ****    return;
 572              		.loc 1 312 4
 573 0118 00E0     		b	.L14
 574              	.L19:
 274:c:/Users/lenovo/Desktop/AIoT/first_day/firstday_afternoon/LiteOS_Lab_STM32_IoT/iot_link/oc/oc_mqtt/oc_mqtt_tiny_v5\oc_mqtt_tiny.c ****    }
 575              		.loc 1 274 8
 576 011a 00BF     		nop
 577              	.L14:
 313:c:/Users/lenovo/Desktop/AIoT/first_day/firstday_afternoon/LiteOS_Lab_STM32_IoT/iot_link/oc/oc_mqtt/oc_mqtt_tiny_v5\oc_mqtt_tiny.c **** }
 578              		.loc 1 313 1
 579 011c 2437     		adds	r7, r7, #36
 580              	.LCFI8:
 581              		.cfi_def_cfa_offset 12
 582 011e BD46     		mov	sp, r7
 583              	.LCFI9:
 584              		.cfi_def_cfa_register 13
 585              		@ sp needed
 586 0120 90BD     		pop	{r4, r7, pc}
 587              	.L21:
 588 0122 00BF     		.align	2
 589              	.L20:
 590 0124 E8000000 		.word	.LC9
 591 0128 00010000 		.word	.LC10
 592 012c 0C010000 		.word	.LC11
 593 0130 14010000 		.word	.LC12
 594 0134 00000000 		.word	s_oc_mqtt_tiny_cb
 595              		.cfi_endproc
 596              	.LFE4:
 598              		.section	.text.topic_fmt,"ax",%progbits
 599              		.align	1
 600              		.syntax unified
 601              		.thumb
 602              		.thumb_func
 603              		.fpu fpv4-sp-d16
 605              	topic_fmt:
 606              	.LFB5:
 314:c:/Users/lenovo/Desktop/AIoT/first_day/firstday_afternoon/LiteOS_Lab_STM32_IoT/iot_link/oc/oc_mqtt/oc_mqtt_tiny_v5\oc_mqtt_tiny.c **** 
 315:c:/Users/lenovo/Desktop/AIoT/first_day/firstday_afternoon/LiteOS_Lab_STM32_IoT/iot_link/oc/oc_mqtt/oc_mqtt_tiny_v5\oc_mqtt_tiny.c **** static char *topic_fmt(char *fmt, char *id)
 316:c:/Users/lenovo/Desktop/AIoT/first_day/firstday_afternoon/LiteOS_Lab_STM32_IoT/iot_link/oc/oc_mqtt/oc_mqtt_tiny_v5\oc_mqtt_tiny.c **** {
 607              		.loc 1 316 1
 608              		.cfi_startproc
 609              		@ args = 0, pretend = 0, frame = 16
 610              		@ frame_needed = 1, uses_anonymous_args = 0
 611 0000 90B5     		push	{r4, r7, lr}
 612              	.LCFI10:
 613              		.cfi_def_cfa_offset 12
 614              		.cfi_offset 4, -12
 615              		.cfi_offset 7, -8
 616              		.cfi_offset 14, -4
 617 0002 85B0     		sub	sp, sp, #20
 618              	.LCFI11:
 619              		.cfi_def_cfa_offset 32
 620 0004 00AF     		add	r7, sp, #0
 621              	.LCFI12:
ARM GAS  C:\Users\lenovo\AppData\Local\Temp\cceHxmqh.s 			page 20


 622              		.cfi_def_cfa_register 7
 623 0006 7860     		str	r0, [r7, #4]
 624 0008 3960     		str	r1, [r7]
 317:c:/Users/lenovo/Desktop/AIoT/first_day/firstday_afternoon/LiteOS_Lab_STM32_IoT/iot_link/oc/oc_mqtt/oc_mqtt_tiny_v5\oc_mqtt_tiny.c ****     char *ret = NULL;
 625              		.loc 1 317 11
 626 000a 0023     		movs	r3, #0
 627 000c FB60     		str	r3, [r7, #12]
 318:c:/Users/lenovo/Desktop/AIoT/first_day/firstday_afternoon/LiteOS_Lab_STM32_IoT/iot_link/oc/oc_mqtt/oc_mqtt_tiny_v5\oc_mqtt_tiny.c ****     int len =  0;
 628              		.loc 1 318 9
 629 000e 0023     		movs	r3, #0
 630 0010 BB60     		str	r3, [r7, #8]
 319:c:/Users/lenovo/Desktop/AIoT/first_day/firstday_afternoon/LiteOS_Lab_STM32_IoT/iot_link/oc/oc_mqtt/oc_mqtt_tiny_v5\oc_mqtt_tiny.c **** 
 320:c:/Users/lenovo/Desktop/AIoT/first_day/firstday_afternoon/LiteOS_Lab_STM32_IoT/iot_link/oc/oc_mqtt/oc_mqtt_tiny_v5\oc_mqtt_tiny.c ****     len = strlen(fmt) + strlen(id) + 1;
 631              		.loc 1 320 11
 632 0012 7868     		ldr	r0, [r7, #4]
 633 0014 FFF7FEFF 		bl	strlen
 634 0018 0446     		mov	r4, r0
 635              		.loc 1 320 25
 636 001a 3868     		ldr	r0, [r7]
 637 001c FFF7FEFF 		bl	strlen
 638 0020 0346     		mov	r3, r0
 639              		.loc 1 320 23
 640 0022 2344     		add	r3, r3, r4
 641              		.loc 1 320 36
 642 0024 0133     		adds	r3, r3, #1
 643              		.loc 1 320 9
 644 0026 BB60     		str	r3, [r7, #8]
 321:c:/Users/lenovo/Desktop/AIoT/first_day/firstday_afternoon/LiteOS_Lab_STM32_IoT/iot_link/oc/oc_mqtt/oc_mqtt_tiny_v5\oc_mqtt_tiny.c **** 
 322:c:/Users/lenovo/Desktop/AIoT/first_day/firstday_afternoon/LiteOS_Lab_STM32_IoT/iot_link/oc/oc_mqtt/oc_mqtt_tiny_v5\oc_mqtt_tiny.c ****     ret = osal_malloc(len);
 645              		.loc 1 322 11
 646 0028 BB68     		ldr	r3, [r7, #8]
 647 002a 1846     		mov	r0, r3
 648 002c FFF7FEFF 		bl	osal_malloc
 649 0030 F860     		str	r0, [r7, #12]
 323:c:/Users/lenovo/Desktop/AIoT/first_day/firstday_afternoon/LiteOS_Lab_STM32_IoT/iot_link/oc/oc_mqtt/oc_mqtt_tiny_v5\oc_mqtt_tiny.c ****     if(NULL != ret)
 650              		.loc 1 323 7
 651 0032 FB68     		ldr	r3, [r7, #12]
 652 0034 002B     		cmp	r3, #0
 653 0036 05D0     		beq	.L23
 324:c:/Users/lenovo/Desktop/AIoT/first_day/firstday_afternoon/LiteOS_Lab_STM32_IoT/iot_link/oc/oc_mqtt/oc_mqtt_tiny_v5\oc_mqtt_tiny.c ****     {
 325:c:/Users/lenovo/Desktop/AIoT/first_day/firstday_afternoon/LiteOS_Lab_STM32_IoT/iot_link/oc/oc_mqtt/oc_mqtt_tiny_v5\oc_mqtt_tiny.c ****         snprintf(ret,len,fmt,id);
 654              		.loc 1 325 9
 655 0038 B968     		ldr	r1, [r7, #8]
 656 003a 3B68     		ldr	r3, [r7]
 657 003c 7A68     		ldr	r2, [r7, #4]
 658 003e F868     		ldr	r0, [r7, #12]
 659 0040 FFF7FEFF 		bl	snprintf
 660              	.L23:
 326:c:/Users/lenovo/Desktop/AIoT/first_day/firstday_afternoon/LiteOS_Lab_STM32_IoT/iot_link/oc/oc_mqtt/oc_mqtt_tiny_v5\oc_mqtt_tiny.c ****     }
 327:c:/Users/lenovo/Desktop/AIoT/first_day/firstday_afternoon/LiteOS_Lab_STM32_IoT/iot_link/oc/oc_mqtt/oc_mqtt_tiny_v5\oc_mqtt_tiny.c **** 
 328:c:/Users/lenovo/Desktop/AIoT/first_day/firstday_afternoon/LiteOS_Lab_STM32_IoT/iot_link/oc/oc_mqtt/oc_mqtt_tiny_v5\oc_mqtt_tiny.c ****     return ret;
 661              		.loc 1 328 12
 662 0044 FB68     		ldr	r3, [r7, #12]
 329:c:/Users/lenovo/Desktop/AIoT/first_day/firstday_afternoon/LiteOS_Lab_STM32_IoT/iot_link/oc/oc_mqtt/oc_mqtt_tiny_v5\oc_mqtt_tiny.c **** }
 663              		.loc 1 329 1
 664 0046 1846     		mov	r0, r3
 665 0048 1437     		adds	r7, r7, #20
ARM GAS  C:\Users\lenovo\AppData\Local\Temp\cceHxmqh.s 			page 21


 666              	.LCFI13:
 667              		.cfi_def_cfa_offset 12
 668 004a BD46     		mov	sp, r7
 669              	.LCFI14:
 670              		.cfi_def_cfa_register 13
 671              		@ sp needed
 672 004c 90BD     		pop	{r4, r7, pc}
 673              		.cfi_endproc
 674              	.LFE5:
 676              		.section	.text.clientid_fmt,"ax",%progbits
 677              		.align	1
 678              		.syntax unified
 679              		.thumb
 680              		.thumb_func
 681              		.fpu fpv4-sp-d16
 683              	clientid_fmt:
 684              	.LFB6:
 330:c:/Users/lenovo/Desktop/AIoT/first_day/firstday_afternoon/LiteOS_Lab_STM32_IoT/iot_link/oc/oc_mqtt/oc_mqtt_tiny_v5\oc_mqtt_tiny.c **** 
 331:c:/Users/lenovo/Desktop/AIoT/first_day/firstday_afternoon/LiteOS_Lab_STM32_IoT/iot_link/oc/oc_mqtt/oc_mqtt_tiny_v5\oc_mqtt_tiny.c **** static char *clientid_fmt(char *fmt, char *id, char *salt_time)
 332:c:/Users/lenovo/Desktop/AIoT/first_day/firstday_afternoon/LiteOS_Lab_STM32_IoT/iot_link/oc/oc_mqtt/oc_mqtt_tiny_v5\oc_mqtt_tiny.c **** {
 685              		.loc 1 332 1
 686              		.cfi_startproc
 687              		@ args = 0, pretend = 0, frame = 24
 688              		@ frame_needed = 1, uses_anonymous_args = 0
 689 0000 90B5     		push	{r4, r7, lr}
 690              	.LCFI15:
 691              		.cfi_def_cfa_offset 12
 692              		.cfi_offset 4, -12
 693              		.cfi_offset 7, -8
 694              		.cfi_offset 14, -4
 695 0002 89B0     		sub	sp, sp, #36
 696              	.LCFI16:
 697              		.cfi_def_cfa_offset 48
 698 0004 02AF     		add	r7, sp, #8
 699              	.LCFI17:
 700              		.cfi_def_cfa 7, 40
 701 0006 F860     		str	r0, [r7, #12]
 702 0008 B960     		str	r1, [r7, #8]
 703 000a 7A60     		str	r2, [r7, #4]
 333:c:/Users/lenovo/Desktop/AIoT/first_day/firstday_afternoon/LiteOS_Lab_STM32_IoT/iot_link/oc/oc_mqtt/oc_mqtt_tiny_v5\oc_mqtt_tiny.c ****     char *ret = NULL;
 704              		.loc 1 333 11
 705 000c 0023     		movs	r3, #0
 706 000e 7B61     		str	r3, [r7, #20]
 334:c:/Users/lenovo/Desktop/AIoT/first_day/firstday_afternoon/LiteOS_Lab_STM32_IoT/iot_link/oc/oc_mqtt/oc_mqtt_tiny_v5\oc_mqtt_tiny.c ****     int len =  0;
 707              		.loc 1 334 9
 708 0010 0023     		movs	r3, #0
 709 0012 3B61     		str	r3, [r7, #16]
 335:c:/Users/lenovo/Desktop/AIoT/first_day/firstday_afternoon/LiteOS_Lab_STM32_IoT/iot_link/oc/oc_mqtt/oc_mqtt_tiny_v5\oc_mqtt_tiny.c **** 
 336:c:/Users/lenovo/Desktop/AIoT/first_day/firstday_afternoon/LiteOS_Lab_STM32_IoT/iot_link/oc/oc_mqtt/oc_mqtt_tiny_v5\oc_mqtt_tiny.c ****     len = strlen(fmt) + strlen(id) + strlen(salt_time) + 1;
 710              		.loc 1 336 11
 711 0014 F868     		ldr	r0, [r7, #12]
 712 0016 FFF7FEFF 		bl	strlen
 713 001a 0446     		mov	r4, r0
 714              		.loc 1 336 25
 715 001c B868     		ldr	r0, [r7, #8]
 716 001e FFF7FEFF 		bl	strlen
 717 0022 0346     		mov	r3, r0
ARM GAS  C:\Users\lenovo\AppData\Local\Temp\cceHxmqh.s 			page 22


 718              		.loc 1 336 23
 719 0024 1C44     		add	r4, r4, r3
 720              		.loc 1 336 38
 721 0026 7868     		ldr	r0, [r7, #4]
 722 0028 FFF7FEFF 		bl	strlen
 723 002c 0346     		mov	r3, r0
 724              		.loc 1 336 36
 725 002e 2344     		add	r3, r3, r4
 726              		.loc 1 336 56
 727 0030 0133     		adds	r3, r3, #1
 728              		.loc 1 336 9
 729 0032 3B61     		str	r3, [r7, #16]
 337:c:/Users/lenovo/Desktop/AIoT/first_day/firstday_afternoon/LiteOS_Lab_STM32_IoT/iot_link/oc/oc_mqtt/oc_mqtt_tiny_v5\oc_mqtt_tiny.c **** 
 338:c:/Users/lenovo/Desktop/AIoT/first_day/firstday_afternoon/LiteOS_Lab_STM32_IoT/iot_link/oc/oc_mqtt/oc_mqtt_tiny_v5\oc_mqtt_tiny.c ****     ret = osal_malloc(len);
 730              		.loc 1 338 11
 731 0034 3B69     		ldr	r3, [r7, #16]
 732 0036 1846     		mov	r0, r3
 733 0038 FFF7FEFF 		bl	osal_malloc
 734 003c 7861     		str	r0, [r7, #20]
 339:c:/Users/lenovo/Desktop/AIoT/first_day/firstday_afternoon/LiteOS_Lab_STM32_IoT/iot_link/oc/oc_mqtt/oc_mqtt_tiny_v5\oc_mqtt_tiny.c ****     if(NULL != ret)
 735              		.loc 1 339 7
 736 003e 7B69     		ldr	r3, [r7, #20]
 737 0040 002B     		cmp	r3, #0
 738 0042 07D0     		beq	.L26
 340:c:/Users/lenovo/Desktop/AIoT/first_day/firstday_afternoon/LiteOS_Lab_STM32_IoT/iot_link/oc/oc_mqtt/oc_mqtt_tiny_v5\oc_mqtt_tiny.c ****     {
 341:c:/Users/lenovo/Desktop/AIoT/first_day/firstday_afternoon/LiteOS_Lab_STM32_IoT/iot_link/oc/oc_mqtt/oc_mqtt_tiny_v5\oc_mqtt_tiny.c ****         snprintf(ret,len,fmt,id,salt_time);
 739              		.loc 1 341 9
 740 0044 3969     		ldr	r1, [r7, #16]
 741 0046 7B68     		ldr	r3, [r7, #4]
 742 0048 0093     		str	r3, [sp]
 743 004a BB68     		ldr	r3, [r7, #8]
 744 004c FA68     		ldr	r2, [r7, #12]
 745 004e 7869     		ldr	r0, [r7, #20]
 746 0050 FFF7FEFF 		bl	snprintf
 747              	.L26:
 342:c:/Users/lenovo/Desktop/AIoT/first_day/firstday_afternoon/LiteOS_Lab_STM32_IoT/iot_link/oc/oc_mqtt/oc_mqtt_tiny_v5\oc_mqtt_tiny.c ****     }
 343:c:/Users/lenovo/Desktop/AIoT/first_day/firstday_afternoon/LiteOS_Lab_STM32_IoT/iot_link/oc/oc_mqtt/oc_mqtt_tiny_v5\oc_mqtt_tiny.c **** 
 344:c:/Users/lenovo/Desktop/AIoT/first_day/firstday_afternoon/LiteOS_Lab_STM32_IoT/iot_link/oc/oc_mqtt/oc_mqtt_tiny_v5\oc_mqtt_tiny.c ****     return ret;
 748              		.loc 1 344 12
 749 0054 7B69     		ldr	r3, [r7, #20]
 345:c:/Users/lenovo/Desktop/AIoT/first_day/firstday_afternoon/LiteOS_Lab_STM32_IoT/iot_link/oc/oc_mqtt/oc_mqtt_tiny_v5\oc_mqtt_tiny.c **** }
 750              		.loc 1 345 1
 751 0056 1846     		mov	r0, r3
 752 0058 1C37     		adds	r7, r7, #28
 753              	.LCFI18:
 754              		.cfi_def_cfa_offset 12
 755 005a BD46     		mov	sp, r7
 756              	.LCFI19:
 757              		.cfi_def_cfa_register 13
 758              		@ sp needed
 759 005c 90BD     		pop	{r4, r7, pc}
 760              		.cfi_endproc
 761              	.LFE6:
 763              		.section	.text.daemon_cmd_post,"ax",%progbits
 764              		.align	1
 765              		.syntax unified
 766              		.thumb
ARM GAS  C:\Users\lenovo\AppData\Local\Temp\cceHxmqh.s 			page 23


 767              		.thumb_func
 768              		.fpu fpv4-sp-d16
 770              	daemon_cmd_post:
 771              	.LFB7:
 346:c:/Users/lenovo/Desktop/AIoT/first_day/firstday_afternoon/LiteOS_Lab_STM32_IoT/iot_link/oc/oc_mqtt/oc_mqtt_tiny_v5\oc_mqtt_tiny.c **** 
 347:c:/Users/lenovo/Desktop/AIoT/first_day/firstday_afternoon/LiteOS_Lab_STM32_IoT/iot_link/oc/oc_mqtt/oc_mqtt_tiny_v5\oc_mqtt_tiny.c **** ///< return the command code for the operation
 348:c:/Users/lenovo/Desktop/AIoT/first_day/firstday_afternoon/LiteOS_Lab_STM32_IoT/iot_link/oc/oc_mqtt/oc_mqtt_tiny_v5\oc_mqtt_tiny.c **** static int daemon_cmd_post(en_oc_mqtt_daemon_cmd cmd, void *arg)
 349:c:/Users/lenovo/Desktop/AIoT/first_day/firstday_afternoon/LiteOS_Lab_STM32_IoT/iot_link/oc/oc_mqtt/oc_mqtt_tiny_v5\oc_mqtt_tiny.c **** {
 772              		.loc 1 349 1
 773              		.cfi_startproc
 774              		@ args = 0, pretend = 0, frame = 16
 775              		@ frame_needed = 1, uses_anonymous_args = 0
 776 0000 80B5     		push	{r7, lr}
 777              	.LCFI20:
 778              		.cfi_def_cfa_offset 8
 779              		.cfi_offset 7, -8
 780              		.cfi_offset 14, -4
 781 0002 84B0     		sub	sp, sp, #16
 782              	.LCFI21:
 783              		.cfi_def_cfa_offset 24
 784 0004 00AF     		add	r7, sp, #0
 785              	.LCFI22:
 786              		.cfi_def_cfa_register 7
 787 0006 0346     		mov	r3, r0
 788 0008 3960     		str	r1, [r7]
 789 000a FB71     		strb	r3, [r7, #7]
 350:c:/Users/lenovo/Desktop/AIoT/first_day/firstday_afternoon/LiteOS_Lab_STM32_IoT/iot_link/oc/oc_mqtt/oc_mqtt_tiny_v5\oc_mqtt_tiny.c ****     int ret = en_oc_mqtt_err_system;
 790              		.loc 1 350 9
 791 000c 1023     		movs	r3, #16
 792 000e FB60     		str	r3, [r7, #12]
 351:c:/Users/lenovo/Desktop/AIoT/first_day/firstday_afternoon/LiteOS_Lab_STM32_IoT/iot_link/oc/oc_mqtt/oc_mqtt_tiny_v5\oc_mqtt_tiny.c ****     oc_mqtt_daemon_cmd_t *daemon_cmd;
 352:c:/Users/lenovo/Desktop/AIoT/first_day/firstday_afternoon/LiteOS_Lab_STM32_IoT/iot_link/oc/oc_mqtt/oc_mqtt_tiny_v5\oc_mqtt_tiny.c **** 
 353:c:/Users/lenovo/Desktop/AIoT/first_day/firstday_afternoon/LiteOS_Lab_STM32_IoT/iot_link/oc/oc_mqtt/oc_mqtt_tiny_v5\oc_mqtt_tiny.c ****     daemon_cmd = osal_malloc(sizeof(oc_mqtt_daemon_cmd_t));
 793              		.loc 1 353 18
 794 0010 1020     		movs	r0, #16
 795 0012 FFF7FEFF 		bl	osal_malloc
 796 0016 B860     		str	r0, [r7, #8]
 354:c:/Users/lenovo/Desktop/AIoT/first_day/firstday_afternoon/LiteOS_Lab_STM32_IoT/iot_link/oc/oc_mqtt/oc_mqtt_tiny_v5\oc_mqtt_tiny.c ****     if(NULL != daemon_cmd)
 797              		.loc 1 354 7
 798 0018 BB68     		ldr	r3, [r7, #8]
 799 001a 002B     		cmp	r3, #0
 800 001c 2FD0     		beq	.L29
 355:c:/Users/lenovo/Desktop/AIoT/first_day/firstday_afternoon/LiteOS_Lab_STM32_IoT/iot_link/oc/oc_mqtt/oc_mqtt_tiny_v5\oc_mqtt_tiny.c ****     {
 356:c:/Users/lenovo/Desktop/AIoT/first_day/firstday_afternoon/LiteOS_Lab_STM32_IoT/iot_link/oc/oc_mqtt/oc_mqtt_tiny_v5\oc_mqtt_tiny.c ****         daemon_cmd->cmd = cmd;
 801              		.loc 1 356 25
 802 001e BB68     		ldr	r3, [r7, #8]
 803 0020 FA79     		ldrb	r2, [r7, #7]
 804 0022 1A70     		strb	r2, [r3]
 357:c:/Users/lenovo/Desktop/AIoT/first_day/firstday_afternoon/LiteOS_Lab_STM32_IoT/iot_link/oc/oc_mqtt/oc_mqtt_tiny_v5\oc_mqtt_tiny.c ****         daemon_cmd->arg = arg;
 805              		.loc 1 357 25
 806 0024 BB68     		ldr	r3, [r7, #8]
 807 0026 3A68     		ldr	r2, [r7]
 808 0028 5A60     		str	r2, [r3, #4]
 358:c:/Users/lenovo/Desktop/AIoT/first_day/firstday_afternoon/LiteOS_Lab_STM32_IoT/iot_link/oc/oc_mqtt/oc_mqtt_tiny_v5\oc_mqtt_tiny.c ****         daemon_cmd->retcode = ret;
 809              		.loc 1 358 29
 810 002a BB68     		ldr	r3, [r7, #8]
 811 002c FA68     		ldr	r2, [r7, #12]
ARM GAS  C:\Users\lenovo\AppData\Local\Temp\cceHxmqh.s 			page 24


 812 002e DA60     		str	r2, [r3, #12]
 359:c:/Users/lenovo/Desktop/AIoT/first_day/firstday_afternoon/LiteOS_Lab_STM32_IoT/iot_link/oc/oc_mqtt/oc_mqtt_tiny_v5\oc_mqtt_tiny.c ****         if(true == osal_semp_create(&daemon_cmd->signal,1,0))
 813              		.loc 1 359 20
 814 0030 BB68     		ldr	r3, [r7, #8]
 815 0032 0833     		adds	r3, r3, #8
 816 0034 0022     		movs	r2, #0
 817 0036 0121     		movs	r1, #1
 818 0038 1846     		mov	r0, r3
 819 003a FFF7FEFF 		bl	osal_semp_create
 820 003e 0346     		mov	r3, r0
 821              		.loc 1 359 11
 822 0040 012B     		cmp	r3, #1
 823 0042 19D1     		bne	.L30
 360:c:/Users/lenovo/Desktop/AIoT/first_day/firstday_afternoon/LiteOS_Lab_STM32_IoT/iot_link/oc/oc_mqtt/oc_mqtt_tiny_v5\oc_mqtt_tiny.c ****         {
 361:c:/Users/lenovo/Desktop/AIoT/first_day/firstday_afternoon/LiteOS_Lab_STM32_IoT/iot_link/oc/oc_mqtt/oc_mqtt_tiny_v5\oc_mqtt_tiny.c ****             if(0 == queue_push(s_oc_mqtt_tiny_cb->task_daemon_cmd_queue,daemon_cmd,10))
 824              		.loc 1 361 49
 825 0044 104B     		ldr	r3, .L33
 826 0046 1B68     		ldr	r3, [r3]
 827              		.loc 1 361 21
 828 0048 DB6F     		ldr	r3, [r3, #124]
 829 004a 0A22     		movs	r2, #10
 830 004c B968     		ldr	r1, [r7, #8]
 831 004e 1846     		mov	r0, r3
 832 0050 FFF7FEFF 		bl	queue_push
 833 0054 0346     		mov	r3, r0
 834              		.loc 1 361 15
 835 0056 002B     		cmp	r3, #0
 836 0058 09D1     		bne	.L31
 362:c:/Users/lenovo/Desktop/AIoT/first_day/firstday_afternoon/LiteOS_Lab_STM32_IoT/iot_link/oc/oc_mqtt/oc_mqtt_tiny_v5\oc_mqtt_tiny.c ****             {
 363:c:/Users/lenovo/Desktop/AIoT/first_day/firstday_afternoon/LiteOS_Lab_STM32_IoT/iot_link/oc/oc_mqtt/oc_mqtt_tiny_v5\oc_mqtt_tiny.c ****                 osal_semp_pend(daemon_cmd->signal,cn_osal_timeout_forever);
 837              		.loc 1 363 17
 838 005a BB68     		ldr	r3, [r7, #8]
 839 005c 9B68     		ldr	r3, [r3, #8]
 840 005e 4FF0FF31 		mov	r1, #-1
 841 0062 1846     		mov	r0, r3
 842 0064 FFF7FEFF 		bl	osal_semp_pend
 364:c:/Users/lenovo/Desktop/AIoT/first_day/firstday_afternoon/LiteOS_Lab_STM32_IoT/iot_link/oc/oc_mqtt/oc_mqtt_tiny_v5\oc_mqtt_tiny.c ****                 ret = daemon_cmd->retcode;
 843              		.loc 1 364 21
 844 0068 BB68     		ldr	r3, [r7, #8]
 845 006a DB68     		ldr	r3, [r3, #12]
 846 006c FB60     		str	r3, [r7, #12]
 847              	.L31:
 365:c:/Users/lenovo/Desktop/AIoT/first_day/firstday_afternoon/LiteOS_Lab_STM32_IoT/iot_link/oc/oc_mqtt/oc_mqtt_tiny_v5\oc_mqtt_tiny.c ****             }
 366:c:/Users/lenovo/Desktop/AIoT/first_day/firstday_afternoon/LiteOS_Lab_STM32_IoT/iot_link/oc/oc_mqtt/oc_mqtt_tiny_v5\oc_mqtt_tiny.c ****             osal_semp_del(daemon_cmd->signal);
 848              		.loc 1 366 13
 849 006e BB68     		ldr	r3, [r7, #8]
 850 0070 9B68     		ldr	r3, [r3, #8]
 851 0072 1846     		mov	r0, r3
 852 0074 FFF7FEFF 		bl	osal_semp_del
 853              	.L30:
 367:c:/Users/lenovo/Desktop/AIoT/first_day/firstday_afternoon/LiteOS_Lab_STM32_IoT/iot_link/oc/oc_mqtt/oc_mqtt_tiny_v5\oc_mqtt_tiny.c ****         }
 368:c:/Users/lenovo/Desktop/AIoT/first_day/firstday_afternoon/LiteOS_Lab_STM32_IoT/iot_link/oc/oc_mqtt/oc_mqtt_tiny_v5\oc_mqtt_tiny.c ****         osal_free(daemon_cmd);
 854              		.loc 1 368 9
 855 0078 B868     		ldr	r0, [r7, #8]
 856 007a FFF7FEFF 		bl	osal_free
 857              	.L29:
 369:c:/Users/lenovo/Desktop/AIoT/first_day/firstday_afternoon/LiteOS_Lab_STM32_IoT/iot_link/oc/oc_mqtt/oc_mqtt_tiny_v5\oc_mqtt_tiny.c ****     }
ARM GAS  C:\Users\lenovo\AppData\Local\Temp\cceHxmqh.s 			page 25


 370:c:/Users/lenovo/Desktop/AIoT/first_day/firstday_afternoon/LiteOS_Lab_STM32_IoT/iot_link/oc/oc_mqtt/oc_mqtt_tiny_v5\oc_mqtt_tiny.c **** 
 371:c:/Users/lenovo/Desktop/AIoT/first_day/firstday_afternoon/LiteOS_Lab_STM32_IoT/iot_link/oc/oc_mqtt/oc_mqtt_tiny_v5\oc_mqtt_tiny.c ****     return ret;
 858              		.loc 1 371 12
 859 007e FB68     		ldr	r3, [r7, #12]
 372:c:/Users/lenovo/Desktop/AIoT/first_day/firstday_afternoon/LiteOS_Lab_STM32_IoT/iot_link/oc/oc_mqtt/oc_mqtt_tiny_v5\oc_mqtt_tiny.c **** }
 860              		.loc 1 372 1
 861 0080 1846     		mov	r0, r3
 862 0082 1037     		adds	r7, r7, #16
 863              	.LCFI23:
 864              		.cfi_def_cfa_offset 8
 865 0084 BD46     		mov	sp, r7
 866              	.LCFI24:
 867              		.cfi_def_cfa_register 13
 868              		@ sp needed
 869 0086 80BD     		pop	{r7, pc}
 870              	.L34:
 871              		.align	2
 872              	.L33:
 873 0088 00000000 		.word	s_oc_mqtt_tiny_cb
 874              		.cfi_endproc
 875              	.LFE7:
 877              		.section	.text.config_parameter_release,"ax",%progbits
 878              		.align	1
 879              		.syntax unified
 880              		.thumb
 881              		.thumb_func
 882              		.fpu fpv4-sp-d16
 884              	config_parameter_release:
 885              	.LFB8:
 373:c:/Users/lenovo/Desktop/AIoT/first_day/firstday_afternoon/LiteOS_Lab_STM32_IoT/iot_link/oc/oc_mqtt/oc_mqtt_tiny_v5\oc_mqtt_tiny.c **** 
 374:c:/Users/lenovo/Desktop/AIoT/first_day/firstday_afternoon/LiteOS_Lab_STM32_IoT/iot_link/oc/oc_mqtt/oc_mqtt_tiny_v5\oc_mqtt_tiny.c **** 
 375:c:/Users/lenovo/Desktop/AIoT/first_day/firstday_afternoon/LiteOS_Lab_STM32_IoT/iot_link/oc/oc_mqtt/oc_mqtt_tiny_v5\oc_mqtt_tiny.c **** ///< release the config parameters
 376:c:/Users/lenovo/Desktop/AIoT/first_day/firstday_afternoon/LiteOS_Lab_STM32_IoT/iot_link/oc/oc_mqtt/oc_mqtt_tiny_v5\oc_mqtt_tiny.c **** static int config_parameter_release(oc_mqtt_tiny_cb_t *cb)
 377:c:/Users/lenovo/Desktop/AIoT/first_day/firstday_afternoon/LiteOS_Lab_STM32_IoT/iot_link/oc/oc_mqtt/oc_mqtt_tiny_v5\oc_mqtt_tiny.c **** {
 886              		.loc 1 377 1
 887              		.cfi_startproc
 888              		@ args = 0, pretend = 0, frame = 24
 889              		@ frame_needed = 1, uses_anonymous_args = 0
 890 0000 80B5     		push	{r7, lr}
 891              	.LCFI25:
 892              		.cfi_def_cfa_offset 8
 893              		.cfi_offset 7, -8
 894              		.cfi_offset 14, -4
 895 0002 86B0     		sub	sp, sp, #24
 896              	.LCFI26:
 897              		.cfi_def_cfa_offset 32
 898 0004 00AF     		add	r7, sp, #0
 899              	.LCFI27:
 900              		.cfi_def_cfa_register 7
 901 0006 7860     		str	r0, [r7, #4]
 378:c:/Users/lenovo/Desktop/AIoT/first_day/firstday_afternoon/LiteOS_Lab_STM32_IoT/iot_link/oc/oc_mqtt/oc_mqtt_tiny_v5\oc_mqtt_tiny.c ****     tiny_topic_sub_t  *sub_topic;
 379:c:/Users/lenovo/Desktop/AIoT/first_day/firstday_afternoon/LiteOS_Lab_STM32_IoT/iot_link/oc/oc_mqtt/oc_mqtt_tiny_v5\oc_mqtt_tiny.c ****     tiny_topic_sub_t  *sub_topic_nxt;
 380:c:/Users/lenovo/Desktop/AIoT/first_day/firstday_afternoon/LiteOS_Lab_STM32_IoT/iot_link/oc/oc_mqtt/oc_mqtt_tiny_v5\oc_mqtt_tiny.c **** 
 381:c:/Users/lenovo/Desktop/AIoT/first_day/firstday_afternoon/LiteOS_Lab_STM32_IoT/iot_link/oc/oc_mqtt/oc_mqtt_tiny_v5\oc_mqtt_tiny.c ****     if( NULL != cb->config_mem )
 902              		.loc 1 381 19
 903 0008 7B68     		ldr	r3, [r7, #4]
 904 000a 1B68     		ldr	r3, [r3]
ARM GAS  C:\Users\lenovo\AppData\Local\Temp\cceHxmqh.s 			page 26


 905              		.loc 1 381 7
 906 000c 002B     		cmp	r3, #0
 907 000e 07D0     		beq	.L36
 382:c:/Users/lenovo/Desktop/AIoT/first_day/firstday_afternoon/LiteOS_Lab_STM32_IoT/iot_link/oc/oc_mqtt/oc_mqtt_tiny_v5\oc_mqtt_tiny.c ****     {
 383:c:/Users/lenovo/Desktop/AIoT/first_day/firstday_afternoon/LiteOS_Lab_STM32_IoT/iot_link/oc/oc_mqtt/oc_mqtt_tiny_v5\oc_mqtt_tiny.c ****         osal_free(cb->config_mem);
 908              		.loc 1 383 21
 909 0010 7B68     		ldr	r3, [r7, #4]
 910 0012 1B68     		ldr	r3, [r3]
 911              		.loc 1 383 9
 912 0014 1846     		mov	r0, r3
 913 0016 FFF7FEFF 		bl	osal_free
 384:c:/Users/lenovo/Desktop/AIoT/first_day/firstday_afternoon/LiteOS_Lab_STM32_IoT/iot_link/oc/oc_mqtt/oc_mqtt_tiny_v5\oc_mqtt_tiny.c ****         cb->config_mem = NULL;
 914              		.loc 1 384 24
 915 001a 7B68     		ldr	r3, [r7, #4]
 916 001c 0022     		movs	r2, #0
 917 001e 1A60     		str	r2, [r3]
 918              	.L36:
 385:c:/Users/lenovo/Desktop/AIoT/first_day/firstday_afternoon/LiteOS_Lab_STM32_IoT/iot_link/oc/oc_mqtt/oc_mqtt_tiny_v5\oc_mqtt_tiny.c ****     }
 386:c:/Users/lenovo/Desktop/AIoT/first_day/firstday_afternoon/LiteOS_Lab_STM32_IoT/iot_link/oc/oc_mqtt/oc_mqtt_tiny_v5\oc_mqtt_tiny.c **** 
 387:c:/Users/lenovo/Desktop/AIoT/first_day/firstday_afternoon/LiteOS_Lab_STM32_IoT/iot_link/oc/oc_mqtt/oc_mqtt_tiny_v5\oc_mqtt_tiny.c ****     if( cb->bs_cb.hubserver_addr != NULL )
 919              		.loc 1 387 18
 920 0020 7B68     		ldr	r3, [r7, #4]
 921 0022 1B6F     		ldr	r3, [r3, #112]
 922              		.loc 1 387 7
 923 0024 002B     		cmp	r3, #0
 924 0026 04D0     		beq	.L37
 388:c:/Users/lenovo/Desktop/AIoT/first_day/firstday_afternoon/LiteOS_Lab_STM32_IoT/iot_link/oc/oc_mqtt/oc_mqtt_tiny_v5\oc_mqtt_tiny.c ****     {
 389:c:/Users/lenovo/Desktop/AIoT/first_day/firstday_afternoon/LiteOS_Lab_STM32_IoT/iot_link/oc/oc_mqtt/oc_mqtt_tiny_v5\oc_mqtt_tiny.c ****         osal_free(cb->bs_cb.hubserver_addr);
 925              		.loc 1 389 28
 926 0028 7B68     		ldr	r3, [r7, #4]
 927 002a 1B6F     		ldr	r3, [r3, #112]
 928              		.loc 1 389 9
 929 002c 1846     		mov	r0, r3
 930 002e FFF7FEFF 		bl	osal_free
 931              	.L37:
 390:c:/Users/lenovo/Desktop/AIoT/first_day/firstday_afternoon/LiteOS_Lab_STM32_IoT/iot_link/oc/oc_mqtt/oc_mqtt_tiny_v5\oc_mqtt_tiny.c ****     }
 391:c:/Users/lenovo/Desktop/AIoT/first_day/firstday_afternoon/LiteOS_Lab_STM32_IoT/iot_link/oc/oc_mqtt/oc_mqtt_tiny_v5\oc_mqtt_tiny.c ****     if( cb->bs_cb.hubserver_port != NULL )
 932              		.loc 1 391 18
 933 0032 7B68     		ldr	r3, [r7, #4]
 934 0034 5B6F     		ldr	r3, [r3, #116]
 935              		.loc 1 391 7
 936 0036 002B     		cmp	r3, #0
 937 0038 04D0     		beq	.L38
 392:c:/Users/lenovo/Desktop/AIoT/first_day/firstday_afternoon/LiteOS_Lab_STM32_IoT/iot_link/oc/oc_mqtt/oc_mqtt_tiny_v5\oc_mqtt_tiny.c ****     {
 393:c:/Users/lenovo/Desktop/AIoT/first_day/firstday_afternoon/LiteOS_Lab_STM32_IoT/iot_link/oc/oc_mqtt/oc_mqtt_tiny_v5\oc_mqtt_tiny.c ****         osal_free(cb->bs_cb.hubserver_port);
 938              		.loc 1 393 28
 939 003a 7B68     		ldr	r3, [r7, #4]
 940 003c 5B6F     		ldr	r3, [r3, #116]
 941              		.loc 1 393 9
 942 003e 1846     		mov	r0, r3
 943 0040 FFF7FEFF 		bl	osal_free
 944              	.L38:
 394:c:/Users/lenovo/Desktop/AIoT/first_day/firstday_afternoon/LiteOS_Lab_STM32_IoT/iot_link/oc/oc_mqtt/oc_mqtt_tiny_v5\oc_mqtt_tiny.c ****     }
 395:c:/Users/lenovo/Desktop/AIoT/first_day/firstday_afternoon/LiteOS_Lab_STM32_IoT/iot_link/oc/oc_mqtt/oc_mqtt_tiny_v5\oc_mqtt_tiny.c **** 
 396:c:/Users/lenovo/Desktop/AIoT/first_day/firstday_afternoon/LiteOS_Lab_STM32_IoT/iot_link/oc/oc_mqtt/oc_mqtt_tiny_v5\oc_mqtt_tiny.c ****     int i = 0;
 945              		.loc 1 396 9
 946 0044 0023     		movs	r3, #0
ARM GAS  C:\Users\lenovo\AppData\Local\Temp\cceHxmqh.s 			page 27


 947 0046 3B61     		str	r3, [r7, #16]
 397:c:/Users/lenovo/Desktop/AIoT/first_day/firstday_afternoon/LiteOS_Lab_STM32_IoT/iot_link/oc/oc_mqtt/oc_mqtt_tiny_v5\oc_mqtt_tiny.c ****     for(i = 0;i < CN_NEW_TOPIC_NUM;i++)
 948              		.loc 1 397 11
 949 0048 0023     		movs	r3, #0
 950 004a 3B61     		str	r3, [r7, #16]
 951              		.loc 1 397 5
 952 004c 11E0     		b	.L39
 953              	.L41:
 398:c:/Users/lenovo/Desktop/AIoT/first_day/firstday_afternoon/LiteOS_Lab_STM32_IoT/iot_link/oc/oc_mqtt/oc_mqtt_tiny_v5\oc_mqtt_tiny.c ****     {
 399:c:/Users/lenovo/Desktop/AIoT/first_day/firstday_afternoon/LiteOS_Lab_STM32_IoT/iot_link/oc/oc_mqtt/oc_mqtt_tiny_v5\oc_mqtt_tiny.c ****         if(NULL != cb->hub_sub_topic[i])
 954              		.loc 1 399 37
 955 004e 7B68     		ldr	r3, [r7, #4]
 956 0050 3A69     		ldr	r2, [r7, #16]
 957 0052 2432     		adds	r2, r2, #36
 958 0054 53F82230 		ldr	r3, [r3, r2, lsl #2]
 959              		.loc 1 399 11
 960 0058 002B     		cmp	r3, #0
 961 005a 07D0     		beq	.L40
 400:c:/Users/lenovo/Desktop/AIoT/first_day/firstday_afternoon/LiteOS_Lab_STM32_IoT/iot_link/oc/oc_mqtt/oc_mqtt_tiny_v5\oc_mqtt_tiny.c ****         {
 401:c:/Users/lenovo/Desktop/AIoT/first_day/firstday_afternoon/LiteOS_Lab_STM32_IoT/iot_link/oc/oc_mqtt/oc_mqtt_tiny_v5\oc_mqtt_tiny.c ****             osal_free(cb->hub_sub_topic[i]);
 962              		.loc 1 401 40
 963 005c 7B68     		ldr	r3, [r7, #4]
 964 005e 3A69     		ldr	r2, [r7, #16]
 965 0060 2432     		adds	r2, r2, #36
 966 0062 53F82230 		ldr	r3, [r3, r2, lsl #2]
 967              		.loc 1 401 13
 968 0066 1846     		mov	r0, r3
 969 0068 FFF7FEFF 		bl	osal_free
 970              	.L40:
 397:c:/Users/lenovo/Desktop/AIoT/first_day/firstday_afternoon/LiteOS_Lab_STM32_IoT/iot_link/oc/oc_mqtt/oc_mqtt_tiny_v5\oc_mqtt_tiny.c ****     {
 971              		.loc 1 397 37 discriminator 2
 972 006c 3B69     		ldr	r3, [r7, #16]
 973 006e 0133     		adds	r3, r3, #1
 974 0070 3B61     		str	r3, [r7, #16]
 975              	.L39:
 397:c:/Users/lenovo/Desktop/AIoT/first_day/firstday_afternoon/LiteOS_Lab_STM32_IoT/iot_link/oc/oc_mqtt/oc_mqtt_tiny_v5\oc_mqtt_tiny.c ****     {
 976              		.loc 1 397 17 discriminator 1
 977 0072 3B69     		ldr	r3, [r7, #16]
 397:c:/Users/lenovo/Desktop/AIoT/first_day/firstday_afternoon/LiteOS_Lab_STM32_IoT/iot_link/oc/oc_mqtt/oc_mqtt_tiny_v5\oc_mqtt_tiny.c ****     {
 978              		.loc 1 397 5 discriminator 1
 979 0074 042B     		cmp	r3, #4
 980 0076 EAD9     		bls	.L41
 402:c:/Users/lenovo/Desktop/AIoT/first_day/firstday_afternoon/LiteOS_Lab_STM32_IoT/iot_link/oc/oc_mqtt/oc_mqtt_tiny_v5\oc_mqtt_tiny.c ****         }
 403:c:/Users/lenovo/Desktop/AIoT/first_day/firstday_afternoon/LiteOS_Lab_STM32_IoT/iot_link/oc/oc_mqtt/oc_mqtt_tiny_v5\oc_mqtt_tiny.c ****     }
 404:c:/Users/lenovo/Desktop/AIoT/first_day/firstday_afternoon/LiteOS_Lab_STM32_IoT/iot_link/oc/oc_mqtt/oc_mqtt_tiny_v5\oc_mqtt_tiny.c ****     memset(&cb->hub_sub_topic,0,sizeof(cb->hub_sub_topic));
 981              		.loc 1 404 12
 982 0078 7B68     		ldr	r3, [r7, #4]
 983 007a 9033     		adds	r3, r3, #144
 984              		.loc 1 404 5
 985 007c 1422     		movs	r2, #20
 986 007e 0021     		movs	r1, #0
 987 0080 1846     		mov	r0, r3
 988 0082 FFF7FEFF 		bl	memset
 405:c:/Users/lenovo/Desktop/AIoT/first_day/firstday_afternoon/LiteOS_Lab_STM32_IoT/iot_link/oc/oc_mqtt/oc_mqtt_tiny_v5\oc_mqtt_tiny.c **** 
 406:c:/Users/lenovo/Desktop/AIoT/first_day/firstday_afternoon/LiteOS_Lab_STM32_IoT/iot_link/oc/oc_mqtt/oc_mqtt_tiny_v5\oc_mqtt_tiny.c ****     memset(&cb->config,0,sizeof(oc_mqtt_config_t));
 989              		.loc 1 406 12
 990 0086 7B68     		ldr	r3, [r7, #4]
ARM GAS  C:\Users\lenovo\AppData\Local\Temp\cceHxmqh.s 			page 28


 991 0088 0433     		adds	r3, r3, #4
 992              		.loc 1 406 5
 993 008a 4422     		movs	r2, #68
 994 008c 0021     		movs	r1, #0
 995 008e 1846     		mov	r0, r3
 996 0090 FFF7FEFF 		bl	memset
 407:c:/Users/lenovo/Desktop/AIoT/first_day/firstday_afternoon/LiteOS_Lab_STM32_IoT/iot_link/oc/oc_mqtt/oc_mqtt_tiny_v5\oc_mqtt_tiny.c **** 
 408:c:/Users/lenovo/Desktop/AIoT/first_day/firstday_afternoon/LiteOS_Lab_STM32_IoT/iot_link/oc/oc_mqtt/oc_mqtt_tiny_v5\oc_mqtt_tiny.c ****     memset(&cb->bs_cb,0,sizeof(oc_bs_mqtt_cb_t));
 997              		.loc 1 408 12
 998 0094 7B68     		ldr	r3, [r7, #4]
 999 0096 7033     		adds	r3, r3, #112
 1000              		.loc 1 408 5
 1001 0098 0822     		movs	r2, #8
 1002 009a 0021     		movs	r1, #0
 1003 009c 1846     		mov	r0, r3
 1004 009e FFF7FEFF 		bl	memset
 409:c:/Users/lenovo/Desktop/AIoT/first_day/firstday_afternoon/LiteOS_Lab_STM32_IoT/iot_link/oc/oc_mqtt/oc_mqtt_tiny_v5\oc_mqtt_tiny.c **** 
 410:c:/Users/lenovo/Desktop/AIoT/first_day/firstday_afternoon/LiteOS_Lab_STM32_IoT/iot_link/oc/oc_mqtt/oc_mqtt_tiny_v5\oc_mqtt_tiny.c ****     cb->flag.bits.bit_daemon_status = en_daemon_status_idle;
 1005              		.loc 1 410 37
 1006 00a2 7A68     		ldr	r2, [r7, #4]
 1007 00a4 92F86C30 		ldrb	r3, [r2, #108]
 1008 00a8 6FF34303 		bfc	r3, #1, #3
 1009 00ac 82F86C30 		strb	r3, [r2, #108]
 411:c:/Users/lenovo/Desktop/AIoT/first_day/firstday_afternoon/LiteOS_Lab_STM32_IoT/iot_link/oc/oc_mqtt/oc_mqtt_tiny_v5\oc_mqtt_tiny.c **** 
 412:c:/Users/lenovo/Desktop/AIoT/first_day/firstday_afternoon/LiteOS_Lab_STM32_IoT/iot_link/oc/oc_mqtt/oc_mqtt_tiny_v5\oc_mqtt_tiny.c ****     sub_topic = cb->subscribe_lst;
 1010              		.loc 1 412 15
 1011 00b0 7B68     		ldr	r3, [r7, #4]
 1012 00b2 D3F8A430 		ldr	r3, [r3, #164]
 1013 00b6 7B61     		str	r3, [r7, #20]
 413:c:/Users/lenovo/Desktop/AIoT/first_day/firstday_afternoon/LiteOS_Lab_STM32_IoT/iot_link/oc/oc_mqtt/oc_mqtt_tiny_v5\oc_mqtt_tiny.c ****     cb->subscribe_lst = NULL;
 1014              		.loc 1 413 23
 1015 00b8 7B68     		ldr	r3, [r7, #4]
 1016 00ba 0022     		movs	r2, #0
 1017 00bc C3F8A420 		str	r2, [r3, #164]
 414:c:/Users/lenovo/Desktop/AIoT/first_day/firstday_afternoon/LiteOS_Lab_STM32_IoT/iot_link/oc/oc_mqtt/oc_mqtt_tiny_v5\oc_mqtt_tiny.c **** 
 415:c:/Users/lenovo/Desktop/AIoT/first_day/firstday_afternoon/LiteOS_Lab_STM32_IoT/iot_link/oc/oc_mqtt/oc_mqtt_tiny_v5\oc_mqtt_tiny.c ****     while( NULL != sub_topic)
 1018              		.loc 1 415 10
 1019 00c0 07E0     		b	.L42
 1020              	.L43:
 416:c:/Users/lenovo/Desktop/AIoT/first_day/firstday_afternoon/LiteOS_Lab_STM32_IoT/iot_link/oc/oc_mqtt/oc_mqtt_tiny_v5\oc_mqtt_tiny.c ****     {
 417:c:/Users/lenovo/Desktop/AIoT/first_day/firstday_afternoon/LiteOS_Lab_STM32_IoT/iot_link/oc/oc_mqtt/oc_mqtt_tiny_v5\oc_mqtt_tiny.c ****         sub_topic_nxt = sub_topic->nxt;
 1021              		.loc 1 417 23
 1022 00c2 7B69     		ldr	r3, [r7, #20]
 1023 00c4 1B68     		ldr	r3, [r3]
 1024 00c6 FB60     		str	r3, [r7, #12]
 418:c:/Users/lenovo/Desktop/AIoT/first_day/firstday_afternoon/LiteOS_Lab_STM32_IoT/iot_link/oc/oc_mqtt/oc_mqtt_tiny_v5\oc_mqtt_tiny.c ****         osal_free ( sub_topic );
 1025              		.loc 1 418 9
 1026 00c8 7869     		ldr	r0, [r7, #20]
 1027 00ca FFF7FEFF 		bl	osal_free
 419:c:/Users/lenovo/Desktop/AIoT/first_day/firstday_afternoon/LiteOS_Lab_STM32_IoT/iot_link/oc/oc_mqtt/oc_mqtt_tiny_v5\oc_mqtt_tiny.c **** 
 420:c:/Users/lenovo/Desktop/AIoT/first_day/firstday_afternoon/LiteOS_Lab_STM32_IoT/iot_link/oc/oc_mqtt/oc_mqtt_tiny_v5\oc_mqtt_tiny.c ****         sub_topic = sub_topic_nxt;
 1028              		.loc 1 420 19
 1029 00ce FB68     		ldr	r3, [r7, #12]
 1030 00d0 7B61     		str	r3, [r7, #20]
 1031              	.L42:
 415:c:/Users/lenovo/Desktop/AIoT/first_day/firstday_afternoon/LiteOS_Lab_STM32_IoT/iot_link/oc/oc_mqtt/oc_mqtt_tiny_v5\oc_mqtt_tiny.c ****     {
 1032              		.loc 1 415 10
ARM GAS  C:\Users\lenovo\AppData\Local\Temp\cceHxmqh.s 			page 29


 1033 00d2 7B69     		ldr	r3, [r7, #20]
 1034 00d4 002B     		cmp	r3, #0
 1035 00d6 F4D1     		bne	.L43
 421:c:/Users/lenovo/Desktop/AIoT/first_day/firstday_afternoon/LiteOS_Lab_STM32_IoT/iot_link/oc/oc_mqtt/oc_mqtt_tiny_v5\oc_mqtt_tiny.c ****     }
 422:c:/Users/lenovo/Desktop/AIoT/first_day/firstday_afternoon/LiteOS_Lab_STM32_IoT/iot_link/oc/oc_mqtt/oc_mqtt_tiny_v5\oc_mqtt_tiny.c **** 
 423:c:/Users/lenovo/Desktop/AIoT/first_day/firstday_afternoon/LiteOS_Lab_STM32_IoT/iot_link/oc/oc_mqtt/oc_mqtt_tiny_v5\oc_mqtt_tiny.c ****     return en_oc_mqtt_err_ok;
 1036              		.loc 1 423 12
 1037 00d8 0023     		movs	r3, #0
 424:c:/Users/lenovo/Desktop/AIoT/first_day/firstday_afternoon/LiteOS_Lab_STM32_IoT/iot_link/oc/oc_mqtt/oc_mqtt_tiny_v5\oc_mqtt_tiny.c **** }
 1038              		.loc 1 424 1
 1039 00da 1846     		mov	r0, r3
 1040 00dc 1837     		adds	r7, r7, #24
 1041              	.LCFI28:
 1042              		.cfi_def_cfa_offset 8
 1043 00de BD46     		mov	sp, r7
 1044              	.LCFI29:
 1045              		.cfi_def_cfa_register 13
 1046              		@ sp needed
 1047 00e0 80BD     		pop	{r7, pc}
 1048              		.cfi_endproc
 1049              	.LFE8:
 1051              		.section	.text.config_parameter_clone,"ax",%progbits
 1052              		.align	1
 1053              		.syntax unified
 1054              		.thumb
 1055              		.thumb_func
 1056              		.fpu fpv4-sp-d16
 1058              	config_parameter_clone:
 1059              	.LFB9:
 425:c:/Users/lenovo/Desktop/AIoT/first_day/firstday_afternoon/LiteOS_Lab_STM32_IoT/iot_link/oc/oc_mqtt/oc_mqtt_tiny_v5\oc_mqtt_tiny.c **** ///< check the config parameters
 426:c:/Users/lenovo/Desktop/AIoT/first_day/firstday_afternoon/LiteOS_Lab_STM32_IoT/iot_link/oc/oc_mqtt/oc_mqtt_tiny_v5\oc_mqtt_tiny.c **** static int config_parameter_clone(oc_mqtt_tiny_cb_t *cb,oc_mqtt_config_t *config)
 427:c:/Users/lenovo/Desktop/AIoT/first_day/firstday_afternoon/LiteOS_Lab_STM32_IoT/iot_link/oc/oc_mqtt/oc_mqtt_tiny_v5\oc_mqtt_tiny.c **** {
 1060              		.loc 1 427 1
 1061              		.cfi_startproc
 1062              		@ args = 0, pretend = 0, frame = 24
 1063              		@ frame_needed = 1, uses_anonymous_args = 0
 1064 0000 80B5     		push	{r7, lr}
 1065              	.LCFI30:
 1066              		.cfi_def_cfa_offset 8
 1067              		.cfi_offset 7, -8
 1068              		.cfi_offset 14, -4
 1069 0002 86B0     		sub	sp, sp, #24
 1070              	.LCFI31:
 1071              		.cfi_def_cfa_offset 32
 1072 0004 00AF     		add	r7, sp, #0
 1073              	.LCFI32:
 1074              		.cfi_def_cfa_register 7
 1075 0006 7860     		str	r0, [r7, #4]
 1076 0008 3960     		str	r1, [r7]
 428:c:/Users/lenovo/Desktop/AIoT/first_day/firstday_afternoon/LiteOS_Lab_STM32_IoT/iot_link/oc/oc_mqtt/oc_mqtt_tiny_v5\oc_mqtt_tiny.c ****     int ret = en_oc_mqtt_err_parafmt;
 1077              		.loc 1 428 9
 1078 000a 0123     		movs	r3, #1
 1079 000c BB60     		str	r3, [r7, #8]
 429:c:/Users/lenovo/Desktop/AIoT/first_day/firstday_afternoon/LiteOS_Lab_STM32_IoT/iot_link/oc/oc_mqtt/oc_mqtt_tiny_v5\oc_mqtt_tiny.c ****     int mem_len = 0;
 1080              		.loc 1 429 9
 1081 000e 0023     		movs	r3, #0
 1082 0010 7B61     		str	r3, [r7, #20]
ARM GAS  C:\Users\lenovo\AppData\Local\Temp\cceHxmqh.s 			page 30


 430:c:/Users/lenovo/Desktop/AIoT/first_day/firstday_afternoon/LiteOS_Lab_STM32_IoT/iot_link/oc/oc_mqtt/oc_mqtt_tiny_v5\oc_mqtt_tiny.c ****     char *mem_buf = NULL;
 1083              		.loc 1 430 11
 1084 0012 0023     		movs	r3, #0
 1085 0014 3B61     		str	r3, [r7, #16]
 431:c:/Users/lenovo/Desktop/AIoT/first_day/firstday_afternoon/LiteOS_Lab_STM32_IoT/iot_link/oc/oc_mqtt/oc_mqtt_tiny_v5\oc_mqtt_tiny.c **** 
 432:c:/Users/lenovo/Desktop/AIoT/first_day/firstday_afternoon/LiteOS_Lab_STM32_IoT/iot_link/oc/oc_mqtt/oc_mqtt_tiny_v5\oc_mqtt_tiny.c ****     if(config->security.type == EN_DTLS_AL_SECURITY_TYPE_CERT)
 1086              		.loc 1 432 24
 1087 0016 3B68     		ldr	r3, [r7]
 1088 0018 1B7B     		ldrb	r3, [r3, #12]	@ zero_extendqisi2
 1089              		.loc 1 432 7
 1090 001a 022B     		cmp	r3, #2
 1091 001c 1CD1     		bne	.L46
 433:c:/Users/lenovo/Desktop/AIoT/first_day/firstday_afternoon/LiteOS_Lab_STM32_IoT/iot_link/oc/oc_mqtt/oc_mqtt_tiny_v5\oc_mqtt_tiny.c ****     {
 434:c:/Users/lenovo/Desktop/AIoT/first_day/firstday_afternoon/LiteOS_Lab_STM32_IoT/iot_link/oc/oc_mqtt/oc_mqtt_tiny_v5\oc_mqtt_tiny.c ****         mem_len += config->security.u.cert.server_ca_len + config->security.u.cert.client_ca_len +\
 1092              		.loc 1 434 43
 1093 001e 3B68     		ldr	r3, [r7]
 1094 0020 1A6A     		ldr	r2, [r3, #32]
 1095              		.loc 1 434 83
 1096 0022 3B68     		ldr	r3, [r7]
 1097 0024 5B6A     		ldr	r3, [r3, #36]
 1098              		.loc 1 434 58
 1099 0026 1A44     		add	r2, r2, r3
 435:c:/Users/lenovo/Desktop/AIoT/first_day/firstday_afternoon/LiteOS_Lab_STM32_IoT/iot_link/oc/oc_mqtt/oc_mqtt_tiny_v5\oc_mqtt_tiny.c ****                    config->security.u.cert.client_pk_len + config->security.u.cert.client_pk_pwd_le
 1100              		.loc 1 435 43
 1101 0028 3B68     		ldr	r3, [r7]
 1102 002a 9B6A     		ldr	r3, [r3, #40]
 434:c:/Users/lenovo/Desktop/AIoT/first_day/firstday_afternoon/LiteOS_Lab_STM32_IoT/iot_link/oc/oc_mqtt/oc_mqtt_tiny_v5\oc_mqtt_tiny.c ****                    config->security.u.cert.client_pk_len + config->security.u.cert.client_pk_pwd_le
 1103              		.loc 1 434 98
 1104 002c 1A44     		add	r2, r2, r3
 1105              		.loc 1 435 83
 1106 002e 3B68     		ldr	r3, [r7]
 1107 0030 DB6A     		ldr	r3, [r3, #44]
 1108              		.loc 1 435 58
 1109 0032 1344     		add	r3, r3, r2
 434:c:/Users/lenovo/Desktop/AIoT/first_day/firstday_afternoon/LiteOS_Lab_STM32_IoT/iot_link/oc/oc_mqtt/oc_mqtt_tiny_v5\oc_mqtt_tiny.c ****                    config->security.u.cert.client_pk_len + config->security.u.cert.client_pk_pwd_le
 1110              		.loc 1 434 17
 1111 0034 7A69     		ldr	r2, [r7, #20]
 1112 0036 1344     		add	r3, r3, r2
 1113 0038 7B61     		str	r3, [r7, #20]
 436:c:/Users/lenovo/Desktop/AIoT/first_day/firstday_afternoon/LiteOS_Lab_STM32_IoT/iot_link/oc/oc_mqtt/oc_mqtt_tiny_v5\oc_mqtt_tiny.c ****         if(NULL != config->security.u.cert.server_name)
 1114              		.loc 1 436 43
 1115 003a 3B68     		ldr	r3, [r7]
 1116 003c 1B6B     		ldr	r3, [r3, #48]
 1117              		.loc 1 436 11
 1118 003e 002B     		cmp	r3, #0
 1119 0040 16D0     		beq	.L47
 437:c:/Users/lenovo/Desktop/AIoT/first_day/firstday_afternoon/LiteOS_Lab_STM32_IoT/iot_link/oc/oc_mqtt/oc_mqtt_tiny_v5\oc_mqtt_tiny.c ****         {
 438:c:/Users/lenovo/Desktop/AIoT/first_day/firstday_afternoon/LiteOS_Lab_STM32_IoT/iot_link/oc/oc_mqtt/oc_mqtt_tiny_v5\oc_mqtt_tiny.c ****             mem_len += strlen(config->security.u.cert.server_name) + 1;
 1120              		.loc 1 438 54
 1121 0042 3B68     		ldr	r3, [r7]
 1122 0044 1B6B     		ldr	r3, [r3, #48]
 1123              		.loc 1 438 24
 1124 0046 1846     		mov	r0, r3
 1125 0048 FFF7FEFF 		bl	strlen
 1126 004c 0246     		mov	r2, r0
 1127              		.loc 1 438 21
 1128 004e 7B69     		ldr	r3, [r7, #20]
ARM GAS  C:\Users\lenovo\AppData\Local\Temp\cceHxmqh.s 			page 31


 1129 0050 1344     		add	r3, r3, r2
 1130 0052 0133     		adds	r3, r3, #1
 1131 0054 7B61     		str	r3, [r7, #20]
 1132 0056 0BE0     		b	.L47
 1133              	.L46:
 439:c:/Users/lenovo/Desktop/AIoT/first_day/firstday_afternoon/LiteOS_Lab_STM32_IoT/iot_link/oc/oc_mqtt/oc_mqtt_tiny_v5\oc_mqtt_tiny.c ****         }
 440:c:/Users/lenovo/Desktop/AIoT/first_day/firstday_afternoon/LiteOS_Lab_STM32_IoT/iot_link/oc/oc_mqtt/oc_mqtt_tiny_v5\oc_mqtt_tiny.c ****     }
 441:c:/Users/lenovo/Desktop/AIoT/first_day/firstday_afternoon/LiteOS_Lab_STM32_IoT/iot_link/oc/oc_mqtt/oc_mqtt_tiny_v5\oc_mqtt_tiny.c ****     else if(config->security.type == EN_DTLS_AL_SECURITY_TYPE_PSK)
 1134              		.loc 1 441 29
 1135 0058 3B68     		ldr	r3, [r7]
 1136 005a 1B7B     		ldrb	r3, [r3, #12]	@ zero_extendqisi2
 1137              		.loc 1 441 12
 1138 005c 012B     		cmp	r3, #1
 1139 005e 07D1     		bne	.L47
 442:c:/Users/lenovo/Desktop/AIoT/first_day/firstday_afternoon/LiteOS_Lab_STM32_IoT/iot_link/oc/oc_mqtt/oc_mqtt_tiny_v5\oc_mqtt_tiny.c ****     {
 443:c:/Users/lenovo/Desktop/AIoT/first_day/firstday_afternoon/LiteOS_Lab_STM32_IoT/iot_link/oc/oc_mqtt/oc_mqtt_tiny_v5\oc_mqtt_tiny.c ****         mem_len += config->security.u.psk.psk_id_len + config->security.u.psk.psk_key_len;
 1140              		.loc 1 443 42
 1141 0060 3B68     		ldr	r3, [r7]
 1142 0062 9A69     		ldr	r2, [r3, #24]
 1143              		.loc 1 443 78
 1144 0064 3B68     		ldr	r3, [r7]
 1145 0066 DB69     		ldr	r3, [r3, #28]
 1146              		.loc 1 443 54
 1147 0068 1344     		add	r3, r3, r2
 1148              		.loc 1 443 17
 1149 006a 7A69     		ldr	r2, [r7, #20]
 1150 006c 1344     		add	r3, r3, r2
 1151 006e 7B61     		str	r3, [r7, #20]
 1152              	.L47:
 444:c:/Users/lenovo/Desktop/AIoT/first_day/firstday_afternoon/LiteOS_Lab_STM32_IoT/iot_link/oc/oc_mqtt/oc_mqtt_tiny_v5\oc_mqtt_tiny.c ****     }
 445:c:/Users/lenovo/Desktop/AIoT/first_day/firstday_afternoon/LiteOS_Lab_STM32_IoT/iot_link/oc/oc_mqtt/oc_mqtt_tiny_v5\oc_mqtt_tiny.c **** 
 446:c:/Users/lenovo/Desktop/AIoT/first_day/firstday_afternoon/LiteOS_Lab_STM32_IoT/iot_link/oc/oc_mqtt/oc_mqtt_tiny_v5\oc_mqtt_tiny.c ****     mem_len += strlen(config->id) +1;
 1153              		.loc 1 446 29
 1154 0070 3B68     		ldr	r3, [r7]
 1155 0072 5B6B     		ldr	r3, [r3, #52]
 1156              		.loc 1 446 16
 1157 0074 1846     		mov	r0, r3
 1158 0076 FFF7FEFF 		bl	strlen
 1159 007a 0246     		mov	r2, r0
 1160              		.loc 1 446 13
 1161 007c 7B69     		ldr	r3, [r7, #20]
 1162 007e 1344     		add	r3, r3, r2
 1163 0080 0133     		adds	r3, r3, #1
 1164 0082 7B61     		str	r3, [r7, #20]
 447:c:/Users/lenovo/Desktop/AIoT/first_day/firstday_afternoon/LiteOS_Lab_STM32_IoT/iot_link/oc/oc_mqtt/oc_mqtt_tiny_v5\oc_mqtt_tiny.c ****     if( NULL != config->pwd )                              ///PWD could be NULL
 1165              		.loc 1 447 23
 1166 0084 3B68     		ldr	r3, [r7]
 1167 0086 9B6B     		ldr	r3, [r3, #56]
 1168              		.loc 1 447 7
 1169 0088 002B     		cmp	r3, #0
 1170 008a 09D0     		beq	.L48
 448:c:/Users/lenovo/Desktop/AIoT/first_day/firstday_afternoon/LiteOS_Lab_STM32_IoT/iot_link/oc/oc_mqtt/oc_mqtt_tiny_v5\oc_mqtt_tiny.c ****     {
 449:c:/Users/lenovo/Desktop/AIoT/first_day/firstday_afternoon/LiteOS_Lab_STM32_IoT/iot_link/oc/oc_mqtt/oc_mqtt_tiny_v5\oc_mqtt_tiny.c ****         mem_len += strlen(config->pwd) + 1;
 1171              		.loc 1 449 33
 1172 008c 3B68     		ldr	r3, [r7]
 1173 008e 9B6B     		ldr	r3, [r3, #56]
 1174              		.loc 1 449 20
ARM GAS  C:\Users\lenovo\AppData\Local\Temp\cceHxmqh.s 			page 32


 1175 0090 1846     		mov	r0, r3
 1176 0092 FFF7FEFF 		bl	strlen
 1177 0096 0246     		mov	r2, r0
 1178              		.loc 1 449 17
 1179 0098 7B69     		ldr	r3, [r7, #20]
 1180 009a 1344     		add	r3, r3, r2
 1181 009c 0133     		adds	r3, r3, #1
 1182 009e 7B61     		str	r3, [r7, #20]
 1183              	.L48:
 450:c:/Users/lenovo/Desktop/AIoT/first_day/firstday_afternoon/LiteOS_Lab_STM32_IoT/iot_link/oc/oc_mqtt/oc_mqtt_tiny_v5\oc_mqtt_tiny.c ****     }
 451:c:/Users/lenovo/Desktop/AIoT/first_day/firstday_afternoon/LiteOS_Lab_STM32_IoT/iot_link/oc/oc_mqtt/oc_mqtt_tiny_v5\oc_mqtt_tiny.c ****     mem_len += strlen(config->server_addr) + 1;
 1184              		.loc 1 451 29
 1185 00a0 3B68     		ldr	r3, [r7]
 1186 00a2 5B68     		ldr	r3, [r3, #4]
 1187              		.loc 1 451 16
 1188 00a4 1846     		mov	r0, r3
 1189 00a6 FFF7FEFF 		bl	strlen
 1190 00aa 0246     		mov	r2, r0
 1191              		.loc 1 451 13
 1192 00ac 7B69     		ldr	r3, [r7, #20]
 1193 00ae 1344     		add	r3, r3, r2
 1194 00b0 0133     		adds	r3, r3, #1
 1195 00b2 7B61     		str	r3, [r7, #20]
 452:c:/Users/lenovo/Desktop/AIoT/first_day/firstday_afternoon/LiteOS_Lab_STM32_IoT/iot_link/oc/oc_mqtt/oc_mqtt_tiny_v5\oc_mqtt_tiny.c ****     mem_len += strlen(config->server_port) + 1;
 1196              		.loc 1 452 29
 1197 00b4 3B68     		ldr	r3, [r7]
 1198 00b6 9B68     		ldr	r3, [r3, #8]
 1199              		.loc 1 452 16
 1200 00b8 1846     		mov	r0, r3
 1201 00ba FFF7FEFF 		bl	strlen
 1202 00be 0246     		mov	r2, r0
 1203              		.loc 1 452 13
 1204 00c0 7B69     		ldr	r3, [r7, #20]
 1205 00c2 1344     		add	r3, r3, r2
 1206 00c4 0133     		adds	r3, r3, #1
 1207 00c6 7B61     		str	r3, [r7, #20]
 453:c:/Users/lenovo/Desktop/AIoT/first_day/firstday_afternoon/LiteOS_Lab_STM32_IoT/iot_link/oc/oc_mqtt/oc_mqtt_tiny_v5\oc_mqtt_tiny.c ****     ////< now we
 454:c:/Users/lenovo/Desktop/AIoT/first_day/firstday_afternoon/LiteOS_Lab_STM32_IoT/iot_link/oc/oc_mqtt/oc_mqtt_tiny_v5\oc_mqtt_tiny.c ****     mem_buf = osal_malloc(mem_len);
 1208              		.loc 1 454 15
 1209 00c8 7B69     		ldr	r3, [r7, #20]
 1210 00ca 1846     		mov	r0, r3
 1211 00cc FFF7FEFF 		bl	osal_malloc
 1212 00d0 3861     		str	r0, [r7, #16]
 455:c:/Users/lenovo/Desktop/AIoT/first_day/firstday_afternoon/LiteOS_Lab_STM32_IoT/iot_link/oc/oc_mqtt/oc_mqtt_tiny_v5\oc_mqtt_tiny.c ****     if( NULL == mem_buf )
 1213              		.loc 1 455 7
 1214 00d2 3B69     		ldr	r3, [r7, #16]
 1215 00d4 002B     		cmp	r3, #0
 1216 00d6 01D1     		bne	.L49
 456:c:/Users/lenovo/Desktop/AIoT/first_day/firstday_afternoon/LiteOS_Lab_STM32_IoT/iot_link/oc/oc_mqtt/oc_mqtt_tiny_v5\oc_mqtt_tiny.c ****     {
 457:c:/Users/lenovo/Desktop/AIoT/first_day/firstday_afternoon/LiteOS_Lab_STM32_IoT/iot_link/oc/oc_mqtt/oc_mqtt_tiny_v5\oc_mqtt_tiny.c ****         return ret;
 1217              		.loc 1 457 16
 1218 00d8 BB68     		ldr	r3, [r7, #8]
 1219 00da 57E1     		b	.L50
 1220              	.L49:
 458:c:/Users/lenovo/Desktop/AIoT/first_day/firstday_afternoon/LiteOS_Lab_STM32_IoT/iot_link/oc/oc_mqtt/oc_mqtt_tiny_v5\oc_mqtt_tiny.c ****     }
 459:c:/Users/lenovo/Desktop/AIoT/first_day/firstday_afternoon/LiteOS_Lab_STM32_IoT/iot_link/oc/oc_mqtt/oc_mqtt_tiny_v5\oc_mqtt_tiny.c **** 
 460:c:/Users/lenovo/Desktop/AIoT/first_day/firstday_afternoon/LiteOS_Lab_STM32_IoT/iot_link/oc/oc_mqtt/oc_mqtt_tiny_v5\oc_mqtt_tiny.c ****     /// now we copy the parameter
ARM GAS  C:\Users\lenovo\AppData\Local\Temp\cceHxmqh.s 			page 33


 461:c:/Users/lenovo/Desktop/AIoT/first_day/firstday_afternoon/LiteOS_Lab_STM32_IoT/iot_link/oc/oc_mqtt/oc_mqtt_tiny_v5\oc_mqtt_tiny.c ****     memset( &cb->config, 0 ,sizeof(cb->config) );
 1221              		.loc 1 461 13
 1222 00dc 7B68     		ldr	r3, [r7, #4]
 1223 00de 0433     		adds	r3, r3, #4
 1224              		.loc 1 461 5
 1225 00e0 4422     		movs	r2, #68
 1226 00e2 0021     		movs	r1, #0
 1227 00e4 1846     		mov	r0, r3
 1228 00e6 FFF7FEFF 		bl	memset
 462:c:/Users/lenovo/Desktop/AIoT/first_day/firstday_afternoon/LiteOS_Lab_STM32_IoT/iot_link/oc/oc_mqtt/oc_mqtt_tiny_v5\oc_mqtt_tiny.c **** 
 463:c:/Users/lenovo/Desktop/AIoT/first_day/firstday_afternoon/LiteOS_Lab_STM32_IoT/iot_link/oc/oc_mqtt/oc_mqtt_tiny_v5\oc_mqtt_tiny.c ****     if( config->boot_mode == en_oc_mqtt_mode_bs_static_nodeid_hmacsha256_notimecheck_json )
 1229              		.loc 1 463 15
 1230 00ea 3B68     		ldr	r3, [r7]
 1231 00ec 1B78     		ldrb	r3, [r3]	@ zero_extendqisi2
 1232              		.loc 1 463 7
 1233 00ee 002B     		cmp	r3, #0
 1234 00f0 07D1     		bne	.L51
 464:c:/Users/lenovo/Desktop/AIoT/first_day/firstday_afternoon/LiteOS_Lab_STM32_IoT/iot_link/oc/oc_mqtt/oc_mqtt_tiny_v5\oc_mqtt_tiny.c ****     {
 465:c:/Users/lenovo/Desktop/AIoT/first_day/firstday_afternoon/LiteOS_Lab_STM32_IoT/iot_link/oc/oc_mqtt/oc_mqtt_tiny_v5\oc_mqtt_tiny.c ****         cb->flag.bits.bit_bs_enable = 1;
 1235              		.loc 1 465 37
 1236 00f2 7A68     		ldr	r2, [r7, #4]
 1237 00f4 92F86C30 		ldrb	r3, [r2, #108]
 1238 00f8 43F00103 		orr	r3, r3, #1
 1239 00fc 82F86C30 		strb	r3, [r2, #108]
 1240 0100 06E0     		b	.L52
 1241              	.L51:
 466:c:/Users/lenovo/Desktop/AIoT/first_day/firstday_afternoon/LiteOS_Lab_STM32_IoT/iot_link/oc/oc_mqtt/oc_mqtt_tiny_v5\oc_mqtt_tiny.c ****     }
 467:c:/Users/lenovo/Desktop/AIoT/first_day/firstday_afternoon/LiteOS_Lab_STM32_IoT/iot_link/oc/oc_mqtt/oc_mqtt_tiny_v5\oc_mqtt_tiny.c ****     else
 468:c:/Users/lenovo/Desktop/AIoT/first_day/firstday_afternoon/LiteOS_Lab_STM32_IoT/iot_link/oc/oc_mqtt/oc_mqtt_tiny_v5\oc_mqtt_tiny.c ****     {
 469:c:/Users/lenovo/Desktop/AIoT/first_day/firstday_afternoon/LiteOS_Lab_STM32_IoT/iot_link/oc/oc_mqtt/oc_mqtt_tiny_v5\oc_mqtt_tiny.c ****         cb->flag.bits.bit_bs_enable = 0;
 1242              		.loc 1 469 37
 1243 0102 7A68     		ldr	r2, [r7, #4]
 1244 0104 92F86C30 		ldrb	r3, [r2, #108]
 1245 0108 6FF30003 		bfc	r3, #0, #1
 1246 010c 82F86C30 		strb	r3, [r2, #108]
 1247              	.L52:
 470:c:/Users/lenovo/Desktop/AIoT/first_day/firstday_afternoon/LiteOS_Lab_STM32_IoT/iot_link/oc/oc_mqtt/oc_mqtt_tiny_v5\oc_mqtt_tiny.c ****     }
 471:c:/Users/lenovo/Desktop/AIoT/first_day/firstday_afternoon/LiteOS_Lab_STM32_IoT/iot_link/oc/oc_mqtt/oc_mqtt_tiny_v5\oc_mqtt_tiny.c ****     cb->config.boot_mode  = config->boot_mode;
 1248              		.loc 1 471 35
 1249 0110 3B68     		ldr	r3, [r7]
 1250 0112 1A78     		ldrb	r2, [r3]	@ zero_extendqisi2
 1251              		.loc 1 471 27
 1252 0114 7B68     		ldr	r3, [r7, #4]
 1253 0116 1A71     		strb	r2, [r3, #4]
 472:c:/Users/lenovo/Desktop/AIoT/first_day/firstday_afternoon/LiteOS_Lab_STM32_IoT/iot_link/oc/oc_mqtt/oc_mqtt_tiny_v5\oc_mqtt_tiny.c ****     cb->config.lifetime = config->lifetime;
 1254              		.loc 1 472 33
 1255 0118 3B68     		ldr	r3, [r7]
 1256 011a 5A78     		ldrb	r2, [r3, #1]	@ zero_extendqisi2
 1257              		.loc 1 472 25
 1258 011c 7B68     		ldr	r3, [r7, #4]
 1259 011e 5A71     		strb	r2, [r3, #5]
 473:c:/Users/lenovo/Desktop/AIoT/first_day/firstday_afternoon/LiteOS_Lab_STM32_IoT/iot_link/oc/oc_mqtt/oc_mqtt_tiny_v5\oc_mqtt_tiny.c ****     cb->config.msg_deal = config->msg_deal;
 1260              		.loc 1 473 33
 1261 0120 3B68     		ldr	r3, [r7]
 1262 0122 DA6B     		ldr	r2, [r3, #60]
 1263              		.loc 1 473 25
 1264 0124 7B68     		ldr	r3, [r7, #4]
ARM GAS  C:\Users\lenovo\AppData\Local\Temp\cceHxmqh.s 			page 34


 1265 0126 1A64     		str	r2, [r3, #64]
 474:c:/Users/lenovo/Desktop/AIoT/first_day/firstday_afternoon/LiteOS_Lab_STM32_IoT/iot_link/oc/oc_mqtt/oc_mqtt_tiny_v5\oc_mqtt_tiny.c ****     cb->config.msg_deal_arg = config->msg_deal_arg;
 1266              		.loc 1 474 37
 1267 0128 3B68     		ldr	r3, [r7]
 1268 012a 1A6C     		ldr	r2, [r3, #64]
 1269              		.loc 1 474 29
 1270 012c 7B68     		ldr	r3, [r7, #4]
 1271 012e 5A64     		str	r2, [r3, #68]
 475:c:/Users/lenovo/Desktop/AIoT/first_day/firstday_afternoon/LiteOS_Lab_STM32_IoT/iot_link/oc/oc_mqtt/oc_mqtt_tiny_v5\oc_mqtt_tiny.c **** 
 476:c:/Users/lenovo/Desktop/AIoT/first_day/firstday_afternoon/LiteOS_Lab_STM32_IoT/iot_link/oc/oc_mqtt/oc_mqtt_tiny_v5\oc_mqtt_tiny.c ****     cb->config_mem = mem_buf; ///< this is the membuf
 1272              		.loc 1 476 20
 1273 0130 7B68     		ldr	r3, [r7, #4]
 1274 0132 3A69     		ldr	r2, [r7, #16]
 1275 0134 1A60     		str	r2, [r3]
 477:c:/Users/lenovo/Desktop/AIoT/first_day/firstday_afternoon/LiteOS_Lab_STM32_IoT/iot_link/oc/oc_mqtt/oc_mqtt_tiny_v5\oc_mqtt_tiny.c **** 
 478:c:/Users/lenovo/Desktop/AIoT/first_day/firstday_afternoon/LiteOS_Lab_STM32_IoT/iot_link/oc/oc_mqtt/oc_mqtt_tiny_v5\oc_mqtt_tiny.c ****     cb->config.id = mem_buf;
 1276              		.loc 1 478 19
 1277 0136 7B68     		ldr	r3, [r7, #4]
 1278 0138 3A69     		ldr	r2, [r7, #16]
 1279 013a 9A63     		str	r2, [r3, #56]
 479:c:/Users/lenovo/Desktop/AIoT/first_day/firstday_afternoon/LiteOS_Lab_STM32_IoT/iot_link/oc/oc_mqtt/oc_mqtt_tiny_v5\oc_mqtt_tiny.c ****     strcpy( mem_buf,config->id );
 1280              		.loc 1 479 27
 1281 013c 3B68     		ldr	r3, [r7]
 1282 013e 5B6B     		ldr	r3, [r3, #52]
 1283              		.loc 1 479 5
 1284 0140 1946     		mov	r1, r3
 1285 0142 3869     		ldr	r0, [r7, #16]
 1286 0144 FFF7FEFF 		bl	strcpy
 480:c:/Users/lenovo/Desktop/AIoT/first_day/firstday_afternoon/LiteOS_Lab_STM32_IoT/iot_link/oc/oc_mqtt/oc_mqtt_tiny_v5\oc_mqtt_tiny.c ****     mem_buf += strlen(config->id) + 1;
 1287              		.loc 1 480 29
 1288 0148 3B68     		ldr	r3, [r7]
 1289 014a 5B6B     		ldr	r3, [r3, #52]
 1290              		.loc 1 480 16
 1291 014c 1846     		mov	r0, r3
 1292 014e FFF7FEFF 		bl	strlen
 1293 0152 0346     		mov	r3, r0
 1294              		.loc 1 480 13
 1295 0154 0133     		adds	r3, r3, #1
 1296 0156 3A69     		ldr	r2, [r7, #16]
 1297 0158 1344     		add	r3, r3, r2
 1298 015a 3B61     		str	r3, [r7, #16]
 481:c:/Users/lenovo/Desktop/AIoT/first_day/firstday_afternoon/LiteOS_Lab_STM32_IoT/iot_link/oc/oc_mqtt/oc_mqtt_tiny_v5\oc_mqtt_tiny.c **** 
 482:c:/Users/lenovo/Desktop/AIoT/first_day/firstday_afternoon/LiteOS_Lab_STM32_IoT/iot_link/oc/oc_mqtt/oc_mqtt_tiny_v5\oc_mqtt_tiny.c ****     if ( NULL != config->pwd )
 1299              		.loc 1 482 24
 1300 015c 3B68     		ldr	r3, [r7]
 1301 015e 9B6B     		ldr	r3, [r3, #56]
 1302              		.loc 1 482 8
 1303 0160 002B     		cmp	r3, #0
 1304 0162 13D0     		beq	.L53
 483:c:/Users/lenovo/Desktop/AIoT/first_day/firstday_afternoon/LiteOS_Lab_STM32_IoT/iot_link/oc/oc_mqtt/oc_mqtt_tiny_v5\oc_mqtt_tiny.c ****     {
 484:c:/Users/lenovo/Desktop/AIoT/first_day/firstday_afternoon/LiteOS_Lab_STM32_IoT/iot_link/oc/oc_mqtt/oc_mqtt_tiny_v5\oc_mqtt_tiny.c ****         cb->config.pwd = mem_buf;
 1305              		.loc 1 484 24
 1306 0164 7B68     		ldr	r3, [r7, #4]
 1307 0166 3A69     		ldr	r2, [r7, #16]
 1308 0168 DA63     		str	r2, [r3, #60]
 485:c:/Users/lenovo/Desktop/AIoT/first_day/firstday_afternoon/LiteOS_Lab_STM32_IoT/iot_link/oc/oc_mqtt/oc_mqtt_tiny_v5\oc_mqtt_tiny.c ****         strcpy( mem_buf, config->pwd );
 1309              		.loc 1 485 32
ARM GAS  C:\Users\lenovo\AppData\Local\Temp\cceHxmqh.s 			page 35


 1310 016a 3B68     		ldr	r3, [r7]
 1311 016c 9B6B     		ldr	r3, [r3, #56]
 1312              		.loc 1 485 9
 1313 016e 1946     		mov	r1, r3
 1314 0170 3869     		ldr	r0, [r7, #16]
 1315 0172 FFF7FEFF 		bl	strcpy
 486:c:/Users/lenovo/Desktop/AIoT/first_day/firstday_afternoon/LiteOS_Lab_STM32_IoT/iot_link/oc/oc_mqtt/oc_mqtt_tiny_v5\oc_mqtt_tiny.c ****         mem_buf += strlen( config->pwd ) + 1;
 1316              		.loc 1 486 34
 1317 0176 3B68     		ldr	r3, [r7]
 1318 0178 9B6B     		ldr	r3, [r3, #56]
 1319              		.loc 1 486 20
 1320 017a 1846     		mov	r0, r3
 1321 017c FFF7FEFF 		bl	strlen
 1322 0180 0346     		mov	r3, r0
 1323              		.loc 1 486 17
 1324 0182 0133     		adds	r3, r3, #1
 1325 0184 3A69     		ldr	r2, [r7, #16]
 1326 0186 1344     		add	r3, r3, r2
 1327 0188 3B61     		str	r3, [r7, #16]
 1328 018a 02E0     		b	.L54
 1329              	.L53:
 487:c:/Users/lenovo/Desktop/AIoT/first_day/firstday_afternoon/LiteOS_Lab_STM32_IoT/iot_link/oc/oc_mqtt/oc_mqtt_tiny_v5\oc_mqtt_tiny.c ****     }
 488:c:/Users/lenovo/Desktop/AIoT/first_day/firstday_afternoon/LiteOS_Lab_STM32_IoT/iot_link/oc/oc_mqtt/oc_mqtt_tiny_v5\oc_mqtt_tiny.c ****     else
 489:c:/Users/lenovo/Desktop/AIoT/first_day/firstday_afternoon/LiteOS_Lab_STM32_IoT/iot_link/oc/oc_mqtt/oc_mqtt_tiny_v5\oc_mqtt_tiny.c ****     {
 490:c:/Users/lenovo/Desktop/AIoT/first_day/firstday_afternoon/LiteOS_Lab_STM32_IoT/iot_link/oc/oc_mqtt/oc_mqtt_tiny_v5\oc_mqtt_tiny.c ****         cb->config.pwd = NULL;
 1330              		.loc 1 490 24
 1331 018c 7B68     		ldr	r3, [r7, #4]
 1332 018e 0022     		movs	r2, #0
 1333 0190 DA63     		str	r2, [r3, #60]
 1334              	.L54:
 491:c:/Users/lenovo/Desktop/AIoT/first_day/firstday_afternoon/LiteOS_Lab_STM32_IoT/iot_link/oc/oc_mqtt/oc_mqtt_tiny_v5\oc_mqtt_tiny.c ****     }
 492:c:/Users/lenovo/Desktop/AIoT/first_day/firstday_afternoon/LiteOS_Lab_STM32_IoT/iot_link/oc/oc_mqtt/oc_mqtt_tiny_v5\oc_mqtt_tiny.c **** 
 493:c:/Users/lenovo/Desktop/AIoT/first_day/firstday_afternoon/LiteOS_Lab_STM32_IoT/iot_link/oc/oc_mqtt/oc_mqtt_tiny_v5\oc_mqtt_tiny.c ****     cb->config.server_addr = mem_buf;
 1335              		.loc 1 493 28
 1336 0192 7B68     		ldr	r3, [r7, #4]
 1337 0194 3A69     		ldr	r2, [r7, #16]
 1338 0196 9A60     		str	r2, [r3, #8]
 494:c:/Users/lenovo/Desktop/AIoT/first_day/firstday_afternoon/LiteOS_Lab_STM32_IoT/iot_link/oc/oc_mqtt/oc_mqtt_tiny_v5\oc_mqtt_tiny.c ****     strcpy( mem_buf,config->server_addr );
 1339              		.loc 1 494 27
 1340 0198 3B68     		ldr	r3, [r7]
 1341 019a 5B68     		ldr	r3, [r3, #4]
 1342              		.loc 1 494 5
 1343 019c 1946     		mov	r1, r3
 1344 019e 3869     		ldr	r0, [r7, #16]
 1345 01a0 FFF7FEFF 		bl	strcpy
 495:c:/Users/lenovo/Desktop/AIoT/first_day/firstday_afternoon/LiteOS_Lab_STM32_IoT/iot_link/oc/oc_mqtt/oc_mqtt_tiny_v5\oc_mqtt_tiny.c ****     mem_buf += strlen(config->server_addr) + 1;
 1346              		.loc 1 495 29
 1347 01a4 3B68     		ldr	r3, [r7]
 1348 01a6 5B68     		ldr	r3, [r3, #4]
 1349              		.loc 1 495 16
 1350 01a8 1846     		mov	r0, r3
 1351 01aa FFF7FEFF 		bl	strlen
 1352 01ae 0346     		mov	r3, r0
 1353              		.loc 1 495 13
 1354 01b0 0133     		adds	r3, r3, #1
 1355 01b2 3A69     		ldr	r2, [r7, #16]
 1356 01b4 1344     		add	r3, r3, r2
ARM GAS  C:\Users\lenovo\AppData\Local\Temp\cceHxmqh.s 			page 36


 1357 01b6 3B61     		str	r3, [r7, #16]
 496:c:/Users/lenovo/Desktop/AIoT/first_day/firstday_afternoon/LiteOS_Lab_STM32_IoT/iot_link/oc/oc_mqtt/oc_mqtt_tiny_v5\oc_mqtt_tiny.c **** 
 497:c:/Users/lenovo/Desktop/AIoT/first_day/firstday_afternoon/LiteOS_Lab_STM32_IoT/iot_link/oc/oc_mqtt/oc_mqtt_tiny_v5\oc_mqtt_tiny.c ****     cb->config.server_port = mem_buf;
 1358              		.loc 1 497 28
 1359 01b8 7B68     		ldr	r3, [r7, #4]
 1360 01ba 3A69     		ldr	r2, [r7, #16]
 1361 01bc DA60     		str	r2, [r3, #12]
 498:c:/Users/lenovo/Desktop/AIoT/first_day/firstday_afternoon/LiteOS_Lab_STM32_IoT/iot_link/oc/oc_mqtt/oc_mqtt_tiny_v5\oc_mqtt_tiny.c ****     strcpy( mem_buf,config->server_port );
 1362              		.loc 1 498 27
 1363 01be 3B68     		ldr	r3, [r7]
 1364 01c0 9B68     		ldr	r3, [r3, #8]
 1365              		.loc 1 498 5
 1366 01c2 1946     		mov	r1, r3
 1367 01c4 3869     		ldr	r0, [r7, #16]
 1368 01c6 FFF7FEFF 		bl	strcpy
 499:c:/Users/lenovo/Desktop/AIoT/first_day/firstday_afternoon/LiteOS_Lab_STM32_IoT/iot_link/oc/oc_mqtt/oc_mqtt_tiny_v5\oc_mqtt_tiny.c ****     mem_buf += strlen(config->server_port) + 1;
 1369              		.loc 1 499 29
 1370 01ca 3B68     		ldr	r3, [r7]
 1371 01cc 9B68     		ldr	r3, [r3, #8]
 1372              		.loc 1 499 16
 1373 01ce 1846     		mov	r0, r3
 1374 01d0 FFF7FEFF 		bl	strlen
 1375 01d4 0346     		mov	r3, r0
 1376              		.loc 1 499 13
 1377 01d6 0133     		adds	r3, r3, #1
 1378 01d8 3A69     		ldr	r2, [r7, #16]
 1379 01da 1344     		add	r3, r3, r2
 1380 01dc 3B61     		str	r3, [r7, #16]
 500:c:/Users/lenovo/Desktop/AIoT/first_day/firstday_afternoon/LiteOS_Lab_STM32_IoT/iot_link/oc/oc_mqtt/oc_mqtt_tiny_v5\oc_mqtt_tiny.c **** 
 501:c:/Users/lenovo/Desktop/AIoT/first_day/firstday_afternoon/LiteOS_Lab_STM32_IoT/iot_link/oc/oc_mqtt/oc_mqtt_tiny_v5\oc_mqtt_tiny.c ****     cb->config.security.type = config->security.type;
 1381              		.loc 1 501 48
 1382 01de 3B68     		ldr	r3, [r7]
 1383 01e0 1A7B     		ldrb	r2, [r3, #12]	@ zero_extendqisi2
 1384              		.loc 1 501 30
 1385 01e2 7B68     		ldr	r3, [r7, #4]
 1386 01e4 1A74     		strb	r2, [r3, #16]
 502:c:/Users/lenovo/Desktop/AIoT/first_day/firstday_afternoon/LiteOS_Lab_STM32_IoT/iot_link/oc/oc_mqtt/oc_mqtt_tiny_v5\oc_mqtt_tiny.c ****     if(config->security.type == EN_DTLS_AL_SECURITY_TYPE_CERT)
 1387              		.loc 1 502 24
 1388 01e6 3B68     		ldr	r3, [r7]
 1389 01e8 1B7B     		ldrb	r3, [r3, #12]	@ zero_extendqisi2
 1390              		.loc 1 502 7
 1391 01ea 022B     		cmp	r3, #2
 1392 01ec 6CD1     		bne	.L55
 503:c:/Users/lenovo/Desktop/AIoT/first_day/firstday_afternoon/LiteOS_Lab_STM32_IoT/iot_link/oc/oc_mqtt/oc_mqtt_tiny_v5\oc_mqtt_tiny.c ****     {
 504:c:/Users/lenovo/Desktop/AIoT/first_day/firstday_afternoon/LiteOS_Lab_STM32_IoT/iot_link/oc/oc_mqtt/oc_mqtt_tiny_v5\oc_mqtt_tiny.c ****         if ( 0 != config->security.u.cert.server_ca_len)
 1393              		.loc 1 504 42
 1394 01ee 3B68     		ldr	r3, [r7]
 1395 01f0 1B6A     		ldr	r3, [r3, #32]
 1396              		.loc 1 504 12
 1397 01f2 002B     		cmp	r3, #0
 1398 01f4 15D0     		beq	.L56
 505:c:/Users/lenovo/Desktop/AIoT/first_day/firstday_afternoon/LiteOS_Lab_STM32_IoT/iot_link/oc/oc_mqtt/oc_mqtt_tiny_v5\oc_mqtt_tiny.c ****         {
 506:c:/Users/lenovo/Desktop/AIoT/first_day/firstday_afternoon/LiteOS_Lab_STM32_IoT/iot_link/oc/oc_mqtt/oc_mqtt_tiny_v5\oc_mqtt_tiny.c ****             cb->config.security.u.cert.server_ca_len = config->security.u.cert.server_ca_len;
 1399              		.loc 1 506 79
 1400 01f6 3B68     		ldr	r3, [r7]
 1401 01f8 1A6A     		ldr	r2, [r3, #32]
 1402              		.loc 1 506 54
ARM GAS  C:\Users\lenovo\AppData\Local\Temp\cceHxmqh.s 			page 37


 1403 01fa 7B68     		ldr	r3, [r7, #4]
 1404 01fc 5A62     		str	r2, [r3, #36]
 507:c:/Users/lenovo/Desktop/AIoT/first_day/firstday_afternoon/LiteOS_Lab_STM32_IoT/iot_link/oc/oc_mqtt/oc_mqtt_tiny_v5\oc_mqtt_tiny.c ****             cb->config.security.u.cert.server_ca = (uint8_t *)mem_buf;
 1405              		.loc 1 507 50
 1406 01fe 7B68     		ldr	r3, [r7, #4]
 1407 0200 3A69     		ldr	r2, [r7, #16]
 1408 0202 5A61     		str	r2, [r3, #20]
 508:c:/Users/lenovo/Desktop/AIoT/first_day/firstday_afternoon/LiteOS_Lab_STM32_IoT/iot_link/oc/oc_mqtt/oc_mqtt_tiny_v5\oc_mqtt_tiny.c ****             memcpy( mem_buf, config->security.u.cert.server_ca, config->security.u.cert.server_ca_l
 1409              		.loc 1 508 53
 1410 0204 3B68     		ldr	r3, [r7]
 1411 0206 1969     		ldr	r1, [r3, #16]
 1412              		.loc 1 508 88
 1413 0208 3B68     		ldr	r3, [r7]
 1414 020a 1B6A     		ldr	r3, [r3, #32]
 1415              		.loc 1 508 13
 1416 020c 1A46     		mov	r2, r3
 1417 020e 3869     		ldr	r0, [r7, #16]
 1418 0210 FFF7FEFF 		bl	memcpy
 509:c:/Users/lenovo/Desktop/AIoT/first_day/firstday_afternoon/LiteOS_Lab_STM32_IoT/iot_link/oc/oc_mqtt/oc_mqtt_tiny_v5\oc_mqtt_tiny.c ****             mem_buf += config->security.u.cert.server_ca_len;
 1419              		.loc 1 509 47
 1420 0214 3B68     		ldr	r3, [r7]
 1421 0216 1B6A     		ldr	r3, [r3, #32]
 1422 0218 1A46     		mov	r2, r3
 1423              		.loc 1 509 21
 1424 021a 3B69     		ldr	r3, [r7, #16]
 1425 021c 1344     		add	r3, r3, r2
 1426 021e 3B61     		str	r3, [r7, #16]
 1427 0220 06E0     		b	.L57
 1428              	.L56:
 510:c:/Users/lenovo/Desktop/AIoT/first_day/firstday_afternoon/LiteOS_Lab_STM32_IoT/iot_link/oc/oc_mqtt/oc_mqtt_tiny_v5\oc_mqtt_tiny.c ****         }
 511:c:/Users/lenovo/Desktop/AIoT/first_day/firstday_afternoon/LiteOS_Lab_STM32_IoT/iot_link/oc/oc_mqtt/oc_mqtt_tiny_v5\oc_mqtt_tiny.c ****         else
 512:c:/Users/lenovo/Desktop/AIoT/first_day/firstday_afternoon/LiteOS_Lab_STM32_IoT/iot_link/oc/oc_mqtt/oc_mqtt_tiny_v5\oc_mqtt_tiny.c ****         {
 513:c:/Users/lenovo/Desktop/AIoT/first_day/firstday_afternoon/LiteOS_Lab_STM32_IoT/iot_link/oc/oc_mqtt/oc_mqtt_tiny_v5\oc_mqtt_tiny.c ****             cb->config.security.u.cert.server_ca  =  (uint8_t *) s_oc_mqtt_ca_crt;
 1429              		.loc 1 513 51
 1430 0222 7B68     		ldr	r3, [r7, #4]
 1431 0224 5B4A     		ldr	r2, .L65
 1432 0226 5A61     		str	r2, [r3, #20]
 514:c:/Users/lenovo/Desktop/AIoT/first_day/firstday_afternoon/LiteOS_Lab_STM32_IoT/iot_link/oc/oc_mqtt/oc_mqtt_tiny_v5\oc_mqtt_tiny.c ****             cb->config.security.u.cert.server_ca_len = sizeof( s_oc_mqtt_ca_crt );
 1433              		.loc 1 514 54
 1434 0228 7B68     		ldr	r3, [r7, #4]
 1435 022a 40F25252 		movw	r2, #1362
 1436 022e 5A62     		str	r2, [r3, #36]
 1437              	.L57:
 515:c:/Users/lenovo/Desktop/AIoT/first_day/firstday_afternoon/LiteOS_Lab_STM32_IoT/iot_link/oc/oc_mqtt/oc_mqtt_tiny_v5\oc_mqtt_tiny.c ****         }
 516:c:/Users/lenovo/Desktop/AIoT/first_day/firstday_afternoon/LiteOS_Lab_STM32_IoT/iot_link/oc/oc_mqtt/oc_mqtt_tiny_v5\oc_mqtt_tiny.c **** 
 517:c:/Users/lenovo/Desktop/AIoT/first_day/firstday_afternoon/LiteOS_Lab_STM32_IoT/iot_link/oc/oc_mqtt/oc_mqtt_tiny_v5\oc_mqtt_tiny.c ****         if ( 0 != config->security.u.cert.client_ca_len)
 1438              		.loc 1 517 42
 1439 0230 3B68     		ldr	r3, [r7]
 1440 0232 5B6A     		ldr	r3, [r3, #36]
 1441              		.loc 1 517 12
 1442 0234 002B     		cmp	r3, #0
 1443 0236 14D0     		beq	.L58
 518:c:/Users/lenovo/Desktop/AIoT/first_day/firstday_afternoon/LiteOS_Lab_STM32_IoT/iot_link/oc/oc_mqtt/oc_mqtt_tiny_v5\oc_mqtt_tiny.c ****         {
 519:c:/Users/lenovo/Desktop/AIoT/first_day/firstday_afternoon/LiteOS_Lab_STM32_IoT/iot_link/oc/oc_mqtt/oc_mqtt_tiny_v5\oc_mqtt_tiny.c ****             cb->config.security.u.cert.client_ca_len =  config->security.u.cert.client_ca_len;
 1444              		.loc 1 519 80
 1445 0238 3B68     		ldr	r3, [r7]
 1446 023a 5A6A     		ldr	r2, [r3, #36]
ARM GAS  C:\Users\lenovo\AppData\Local\Temp\cceHxmqh.s 			page 38


 1447              		.loc 1 519 54
 1448 023c 7B68     		ldr	r3, [r7, #4]
 1449 023e 9A62     		str	r2, [r3, #40]
 520:c:/Users/lenovo/Desktop/AIoT/first_day/firstday_afternoon/LiteOS_Lab_STM32_IoT/iot_link/oc/oc_mqtt/oc_mqtt_tiny_v5\oc_mqtt_tiny.c ****             cb->config.security.u.cert.client_ca = (uint8_t *)mem_buf;
 1450              		.loc 1 520 50
 1451 0240 7B68     		ldr	r3, [r7, #4]
 1452 0242 3A69     		ldr	r2, [r7, #16]
 1453 0244 9A61     		str	r2, [r3, #24]
 521:c:/Users/lenovo/Desktop/AIoT/first_day/firstday_afternoon/LiteOS_Lab_STM32_IoT/iot_link/oc/oc_mqtt/oc_mqtt_tiny_v5\oc_mqtt_tiny.c ****             memcpy( mem_buf, config->security.u.cert.client_ca, config->security.u.cert.client_ca_l
 1454              		.loc 1 521 53
 1455 0246 3B68     		ldr	r3, [r7]
 1456 0248 5969     		ldr	r1, [r3, #20]
 1457              		.loc 1 521 88
 1458 024a 3B68     		ldr	r3, [r7]
 1459 024c 5B6A     		ldr	r3, [r3, #36]
 1460              		.loc 1 521 13
 1461 024e 1A46     		mov	r2, r3
 1462 0250 3869     		ldr	r0, [r7, #16]
 1463 0252 FFF7FEFF 		bl	memcpy
 522:c:/Users/lenovo/Desktop/AIoT/first_day/firstday_afternoon/LiteOS_Lab_STM32_IoT/iot_link/oc/oc_mqtt/oc_mqtt_tiny_v5\oc_mqtt_tiny.c ****             mem_buf += config->security.u.cert.client_ca_len;
 1464              		.loc 1 522 47
 1465 0256 3B68     		ldr	r3, [r7]
 1466 0258 5B6A     		ldr	r3, [r3, #36]
 1467 025a 1A46     		mov	r2, r3
 1468              		.loc 1 522 21
 1469 025c 3B69     		ldr	r3, [r7, #16]
 1470 025e 1344     		add	r3, r3, r2
 1471 0260 3B61     		str	r3, [r7, #16]
 1472              	.L58:
 523:c:/Users/lenovo/Desktop/AIoT/first_day/firstday_afternoon/LiteOS_Lab_STM32_IoT/iot_link/oc/oc_mqtt/oc_mqtt_tiny_v5\oc_mqtt_tiny.c ****         }
 524:c:/Users/lenovo/Desktop/AIoT/first_day/firstday_afternoon/LiteOS_Lab_STM32_IoT/iot_link/oc/oc_mqtt/oc_mqtt_tiny_v5\oc_mqtt_tiny.c **** 
 525:c:/Users/lenovo/Desktop/AIoT/first_day/firstday_afternoon/LiteOS_Lab_STM32_IoT/iot_link/oc/oc_mqtt/oc_mqtt_tiny_v5\oc_mqtt_tiny.c ****         if ( 0 != config->security.u.cert.client_pk_len)
 1473              		.loc 1 525 42
 1474 0262 3B68     		ldr	r3, [r7]
 1475 0264 9B6A     		ldr	r3, [r3, #40]
 1476              		.loc 1 525 12
 1477 0266 002B     		cmp	r3, #0
 1478 0268 14D0     		beq	.L59
 526:c:/Users/lenovo/Desktop/AIoT/first_day/firstday_afternoon/LiteOS_Lab_STM32_IoT/iot_link/oc/oc_mqtt/oc_mqtt_tiny_v5\oc_mqtt_tiny.c ****         {
 527:c:/Users/lenovo/Desktop/AIoT/first_day/firstday_afternoon/LiteOS_Lab_STM32_IoT/iot_link/oc/oc_mqtt/oc_mqtt_tiny_v5\oc_mqtt_tiny.c ****             cb->config.security.u.cert.client_pk_len =  config->security.u.cert.client_pk_len;
 1479              		.loc 1 527 80
 1480 026a 3B68     		ldr	r3, [r7]
 1481 026c 9A6A     		ldr	r2, [r3, #40]
 1482              		.loc 1 527 54
 1483 026e 7B68     		ldr	r3, [r7, #4]
 1484 0270 DA62     		str	r2, [r3, #44]
 528:c:/Users/lenovo/Desktop/AIoT/first_day/firstday_afternoon/LiteOS_Lab_STM32_IoT/iot_link/oc/oc_mqtt/oc_mqtt_tiny_v5\oc_mqtt_tiny.c ****             cb->config.security.u.cert.client_pk = (uint8_t *)mem_buf;
 1485              		.loc 1 528 50
 1486 0272 7B68     		ldr	r3, [r7, #4]
 1487 0274 3A69     		ldr	r2, [r7, #16]
 1488 0276 DA61     		str	r2, [r3, #28]
 529:c:/Users/lenovo/Desktop/AIoT/first_day/firstday_afternoon/LiteOS_Lab_STM32_IoT/iot_link/oc/oc_mqtt/oc_mqtt_tiny_v5\oc_mqtt_tiny.c ****             memcpy( mem_buf, config->security.u.cert.client_pk, config->security.u.cert.client_pk_l
 1489              		.loc 1 529 53
 1490 0278 3B68     		ldr	r3, [r7]
 1491 027a 9969     		ldr	r1, [r3, #24]
 1492              		.loc 1 529 88
 1493 027c 3B68     		ldr	r3, [r7]
ARM GAS  C:\Users\lenovo\AppData\Local\Temp\cceHxmqh.s 			page 39


 1494 027e 9B6A     		ldr	r3, [r3, #40]
 1495              		.loc 1 529 13
 1496 0280 1A46     		mov	r2, r3
 1497 0282 3869     		ldr	r0, [r7, #16]
 1498 0284 FFF7FEFF 		bl	memcpy
 530:c:/Users/lenovo/Desktop/AIoT/first_day/firstday_afternoon/LiteOS_Lab_STM32_IoT/iot_link/oc/oc_mqtt/oc_mqtt_tiny_v5\oc_mqtt_tiny.c ****             mem_buf += config->security.u.cert.client_pk_len;
 1499              		.loc 1 530 47
 1500 0288 3B68     		ldr	r3, [r7]
 1501 028a 9B6A     		ldr	r3, [r3, #40]
 1502 028c 1A46     		mov	r2, r3
 1503              		.loc 1 530 21
 1504 028e 3B69     		ldr	r3, [r7, #16]
 1505 0290 1344     		add	r3, r3, r2
 1506 0292 3B61     		str	r3, [r7, #16]
 1507              	.L59:
 531:c:/Users/lenovo/Desktop/AIoT/first_day/firstday_afternoon/LiteOS_Lab_STM32_IoT/iot_link/oc/oc_mqtt/oc_mqtt_tiny_v5\oc_mqtt_tiny.c ****         }
 532:c:/Users/lenovo/Desktop/AIoT/first_day/firstday_afternoon/LiteOS_Lab_STM32_IoT/iot_link/oc/oc_mqtt/oc_mqtt_tiny_v5\oc_mqtt_tiny.c **** 
 533:c:/Users/lenovo/Desktop/AIoT/first_day/firstday_afternoon/LiteOS_Lab_STM32_IoT/iot_link/oc/oc_mqtt/oc_mqtt_tiny_v5\oc_mqtt_tiny.c ****         if ( 0 != config->security.u.cert.client_pk_pwd_len)
 1508              		.loc 1 533 42
 1509 0294 3B68     		ldr	r3, [r7]
 1510 0296 DB6A     		ldr	r3, [r3, #44]
 1511              		.loc 1 533 12
 1512 0298 002B     		cmp	r3, #0
 1513 029a 4BD0     		beq	.L60
 534:c:/Users/lenovo/Desktop/AIoT/first_day/firstday_afternoon/LiteOS_Lab_STM32_IoT/iot_link/oc/oc_mqtt/oc_mqtt_tiny_v5\oc_mqtt_tiny.c ****         {
 535:c:/Users/lenovo/Desktop/AIoT/first_day/firstday_afternoon/LiteOS_Lab_STM32_IoT/iot_link/oc/oc_mqtt/oc_mqtt_tiny_v5\oc_mqtt_tiny.c ****             cb->config.security.u.cert.client_pk_pwd_len = config->security.u.cert.client_pk_pwd_le
 1514              		.loc 1 535 83
 1515 029c 3B68     		ldr	r3, [r7]
 1516 029e DA6A     		ldr	r2, [r3, #44]
 1517              		.loc 1 535 58
 1518 02a0 7B68     		ldr	r3, [r7, #4]
 1519 02a2 1A63     		str	r2, [r3, #48]
 536:c:/Users/lenovo/Desktop/AIoT/first_day/firstday_afternoon/LiteOS_Lab_STM32_IoT/iot_link/oc/oc_mqtt/oc_mqtt_tiny_v5\oc_mqtt_tiny.c ****             cb->config.security.u.cert.client_pk_pwd = (uint8_t *)mem_buf;
 1520              		.loc 1 536 54
 1521 02a4 7B68     		ldr	r3, [r7, #4]
 1522 02a6 3A69     		ldr	r2, [r7, #16]
 1523 02a8 1A62     		str	r2, [r3, #32]
 537:c:/Users/lenovo/Desktop/AIoT/first_day/firstday_afternoon/LiteOS_Lab_STM32_IoT/iot_link/oc/oc_mqtt/oc_mqtt_tiny_v5\oc_mqtt_tiny.c ****             memcpy( mem_buf, config->security.u.cert.client_pk_pwd, config->security.u.cert.client_
 1524              		.loc 1 537 53
 1525 02aa 3B68     		ldr	r3, [r7]
 1526 02ac D969     		ldr	r1, [r3, #28]
 1527              		.loc 1 537 92
 1528 02ae 3B68     		ldr	r3, [r7]
 1529 02b0 DB6A     		ldr	r3, [r3, #44]
 1530              		.loc 1 537 13
 1531 02b2 1A46     		mov	r2, r3
 1532 02b4 3869     		ldr	r0, [r7, #16]
 1533 02b6 FFF7FEFF 		bl	memcpy
 538:c:/Users/lenovo/Desktop/AIoT/first_day/firstday_afternoon/LiteOS_Lab_STM32_IoT/iot_link/oc/oc_mqtt/oc_mqtt_tiny_v5\oc_mqtt_tiny.c ****             mem_buf += config->security.u.cert.client_pk_pwd_len;
 1534              		.loc 1 538 47
 1535 02ba 3B68     		ldr	r3, [r7]
 1536 02bc DB6A     		ldr	r3, [r3, #44]
 1537 02be 1A46     		mov	r2, r3
 1538              		.loc 1 538 21
 1539 02c0 3B69     		ldr	r3, [r7, #16]
 1540 02c2 1344     		add	r3, r3, r2
 1541 02c4 3B61     		str	r3, [r7, #16]
ARM GAS  C:\Users\lenovo\AppData\Local\Temp\cceHxmqh.s 			page 40


 1542 02c6 35E0     		b	.L60
 1543              	.L55:
 539:c:/Users/lenovo/Desktop/AIoT/first_day/firstday_afternoon/LiteOS_Lab_STM32_IoT/iot_link/oc/oc_mqtt/oc_mqtt_tiny_v5\oc_mqtt_tiny.c ****         }
 540:c:/Users/lenovo/Desktop/AIoT/first_day/firstday_afternoon/LiteOS_Lab_STM32_IoT/iot_link/oc/oc_mqtt/oc_mqtt_tiny_v5\oc_mqtt_tiny.c ****     }
 541:c:/Users/lenovo/Desktop/AIoT/first_day/firstday_afternoon/LiteOS_Lab_STM32_IoT/iot_link/oc/oc_mqtt/oc_mqtt_tiny_v5\oc_mqtt_tiny.c ****     else if(config->security.type == EN_DTLS_AL_SECURITY_TYPE_PSK)
 1544              		.loc 1 541 29
 1545 02c8 3B68     		ldr	r3, [r7]
 1546 02ca 1B7B     		ldrb	r3, [r3, #12]	@ zero_extendqisi2
 1547              		.loc 1 541 12
 1548 02cc 012B     		cmp	r3, #1
 1549 02ce 31D1     		bne	.L60
 542:c:/Users/lenovo/Desktop/AIoT/first_day/firstday_afternoon/LiteOS_Lab_STM32_IoT/iot_link/oc/oc_mqtt/oc_mqtt_tiny_v5\oc_mqtt_tiny.c ****     {
 543:c:/Users/lenovo/Desktop/AIoT/first_day/firstday_afternoon/LiteOS_Lab_STM32_IoT/iot_link/oc/oc_mqtt/oc_mqtt_tiny_v5\oc_mqtt_tiny.c ****         if ( 0 != config->security.u.psk.psk_id_len)
 1550              		.loc 1 543 41
 1551 02d0 3B68     		ldr	r3, [r7]
 1552 02d2 9B69     		ldr	r3, [r3, #24]
 1553              		.loc 1 543 12
 1554 02d4 002B     		cmp	r3, #0
 1555 02d6 14D0     		beq	.L61
 544:c:/Users/lenovo/Desktop/AIoT/first_day/firstday_afternoon/LiteOS_Lab_STM32_IoT/iot_link/oc/oc_mqtt/oc_mqtt_tiny_v5\oc_mqtt_tiny.c ****         {
 545:c:/Users/lenovo/Desktop/AIoT/first_day/firstday_afternoon/LiteOS_Lab_STM32_IoT/iot_link/oc/oc_mqtt/oc_mqtt_tiny_v5\oc_mqtt_tiny.c ****             cb->config.security.u.psk.psk_id_len = config->security.u.psk.psk_id_len ;
 1556              		.loc 1 545 74
 1557 02d8 3B68     		ldr	r3, [r7]
 1558 02da 9A69     		ldr	r2, [r3, #24]
 1559              		.loc 1 545 50
 1560 02dc 7B68     		ldr	r3, [r7, #4]
 1561 02de DA61     		str	r2, [r3, #28]
 546:c:/Users/lenovo/Desktop/AIoT/first_day/firstday_afternoon/LiteOS_Lab_STM32_IoT/iot_link/oc/oc_mqtt/oc_mqtt_tiny_v5\oc_mqtt_tiny.c ****             cb->config.security.u.psk.psk_id = (uint8_t *)mem_buf;
 1562              		.loc 1 546 46
 1563 02e0 7B68     		ldr	r3, [r7, #4]
 1564 02e2 3A69     		ldr	r2, [r7, #16]
 1565 02e4 5A61     		str	r2, [r3, #20]
 547:c:/Users/lenovo/Desktop/AIoT/first_day/firstday_afternoon/LiteOS_Lab_STM32_IoT/iot_link/oc/oc_mqtt/oc_mqtt_tiny_v5\oc_mqtt_tiny.c ****             memcpy( mem_buf, config->security.u.psk.psk_id, config->security.u.psk.psk_id_len );
 1566              		.loc 1 547 52
 1567 02e6 3B68     		ldr	r3, [r7]
 1568 02e8 1969     		ldr	r1, [r3, #16]
 1569              		.loc 1 547 83
 1570 02ea 3B68     		ldr	r3, [r7]
 1571 02ec 9B69     		ldr	r3, [r3, #24]
 1572              		.loc 1 547 13
 1573 02ee 1A46     		mov	r2, r3
 1574 02f0 3869     		ldr	r0, [r7, #16]
 1575 02f2 FFF7FEFF 		bl	memcpy
 548:c:/Users/lenovo/Desktop/AIoT/first_day/firstday_afternoon/LiteOS_Lab_STM32_IoT/iot_link/oc/oc_mqtt/oc_mqtt_tiny_v5\oc_mqtt_tiny.c ****             mem_buf += config->security.u.psk.psk_id_len;
 1576              		.loc 1 548 46
 1577 02f6 3B68     		ldr	r3, [r7]
 1578 02f8 9B69     		ldr	r3, [r3, #24]
 1579 02fa 1A46     		mov	r2, r3
 1580              		.loc 1 548 21
 1581 02fc 3B69     		ldr	r3, [r7, #16]
 1582 02fe 1344     		add	r3, r3, r2
 1583 0300 3B61     		str	r3, [r7, #16]
 1584              	.L61:
 549:c:/Users/lenovo/Desktop/AIoT/first_day/firstday_afternoon/LiteOS_Lab_STM32_IoT/iot_link/oc/oc_mqtt/oc_mqtt_tiny_v5\oc_mqtt_tiny.c ****         }
 550:c:/Users/lenovo/Desktop/AIoT/first_day/firstday_afternoon/LiteOS_Lab_STM32_IoT/iot_link/oc/oc_mqtt/oc_mqtt_tiny_v5\oc_mqtt_tiny.c **** 
 551:c:/Users/lenovo/Desktop/AIoT/first_day/firstday_afternoon/LiteOS_Lab_STM32_IoT/iot_link/oc/oc_mqtt/oc_mqtt_tiny_v5\oc_mqtt_tiny.c ****         if ( 0 != config->security.u.psk.psk_key_len)
 1585              		.loc 1 551 41
ARM GAS  C:\Users\lenovo\AppData\Local\Temp\cceHxmqh.s 			page 41


 1586 0302 3B68     		ldr	r3, [r7]
 1587 0304 DB69     		ldr	r3, [r3, #28]
 1588              		.loc 1 551 12
 1589 0306 002B     		cmp	r3, #0
 1590 0308 14D0     		beq	.L60
 552:c:/Users/lenovo/Desktop/AIoT/first_day/firstday_afternoon/LiteOS_Lab_STM32_IoT/iot_link/oc/oc_mqtt/oc_mqtt_tiny_v5\oc_mqtt_tiny.c ****         {
 553:c:/Users/lenovo/Desktop/AIoT/first_day/firstday_afternoon/LiteOS_Lab_STM32_IoT/iot_link/oc/oc_mqtt/oc_mqtt_tiny_v5\oc_mqtt_tiny.c ****             cb->config.security.u.psk.psk_key_len = config->security.u.psk.psk_key_len;
 1591              		.loc 1 553 75
 1592 030a 3B68     		ldr	r3, [r7]
 1593 030c DA69     		ldr	r2, [r3, #28]
 1594              		.loc 1 553 51
 1595 030e 7B68     		ldr	r3, [r7, #4]
 1596 0310 1A62     		str	r2, [r3, #32]
 554:c:/Users/lenovo/Desktop/AIoT/first_day/firstday_afternoon/LiteOS_Lab_STM32_IoT/iot_link/oc/oc_mqtt/oc_mqtt_tiny_v5\oc_mqtt_tiny.c ****             cb->config.security.u.psk.psk_key = (uint8_t *)mem_buf;
 1597              		.loc 1 554 47
 1598 0312 7B68     		ldr	r3, [r7, #4]
 1599 0314 3A69     		ldr	r2, [r7, #16]
 1600 0316 9A61     		str	r2, [r3, #24]
 555:c:/Users/lenovo/Desktop/AIoT/first_day/firstday_afternoon/LiteOS_Lab_STM32_IoT/iot_link/oc/oc_mqtt/oc_mqtt_tiny_v5\oc_mqtt_tiny.c ****             memcpy( mem_buf, config->security.u.psk.psk_key, config->security.u.psk.psk_key_len );
 1601              		.loc 1 555 52
 1602 0318 3B68     		ldr	r3, [r7]
 1603 031a 5969     		ldr	r1, [r3, #20]
 1604              		.loc 1 555 84
 1605 031c 3B68     		ldr	r3, [r7]
 1606 031e DB69     		ldr	r3, [r3, #28]
 1607              		.loc 1 555 13
 1608 0320 1A46     		mov	r2, r3
 1609 0322 3869     		ldr	r0, [r7, #16]
 1610 0324 FFF7FEFF 		bl	memcpy
 556:c:/Users/lenovo/Desktop/AIoT/first_day/firstday_afternoon/LiteOS_Lab_STM32_IoT/iot_link/oc/oc_mqtt/oc_mqtt_tiny_v5\oc_mqtt_tiny.c ****             mem_buf += config->security.u.psk.psk_id_len;
 1611              		.loc 1 556 46
 1612 0328 3B68     		ldr	r3, [r7]
 1613 032a 9B69     		ldr	r3, [r3, #24]
 1614 032c 1A46     		mov	r2, r3
 1615              		.loc 1 556 21
 1616 032e 3B69     		ldr	r3, [r7, #16]
 1617 0330 1344     		add	r3, r3, r2
 1618 0332 3B61     		str	r3, [r7, #16]
 1619              	.L60:
 557:c:/Users/lenovo/Desktop/AIoT/first_day/firstday_afternoon/LiteOS_Lab_STM32_IoT/iot_link/oc/oc_mqtt/oc_mqtt_tiny_v5\oc_mqtt_tiny.c ****         }
 558:c:/Users/lenovo/Desktop/AIoT/first_day/firstday_afternoon/LiteOS_Lab_STM32_IoT/iot_link/oc/oc_mqtt/oc_mqtt_tiny_v5\oc_mqtt_tiny.c ****     }
 559:c:/Users/lenovo/Desktop/AIoT/first_day/firstday_afternoon/LiteOS_Lab_STM32_IoT/iot_link/oc/oc_mqtt/oc_mqtt_tiny_v5\oc_mqtt_tiny.c **** 
 560:c:/Users/lenovo/Desktop/AIoT/first_day/firstday_afternoon/LiteOS_Lab_STM32_IoT/iot_link/oc/oc_mqtt/oc_mqtt_tiny_v5\oc_mqtt_tiny.c **** 
 561:c:/Users/lenovo/Desktop/AIoT/first_day/firstday_afternoon/LiteOS_Lab_STM32_IoT/iot_link/oc/oc_mqtt/oc_mqtt_tiny_v5\oc_mqtt_tiny.c ****     int i = 0;
 1620              		.loc 1 561 9
 1621 0334 0023     		movs	r3, #0
 1622 0336 FB60     		str	r3, [r7, #12]
 562:c:/Users/lenovo/Desktop/AIoT/first_day/firstday_afternoon/LiteOS_Lab_STM32_IoT/iot_link/oc/oc_mqtt/oc_mqtt_tiny_v5\oc_mqtt_tiny.c ****     for(i = 0;i < CN_NEW_TOPIC_NUM;i++)
 1623              		.loc 1 562 11
 1624 0338 0023     		movs	r3, #0
 1625 033a FB60     		str	r3, [r7, #12]
 1626              		.loc 1 562 5
 1627 033c 20E0     		b	.L62
 1628              	.L64:
 563:c:/Users/lenovo/Desktop/AIoT/first_day/firstday_afternoon/LiteOS_Lab_STM32_IoT/iot_link/oc/oc_mqtt/oc_mqtt_tiny_v5\oc_mqtt_tiny.c ****     {
 564:c:/Users/lenovo/Desktop/AIoT/first_day/firstday_afternoon/LiteOS_Lab_STM32_IoT/iot_link/oc/oc_mqtt/oc_mqtt_tiny_v5\oc_mqtt_tiny.c ****         cb->hub_sub_topic[i] = topic_fmt((char *)s_new_topic_fmt[i],cb->config.id);
 1629              		.loc 1 564 65
ARM GAS  C:\Users\lenovo\AppData\Local\Temp\cceHxmqh.s 			page 42


 1630 033e 164A     		ldr	r2, .L65+4
 1631 0340 FB68     		ldr	r3, [r7, #12]
 1632 0342 52F82320 		ldr	r2, [r2, r3, lsl #2]
 1633              		.loc 1 564 32
 1634 0346 7B68     		ldr	r3, [r7, #4]
 1635 0348 9B6B     		ldr	r3, [r3, #56]
 1636 034a 1946     		mov	r1, r3
 1637 034c 1046     		mov	r0, r2
 1638 034e FFF7FEFF 		bl	topic_fmt
 1639 0352 0146     		mov	r1, r0
 1640              		.loc 1 564 30
 1641 0354 7B68     		ldr	r3, [r7, #4]
 1642 0356 FA68     		ldr	r2, [r7, #12]
 1643 0358 2432     		adds	r2, r2, #36
 1644 035a 43F82210 		str	r1, [r3, r2, lsl #2]
 565:c:/Users/lenovo/Desktop/AIoT/first_day/firstday_afternoon/LiteOS_Lab_STM32_IoT/iot_link/oc/oc_mqtt/oc_mqtt_tiny_v5\oc_mqtt_tiny.c ****         if(NULL == cb->hub_sub_topic[i])
 1645              		.loc 1 565 37
 1646 035e 7B68     		ldr	r3, [r7, #4]
 1647 0360 FA68     		ldr	r2, [r7, #12]
 1648 0362 2432     		adds	r2, r2, #36
 1649 0364 53F82230 		ldr	r3, [r3, r2, lsl #2]
 1650              		.loc 1 565 11
 1651 0368 002B     		cmp	r3, #0
 1652 036a 06D1     		bne	.L63
 566:c:/Users/lenovo/Desktop/AIoT/first_day/firstday_afternoon/LiteOS_Lab_STM32_IoT/iot_link/oc/oc_mqtt/oc_mqtt_tiny_v5\oc_mqtt_tiny.c ****         {
 567:c:/Users/lenovo/Desktop/AIoT/first_day/firstday_afternoon/LiteOS_Lab_STM32_IoT/iot_link/oc/oc_mqtt/oc_mqtt_tiny_v5\oc_mqtt_tiny.c ****             config_parameter_release(cb);
 1653              		.loc 1 567 13
 1654 036c 7868     		ldr	r0, [r7, #4]
 1655 036e FFF7FEFF 		bl	config_parameter_release
 568:c:/Users/lenovo/Desktop/AIoT/first_day/firstday_afternoon/LiteOS_Lab_STM32_IoT/iot_link/oc/oc_mqtt/oc_mqtt_tiny_v5\oc_mqtt_tiny.c ****             ret = en_oc_mqtt_err_sysmem;
 1656              		.loc 1 568 17
 1657 0372 0F23     		movs	r3, #15
 1658 0374 BB60     		str	r3, [r7, #8]
 569:c:/Users/lenovo/Desktop/AIoT/first_day/firstday_afternoon/LiteOS_Lab_STM32_IoT/iot_link/oc/oc_mqtt/oc_mqtt_tiny_v5\oc_mqtt_tiny.c ****             return ret;
 1659              		.loc 1 569 20
 1660 0376 BB68     		ldr	r3, [r7, #8]
 1661 0378 08E0     		b	.L50
 1662              	.L63:
 562:c:/Users/lenovo/Desktop/AIoT/first_day/firstday_afternoon/LiteOS_Lab_STM32_IoT/iot_link/oc/oc_mqtt/oc_mqtt_tiny_v5\oc_mqtt_tiny.c ****     {
 1663              		.loc 1 562 37 discriminator 2
 1664 037a FB68     		ldr	r3, [r7, #12]
 1665 037c 0133     		adds	r3, r3, #1
 1666 037e FB60     		str	r3, [r7, #12]
 1667              	.L62:
 562:c:/Users/lenovo/Desktop/AIoT/first_day/firstday_afternoon/LiteOS_Lab_STM32_IoT/iot_link/oc/oc_mqtt/oc_mqtt_tiny_v5\oc_mqtt_tiny.c ****     {
 1668              		.loc 1 562 17 discriminator 1
 1669 0380 FB68     		ldr	r3, [r7, #12]
 562:c:/Users/lenovo/Desktop/AIoT/first_day/firstday_afternoon/LiteOS_Lab_STM32_IoT/iot_link/oc/oc_mqtt/oc_mqtt_tiny_v5\oc_mqtt_tiny.c ****     {
 1670              		.loc 1 562 5 discriminator 1
 1671 0382 042B     		cmp	r3, #4
 1672 0384 DBD9     		bls	.L64
 570:c:/Users/lenovo/Desktop/AIoT/first_day/firstday_afternoon/LiteOS_Lab_STM32_IoT/iot_link/oc/oc_mqtt/oc_mqtt_tiny_v5\oc_mqtt_tiny.c ****         }
 571:c:/Users/lenovo/Desktop/AIoT/first_day/firstday_afternoon/LiteOS_Lab_STM32_IoT/iot_link/oc/oc_mqtt/oc_mqtt_tiny_v5\oc_mqtt_tiny.c ****     }
 572:c:/Users/lenovo/Desktop/AIoT/first_day/firstday_afternoon/LiteOS_Lab_STM32_IoT/iot_link/oc/oc_mqtt/oc_mqtt_tiny_v5\oc_mqtt_tiny.c **** 
 573:c:/Users/lenovo/Desktop/AIoT/first_day/firstday_afternoon/LiteOS_Lab_STM32_IoT/iot_link/oc/oc_mqtt/oc_mqtt_tiny_v5\oc_mqtt_tiny.c **** 
 574:c:/Users/lenovo/Desktop/AIoT/first_day/firstday_afternoon/LiteOS_Lab_STM32_IoT/iot_link/oc/oc_mqtt/oc_mqtt_tiny_v5\oc_mqtt_tiny.c ****     ret = en_oc_mqtt_err_ok;
 1673              		.loc 1 574 9
ARM GAS  C:\Users\lenovo\AppData\Local\Temp\cceHxmqh.s 			page 43


 1674 0386 0023     		movs	r3, #0
 1675 0388 BB60     		str	r3, [r7, #8]
 575:c:/Users/lenovo/Desktop/AIoT/first_day/firstday_afternoon/LiteOS_Lab_STM32_IoT/iot_link/oc/oc_mqtt/oc_mqtt_tiny_v5\oc_mqtt_tiny.c ****     return ret;
 1676              		.loc 1 575 12
 1677 038a BB68     		ldr	r3, [r7, #8]
 1678              	.L50:
 576:c:/Users/lenovo/Desktop/AIoT/first_day/firstday_afternoon/LiteOS_Lab_STM32_IoT/iot_link/oc/oc_mqtt/oc_mqtt_tiny_v5\oc_mqtt_tiny.c **** }
 1679              		.loc 1 576 1
 1680 038c 1846     		mov	r0, r3
 1681 038e 1837     		adds	r7, r7, #24
 1682              	.LCFI33:
 1683              		.cfi_def_cfa_offset 8
 1684 0390 BD46     		mov	sp, r7
 1685              	.LCFI34:
 1686              		.cfi_def_cfa_register 13
 1687              		@ sp needed
 1688 0392 80BD     		pop	{r7, pc}
 1689              	.L66:
 1690              		.align	2
 1691              	.L65:
 1692 0394 00000000 		.word	s_oc_mqtt_ca_crt
 1693 0398 00000000 		.word	s_new_topic_fmt
 1694              		.cfi_endproc
 1695              	.LFE9:
 1697              		.section	.text.oc_mqtt_para_release,"ax",%progbits
 1698              		.align	1
 1699              		.syntax unified
 1700              		.thumb
 1701              		.thumb_func
 1702              		.fpu fpv4-sp-d16
 1704              	oc_mqtt_para_release:
 1705              	.LFB10:
 577:c:/Users/lenovo/Desktop/AIoT/first_day/firstday_afternoon/LiteOS_Lab_STM32_IoT/iot_link/oc/oc_mqtt/oc_mqtt_tiny_v5\oc_mqtt_tiny.c **** 
 578:c:/Users/lenovo/Desktop/AIoT/first_day/firstday_afternoon/LiteOS_Lab_STM32_IoT/iot_link/oc/oc_mqtt/oc_mqtt_tiny_v5\oc_mqtt_tiny.c **** 
 579:c:/Users/lenovo/Desktop/AIoT/first_day/firstday_afternoon/LiteOS_Lab_STM32_IoT/iot_link/oc/oc_mqtt/oc_mqtt_tiny_v5\oc_mqtt_tiny.c **** ///< generate the client_id user passwd for the mqtt need
 580:c:/Users/lenovo/Desktop/AIoT/first_day/firstday_afternoon/LiteOS_Lab_STM32_IoT/iot_link/oc/oc_mqtt/oc_mqtt_tiny_v5\oc_mqtt_tiny.c **** static int oc_mqtt_para_release(oc_mqtt_tiny_cb_t *cb)
 581:c:/Users/lenovo/Desktop/AIoT/first_day/firstday_afternoon/LiteOS_Lab_STM32_IoT/iot_link/oc/oc_mqtt/oc_mqtt_tiny_v5\oc_mqtt_tiny.c **** {
 1706              		.loc 1 581 1
 1707              		.cfi_startproc
 1708              		@ args = 0, pretend = 0, frame = 8
 1709              		@ frame_needed = 1, uses_anonymous_args = 0
 1710 0000 80B5     		push	{r7, lr}
 1711              	.LCFI35:
 1712              		.cfi_def_cfa_offset 8
 1713              		.cfi_offset 7, -8
 1714              		.cfi_offset 14, -4
 1715 0002 82B0     		sub	sp, sp, #8
 1716              	.LCFI36:
 1717              		.cfi_def_cfa_offset 16
 1718 0004 00AF     		add	r7, sp, #0
 1719              	.LCFI37:
 1720              		.cfi_def_cfa_register 7
 1721 0006 7860     		str	r0, [r7, #4]
 582:c:/Users/lenovo/Desktop/AIoT/first_day/firstday_afternoon/LiteOS_Lab_STM32_IoT/iot_link/oc/oc_mqtt/oc_mqtt_tiny_v5\oc_mqtt_tiny.c ****     mqtt_al_disconnect(cb->mqtt_para.mqtt_handle);
 1722              		.loc 1 582 5
 1723 0008 7B68     		ldr	r3, [r7, #4]
 1724 000a 9B6E     		ldr	r3, [r3, #104]
ARM GAS  C:\Users\lenovo\AppData\Local\Temp\cceHxmqh.s 			page 44


 1725 000c 1846     		mov	r0, r3
 1726 000e FFF7FEFF 		bl	mqtt_al_disconnect
 583:c:/Users/lenovo/Desktop/AIoT/first_day/firstday_afternoon/LiteOS_Lab_STM32_IoT/iot_link/oc/oc_mqtt/oc_mqtt_tiny_v5\oc_mqtt_tiny.c ****     osal_free(cb->mqtt_para.mqtt_clientid);
 1727              		.loc 1 583 28
 1728 0012 7B68     		ldr	r3, [r7, #4]
 1729 0014 9B6C     		ldr	r3, [r3, #72]
 1730              		.loc 1 583 5
 1731 0016 1846     		mov	r0, r3
 1732 0018 FFF7FEFF 		bl	osal_free
 584:c:/Users/lenovo/Desktop/AIoT/first_day/firstday_afternoon/LiteOS_Lab_STM32_IoT/iot_link/oc/oc_mqtt/oc_mqtt_tiny_v5\oc_mqtt_tiny.c ****     osal_free(cb->mqtt_para.mqtt_user);
 1733              		.loc 1 584 28
 1734 001c 7B68     		ldr	r3, [r7, #4]
 1735 001e DB6C     		ldr	r3, [r3, #76]
 1736              		.loc 1 584 5
 1737 0020 1846     		mov	r0, r3
 1738 0022 FFF7FEFF 		bl	osal_free
 585:c:/Users/lenovo/Desktop/AIoT/first_day/firstday_afternoon/LiteOS_Lab_STM32_IoT/iot_link/oc/oc_mqtt/oc_mqtt_tiny_v5\oc_mqtt_tiny.c ****     osal_free(cb->mqtt_para.mqtt_passwd);
 1739              		.loc 1 585 28
 1740 0026 7B68     		ldr	r3, [r7, #4]
 1741 0028 1B6D     		ldr	r3, [r3, #80]
 1742              		.loc 1 585 5
 1743 002a 1846     		mov	r0, r3
 1744 002c FFF7FEFF 		bl	osal_free
 586:c:/Users/lenovo/Desktop/AIoT/first_day/firstday_afternoon/LiteOS_Lab_STM32_IoT/iot_link/oc/oc_mqtt/oc_mqtt_tiny_v5\oc_mqtt_tiny.c ****     osal_free(cb->mqtt_para.default_pub_topic);
 1745              		.loc 1 586 28
 1746 0030 7B68     		ldr	r3, [r7, #4]
 1747 0032 DB6D     		ldr	r3, [r3, #92]
 1748              		.loc 1 586 5
 1749 0034 1846     		mov	r0, r3
 1750 0036 FFF7FEFF 		bl	osal_free
 587:c:/Users/lenovo/Desktop/AIoT/first_day/firstday_afternoon/LiteOS_Lab_STM32_IoT/iot_link/oc/oc_mqtt/oc_mqtt_tiny_v5\oc_mqtt_tiny.c ****     osal_free(cb->mqtt_para.default_sub_topic);
 1751              		.loc 1 587 28
 1752 003a 7B68     		ldr	r3, [r7, #4]
 1753 003c 1B6E     		ldr	r3, [r3, #96]
 1754              		.loc 1 587 5
 1755 003e 1846     		mov	r0, r3
 1756 0040 FFF7FEFF 		bl	osal_free
 588:c:/Users/lenovo/Desktop/AIoT/first_day/firstday_afternoon/LiteOS_Lab_STM32_IoT/iot_link/oc/oc_mqtt/oc_mqtt_tiny_v5\oc_mqtt_tiny.c **** 
 589:c:/Users/lenovo/Desktop/AIoT/first_day/firstday_afternoon/LiteOS_Lab_STM32_IoT/iot_link/oc/oc_mqtt/oc_mqtt_tiny_v5\oc_mqtt_tiny.c ****     memset(&cb->mqtt_para,0,sizeof(oc_mqtt_para_t));
 1757              		.loc 1 589 12
 1758 0044 7B68     		ldr	r3, [r7, #4]
 1759 0046 4833     		adds	r3, r3, #72
 1760              		.loc 1 589 5
 1761 0048 2422     		movs	r2, #36
 1762 004a 0021     		movs	r1, #0
 1763 004c 1846     		mov	r0, r3
 1764 004e FFF7FEFF 		bl	memset
 590:c:/Users/lenovo/Desktop/AIoT/first_day/firstday_afternoon/LiteOS_Lab_STM32_IoT/iot_link/oc/oc_mqtt/oc_mqtt_tiny_v5\oc_mqtt_tiny.c **** 
 591:c:/Users/lenovo/Desktop/AIoT/first_day/firstday_afternoon/LiteOS_Lab_STM32_IoT/iot_link/oc/oc_mqtt/oc_mqtt_tiny_v5\oc_mqtt_tiny.c ****     return 0;
 1765              		.loc 1 591 12
 1766 0052 0023     		movs	r3, #0
 592:c:/Users/lenovo/Desktop/AIoT/first_day/firstday_afternoon/LiteOS_Lab_STM32_IoT/iot_link/oc/oc_mqtt/oc_mqtt_tiny_v5\oc_mqtt_tiny.c **** }
 1767              		.loc 1 592 1
 1768 0054 1846     		mov	r0, r3
 1769 0056 0837     		adds	r7, r7, #8
 1770              	.LCFI38:
 1771              		.cfi_def_cfa_offset 8
ARM GAS  C:\Users\lenovo\AppData\Local\Temp\cceHxmqh.s 			page 45


 1772 0058 BD46     		mov	sp, r7
 1773              	.LCFI39:
 1774              		.cfi_def_cfa_register 13
 1775              		@ sp needed
 1776 005a 80BD     		pop	{r7, pc}
 1777              		.cfi_endproc
 1778              	.LFE10:
 1780              		.global	__aeabi_uldivmod
 1781              		.section	.rodata
 1782 0121 000000   		.align	2
 1783              	.LC13:
 1784 0124 25303464 		.ascii	"%04d%02d%02d%02d\000"
 1784      25303264 
 1784      25303264 
 1784      25303264 
 1784      00
 1785 0135 000000   		.align	2
 1786              	.LC14:
 1787 0138 25735F30 		.ascii	"%s_0_0_%s\000"
 1787      5F305F25 
 1787      7300
 1788 0142 0000     		.align	2
 1789              	.LC15:
 1790 0144 2F687561 		.ascii	"/huawei/v1/devices/%s/iodpsData\000"
 1790      7765692F 
 1790      76312F64 
 1790      65766963 
 1790      65732F25 
 1791              		.align	2
 1792              	.LC16:
 1793 0164 2F687561 		.ascii	"/huawei/v1/devices/%s/iodpsCommand\000"
 1793      7765692F 
 1793      76312F64 
 1793      65766963 
 1793      65732F25 
 1794 0187 00       		.align	2
 1795              	.LC17:
 1796 0188 246F632F 		.ascii	"$oc/devices/%s/sys/messages/up\000"
 1796      64657669 
 1796      6365732F 
 1796      25732F73 
 1796      79732F6D 
 1797 01a7 00       		.align	2
 1798              	.LC18:
 1799 01a8 246F632F 		.ascii	"$oc/devices/%s/sys/messages/down\000"
 1799      64657669 
 1799      6365732F 
 1799      25732F73 
 1799      79732F6D 
 1800              		.section	.text.oc_mqtt_para_gernerate,"ax",%progbits
 1801              		.align	1
 1802              		.syntax unified
 1803              		.thumb
 1804              		.thumb_func
 1805              		.fpu fpv4-sp-d16
 1807              	oc_mqtt_para_gernerate:
 1808              	.LFB11:
ARM GAS  C:\Users\lenovo\AppData\Local\Temp\cceHxmqh.s 			page 46


 593:c:/Users/lenovo/Desktop/AIoT/first_day/firstday_afternoon/LiteOS_Lab_STM32_IoT/iot_link/oc/oc_mqtt/oc_mqtt_tiny_v5\oc_mqtt_tiny.c **** 
 594:c:/Users/lenovo/Desktop/AIoT/first_day/firstday_afternoon/LiteOS_Lab_STM32_IoT/iot_link/oc/oc_mqtt/oc_mqtt_tiny_v5\oc_mqtt_tiny.c **** static int oc_mqtt_para_gernerate(oc_mqtt_tiny_cb_t *cb)
 595:c:/Users/lenovo/Desktop/AIoT/first_day/firstday_afternoon/LiteOS_Lab_STM32_IoT/iot_link/oc/oc_mqtt/oc_mqtt_tiny_v5\oc_mqtt_tiny.c **** {
 1809              		.loc 1 595 1
 1810              		.cfi_startproc
 1811              		@ args = 0, pretend = 0, frame = 56
 1812              		@ frame_needed = 1, uses_anonymous_args = 0
 1813 0000 F0B5     		push	{r4, r5, r6, r7, lr}
 1814              	.LCFI40:
 1815              		.cfi_def_cfa_offset 20
 1816              		.cfi_offset 4, -20
 1817              		.cfi_offset 5, -16
 1818              		.cfi_offset 6, -12
 1819              		.cfi_offset 7, -8
 1820              		.cfi_offset 14, -4
 1821 0002 93B0     		sub	sp, sp, #76
 1822              	.LCFI41:
 1823              		.cfi_def_cfa_offset 96
 1824 0004 04AF     		add	r7, sp, #16
 1825              	.LCFI42:
 1826              		.cfi_def_cfa 7, 80
 1827 0006 7860     		str	r0, [r7, #4]
 596:c:/Users/lenovo/Desktop/AIoT/first_day/firstday_afternoon/LiteOS_Lab_STM32_IoT/iot_link/oc/oc_mqtt/oc_mqtt_tiny_v5\oc_mqtt_tiny.c ****     int ret = en_oc_mqtt_err_ok;;
 1828              		.loc 1 596 9
 1829 0008 0023     		movs	r3, #0
 1830 000a 7B63     		str	r3, [r7, #52]
 597:c:/Users/lenovo/Desktop/AIoT/first_day/firstday_afternoon/LiteOS_Lab_STM32_IoT/iot_link/oc/oc_mqtt/oc_mqtt_tiny_v5\oc_mqtt_tiny.c ****     uint8_t hmac[CN_HMAC_LEN];
 598:c:/Users/lenovo/Desktop/AIoT/first_day/firstday_afternoon/LiteOS_Lab_STM32_IoT/iot_link/oc/oc_mqtt/oc_mqtt_tiny_v5\oc_mqtt_tiny.c **** 
 599:c:/Users/lenovo/Desktop/AIoT/first_day/firstday_afternoon/LiteOS_Lab_STM32_IoT/iot_link/oc/oc_mqtt/oc_mqtt_tiny_v5\oc_mqtt_tiny.c ****     struct tm *date;
 600:c:/Users/lenovo/Desktop/AIoT/first_day/firstday_afternoon/LiteOS_Lab_STM32_IoT/iot_link/oc/oc_mqtt/oc_mqtt_tiny_v5\oc_mqtt_tiny.c ****     time_t time_now;
 601:c:/Users/lenovo/Desktop/AIoT/first_day/firstday_afternoon/LiteOS_Lab_STM32_IoT/iot_link/oc/oc_mqtt/oc_mqtt_tiny_v5\oc_mqtt_tiny.c **** 
 602:c:/Users/lenovo/Desktop/AIoT/first_day/firstday_afternoon/LiteOS_Lab_STM32_IoT/iot_link/oc/oc_mqtt/oc_mqtt_tiny_v5\oc_mqtt_tiny.c ****     time_now = osal_sys_time()/1000;
 1831              		.loc 1 602 16
 1832 000c FFF7FEFF 		bl	osal_sys_time
 1833              		.loc 1 602 31
 1834 0010 4FF47A72 		mov	r2, #1000
 1835 0014 4FF00003 		mov	r3, #0
 1836 0018 FFF7FEFF 		bl	__aeabi_uldivmod
 1837              	.LVL1:
 1838 001c 0246     		mov	r2, r0
 1839 001e 0B46     		mov	r3, r1
 1840              		.loc 1 602 14
 1841 0020 C7E90223 		strd	r2, [r7, #8]
 603:c:/Users/lenovo/Desktop/AIoT/first_day/firstday_afternoon/LiteOS_Lab_STM32_IoT/iot_link/oc/oc_mqtt/oc_mqtt_tiny_v5\oc_mqtt_tiny.c ****     date = gmtime(&time_now);
 1842              		.loc 1 603 12
 1843 0024 07F10803 		add	r3, r7, #8
 1844 0028 1846     		mov	r0, r3
 1845 002a FFF7FEFF 		bl	gmtime
 1846 002e 3863     		str	r0, [r7, #48]
 604:c:/Users/lenovo/Desktop/AIoT/first_day/firstday_afternoon/LiteOS_Lab_STM32_IoT/iot_link/oc/oc_mqtt/oc_mqtt_tiny_v5\oc_mqtt_tiny.c **** 
 605:c:/Users/lenovo/Desktop/AIoT/first_day/firstday_afternoon/LiteOS_Lab_STM32_IoT/iot_link/oc/oc_mqtt/oc_mqtt_tiny_v5\oc_mqtt_tiny.c ****     snprintf(cb->salt_time,11,"%04d%02d%02d%02d",date->tm_year+1900,\
 1847              		.loc 1 605 16
 1848 0030 7B68     		ldr	r3, [r7, #4]
 1849 0032 03F18000 		add	r0, r3, #128
 1850              		.loc 1 605 54
 1851 0036 3B6B     		ldr	r3, [r7, #48]
 1852 0038 5B69     		ldr	r3, [r3, #20]
ARM GAS  C:\Users\lenovo\AppData\Local\Temp\cceHxmqh.s 			page 47


 1853              		.loc 1 605 5
 1854 003a 03F26C74 		addw	r4, r3, #1900
 1855 003e 3B6B     		ldr	r3, [r7, #48]
 1856 0040 1B69     		ldr	r3, [r3, #16]
 1857 0042 3A6B     		ldr	r2, [r7, #48]
 1858 0044 D268     		ldr	r2, [r2, #12]
 1859 0046 396B     		ldr	r1, [r7, #48]
 1860 0048 8968     		ldr	r1, [r1, #8]
 1861 004a 0291     		str	r1, [sp, #8]
 1862 004c 0192     		str	r2, [sp, #4]
 1863 004e 0093     		str	r3, [sp]
 1864 0050 2346     		mov	r3, r4
 1865 0052 704A     		ldr	r2, .L92
 1866 0054 0B21     		movs	r1, #11
 1867 0056 FFF7FEFF 		bl	snprintf
 606:c:/Users/lenovo/Desktop/AIoT/first_day/firstday_afternoon/LiteOS_Lab_STM32_IoT/iot_link/oc/oc_mqtt/oc_mqtt_tiny_v5\oc_mqtt_tiny.c ****             date->tm_mon,date->tm_mday,date->tm_hour);
 607:c:/Users/lenovo/Desktop/AIoT/first_day/firstday_afternoon/LiteOS_Lab_STM32_IoT/iot_link/oc/oc_mqtt/oc_mqtt_tiny_v5\oc_mqtt_tiny.c **** 
 608:c:/Users/lenovo/Desktop/AIoT/first_day/firstday_afternoon/LiteOS_Lab_STM32_IoT/iot_link/oc/oc_mqtt/oc_mqtt_tiny_v5\oc_mqtt_tiny.c ****     oc_mqtt_para_release(cb);         ///< try to free all the resource we have built
 1868              		.loc 1 608 5
 1869 005a 7868     		ldr	r0, [r7, #4]
 1870 005c FFF7FEFF 		bl	oc_mqtt_para_release
 609:c:/Users/lenovo/Desktop/AIoT/first_day/firstday_afternoon/LiteOS_Lab_STM32_IoT/iot_link/oc/oc_mqtt/oc_mqtt_tiny_v5\oc_mqtt_tiny.c **** 
 610:c:/Users/lenovo/Desktop/AIoT/first_day/firstday_afternoon/LiteOS_Lab_STM32_IoT/iot_link/oc/oc_mqtt/oc_mqtt_tiny_v5\oc_mqtt_tiny.c ****     cb->mqtt_para.mqtt_clientid = clientid_fmt(CN_CLIENT_ID_FMT,cb->config.id,cb->salt_time);
 1871              		.loc 1 610 35
 1872 0060 7B68     		ldr	r3, [r7, #4]
 1873 0062 996B     		ldr	r1, [r3, #56]
 1874              		.loc 1 610 81
 1875 0064 7B68     		ldr	r3, [r7, #4]
 1876 0066 8033     		adds	r3, r3, #128
 1877              		.loc 1 610 35
 1878 0068 1A46     		mov	r2, r3
 1879 006a 6B48     		ldr	r0, .L92+4
 1880 006c FFF7FEFF 		bl	clientid_fmt
 1881 0070 0246     		mov	r2, r0
 1882              		.loc 1 610 33
 1883 0072 7B68     		ldr	r3, [r7, #4]
 1884 0074 9A64     		str	r2, [r3, #72]
 611:c:/Users/lenovo/Desktop/AIoT/first_day/firstday_afternoon/LiteOS_Lab_STM32_IoT/iot_link/oc/oc_mqtt/oc_mqtt_tiny_v5\oc_mqtt_tiny.c ****     if(NULL == cb->mqtt_para.mqtt_clientid)
 1885              		.loc 1 611 29
 1886 0076 7B68     		ldr	r3, [r7, #4]
 1887 0078 9B6C     		ldr	r3, [r3, #72]
 1888              		.loc 1 611 7
 1889 007a 002B     		cmp	r3, #0
 1890 007c 00F0B480 		beq	.L86
 612:c:/Users/lenovo/Desktop/AIoT/first_day/firstday_afternoon/LiteOS_Lab_STM32_IoT/iot_link/oc/oc_mqtt/oc_mqtt_tiny_v5\oc_mqtt_tiny.c ****     {
 613:c:/Users/lenovo/Desktop/AIoT/first_day/firstday_afternoon/LiteOS_Lab_STM32_IoT/iot_link/oc/oc_mqtt/oc_mqtt_tiny_v5\oc_mqtt_tiny.c ****         goto EXIT_MEM;
 614:c:/Users/lenovo/Desktop/AIoT/first_day/firstday_afternoon/LiteOS_Lab_STM32_IoT/iot_link/oc/oc_mqtt/oc_mqtt_tiny_v5\oc_mqtt_tiny.c ****     }
 615:c:/Users/lenovo/Desktop/AIoT/first_day/firstday_afternoon/LiteOS_Lab_STM32_IoT/iot_link/oc/oc_mqtt/oc_mqtt_tiny_v5\oc_mqtt_tiny.c **** 
 616:c:/Users/lenovo/Desktop/AIoT/first_day/firstday_afternoon/LiteOS_Lab_STM32_IoT/iot_link/oc/oc_mqtt/oc_mqtt_tiny_v5\oc_mqtt_tiny.c ****     cb->mqtt_para.mqtt_user = osal_strdup(cb->config.id);
 1891              		.loc 1 616 53
 1892 0080 7B68     		ldr	r3, [r7, #4]
 1893 0082 9B6B     		ldr	r3, [r3, #56]
 1894              		.loc 1 616 31
 1895 0084 1846     		mov	r0, r3
 1896 0086 FFF7FEFF 		bl	osal_strdup
 1897 008a 0246     		mov	r2, r0
 1898              		.loc 1 616 29
ARM GAS  C:\Users\lenovo\AppData\Local\Temp\cceHxmqh.s 			page 48


 1899 008c 7B68     		ldr	r3, [r7, #4]
 1900 008e DA64     		str	r2, [r3, #76]
 617:c:/Users/lenovo/Desktop/AIoT/first_day/firstday_afternoon/LiteOS_Lab_STM32_IoT/iot_link/oc/oc_mqtt/oc_mqtt_tiny_v5\oc_mqtt_tiny.c ****     if(NULL == cb->mqtt_para.mqtt_user)
 1901              		.loc 1 617 29
 1902 0090 7B68     		ldr	r3, [r7, #4]
 1903 0092 DB6C     		ldr	r3, [r3, #76]
 1904              		.loc 1 617 7
 1905 0094 002B     		cmp	r3, #0
 1906 0096 00F0A980 		beq	.L87
 618:c:/Users/lenovo/Desktop/AIoT/first_day/firstday_afternoon/LiteOS_Lab_STM32_IoT/iot_link/oc/oc_mqtt/oc_mqtt_tiny_v5\oc_mqtt_tiny.c ****     {
 619:c:/Users/lenovo/Desktop/AIoT/first_day/firstday_afternoon/LiteOS_Lab_STM32_IoT/iot_link/oc/oc_mqtt/oc_mqtt_tiny_v5\oc_mqtt_tiny.c ****         goto EXIT_MEM;
 620:c:/Users/lenovo/Desktop/AIoT/first_day/firstday_afternoon/LiteOS_Lab_STM32_IoT/iot_link/oc/oc_mqtt/oc_mqtt_tiny_v5\oc_mqtt_tiny.c ****     }
 621:c:/Users/lenovo/Desktop/AIoT/first_day/firstday_afternoon/LiteOS_Lab_STM32_IoT/iot_link/oc/oc_mqtt/oc_mqtt_tiny_v5\oc_mqtt_tiny.c **** 
 622:c:/Users/lenovo/Desktop/AIoT/first_day/firstday_afternoon/LiteOS_Lab_STM32_IoT/iot_link/oc/oc_mqtt/oc_mqtt_tiny_v5\oc_mqtt_tiny.c ****     hmac_generate_passwd(cb->config.pwd,strlen(cb->config.pwd),\
 1907              		.loc 1 622 5
 1908 009a 7B68     		ldr	r3, [r7, #4]
 1909 009c DC6B     		ldr	r4, [r3, #60]
 1910              		.loc 1 622 58
 1911 009e 7B68     		ldr	r3, [r7, #4]
 1912 00a0 DB6B     		ldr	r3, [r3, #60]
 1913              		.loc 1 622 41
 1914 00a2 1846     		mov	r0, r3
 1915 00a4 FFF7FEFF 		bl	strlen
 1916 00a8 0346     		mov	r3, r0
 1917              		.loc 1 622 5
 1918 00aa 1E46     		mov	r6, r3
 623:c:/Users/lenovo/Desktop/AIoT/first_day/firstday_afternoon/LiteOS_Lab_STM32_IoT/iot_link/oc/oc_mqtt/oc_mqtt_tiny_v5\oc_mqtt_tiny.c ****             cb->salt_time,strlen(cb->salt_time),hmac,sizeof(hmac));
 1919              		.loc 1 623 15
 1920 00ac 7B68     		ldr	r3, [r7, #4]
 1921 00ae 03F18005 		add	r5, r3, #128
 1922              		.loc 1 623 36
 1923 00b2 7B68     		ldr	r3, [r7, #4]
 1924 00b4 8033     		adds	r3, r3, #128
 1925              		.loc 1 623 27
 1926 00b6 1846     		mov	r0, r3
 1927 00b8 FFF7FEFF 		bl	strlen
 1928 00bc 0346     		mov	r3, r0
 622:c:/Users/lenovo/Desktop/AIoT/first_day/firstday_afternoon/LiteOS_Lab_STM32_IoT/iot_link/oc/oc_mqtt/oc_mqtt_tiny_v5\oc_mqtt_tiny.c ****             cb->salt_time,strlen(cb->salt_time),hmac,sizeof(hmac));
 1929              		.loc 1 622 5
 1930 00be 1A46     		mov	r2, r3
 1931 00c0 2023     		movs	r3, #32
 1932 00c2 0193     		str	r3, [sp, #4]
 1933 00c4 07F11003 		add	r3, r7, #16
 1934 00c8 0093     		str	r3, [sp]
 1935 00ca 1346     		mov	r3, r2
 1936 00cc 2A46     		mov	r2, r5
 1937 00ce 3146     		mov	r1, r6
 1938 00d0 2046     		mov	r0, r4
 1939 00d2 FFF7FEFF 		bl	hmac_generate_passwd
 624:c:/Users/lenovo/Desktop/AIoT/first_day/firstday_afternoon/LiteOS_Lab_STM32_IoT/iot_link/oc/oc_mqtt/oc_mqtt_tiny_v5\oc_mqtt_tiny.c ****     cb->mqtt_para.mqtt_passwd = osal_malloc(CN_HMAC_LEN*2+1);
 1940              		.loc 1 624 33
 1941 00d6 4120     		movs	r0, #65
 1942 00d8 FFF7FEFF 		bl	osal_malloc
 1943 00dc 0246     		mov	r2, r0
 1944              		.loc 1 624 31
 1945 00de 7B68     		ldr	r3, [r7, #4]
 1946 00e0 1A65     		str	r2, [r3, #80]
ARM GAS  C:\Users\lenovo\AppData\Local\Temp\cceHxmqh.s 			page 49


 625:c:/Users/lenovo/Desktop/AIoT/first_day/firstday_afternoon/LiteOS_Lab_STM32_IoT/iot_link/oc/oc_mqtt/oc_mqtt_tiny_v5\oc_mqtt_tiny.c ****     if(NULL != cb->mqtt_para.mqtt_passwd)
 1947              		.loc 1 625 29
 1948 00e2 7B68     		ldr	r3, [r7, #4]
 1949 00e4 1B6D     		ldr	r3, [r3, #80]
 1950              		.loc 1 625 7
 1951 00e6 002B     		cmp	r3, #0
 1952 00e8 00F08280 		beq	.L88
 626:c:/Users/lenovo/Desktop/AIoT/first_day/firstday_afternoon/LiteOS_Lab_STM32_IoT/iot_link/oc/oc_mqtt/oc_mqtt_tiny_v5\oc_mqtt_tiny.c ****     {
 627:c:/Users/lenovo/Desktop/AIoT/first_day/firstday_afternoon/LiteOS_Lab_STM32_IoT/iot_link/oc/oc_mqtt/oc_mqtt_tiny_v5\oc_mqtt_tiny.c ****         byte2hexstr(hmac,CN_HMAC_LEN,cb->mqtt_para.mqtt_passwd);
 1953              		.loc 1 627 9
 1954 00ec 7B68     		ldr	r3, [r7, #4]
 1955 00ee 1A6D     		ldr	r2, [r3, #80]
 1956 00f0 07F11003 		add	r3, r7, #16
 1957 00f4 2021     		movs	r1, #32
 1958 00f6 1846     		mov	r0, r3
 1959 00f8 FFF7FEFF 		bl	byte2hexstr
 628:c:/Users/lenovo/Desktop/AIoT/first_day/firstday_afternoon/LiteOS_Lab_STM32_IoT/iot_link/oc/oc_mqtt/oc_mqtt_tiny_v5\oc_mqtt_tiny.c ****     }
 629:c:/Users/lenovo/Desktop/AIoT/first_day/firstday_afternoon/LiteOS_Lab_STM32_IoT/iot_link/oc/oc_mqtt/oc_mqtt_tiny_v5\oc_mqtt_tiny.c ****     else
 630:c:/Users/lenovo/Desktop/AIoT/first_day/firstday_afternoon/LiteOS_Lab_STM32_IoT/iot_link/oc/oc_mqtt/oc_mqtt_tiny_v5\oc_mqtt_tiny.c ****     {
 631:c:/Users/lenovo/Desktop/AIoT/first_day/firstday_afternoon/LiteOS_Lab_STM32_IoT/iot_link/oc/oc_mqtt/oc_mqtt_tiny_v5\oc_mqtt_tiny.c ****         goto EXIT_MEM;
 632:c:/Users/lenovo/Desktop/AIoT/first_day/firstday_afternoon/LiteOS_Lab_STM32_IoT/iot_link/oc/oc_mqtt/oc_mqtt_tiny_v5\oc_mqtt_tiny.c ****     }
 633:c:/Users/lenovo/Desktop/AIoT/first_day/firstday_afternoon/LiteOS_Lab_STM32_IoT/iot_link/oc/oc_mqtt/oc_mqtt_tiny_v5\oc_mqtt_tiny.c **** 
 634:c:/Users/lenovo/Desktop/AIoT/first_day/firstday_afternoon/LiteOS_Lab_STM32_IoT/iot_link/oc/oc_mqtt/oc_mqtt_tiny_v5\oc_mqtt_tiny.c ****     if(cb->flag.bits.bit_daemon_status == en_daemon_status_bs_getaddr)
 1960              		.loc 1 634 40
 1961 00fc 7B68     		ldr	r3, [r7, #4]
 1962 00fe 93F86C30 		ldrb	r3, [r3, #108]	@ zero_extendqisi2
 1963 0102 03F00E03 		and	r3, r3, #14
 1964 0106 DBB2     		uxtb	r3, r3
 1965              		.loc 1 634 7
 1966 0108 022B     		cmp	r3, #2
 1967 010a 1DD1     		bne	.L75
 635:c:/Users/lenovo/Desktop/AIoT/first_day/firstday_afternoon/LiteOS_Lab_STM32_IoT/iot_link/oc/oc_mqtt/oc_mqtt_tiny_v5\oc_mqtt_tiny.c ****     {
 636:c:/Users/lenovo/Desktop/AIoT/first_day/firstday_afternoon/LiteOS_Lab_STM32_IoT/iot_link/oc/oc_mqtt/oc_mqtt_tiny_v5\oc_mqtt_tiny.c ****         cb->mqtt_para.default_pub_topic = topic_fmt(CN_OC_BS_REPORT_TOPIC_FMT,cb->config.id);
 1968              		.loc 1 636 43
 1969 010c 7B68     		ldr	r3, [r7, #4]
 1970 010e 9B6B     		ldr	r3, [r3, #56]
 1971 0110 1946     		mov	r1, r3
 1972 0112 4248     		ldr	r0, .L92+8
 1973 0114 FFF7FEFF 		bl	topic_fmt
 1974 0118 0246     		mov	r2, r0
 1975              		.loc 1 636 41
 1976 011a 7B68     		ldr	r3, [r7, #4]
 1977 011c DA65     		str	r2, [r3, #92]
 637:c:/Users/lenovo/Desktop/AIoT/first_day/firstday_afternoon/LiteOS_Lab_STM32_IoT/iot_link/oc/oc_mqtt/oc_mqtt_tiny_v5\oc_mqtt_tiny.c **** 
 638:c:/Users/lenovo/Desktop/AIoT/first_day/firstday_afternoon/LiteOS_Lab_STM32_IoT/iot_link/oc/oc_mqtt/oc_mqtt_tiny_v5\oc_mqtt_tiny.c ****         cb->mqtt_para.default_sub_topic = topic_fmt(CN_OC_BS_CMD_TOPIC_FMT,cb->config.id);
 1978              		.loc 1 638 43
 1979 011e 7B68     		ldr	r3, [r7, #4]
 1980 0120 9B6B     		ldr	r3, [r3, #56]
 1981 0122 1946     		mov	r1, r3
 1982 0124 3E48     		ldr	r0, .L92+12
 1983 0126 FFF7FEFF 		bl	topic_fmt
 1984 012a 0246     		mov	r2, r0
 1985              		.loc 1 638 41
 1986 012c 7B68     		ldr	r3, [r7, #4]
 1987 012e 1A66     		str	r2, [r3, #96]
 639:c:/Users/lenovo/Desktop/AIoT/first_day/firstday_afternoon/LiteOS_Lab_STM32_IoT/iot_link/oc/oc_mqtt/oc_mqtt_tiny_v5\oc_mqtt_tiny.c **** 
 640:c:/Users/lenovo/Desktop/AIoT/first_day/firstday_afternoon/LiteOS_Lab_STM32_IoT/iot_link/oc/oc_mqtt/oc_mqtt_tiny_v5\oc_mqtt_tiny.c ****         cb->mqtt_para.default_msg_deal = bs_msg_default_deal;
ARM GAS  C:\Users\lenovo\AppData\Local\Temp\cceHxmqh.s 			page 50


 1988              		.loc 1 640 40
 1989 0130 7B68     		ldr	r3, [r7, #4]
 1990 0132 3C4A     		ldr	r2, .L92+16
 1991 0134 5A66     		str	r2, [r3, #100]
 641:c:/Users/lenovo/Desktop/AIoT/first_day/firstday_afternoon/LiteOS_Lab_STM32_IoT/iot_link/oc/oc_mqtt/oc_mqtt_tiny_v5\oc_mqtt_tiny.c **** 
 642:c:/Users/lenovo/Desktop/AIoT/first_day/firstday_afternoon/LiteOS_Lab_STM32_IoT/iot_link/oc/oc_mqtt/oc_mqtt_tiny_v5\oc_mqtt_tiny.c ****         if((NULL == cb->mqtt_para.default_pub_topic) || \
 1992              		.loc 1 642 34
 1993 0136 7B68     		ldr	r3, [r7, #4]
 1994 0138 DB6D     		ldr	r3, [r3, #92]
 1995              		.loc 1 642 11
 1996 013a 002B     		cmp	r3, #0
 1997 013c 5AD0     		beq	.L89
 643:c:/Users/lenovo/Desktop/AIoT/first_day/firstday_afternoon/LiteOS_Lab_STM32_IoT/iot_link/oc/oc_mqtt/oc_mqtt_tiny_v5\oc_mqtt_tiny.c ****                 (NULL == cb->mqtt_para.default_sub_topic))
 1998              		.loc 1 643 39 discriminator 1
 1999 013e 7B68     		ldr	r3, [r7, #4]
 2000 0140 1B6E     		ldr	r3, [r3, #96]
 642:c:/Users/lenovo/Desktop/AIoT/first_day/firstday_afternoon/LiteOS_Lab_STM32_IoT/iot_link/oc/oc_mqtt/oc_mqtt_tiny_v5\oc_mqtt_tiny.c ****                 (NULL == cb->mqtt_para.default_sub_topic))
 2001              		.loc 1 642 54 discriminator 1
 2002 0142 002B     		cmp	r3, #0
 2003 0144 1DD1     		bne	.L77
 644:c:/Users/lenovo/Desktop/AIoT/first_day/firstday_afternoon/LiteOS_Lab_STM32_IoT/iot_link/oc/oc_mqtt/oc_mqtt_tiny_v5\oc_mqtt_tiny.c ****         {
 645:c:/Users/lenovo/Desktop/AIoT/first_day/firstday_afternoon/LiteOS_Lab_STM32_IoT/iot_link/oc/oc_mqtt/oc_mqtt_tiny_v5\oc_mqtt_tiny.c ****             goto EXIT_MEM;
 2004              		.loc 1 645 13
 2005 0146 55E0     		b	.L89
 2006              	.L75:
 646:c:/Users/lenovo/Desktop/AIoT/first_day/firstday_afternoon/LiteOS_Lab_STM32_IoT/iot_link/oc/oc_mqtt/oc_mqtt_tiny_v5\oc_mqtt_tiny.c ****         }
 647:c:/Users/lenovo/Desktop/AIoT/first_day/firstday_afternoon/LiteOS_Lab_STM32_IoT/iot_link/oc/oc_mqtt/oc_mqtt_tiny_v5\oc_mqtt_tiny.c ****     }
 648:c:/Users/lenovo/Desktop/AIoT/first_day/firstday_afternoon/LiteOS_Lab_STM32_IoT/iot_link/oc/oc_mqtt/oc_mqtt_tiny_v5\oc_mqtt_tiny.c ****     else
 649:c:/Users/lenovo/Desktop/AIoT/first_day/firstday_afternoon/LiteOS_Lab_STM32_IoT/iot_link/oc/oc_mqtt/oc_mqtt_tiny_v5\oc_mqtt_tiny.c ****     {
 650:c:/Users/lenovo/Desktop/AIoT/first_day/firstday_afternoon/LiteOS_Lab_STM32_IoT/iot_link/oc/oc_mqtt/oc_mqtt_tiny_v5\oc_mqtt_tiny.c **** 
 651:c:/Users/lenovo/Desktop/AIoT/first_day/firstday_afternoon/LiteOS_Lab_STM32_IoT/iot_link/oc/oc_mqtt/oc_mqtt_tiny_v5\oc_mqtt_tiny.c ****         cb->mqtt_para.default_pub_topic = topic_fmt(CN_OC_HUB_PUBTOPIC_DEFAULT_FMT,cb->config.id);
 2007              		.loc 1 651 43
 2008 0148 7B68     		ldr	r3, [r7, #4]
 2009 014a 9B6B     		ldr	r3, [r3, #56]
 2010 014c 1946     		mov	r1, r3
 2011 014e 3648     		ldr	r0, .L92+20
 2012 0150 FFF7FEFF 		bl	topic_fmt
 2013 0154 0246     		mov	r2, r0
 2014              		.loc 1 651 41
 2015 0156 7B68     		ldr	r3, [r7, #4]
 2016 0158 DA65     		str	r2, [r3, #92]
 652:c:/Users/lenovo/Desktop/AIoT/first_day/firstday_afternoon/LiteOS_Lab_STM32_IoT/iot_link/oc/oc_mqtt/oc_mqtt_tiny_v5\oc_mqtt_tiny.c **** 
 653:c:/Users/lenovo/Desktop/AIoT/first_day/firstday_afternoon/LiteOS_Lab_STM32_IoT/iot_link/oc/oc_mqtt/oc_mqtt_tiny_v5\oc_mqtt_tiny.c ****         cb->mqtt_para.default_sub_topic = topic_fmt(CN_OC_HUB_SUBTOPIC_DEFAULT_FMT,cb->config.id);
 2017              		.loc 1 653 43
 2018 015a 7B68     		ldr	r3, [r7, #4]
 2019 015c 9B6B     		ldr	r3, [r3, #56]
 2020 015e 1946     		mov	r1, r3
 2021 0160 3248     		ldr	r0, .L92+24
 2022 0162 FFF7FEFF 		bl	topic_fmt
 2023 0166 0246     		mov	r2, r0
 2024              		.loc 1 653 41
 2025 0168 7B68     		ldr	r3, [r7, #4]
 2026 016a 1A66     		str	r2, [r3, #96]
 654:c:/Users/lenovo/Desktop/AIoT/first_day/firstday_afternoon/LiteOS_Lab_STM32_IoT/iot_link/oc/oc_mqtt/oc_mqtt_tiny_v5\oc_mqtt_tiny.c **** 
 655:c:/Users/lenovo/Desktop/AIoT/first_day/firstday_afternoon/LiteOS_Lab_STM32_IoT/iot_link/oc/oc_mqtt/oc_mqtt_tiny_v5\oc_mqtt_tiny.c ****         cb->mqtt_para.default_msg_deal = hub_msg_default_deal;
 2027              		.loc 1 655 40
 2028 016c 7B68     		ldr	r3, [r7, #4]
ARM GAS  C:\Users\lenovo\AppData\Local\Temp\cceHxmqh.s 			page 51


 2029 016e 304A     		ldr	r2, .L92+28
 2030 0170 5A66     		str	r2, [r3, #100]
 656:c:/Users/lenovo/Desktop/AIoT/first_day/firstday_afternoon/LiteOS_Lab_STM32_IoT/iot_link/oc/oc_mqtt/oc_mqtt_tiny_v5\oc_mqtt_tiny.c **** 
 657:c:/Users/lenovo/Desktop/AIoT/first_day/firstday_afternoon/LiteOS_Lab_STM32_IoT/iot_link/oc/oc_mqtt/oc_mqtt_tiny_v5\oc_mqtt_tiny.c ****         if((NULL == cb->mqtt_para.default_pub_topic) || \
 2031              		.loc 1 657 34
 2032 0172 7B68     		ldr	r3, [r7, #4]
 2033 0174 DB6D     		ldr	r3, [r3, #92]
 2034              		.loc 1 657 11
 2035 0176 002B     		cmp	r3, #0
 2036 0178 3ED0     		beq	.L90
 658:c:/Users/lenovo/Desktop/AIoT/first_day/firstday_afternoon/LiteOS_Lab_STM32_IoT/iot_link/oc/oc_mqtt/oc_mqtt_tiny_v5\oc_mqtt_tiny.c ****                 (NULL == cb->mqtt_para.default_sub_topic))
 2037              		.loc 1 658 39 discriminator 1
 2038 017a 7B68     		ldr	r3, [r7, #4]
 2039 017c 1B6E     		ldr	r3, [r3, #96]
 657:c:/Users/lenovo/Desktop/AIoT/first_day/firstday_afternoon/LiteOS_Lab_STM32_IoT/iot_link/oc/oc_mqtt/oc_mqtt_tiny_v5\oc_mqtt_tiny.c ****                 (NULL == cb->mqtt_para.default_sub_topic))
 2040              		.loc 1 657 54 discriminator 1
 2041 017e 002B     		cmp	r3, #0
 2042 0180 3AD0     		beq	.L90
 2043              	.L77:
 659:c:/Users/lenovo/Desktop/AIoT/first_day/firstday_afternoon/LiteOS_Lab_STM32_IoT/iot_link/oc/oc_mqtt/oc_mqtt_tiny_v5\oc_mqtt_tiny.c ****         {
 660:c:/Users/lenovo/Desktop/AIoT/first_day/firstday_afternoon/LiteOS_Lab_STM32_IoT/iot_link/oc/oc_mqtt/oc_mqtt_tiny_v5\oc_mqtt_tiny.c ****             goto EXIT_MEM;
 661:c:/Users/lenovo/Desktop/AIoT/first_day/firstday_afternoon/LiteOS_Lab_STM32_IoT/iot_link/oc/oc_mqtt/oc_mqtt_tiny_v5\oc_mqtt_tiny.c ****         }
 662:c:/Users/lenovo/Desktop/AIoT/first_day/firstday_afternoon/LiteOS_Lab_STM32_IoT/iot_link/oc/oc_mqtt/oc_mqtt_tiny_v5\oc_mqtt_tiny.c ****     }
 663:c:/Users/lenovo/Desktop/AIoT/first_day/firstday_afternoon/LiteOS_Lab_STM32_IoT/iot_link/oc/oc_mqtt/oc_mqtt_tiny_v5\oc_mqtt_tiny.c **** 
 664:c:/Users/lenovo/Desktop/AIoT/first_day/firstday_afternoon/LiteOS_Lab_STM32_IoT/iot_link/oc/oc_mqtt/oc_mqtt_tiny_v5\oc_mqtt_tiny.c ****     if(cb->flag.bits.bit_bs_enable && ((cb->flag.bits.bit_daemon_status == en_daemon_status_hub_kee
 2044              		.loc 1 664 8
 2045 0182 7B68     		ldr	r3, [r7, #4]
 2046 0184 93F86C30 		ldrb	r3, [r3, #108]	@ zero_extendqisi2
 2047 0188 03F00103 		and	r3, r3, #1
 2048 018c DBB2     		uxtb	r3, r3
 2049              		.loc 1 664 7
 2050 018e 002B     		cmp	r3, #0
 2051 0190 18D0     		beq	.L79
 2052              		.loc 1 664 73 discriminator 1
 2053 0192 7B68     		ldr	r3, [r7, #4]
 2054 0194 93F86C30 		ldrb	r3, [r3, #108]	@ zero_extendqisi2
 2055 0198 03F00E03 		and	r3, r3, #14
 2056 019c DBB2     		uxtb	r3, r3
 2057              		.loc 1 664 36 discriminator 1
 2058 019e 062B     		cmp	r3, #6
 2059 01a0 07D0     		beq	.L80
 665:c:/Users/lenovo/Desktop/AIoT/first_day/firstday_afternoon/LiteOS_Lab_STM32_IoT/iot_link/oc/oc_mqtt/oc_mqtt_tiny_v5\oc_mqtt_tiny.c ****             (cb->flag.bits.bit_daemon_status == en_daemon_status_dmp_connecting)))
 2060              		.loc 1 665 46 discriminator 2
 2061 01a2 7B68     		ldr	r3, [r7, #4]
 2062 01a4 93F86C30 		ldrb	r3, [r3, #108]	@ zero_extendqisi2
 2063 01a8 03F00E03 		and	r3, r3, #14
 2064 01ac DBB2     		uxtb	r3, r3
 664:c:/Users/lenovo/Desktop/AIoT/first_day/firstday_afternoon/LiteOS_Lab_STM32_IoT/iot_link/oc/oc_mqtt/oc_mqtt_tiny_v5\oc_mqtt_tiny.c ****             (cb->flag.bits.bit_daemon_status == en_daemon_status_dmp_connecting)))
 2065              		.loc 1 664 102 discriminator 2
 2066 01ae 042B     		cmp	r3, #4
 2067 01b0 08D1     		bne	.L79
 2068              	.L80:
 666:c:/Users/lenovo/Desktop/AIoT/first_day/firstday_afternoon/LiteOS_Lab_STM32_IoT/iot_link/oc/oc_mqtt/oc_mqtt_tiny_v5\oc_mqtt_tiny.c ****     {
 667:c:/Users/lenovo/Desktop/AIoT/first_day/firstday_afternoon/LiteOS_Lab_STM32_IoT/iot_link/oc/oc_mqtt/oc_mqtt_tiny_v5\oc_mqtt_tiny.c ****         cb->mqtt_para.server_addr = cb->bs_cb.hubserver_addr;
 2069              		.loc 1 667 46
 2070 01b2 7B68     		ldr	r3, [r7, #4]
 2071 01b4 1A6F     		ldr	r2, [r3, #112]
ARM GAS  C:\Users\lenovo\AppData\Local\Temp\cceHxmqh.s 			page 52


 2072              		.loc 1 667 35
 2073 01b6 7B68     		ldr	r3, [r7, #4]
 2074 01b8 5A65     		str	r2, [r3, #84]
 668:c:/Users/lenovo/Desktop/AIoT/first_day/firstday_afternoon/LiteOS_Lab_STM32_IoT/iot_link/oc/oc_mqtt/oc_mqtt_tiny_v5\oc_mqtt_tiny.c ****         cb->mqtt_para.server_port = cb->bs_cb.hubserver_port;
 2075              		.loc 1 668 46
 2076 01ba 7B68     		ldr	r3, [r7, #4]
 2077 01bc 5A6F     		ldr	r2, [r3, #116]
 2078              		.loc 1 668 35
 2079 01be 7B68     		ldr	r3, [r7, #4]
 2080 01c0 9A65     		str	r2, [r3, #88]
 2081 01c2 07E0     		b	.L81
 2082              	.L79:
 669:c:/Users/lenovo/Desktop/AIoT/first_day/firstday_afternoon/LiteOS_Lab_STM32_IoT/iot_link/oc/oc_mqtt/oc_mqtt_tiny_v5\oc_mqtt_tiny.c ****     }
 670:c:/Users/lenovo/Desktop/AIoT/first_day/firstday_afternoon/LiteOS_Lab_STM32_IoT/iot_link/oc/oc_mqtt/oc_mqtt_tiny_v5\oc_mqtt_tiny.c ****     else
 671:c:/Users/lenovo/Desktop/AIoT/first_day/firstday_afternoon/LiteOS_Lab_STM32_IoT/iot_link/oc/oc_mqtt/oc_mqtt_tiny_v5\oc_mqtt_tiny.c ****     {
 672:c:/Users/lenovo/Desktop/AIoT/first_day/firstday_afternoon/LiteOS_Lab_STM32_IoT/iot_link/oc/oc_mqtt/oc_mqtt_tiny_v5\oc_mqtt_tiny.c ****         cb->mqtt_para.server_addr = cb->config.server_addr;
 2083              		.loc 1 672 47
 2084 01c4 7B68     		ldr	r3, [r7, #4]
 2085 01c6 9A68     		ldr	r2, [r3, #8]
 2086              		.loc 1 672 35
 2087 01c8 7B68     		ldr	r3, [r7, #4]
 2088 01ca 5A65     		str	r2, [r3, #84]
 673:c:/Users/lenovo/Desktop/AIoT/first_day/firstday_afternoon/LiteOS_Lab_STM32_IoT/iot_link/oc/oc_mqtt/oc_mqtt_tiny_v5\oc_mqtt_tiny.c ****         cb->mqtt_para.server_port = cb->config.server_port;
 2089              		.loc 1 673 47
 2090 01cc 7B68     		ldr	r3, [r7, #4]
 2091 01ce DA68     		ldr	r2, [r3, #12]
 2092              		.loc 1 673 35
 2093 01d0 7B68     		ldr	r3, [r7, #4]
 2094 01d2 9A65     		str	r2, [r3, #88]
 2095              	.L81:
 674:c:/Users/lenovo/Desktop/AIoT/first_day/firstday_afternoon/LiteOS_Lab_STM32_IoT/iot_link/oc/oc_mqtt/oc_mqtt_tiny_v5\oc_mqtt_tiny.c ****     }
 675:c:/Users/lenovo/Desktop/AIoT/first_day/firstday_afternoon/LiteOS_Lab_STM32_IoT/iot_link/oc/oc_mqtt/oc_mqtt_tiny_v5\oc_mqtt_tiny.c ****     if((NULL == cb->mqtt_para.server_addr ) || \
 2096              		.loc 1 675 30
 2097 01d4 7B68     		ldr	r3, [r7, #4]
 2098 01d6 5B6D     		ldr	r3, [r3, #84]
 2099              		.loc 1 675 7
 2100 01d8 002B     		cmp	r3, #0
 2101 01da 0FD0     		beq	.L91
 676:c:/Users/lenovo/Desktop/AIoT/first_day/firstday_afternoon/LiteOS_Lab_STM32_IoT/iot_link/oc/oc_mqtt/oc_mqtt_tiny_v5\oc_mqtt_tiny.c ****        (NULL == cb->mqtt_para.server_port ))
 2102              		.loc 1 676 30 discriminator 1
 2103 01dc 7B68     		ldr	r3, [r7, #4]
 2104 01de 9B6D     		ldr	r3, [r3, #88]
 675:c:/Users/lenovo/Desktop/AIoT/first_day/firstday_afternoon/LiteOS_Lab_STM32_IoT/iot_link/oc/oc_mqtt/oc_mqtt_tiny_v5\oc_mqtt_tiny.c ****        (NULL == cb->mqtt_para.server_port ))
 2105              		.loc 1 675 45 discriminator 1
 2106 01e0 002B     		cmp	r3, #0
 2107 01e2 0BD0     		beq	.L91
 677:c:/Users/lenovo/Desktop/AIoT/first_day/firstday_afternoon/LiteOS_Lab_STM32_IoT/iot_link/oc/oc_mqtt/oc_mqtt_tiny_v5\oc_mqtt_tiny.c ****     {
 678:c:/Users/lenovo/Desktop/AIoT/first_day/firstday_afternoon/LiteOS_Lab_STM32_IoT/iot_link/oc/oc_mqtt/oc_mqtt_tiny_v5\oc_mqtt_tiny.c ****         goto EXIT_MEM;
 679:c:/Users/lenovo/Desktop/AIoT/first_day/firstday_afternoon/LiteOS_Lab_STM32_IoT/iot_link/oc/oc_mqtt/oc_mqtt_tiny_v5\oc_mqtt_tiny.c ****     }
 680:c:/Users/lenovo/Desktop/AIoT/first_day/firstday_afternoon/LiteOS_Lab_STM32_IoT/iot_link/oc/oc_mqtt/oc_mqtt_tiny_v5\oc_mqtt_tiny.c ****     return ret;
 2108              		.loc 1 680 12
 2109 01e4 7B6B     		ldr	r3, [r7, #52]
 2110 01e6 10E0     		b	.L85
 2111              	.L86:
 613:c:/Users/lenovo/Desktop/AIoT/first_day/firstday_afternoon/LiteOS_Lab_STM32_IoT/iot_link/oc/oc_mqtt/oc_mqtt_tiny_v5\oc_mqtt_tiny.c ****     }
 2112              		.loc 1 613 9
 2113 01e8 00BF     		nop
ARM GAS  C:\Users\lenovo\AppData\Local\Temp\cceHxmqh.s 			page 53


 2114 01ea 08E0     		b	.L71
 2115              	.L87:
 619:c:/Users/lenovo/Desktop/AIoT/first_day/firstday_afternoon/LiteOS_Lab_STM32_IoT/iot_link/oc/oc_mqtt/oc_mqtt_tiny_v5\oc_mqtt_tiny.c ****     }
 2116              		.loc 1 619 9
 2117 01ec 00BF     		nop
 2118 01ee 06E0     		b	.L71
 2119              	.L88:
 631:c:/Users/lenovo/Desktop/AIoT/first_day/firstday_afternoon/LiteOS_Lab_STM32_IoT/iot_link/oc/oc_mqtt/oc_mqtt_tiny_v5\oc_mqtt_tiny.c ****     }
 2120              		.loc 1 631 9
 2121 01f0 00BF     		nop
 2122 01f2 04E0     		b	.L71
 2123              	.L89:
 645:c:/Users/lenovo/Desktop/AIoT/first_day/firstday_afternoon/LiteOS_Lab_STM32_IoT/iot_link/oc/oc_mqtt/oc_mqtt_tiny_v5\oc_mqtt_tiny.c ****         }
 2124              		.loc 1 645 13
 2125 01f4 00BF     		nop
 2126 01f6 02E0     		b	.L71
 2127              	.L90:
 660:c:/Users/lenovo/Desktop/AIoT/first_day/firstday_afternoon/LiteOS_Lab_STM32_IoT/iot_link/oc/oc_mqtt/oc_mqtt_tiny_v5\oc_mqtt_tiny.c ****         }
 2128              		.loc 1 660 13
 2129 01f8 00BF     		nop
 2130 01fa 00E0     		b	.L71
 2131              	.L91:
 678:c:/Users/lenovo/Desktop/AIoT/first_day/firstday_afternoon/LiteOS_Lab_STM32_IoT/iot_link/oc/oc_mqtt/oc_mqtt_tiny_v5\oc_mqtt_tiny.c ****     }
 2132              		.loc 1 678 9
 2133 01fc 00BF     		nop
 2134              	.L71:
 681:c:/Users/lenovo/Desktop/AIoT/first_day/firstday_afternoon/LiteOS_Lab_STM32_IoT/iot_link/oc/oc_mqtt/oc_mqtt_tiny_v5\oc_mqtt_tiny.c **** 
 682:c:/Users/lenovo/Desktop/AIoT/first_day/firstday_afternoon/LiteOS_Lab_STM32_IoT/iot_link/oc/oc_mqtt/oc_mqtt_tiny_v5\oc_mqtt_tiny.c **** EXIT_MEM:
 683:c:/Users/lenovo/Desktop/AIoT/first_day/firstday_afternoon/LiteOS_Lab_STM32_IoT/iot_link/oc/oc_mqtt/oc_mqtt_tiny_v5\oc_mqtt_tiny.c ****     oc_mqtt_para_release(cb);
 2135              		.loc 1 683 5
 2136 01fe 7868     		ldr	r0, [r7, #4]
 2137 0200 FFF7FEFF 		bl	oc_mqtt_para_release
 684:c:/Users/lenovo/Desktop/AIoT/first_day/firstday_afternoon/LiteOS_Lab_STM32_IoT/iot_link/oc/oc_mqtt/oc_mqtt_tiny_v5\oc_mqtt_tiny.c ****     ret = en_oc_mqtt_err_sysmem;
 2138              		.loc 1 684 9
 2139 0204 0F23     		movs	r3, #15
 2140 0206 7B63     		str	r3, [r7, #52]
 685:c:/Users/lenovo/Desktop/AIoT/first_day/firstday_afternoon/LiteOS_Lab_STM32_IoT/iot_link/oc/oc_mqtt/oc_mqtt_tiny_v5\oc_mqtt_tiny.c ****     return ret;
 2141              		.loc 1 685 12
 2142 0208 7B6B     		ldr	r3, [r7, #52]
 2143              	.L85:
 686:c:/Users/lenovo/Desktop/AIoT/first_day/firstday_afternoon/LiteOS_Lab_STM32_IoT/iot_link/oc/oc_mqtt/oc_mqtt_tiny_v5\oc_mqtt_tiny.c **** }
 2144              		.loc 1 686 1 discriminator 1
 2145 020a 1846     		mov	r0, r3
 2146 020c 3C37     		adds	r7, r7, #60
 2147              	.LCFI43:
 2148              		.cfi_def_cfa_offset 20
 2149 020e BD46     		mov	sp, r7
 2150              	.LCFI44:
 2151              		.cfi_def_cfa_register 13
 2152              		@ sp needed
 2153 0210 F0BD     		pop	{r4, r5, r6, r7, pc}
 2154              	.L93:
 2155 0212 00BF     		.align	2
 2156              	.L92:
 2157 0214 24010000 		.word	.LC13
 2158 0218 38010000 		.word	.LC14
 2159 021c 44010000 		.word	.LC15
ARM GAS  C:\Users\lenovo\AppData\Local\Temp\cceHxmqh.s 			page 54


 2160 0220 64010000 		.word	.LC16
 2161 0224 00000000 		.word	bs_msg_default_deal
 2162 0228 88010000 		.word	.LC17
 2163 022c A8010000 		.word	.LC18
 2164 0230 00000000 		.word	hub_msg_default_deal
 2165              		.cfi_endproc
 2166              	.LFE11:
 2168              		.section	.rodata
 2169 01c9 000000   		.align	2
 2170              	.LC19:
 2171 01cc 6F635F6D 		.ascii	"oc_mqtt_connect:server:%s port:%s \012\015\000"
 2171      7174745F 
 2171      636F6E6E 
 2171      6563743A 
 2171      73657276 
 2172 01f1 000000   		.align	2
 2173              	.LC20:
 2174 01f4 6F635F6D 		.ascii	"oc_mqtt_connect:client_id:%s \012\015\000"
 2174      7174745F 
 2174      636F6E6E 
 2174      6563743A 
 2174      636C6965 
 2175              		.align	2
 2176              	.LC21:
 2177 0214 6F635F6D 		.ascii	"oc_mqtt_connect:user:%s passwd:%s \012\015\000"
 2177      7174745F 
 2177      636F6E6E 
 2177      6563743A 
 2177      75736572 
 2178 0239 000000   		.align	2
 2179              	.LC22:
 2180 023c 53554343 		.ascii	"SUCCESS\000"
 2180      45535300 
 2181              		.align	2
 2182              	.LC23:
 2183 0244 4641494C 		.ascii	"FAILED\000"
 2183      454400
 2184 024b 00       		.align	2
 2185              	.LC24:
 2186 024c 6F635F6D 		.ascii	"oc_mqtt_connect:recode:%d :%s\012\015\000"
 2186      7174745F 
 2186      636F6E6E 
 2186      6563743A 
 2186      7265636F 
 2187              		.section	.text.dmp_connect,"ax",%progbits
 2188              		.align	1
 2189              		.syntax unified
 2190              		.thumb
 2191              		.thumb_func
 2192              		.fpu fpv4-sp-d16
 2194              	dmp_connect:
 2195              	.LFB12:
 687:c:/Users/lenovo/Desktop/AIoT/first_day/firstday_afternoon/LiteOS_Lab_STM32_IoT/iot_link/oc/oc_mqtt/oc_mqtt_tiny_v5\oc_mqtt_tiny.c **** 
 688:c:/Users/lenovo/Desktop/AIoT/first_day/firstday_afternoon/LiteOS_Lab_STM32_IoT/iot_link/oc/oc_mqtt/oc_mqtt_tiny_v5\oc_mqtt_tiny.c **** 
 689:c:/Users/lenovo/Desktop/AIoT/first_day/firstday_afternoon/LiteOS_Lab_STM32_IoT/iot_link/oc/oc_mqtt/oc_mqtt_tiny_v5\oc_mqtt_tiny.c **** ///< return the reason code defined by the mqtt_al.h
 690:c:/Users/lenovo/Desktop/AIoT/first_day/firstday_afternoon/LiteOS_Lab_STM32_IoT/iot_link/oc/oc_mqtt/oc_mqtt_tiny_v5\oc_mqtt_tiny.c **** static int dmp_connect(oc_mqtt_tiny_cb_t *cb)
 691:c:/Users/lenovo/Desktop/AIoT/first_day/firstday_afternoon/LiteOS_Lab_STM32_IoT/iot_link/oc/oc_mqtt/oc_mqtt_tiny_v5\oc_mqtt_tiny.c **** {
ARM GAS  C:\Users\lenovo\AppData\Local\Temp\cceHxmqh.s 			page 55


 2196              		.loc 1 691 1
 2197              		.cfi_startproc
 2198              		@ args = 0, pretend = 0, frame = 72
 2199              		@ frame_needed = 1, uses_anonymous_args = 0
 2200 0000 80B5     		push	{r7, lr}
 2201              	.LCFI45:
 2202              		.cfi_def_cfa_offset 8
 2203              		.cfi_offset 7, -8
 2204              		.cfi_offset 14, -4
 2205 0002 92B0     		sub	sp, sp, #72
 2206              	.LCFI46:
 2207              		.cfi_def_cfa_offset 80
 2208 0004 00AF     		add	r7, sp, #0
 2209              	.LCFI47:
 2210              		.cfi_def_cfa_register 7
 2211 0006 7860     		str	r0, [r7, #4]
 692:c:/Users/lenovo/Desktop/AIoT/first_day/firstday_afternoon/LiteOS_Lab_STM32_IoT/iot_link/oc/oc_mqtt/oc_mqtt_tiny_v5\oc_mqtt_tiny.c ****     int  ret = en_oc_mqtt_err_system;
 2212              		.loc 1 692 10
 2213 0008 1023     		movs	r3, #16
 2214 000a 7B64     		str	r3, [r7, #68]
 693:c:/Users/lenovo/Desktop/AIoT/first_day/firstday_afternoon/LiteOS_Lab_STM32_IoT/iot_link/oc/oc_mqtt/oc_mqtt_tiny_v5\oc_mqtt_tiny.c **** 
 694:c:/Users/lenovo/Desktop/AIoT/first_day/firstday_afternoon/LiteOS_Lab_STM32_IoT/iot_link/oc/oc_mqtt/oc_mqtt_tiny_v5\oc_mqtt_tiny.c ****     mqtt_al_conpara_t conpara;
 695:c:/Users/lenovo/Desktop/AIoT/first_day/firstday_afternoon/LiteOS_Lab_STM32_IoT/iot_link/oc/oc_mqtt/oc_mqtt_tiny_v5\oc_mqtt_tiny.c **** 
 696:c:/Users/lenovo/Desktop/AIoT/first_day/firstday_afternoon/LiteOS_Lab_STM32_IoT/iot_link/oc/oc_mqtt/oc_mqtt_tiny_v5\oc_mqtt_tiny.c ****     memset(&conpara,0,sizeof(conpara));
 2215              		.loc 1 696 5
 2216 000c 07F10803 		add	r3, r7, #8
 2217 0010 3C22     		movs	r2, #60
 2218 0012 0021     		movs	r1, #0
 2219 0014 1846     		mov	r0, r3
 2220 0016 FFF7FEFF 		bl	memset
 697:c:/Users/lenovo/Desktop/AIoT/first_day/firstday_afternoon/LiteOS_Lab_STM32_IoT/iot_link/oc/oc_mqtt/oc_mqtt_tiny_v5\oc_mqtt_tiny.c **** 
 698:c:/Users/lenovo/Desktop/AIoT/first_day/firstday_afternoon/LiteOS_Lab_STM32_IoT/iot_link/oc/oc_mqtt/oc_mqtt_tiny_v5\oc_mqtt_tiny.c ****     conpara.clientid.data = cb->mqtt_para.mqtt_clientid;
 2221              		.loc 1 698 42
 2222 001a 7B68     		ldr	r3, [r7, #4]
 2223 001c 9B6C     		ldr	r3, [r3, #72]
 2224              		.loc 1 698 27
 2225 001e FB61     		str	r3, [r7, #28]
 699:c:/Users/lenovo/Desktop/AIoT/first_day/firstday_afternoon/LiteOS_Lab_STM32_IoT/iot_link/oc/oc_mqtt/oc_mqtt_tiny_v5\oc_mqtt_tiny.c ****     conpara.clientid.len = strlen(conpara.clientid.data);
 2226              		.loc 1 699 51
 2227 0020 FB69     		ldr	r3, [r7, #28]
 2228              		.loc 1 699 28
 2229 0022 1846     		mov	r0, r3
 2230 0024 FFF7FEFF 		bl	strlen
 2231 0028 0346     		mov	r3, r0
 2232              		.loc 1 699 26
 2233 002a 3B62     		str	r3, [r7, #32]
 700:c:/Users/lenovo/Desktop/AIoT/first_day/firstday_afternoon/LiteOS_Lab_STM32_IoT/iot_link/oc/oc_mqtt/oc_mqtt_tiny_v5\oc_mqtt_tiny.c **** 
 701:c:/Users/lenovo/Desktop/AIoT/first_day/firstday_afternoon/LiteOS_Lab_STM32_IoT/iot_link/oc/oc_mqtt/oc_mqtt_tiny_v5\oc_mqtt_tiny.c ****     conpara.user.data =  cb->mqtt_para.mqtt_user;
 2234              		.loc 1 701 39
 2235 002c 7B68     		ldr	r3, [r7, #4]
 2236 002e DB6C     		ldr	r3, [r3, #76]
 2237              		.loc 1 701 23
 2238 0030 7B62     		str	r3, [r7, #36]
 702:c:/Users/lenovo/Desktop/AIoT/first_day/firstday_afternoon/LiteOS_Lab_STM32_IoT/iot_link/oc/oc_mqtt/oc_mqtt_tiny_v5\oc_mqtt_tiny.c ****     conpara.user.len = strlen(conpara.user.data);
 2239              		.loc 1 702 43
 2240 0032 7B6A     		ldr	r3, [r7, #36]
 2241              		.loc 1 702 24
ARM GAS  C:\Users\lenovo\AppData\Local\Temp\cceHxmqh.s 			page 56


 2242 0034 1846     		mov	r0, r3
 2243 0036 FFF7FEFF 		bl	strlen
 2244 003a 0346     		mov	r3, r0
 2245              		.loc 1 702 22
 2246 003c BB62     		str	r3, [r7, #40]
 703:c:/Users/lenovo/Desktop/AIoT/first_day/firstday_afternoon/LiteOS_Lab_STM32_IoT/iot_link/oc/oc_mqtt/oc_mqtt_tiny_v5\oc_mqtt_tiny.c **** 
 704:c:/Users/lenovo/Desktop/AIoT/first_day/firstday_afternoon/LiteOS_Lab_STM32_IoT/iot_link/oc/oc_mqtt/oc_mqtt_tiny_v5\oc_mqtt_tiny.c ****     conpara.passwd.data = cb->mqtt_para.mqtt_passwd;
 2247              		.loc 1 704 40
 2248 003e 7B68     		ldr	r3, [r7, #4]
 2249 0040 1B6D     		ldr	r3, [r3, #80]
 2250              		.loc 1 704 25
 2251 0042 FB62     		str	r3, [r7, #44]
 705:c:/Users/lenovo/Desktop/AIoT/first_day/firstday_afternoon/LiteOS_Lab_STM32_IoT/iot_link/oc/oc_mqtt/oc_mqtt_tiny_v5\oc_mqtt_tiny.c ****     conpara.passwd.len = strlen(conpara.passwd.data);
 2252              		.loc 1 705 47
 2253 0044 FB6A     		ldr	r3, [r7, #44]
 2254              		.loc 1 705 26
 2255 0046 1846     		mov	r0, r3
 2256 0048 FFF7FEFF 		bl	strlen
 2257 004c 0346     		mov	r3, r0
 2258              		.loc 1 705 24
 2259 004e 3B63     		str	r3, [r7, #48]
 706:c:/Users/lenovo/Desktop/AIoT/first_day/firstday_afternoon/LiteOS_Lab_STM32_IoT/iot_link/oc/oc_mqtt/oc_mqtt_tiny_v5\oc_mqtt_tiny.c **** 
 707:c:/Users/lenovo/Desktop/AIoT/first_day/firstday_afternoon/LiteOS_Lab_STM32_IoT/iot_link/oc/oc_mqtt/oc_mqtt_tiny_v5\oc_mqtt_tiny.c ****     conpara.cleansession = 1;
 2260              		.loc 1 707 26
 2261 0050 0123     		movs	r3, #1
 2262 0052 7B63     		str	r3, [r7, #52]
 708:c:/Users/lenovo/Desktop/AIoT/first_day/firstday_afternoon/LiteOS_Lab_STM32_IoT/iot_link/oc/oc_mqtt/oc_mqtt_tiny_v5\oc_mqtt_tiny.c ****     conpara.keepalivetime = cb->config.lifetime;
 2263              		.loc 1 708 39
 2264 0054 7B68     		ldr	r3, [r7, #4]
 2265 0056 5B79     		ldrb	r3, [r3, #5]	@ zero_extendqisi2
 2266 0058 9BB2     		uxth	r3, r3
 2267              		.loc 1 708 27
 2268 005a BB87     		strh	r3, [r7, #60]	@ movhi
 709:c:/Users/lenovo/Desktop/AIoT/first_day/firstday_afternoon/LiteOS_Lab_STM32_IoT/iot_link/oc/oc_mqtt/oc_mqtt_tiny_v5\oc_mqtt_tiny.c ****     conpara.security = &cb->config.security;
 2269              		.loc 1 709 24
 2270 005c 7B68     		ldr	r3, [r7, #4]
 2271 005e 1033     		adds	r3, r3, #16
 2272              		.loc 1 709 22
 2273 0060 7B61     		str	r3, [r7, #20]
 710:c:/Users/lenovo/Desktop/AIoT/first_day/firstday_afternoon/LiteOS_Lab_STM32_IoT/iot_link/oc/oc_mqtt/oc_mqtt_tiny_v5\oc_mqtt_tiny.c **** 
 711:c:/Users/lenovo/Desktop/AIoT/first_day/firstday_afternoon/LiteOS_Lab_STM32_IoT/iot_link/oc/oc_mqtt/oc_mqtt_tiny_v5\oc_mqtt_tiny.c ****     conpara.serveraddr.data = (char *)cb->mqtt_para.server_addr;
 2274              		.loc 1 711 31
 2275 0062 7B68     		ldr	r3, [r7, #4]
 2276 0064 5B6D     		ldr	r3, [r3, #84]
 2277              		.loc 1 711 29
 2278 0066 BB60     		str	r3, [r7, #8]
 712:c:/Users/lenovo/Desktop/AIoT/first_day/firstday_afternoon/LiteOS_Lab_STM32_IoT/iot_link/oc/oc_mqtt/oc_mqtt_tiny_v5\oc_mqtt_tiny.c ****     conpara.serveraddr.len = strlen(conpara.serveraddr.data);
 2279              		.loc 1 712 55
 2280 0068 BB68     		ldr	r3, [r7, #8]
 2281              		.loc 1 712 30
 2282 006a 1846     		mov	r0, r3
 2283 006c FFF7FEFF 		bl	strlen
 2284 0070 0346     		mov	r3, r0
 2285              		.loc 1 712 28
 2286 0072 FB60     		str	r3, [r7, #12]
 713:c:/Users/lenovo/Desktop/AIoT/first_day/firstday_afternoon/LiteOS_Lab_STM32_IoT/iot_link/oc/oc_mqtt/oc_mqtt_tiny_v5\oc_mqtt_tiny.c ****     conpara.serverport = atoi(cb->mqtt_para.server_port);
 2287              		.loc 1 713 44
ARM GAS  C:\Users\lenovo\AppData\Local\Temp\cceHxmqh.s 			page 57


 2288 0074 7B68     		ldr	r3, [r7, #4]
 2289 0076 9B6D     		ldr	r3, [r3, #88]
 2290              		.loc 1 713 26
 2291 0078 1846     		mov	r0, r3
 2292 007a FFF7FEFF 		bl	atoi
 2293 007e 0346     		mov	r3, r0
 2294              		.loc 1 713 24
 2295 0080 3B61     		str	r3, [r7, #16]
 714:c:/Users/lenovo/Desktop/AIoT/first_day/firstday_afternoon/LiteOS_Lab_STM32_IoT/iot_link/oc/oc_mqtt/oc_mqtt_tiny_v5\oc_mqtt_tiny.c ****     conpara.timeout = 10000;
 2296              		.loc 1 714 21
 2297 0082 42F21073 		movw	r3, #10000
 2298 0086 3B64     		str	r3, [r7, #64]
 715:c:/Users/lenovo/Desktop/AIoT/first_day/firstday_afternoon/LiteOS_Lab_STM32_IoT/iot_link/oc/oc_mqtt/oc_mqtt_tiny_v5\oc_mqtt_tiny.c ****     conpara.version = en_mqtt_al_version_3_1_1;
 2299              		.loc 1 715 21
 2300 0088 0123     		movs	r3, #1
 2301 008a 3B76     		strb	r3, [r7, #24]
 716:c:/Users/lenovo/Desktop/AIoT/first_day/firstday_afternoon/LiteOS_Lab_STM32_IoT/iot_link/oc/oc_mqtt/oc_mqtt_tiny_v5\oc_mqtt_tiny.c ****     conpara.willmsg = NULL;
 2302              		.loc 1 716 21
 2303 008c 0023     		movs	r3, #0
 2304 008e BB63     		str	r3, [r7, #56]
 717:c:/Users/lenovo/Desktop/AIoT/first_day/firstday_afternoon/LiteOS_Lab_STM32_IoT/iot_link/oc/oc_mqtt/oc_mqtt_tiny_v5\oc_mqtt_tiny.c **** 
 718:c:/Users/lenovo/Desktop/AIoT/first_day/firstday_afternoon/LiteOS_Lab_STM32_IoT/iot_link/oc/oc_mqtt/oc_mqtt_tiny_v5\oc_mqtt_tiny.c ****     printf("oc_mqtt_connect:server:%s port:%s \n\r",cb->mqtt_para.server_addr,cb->mqtt_para.server_
 2305              		.loc 1 718 5
 2306 0090 7B68     		ldr	r3, [r7, #4]
 2307 0092 596D     		ldr	r1, [r3, #84]
 2308 0094 7B68     		ldr	r3, [r7, #4]
 2309 0096 9B6D     		ldr	r3, [r3, #88]
 2310 0098 1A46     		mov	r2, r3
 2311 009a 2748     		ldr	r0, .L104
 2312 009c FFF7FEFF 		bl	printf
 719:c:/Users/lenovo/Desktop/AIoT/first_day/firstday_afternoon/LiteOS_Lab_STM32_IoT/iot_link/oc/oc_mqtt/oc_mqtt_tiny_v5\oc_mqtt_tiny.c ****     printf("oc_mqtt_connect:client_id:%s \n\r",cb->mqtt_para.mqtt_clientid);
 2313              		.loc 1 719 5
 2314 00a0 7B68     		ldr	r3, [r7, #4]
 2315 00a2 9B6C     		ldr	r3, [r3, #72]
 2316 00a4 1946     		mov	r1, r3
 2317 00a6 2548     		ldr	r0, .L104+4
 2318 00a8 FFF7FEFF 		bl	printf
 720:c:/Users/lenovo/Desktop/AIoT/first_day/firstday_afternoon/LiteOS_Lab_STM32_IoT/iot_link/oc/oc_mqtt/oc_mqtt_tiny_v5\oc_mqtt_tiny.c ****     printf("oc_mqtt_connect:user:%s passwd:%s \n\r",cb->mqtt_para.mqtt_user,cb->mqtt_para.mqtt_pass
 2319              		.loc 1 720 5
 2320 00ac 7B68     		ldr	r3, [r7, #4]
 2321 00ae D96C     		ldr	r1, [r3, #76]
 2322 00b0 7B68     		ldr	r3, [r7, #4]
 2323 00b2 1B6D     		ldr	r3, [r3, #80]
 2324 00b4 1A46     		mov	r2, r3
 2325 00b6 2248     		ldr	r0, .L104+8
 2326 00b8 FFF7FEFF 		bl	printf
 721:c:/Users/lenovo/Desktop/AIoT/first_day/firstday_afternoon/LiteOS_Lab_STM32_IoT/iot_link/oc/oc_mqtt/oc_mqtt_tiny_v5\oc_mqtt_tiny.c ****     cb->mqtt_para.mqtt_handle = mqtt_al_connect(&conpara);
 2327              		.loc 1 721 33
 2328 00bc 07F10803 		add	r3, r7, #8
 2329 00c0 1846     		mov	r0, r3
 2330 00c2 FFF7FEFF 		bl	mqtt_al_connect
 2331 00c6 0246     		mov	r2, r0
 2332              		.loc 1 721 31
 2333 00c8 7B68     		ldr	r3, [r7, #4]
 2334 00ca 9A66     		str	r2, [r3, #104]
 722:c:/Users/lenovo/Desktop/AIoT/first_day/firstday_afternoon/LiteOS_Lab_STM32_IoT/iot_link/oc/oc_mqtt/oc_mqtt_tiny_v5\oc_mqtt_tiny.c **** 
 723:c:/Users/lenovo/Desktop/AIoT/first_day/firstday_afternoon/LiteOS_Lab_STM32_IoT/iot_link/oc/oc_mqtt/oc_mqtt_tiny_v5\oc_mqtt_tiny.c ****     if(NULL != cb->mqtt_para.mqtt_handle)
ARM GAS  C:\Users\lenovo\AppData\Local\Temp\cceHxmqh.s 			page 58


 2335              		.loc 1 723 29
 2336 00cc 7B68     		ldr	r3, [r7, #4]
 2337 00ce 9B6E     		ldr	r3, [r3, #104]
 2338              		.loc 1 723 7
 2339 00d0 002B     		cmp	r3, #0
 2340 00d2 02D0     		beq	.L95
 724:c:/Users/lenovo/Desktop/AIoT/first_day/firstday_afternoon/LiteOS_Lab_STM32_IoT/iot_link/oc/oc_mqtt/oc_mqtt_tiny_v5\oc_mqtt_tiny.c ****     {
 725:c:/Users/lenovo/Desktop/AIoT/first_day/firstday_afternoon/LiteOS_Lab_STM32_IoT/iot_link/oc/oc_mqtt/oc_mqtt_tiny_v5\oc_mqtt_tiny.c ****         ret = en_oc_mqtt_err_ok;
 2341              		.loc 1 725 13
 2342 00d4 0023     		movs	r3, #0
 2343 00d6 7B64     		str	r3, [r7, #68]
 2344 00d8 1DE0     		b	.L96
 2345              	.L95:
 726:c:/Users/lenovo/Desktop/AIoT/first_day/firstday_afternoon/LiteOS_Lab_STM32_IoT/iot_link/oc/oc_mqtt/oc_mqtt_tiny_v5\oc_mqtt_tiny.c ****     }
 727:c:/Users/lenovo/Desktop/AIoT/first_day/firstday_afternoon/LiteOS_Lab_STM32_IoT/iot_link/oc/oc_mqtt/oc_mqtt_tiny_v5\oc_mqtt_tiny.c ****     else
 728:c:/Users/lenovo/Desktop/AIoT/first_day/firstday_afternoon/LiteOS_Lab_STM32_IoT/iot_link/oc/oc_mqtt/oc_mqtt_tiny_v5\oc_mqtt_tiny.c ****     {
 729:c:/Users/lenovo/Desktop/AIoT/first_day/firstday_afternoon/LiteOS_Lab_STM32_IoT/iot_link/oc/oc_mqtt/oc_mqtt_tiny_v5\oc_mqtt_tiny.c ****         if(cn_mqtt_al_con_code_err_clientID == conpara.conret)
 2346              		.loc 1 729 55
 2347 00da 97F83E30 		ldrb	r3, [r7, #62]	@ zero_extendqisi2
 2348              		.loc 1 729 11
 2349 00de 022B     		cmp	r3, #2
 2350 00e0 02D1     		bne	.L97
 730:c:/Users/lenovo/Desktop/AIoT/first_day/firstday_afternoon/LiteOS_Lab_STM32_IoT/iot_link/oc/oc_mqtt/oc_mqtt_tiny_v5\oc_mqtt_tiny.c ****         {
 731:c:/Users/lenovo/Desktop/AIoT/first_day/firstday_afternoon/LiteOS_Lab_STM32_IoT/iot_link/oc/oc_mqtt/oc_mqtt_tiny_v5\oc_mqtt_tiny.c ****             ret = en_oc_mqtt_err_conclientid;
 2351              		.loc 1 731 17
 2352 00e2 0423     		movs	r3, #4
 2353 00e4 7B64     		str	r3, [r7, #68]
 2354 00e6 16E0     		b	.L96
 2355              	.L97:
 732:c:/Users/lenovo/Desktop/AIoT/first_day/firstday_afternoon/LiteOS_Lab_STM32_IoT/iot_link/oc/oc_mqtt/oc_mqtt_tiny_v5\oc_mqtt_tiny.c ****         }
 733:c:/Users/lenovo/Desktop/AIoT/first_day/firstday_afternoon/LiteOS_Lab_STM32_IoT/iot_link/oc/oc_mqtt/oc_mqtt_tiny_v5\oc_mqtt_tiny.c ****         else if(cn_mqtt_al_con_code_err_netrefuse == conpara.conret)
 2356              		.loc 1 733 61
 2357 00e8 97F83E30 		ldrb	r3, [r7, #62]	@ zero_extendqisi2
 2358              		.loc 1 733 16
 2359 00ec 032B     		cmp	r3, #3
 2360 00ee 02D1     		bne	.L98
 734:c:/Users/lenovo/Desktop/AIoT/first_day/firstday_afternoon/LiteOS_Lab_STM32_IoT/iot_link/oc/oc_mqtt/oc_mqtt_tiny_v5\oc_mqtt_tiny.c ****         {
 735:c:/Users/lenovo/Desktop/AIoT/first_day/firstday_afternoon/LiteOS_Lab_STM32_IoT/iot_link/oc/oc_mqtt/oc_mqtt_tiny_v5\oc_mqtt_tiny.c ****             ret = en_oc_mqtt_err_conserver;
 2361              		.loc 1 735 17
 2362 00f0 0523     		movs	r3, #5
 2363 00f2 7B64     		str	r3, [r7, #68]
 2364 00f4 0FE0     		b	.L96
 2365              	.L98:
 736:c:/Users/lenovo/Desktop/AIoT/first_day/firstday_afternoon/LiteOS_Lab_STM32_IoT/iot_link/oc/oc_mqtt/oc_mqtt_tiny_v5\oc_mqtt_tiny.c ****         }
 737:c:/Users/lenovo/Desktop/AIoT/first_day/firstday_afternoon/LiteOS_Lab_STM32_IoT/iot_link/oc/oc_mqtt/oc_mqtt_tiny_v5\oc_mqtt_tiny.c ****         else if(cn_mqtt_al_con_code_err_u_p == conpara.conret)
 2366              		.loc 1 737 55
 2367 00f6 97F83E30 		ldrb	r3, [r7, #62]	@ zero_extendqisi2
 2368              		.loc 1 737 16
 2369 00fa 042B     		cmp	r3, #4
 2370 00fc 02D1     		bne	.L99
 738:c:/Users/lenovo/Desktop/AIoT/first_day/firstday_afternoon/LiteOS_Lab_STM32_IoT/iot_link/oc/oc_mqtt/oc_mqtt_tiny_v5\oc_mqtt_tiny.c ****         {
 739:c:/Users/lenovo/Desktop/AIoT/first_day/firstday_afternoon/LiteOS_Lab_STM32_IoT/iot_link/oc/oc_mqtt/oc_mqtt_tiny_v5\oc_mqtt_tiny.c ****             ret = en_oc_mqtt_err_conuserpwd;
 2371              		.loc 1 739 17
 2372 00fe 0623     		movs	r3, #6
 2373 0100 7B64     		str	r3, [r7, #68]
 2374 0102 08E0     		b	.L96
 2375              	.L99:
ARM GAS  C:\Users\lenovo\AppData\Local\Temp\cceHxmqh.s 			page 59


 740:c:/Users/lenovo/Desktop/AIoT/first_day/firstday_afternoon/LiteOS_Lab_STM32_IoT/iot_link/oc/oc_mqtt/oc_mqtt_tiny_v5\oc_mqtt_tiny.c ****         }
 741:c:/Users/lenovo/Desktop/AIoT/first_day/firstday_afternoon/LiteOS_Lab_STM32_IoT/iot_link/oc/oc_mqtt/oc_mqtt_tiny_v5\oc_mqtt_tiny.c ****         else if(cn_mqtt_al_con_code_err_auth == conpara.conret)
 2376              		.loc 1 741 56
 2377 0104 97F83E30 		ldrb	r3, [r7, #62]	@ zero_extendqisi2
 2378              		.loc 1 741 16
 2379 0108 052B     		cmp	r3, #5
 2380 010a 02D1     		bne	.L100
 742:c:/Users/lenovo/Desktop/AIoT/first_day/firstday_afternoon/LiteOS_Lab_STM32_IoT/iot_link/oc/oc_mqtt/oc_mqtt_tiny_v5\oc_mqtt_tiny.c ****         {
 743:c:/Users/lenovo/Desktop/AIoT/first_day/firstday_afternoon/LiteOS_Lab_STM32_IoT/iot_link/oc/oc_mqtt/oc_mqtt_tiny_v5\oc_mqtt_tiny.c ****             ret = en_oc_mqtt_err_conclient;
 2381              		.loc 1 743 17
 2382 010c 0723     		movs	r3, #7
 2383 010e 7B64     		str	r3, [r7, #68]
 2384 0110 01E0     		b	.L96
 2385              	.L100:
 744:c:/Users/lenovo/Desktop/AIoT/first_day/firstday_afternoon/LiteOS_Lab_STM32_IoT/iot_link/oc/oc_mqtt/oc_mqtt_tiny_v5\oc_mqtt_tiny.c ****         }
 745:c:/Users/lenovo/Desktop/AIoT/first_day/firstday_afternoon/LiteOS_Lab_STM32_IoT/iot_link/oc/oc_mqtt/oc_mqtt_tiny_v5\oc_mqtt_tiny.c ****         else
 746:c:/Users/lenovo/Desktop/AIoT/first_day/firstday_afternoon/LiteOS_Lab_STM32_IoT/iot_link/oc/oc_mqtt/oc_mqtt_tiny_v5\oc_mqtt_tiny.c ****         {
 747:c:/Users/lenovo/Desktop/AIoT/first_day/firstday_afternoon/LiteOS_Lab_STM32_IoT/iot_link/oc/oc_mqtt/oc_mqtt_tiny_v5\oc_mqtt_tiny.c ****             ret = en_oc_mqtt_err_network;
 2386              		.loc 1 747 17
 2387 0112 0223     		movs	r3, #2
 2388 0114 7B64     		str	r3, [r7, #68]
 2389              	.L96:
 748:c:/Users/lenovo/Desktop/AIoT/first_day/firstday_afternoon/LiteOS_Lab_STM32_IoT/iot_link/oc/oc_mqtt/oc_mqtt_tiny_v5\oc_mqtt_tiny.c ****         }
 749:c:/Users/lenovo/Desktop/AIoT/first_day/firstday_afternoon/LiteOS_Lab_STM32_IoT/iot_link/oc/oc_mqtt/oc_mqtt_tiny_v5\oc_mqtt_tiny.c ****     }
 750:c:/Users/lenovo/Desktop/AIoT/first_day/firstday_afternoon/LiteOS_Lab_STM32_IoT/iot_link/oc/oc_mqtt/oc_mqtt_tiny_v5\oc_mqtt_tiny.c **** 
 751:c:/Users/lenovo/Desktop/AIoT/first_day/firstday_afternoon/LiteOS_Lab_STM32_IoT/iot_link/oc/oc_mqtt/oc_mqtt_tiny_v5\oc_mqtt_tiny.c ****     printf("oc_mqtt_connect:recode:%d :%s\n\r",ret,ret==en_oc_mqtt_err_ok?"SUCCESS":"FAILED");
 2390              		.loc 1 751 5
 2391 0116 7B6C     		ldr	r3, [r7, #68]
 2392 0118 002B     		cmp	r3, #0
 2393 011a 01D1     		bne	.L101
 2394              		.loc 1 751 5 is_stmt 0 discriminator 1
 2395 011c 094B     		ldr	r3, .L104+12
 2396 011e 00E0     		b	.L102
 2397              	.L101:
 2398              		.loc 1 751 5 discriminator 2
 2399 0120 094B     		ldr	r3, .L104+16
 2400              	.L102:
 2401              		.loc 1 751 5 discriminator 4
 2402 0122 1A46     		mov	r2, r3
 2403 0124 796C     		ldr	r1, [r7, #68]
 2404 0126 0948     		ldr	r0, .L104+20
 2405 0128 FFF7FEFF 		bl	printf
 752:c:/Users/lenovo/Desktop/AIoT/first_day/firstday_afternoon/LiteOS_Lab_STM32_IoT/iot_link/oc/oc_mqtt/oc_mqtt_tiny_v5\oc_mqtt_tiny.c **** 
 753:c:/Users/lenovo/Desktop/AIoT/first_day/firstday_afternoon/LiteOS_Lab_STM32_IoT/iot_link/oc/oc_mqtt/oc_mqtt_tiny_v5\oc_mqtt_tiny.c ****     return ret;
 2406              		.loc 1 753 12 is_stmt 1 discriminator 4
 2407 012c 7B6C     		ldr	r3, [r7, #68]
 754:c:/Users/lenovo/Desktop/AIoT/first_day/firstday_afternoon/LiteOS_Lab_STM32_IoT/iot_link/oc/oc_mqtt/oc_mqtt_tiny_v5\oc_mqtt_tiny.c **** 
 755:c:/Users/lenovo/Desktop/AIoT/first_day/firstday_afternoon/LiteOS_Lab_STM32_IoT/iot_link/oc/oc_mqtt/oc_mqtt_tiny_v5\oc_mqtt_tiny.c **** }
 2408              		.loc 1 755 1 discriminator 4
 2409 012e 1846     		mov	r0, r3
 2410 0130 4837     		adds	r7, r7, #72
 2411              	.LCFI48:
 2412              		.cfi_def_cfa_offset 8
 2413 0132 BD46     		mov	sp, r7
 2414              	.LCFI49:
 2415              		.cfi_def_cfa_register 13
 2416              		@ sp needed
ARM GAS  C:\Users\lenovo\AppData\Local\Temp\cceHxmqh.s 			page 60


 2417 0134 80BD     		pop	{r7, pc}
 2418              	.L105:
 2419 0136 00BF     		.align	2
 2420              	.L104:
 2421 0138 CC010000 		.word	.LC19
 2422 013c F4010000 		.word	.LC20
 2423 0140 14020000 		.word	.LC21
 2424 0144 3C020000 		.word	.LC22
 2425 0148 44020000 		.word	.LC23
 2426 014c 4C020000 		.word	.LC24
 2427              		.cfi_endproc
 2428              	.LFE12:
 2430              		.section	.rodata
 2431              		.align	2
 2432              	.LC25:
 2433 026c 6F635F6D 		.ascii	"oc_mqtt_subscribe:start\012\015\000"
 2433      7174745F 
 2433      73756273 
 2433      63726962 
 2433      653A7374 
 2434 0286 0000     		.align	2
 2435              	.LC26:
 2436 0288 6F635F6D 		.ascii	"oc_mqtt_default_subscribe:topic:%s\012\015\000"
 2436      7174745F 
 2436      64656661 
 2436      756C745F 
 2436      73756273 
 2437 02ad 000000   		.align	2
 2438              	.LC27:
 2439 02b0 6F635F6D 		.ascii	"oc_mqtt_default_subscribe:retcode:%d:%s\012\015\000"
 2439      7174745F 
 2439      64656661 
 2439      756C745F 
 2439      73756273 
 2440 02da 0000     		.align	2
 2441              	.LC28:
 2442 02dc 6F635F6D 		.ascii	"oc_mqtt_subscribe:topic:%s\012\015\000"
 2442      7174745F 
 2442      73756273 
 2442      63726962 
 2442      653A746F 
 2443 02f9 000000   		.align	2
 2444              	.LC29:
 2445 02fc 6F635F6D 		.ascii	"oc_mqtt_subscribe:retcode:%d:%s\012\015\000"
 2445      7174745F 
 2445      73756273 
 2445      63726962 
 2445      653A7265 
 2446              		.section	.text.dmp_subscribe,"ax",%progbits
 2447              		.align	1
 2448              		.syntax unified
 2449              		.thumb
 2450              		.thumb_func
 2451              		.fpu fpv4-sp-d16
 2453              	dmp_subscribe:
 2454              	.LFB13:
 756:c:/Users/lenovo/Desktop/AIoT/first_day/firstday_afternoon/LiteOS_Lab_STM32_IoT/iot_link/oc/oc_mqtt/oc_mqtt_tiny_v5\oc_mqtt_tiny.c **** 
ARM GAS  C:\Users\lenovo\AppData\Local\Temp\cceHxmqh.s 			page 61


 757:c:/Users/lenovo/Desktop/AIoT/first_day/firstday_afternoon/LiteOS_Lab_STM32_IoT/iot_link/oc/oc_mqtt/oc_mqtt_tiny_v5\oc_mqtt_tiny.c **** static int dmp_subscribe(oc_mqtt_tiny_cb_t *cb)
 758:c:/Users/lenovo/Desktop/AIoT/first_day/firstday_afternoon/LiteOS_Lab_STM32_IoT/iot_link/oc/oc_mqtt/oc_mqtt_tiny_v5\oc_mqtt_tiny.c **** {
 2455              		.loc 1 758 1
 2456              		.cfi_startproc
 2457              		@ args = 0, pretend = 0, frame = 48
 2458              		@ frame_needed = 1, uses_anonymous_args = 0
 2459 0000 80B5     		push	{r7, lr}
 2460              	.LCFI50:
 2461              		.cfi_def_cfa_offset 8
 2462              		.cfi_offset 7, -8
 2463              		.cfi_offset 14, -4
 2464 0002 8CB0     		sub	sp, sp, #48
 2465              	.LCFI51:
 2466              		.cfi_def_cfa_offset 56
 2467 0004 00AF     		add	r7, sp, #0
 2468              	.LCFI52:
 2469              		.cfi_def_cfa_register 7
 2470 0006 7860     		str	r0, [r7, #4]
 759:c:/Users/lenovo/Desktop/AIoT/first_day/firstday_afternoon/LiteOS_Lab_STM32_IoT/iot_link/oc/oc_mqtt/oc_mqtt_tiny_v5\oc_mqtt_tiny.c ****     int  ret = en_oc_mqtt_err_system;
 2471              		.loc 1 759 10
 2472 0008 1023     		movs	r3, #16
 2473 000a FB62     		str	r3, [r7, #44]
 760:c:/Users/lenovo/Desktop/AIoT/first_day/firstday_afternoon/LiteOS_Lab_STM32_IoT/iot_link/oc/oc_mqtt/oc_mqtt_tiny_v5\oc_mqtt_tiny.c ****     mqtt_al_subpara_t   subpara;
 761:c:/Users/lenovo/Desktop/AIoT/first_day/firstday_afternoon/LiteOS_Lab_STM32_IoT/iot_link/oc/oc_mqtt/oc_mqtt_tiny_v5\oc_mqtt_tiny.c **** 
 762:c:/Users/lenovo/Desktop/AIoT/first_day/firstday_afternoon/LiteOS_Lab_STM32_IoT/iot_link/oc/oc_mqtt/oc_mqtt_tiny_v5\oc_mqtt_tiny.c ****     printf("oc_mqtt_subscribe:start\n\r");
 2474              		.loc 1 762 5
 2475 000c 6148     		ldr	r0, .L119
 2476 000e FFF7FEFF 		bl	printf
 763:c:/Users/lenovo/Desktop/AIoT/first_day/firstday_afternoon/LiteOS_Lab_STM32_IoT/iot_link/oc/oc_mqtt/oc_mqtt_tiny_v5\oc_mqtt_tiny.c **** 
 764:c:/Users/lenovo/Desktop/AIoT/first_day/firstday_afternoon/LiteOS_Lab_STM32_IoT/iot_link/oc/oc_mqtt/oc_mqtt_tiny_v5\oc_mqtt_tiny.c ****     if(NULL == cb->mqtt_para.mqtt_handle)
 2477              		.loc 1 764 29
 2478 0012 7B68     		ldr	r3, [r7, #4]
 2479 0014 9B6E     		ldr	r3, [r3, #104]
 2480              		.loc 1 764 7
 2481 0016 002B     		cmp	r3, #0
 2482 0018 01D1     		bne	.L107
 765:c:/Users/lenovo/Desktop/AIoT/first_day/firstday_afternoon/LiteOS_Lab_STM32_IoT/iot_link/oc/oc_mqtt/oc_mqtt_tiny_v5\oc_mqtt_tiny.c ****     {
 766:c:/Users/lenovo/Desktop/AIoT/first_day/firstday_afternoon/LiteOS_Lab_STM32_IoT/iot_link/oc/oc_mqtt/oc_mqtt_tiny_v5\oc_mqtt_tiny.c ****         ret = en_oc_mqtt_err_noconected;
 2483              		.loc 1 766 13
 2484 001a 0D23     		movs	r3, #13
 2485 001c FB62     		str	r3, [r7, #44]
 2486              	.L107:
 767:c:/Users/lenovo/Desktop/AIoT/first_day/firstday_afternoon/LiteOS_Lab_STM32_IoT/iot_link/oc/oc_mqtt/oc_mqtt_tiny_v5\oc_mqtt_tiny.c ****     }
 768:c:/Users/lenovo/Desktop/AIoT/first_day/firstday_afternoon/LiteOS_Lab_STM32_IoT/iot_link/oc/oc_mqtt/oc_mqtt_tiny_v5\oc_mqtt_tiny.c ****     memset(&subpara,0,sizeof(subpara));
 2487              		.loc 1 768 5
 2488 001e 07F10803 		add	r3, r7, #8
 2489 0022 1C22     		movs	r2, #28
 2490 0024 0021     		movs	r1, #0
 2491 0026 1846     		mov	r0, r3
 2492 0028 FFF7FEFF 		bl	memset
 769:c:/Users/lenovo/Desktop/AIoT/first_day/firstday_afternoon/LiteOS_Lab_STM32_IoT/iot_link/oc/oc_mqtt/oc_mqtt_tiny_v5\oc_mqtt_tiny.c **** 
 770:c:/Users/lenovo/Desktop/AIoT/first_day/firstday_afternoon/LiteOS_Lab_STM32_IoT/iot_link/oc/oc_mqtt/oc_mqtt_tiny_v5\oc_mqtt_tiny.c ****     if(cb->flag.bits.bit_daemon_status == en_daemon_status_bs_getaddr)
 2493              		.loc 1 770 40
 2494 002c 7B68     		ldr	r3, [r7, #4]
 2495 002e 93F86C30 		ldrb	r3, [r3, #108]	@ zero_extendqisi2
 2496 0032 03F00E03 		and	r3, r3, #14
 2497 0036 DBB2     		uxtb	r3, r3
ARM GAS  C:\Users\lenovo\AppData\Local\Temp\cceHxmqh.s 			page 62


 2498              		.loc 1 770 7
 2499 0038 022B     		cmp	r3, #2
 2500 003a 02D1     		bne	.L108
 771:c:/Users/lenovo/Desktop/AIoT/first_day/firstday_afternoon/LiteOS_Lab_STM32_IoT/iot_link/oc/oc_mqtt/oc_mqtt_tiny_v5\oc_mqtt_tiny.c ****     {
 772:c:/Users/lenovo/Desktop/AIoT/first_day/firstday_afternoon/LiteOS_Lab_STM32_IoT/iot_link/oc/oc_mqtt/oc_mqtt_tiny_v5\oc_mqtt_tiny.c ****         subpara.dealer = bs_msg_default_deal;
 2501              		.loc 1 772 24
 2502 003c 564B     		ldr	r3, .L119+4
 2503 003e 7B61     		str	r3, [r7, #20]
 2504 0040 01E0     		b	.L109
 2505              	.L108:
 773:c:/Users/lenovo/Desktop/AIoT/first_day/firstday_afternoon/LiteOS_Lab_STM32_IoT/iot_link/oc/oc_mqtt/oc_mqtt_tiny_v5\oc_mqtt_tiny.c ****     }
 774:c:/Users/lenovo/Desktop/AIoT/first_day/firstday_afternoon/LiteOS_Lab_STM32_IoT/iot_link/oc/oc_mqtt/oc_mqtt_tiny_v5\oc_mqtt_tiny.c ****     else
 775:c:/Users/lenovo/Desktop/AIoT/first_day/firstday_afternoon/LiteOS_Lab_STM32_IoT/iot_link/oc/oc_mqtt/oc_mqtt_tiny_v5\oc_mqtt_tiny.c ****     {
 776:c:/Users/lenovo/Desktop/AIoT/first_day/firstday_afternoon/LiteOS_Lab_STM32_IoT/iot_link/oc/oc_mqtt/oc_mqtt_tiny_v5\oc_mqtt_tiny.c ****         subpara.dealer = hub_msg_default_deal;
 2506              		.loc 1 776 24
 2507 0042 564B     		ldr	r3, .L119+8
 2508 0044 7B61     		str	r3, [r7, #20]
 2509              	.L109:
 777:c:/Users/lenovo/Desktop/AIoT/first_day/firstday_afternoon/LiteOS_Lab_STM32_IoT/iot_link/oc/oc_mqtt/oc_mqtt_tiny_v5\oc_mqtt_tiny.c ****     }
 778:c:/Users/lenovo/Desktop/AIoT/first_day/firstday_afternoon/LiteOS_Lab_STM32_IoT/iot_link/oc/oc_mqtt/oc_mqtt_tiny_v5\oc_mqtt_tiny.c **** 
 779:c:/Users/lenovo/Desktop/AIoT/first_day/firstday_afternoon/LiteOS_Lab_STM32_IoT/iot_link/oc/oc_mqtt/oc_mqtt_tiny_v5\oc_mqtt_tiny.c ****     subpara.arg = cb;
 2510              		.loc 1 779 17
 2511 0046 7B68     		ldr	r3, [r7, #4]
 2512 0048 BB61     		str	r3, [r7, #24]
 780:c:/Users/lenovo/Desktop/AIoT/first_day/firstday_afternoon/LiteOS_Lab_STM32_IoT/iot_link/oc/oc_mqtt/oc_mqtt_tiny_v5\oc_mqtt_tiny.c ****     subpara.qos = en_mqtt_al_qos_1;
 2513              		.loc 1 780 17
 2514 004a 0123     		movs	r3, #1
 2515 004c 3B74     		strb	r3, [r7, #16]
 781:c:/Users/lenovo/Desktop/AIoT/first_day/firstday_afternoon/LiteOS_Lab_STM32_IoT/iot_link/oc/oc_mqtt/oc_mqtt_tiny_v5\oc_mqtt_tiny.c ****     subpara.topic.data = cb->mqtt_para.default_sub_topic ;
 2516              		.loc 1 781 39
 2517 004e 7B68     		ldr	r3, [r7, #4]
 2518 0050 1B6E     		ldr	r3, [r3, #96]
 2519              		.loc 1 781 24
 2520 0052 BB60     		str	r3, [r7, #8]
 782:c:/Users/lenovo/Desktop/AIoT/first_day/firstday_afternoon/LiteOS_Lab_STM32_IoT/iot_link/oc/oc_mqtt/oc_mqtt_tiny_v5\oc_mqtt_tiny.c ****     subpara.topic.len = strlen(subpara.topic.data );
 2521              		.loc 1 782 45
 2522 0054 BB68     		ldr	r3, [r7, #8]
 2523              		.loc 1 782 25
 2524 0056 1846     		mov	r0, r3
 2525 0058 FFF7FEFF 		bl	strlen
 2526 005c 0346     		mov	r3, r0
 2527              		.loc 1 782 23
 2528 005e FB60     		str	r3, [r7, #12]
 783:c:/Users/lenovo/Desktop/AIoT/first_day/firstday_afternoon/LiteOS_Lab_STM32_IoT/iot_link/oc/oc_mqtt/oc_mqtt_tiny_v5\oc_mqtt_tiny.c **** 
 784:c:/Users/lenovo/Desktop/AIoT/first_day/firstday_afternoon/LiteOS_Lab_STM32_IoT/iot_link/oc/oc_mqtt/oc_mqtt_tiny_v5\oc_mqtt_tiny.c ****     printf("oc_mqtt_default_subscribe:topic:%s\n\r",subpara.topic.data);
 2529              		.loc 1 784 5
 2530 0060 BB68     		ldr	r3, [r7, #8]
 2531 0062 1946     		mov	r1, r3
 2532 0064 4E48     		ldr	r0, .L119+12
 2533 0066 FFF7FEFF 		bl	printf
 785:c:/Users/lenovo/Desktop/AIoT/first_day/firstday_afternoon/LiteOS_Lab_STM32_IoT/iot_link/oc/oc_mqtt/oc_mqtt_tiny_v5\oc_mqtt_tiny.c **** 
 786:c:/Users/lenovo/Desktop/AIoT/first_day/firstday_afternoon/LiteOS_Lab_STM32_IoT/iot_link/oc/oc_mqtt/oc_mqtt_tiny_v5\oc_mqtt_tiny.c ****     ret = mqtt_al_subscribe(cb->mqtt_para.mqtt_handle,&subpara);
 2534              		.loc 1 786 11
 2535 006a 7B68     		ldr	r3, [r7, #4]
 2536 006c 9B6E     		ldr	r3, [r3, #104]
 2537 006e 07F10802 		add	r2, r7, #8
 2538 0072 1146     		mov	r1, r2
ARM GAS  C:\Users\lenovo\AppData\Local\Temp\cceHxmqh.s 			page 63


 2539 0074 1846     		mov	r0, r3
 2540 0076 FFF7FEFF 		bl	mqtt_al_subscribe
 2541 007a F862     		str	r0, [r7, #44]
 787:c:/Users/lenovo/Desktop/AIoT/first_day/firstday_afternoon/LiteOS_Lab_STM32_IoT/iot_link/oc/oc_mqtt/oc_mqtt_tiny_v5\oc_mqtt_tiny.c ****     if(0 != ret)
 2542              		.loc 1 787 7
 2543 007c FB6A     		ldr	r3, [r7, #44]
 2544 007e 002B     		cmp	r3, #0
 2545 0080 01D0     		beq	.L110
 788:c:/Users/lenovo/Desktop/AIoT/first_day/firstday_afternoon/LiteOS_Lab_STM32_IoT/iot_link/oc/oc_mqtt/oc_mqtt_tiny_v5\oc_mqtt_tiny.c ****     {
 789:c:/Users/lenovo/Desktop/AIoT/first_day/firstday_afternoon/LiteOS_Lab_STM32_IoT/iot_link/oc/oc_mqtt/oc_mqtt_tiny_v5\oc_mqtt_tiny.c ****         ret = en_oc_mqtt_err_subscribe;
 2546              		.loc 1 789 13
 2547 0082 0823     		movs	r3, #8
 2548 0084 FB62     		str	r3, [r7, #44]
 2549              	.L110:
 790:c:/Users/lenovo/Desktop/AIoT/first_day/firstday_afternoon/LiteOS_Lab_STM32_IoT/iot_link/oc/oc_mqtt/oc_mqtt_tiny_v5\oc_mqtt_tiny.c ****     }
 791:c:/Users/lenovo/Desktop/AIoT/first_day/firstday_afternoon/LiteOS_Lab_STM32_IoT/iot_link/oc/oc_mqtt/oc_mqtt_tiny_v5\oc_mqtt_tiny.c **** 
 792:c:/Users/lenovo/Desktop/AIoT/first_day/firstday_afternoon/LiteOS_Lab_STM32_IoT/iot_link/oc/oc_mqtt/oc_mqtt_tiny_v5\oc_mqtt_tiny.c ****     printf("oc_mqtt_default_subscribe:retcode:%d:%s\n\r",ret,oc_mqtt_err(ret));
 2550              		.loc 1 792 5
 2551 0086 F86A     		ldr	r0, [r7, #44]
 2552 0088 FFF7FEFF 		bl	oc_mqtt_err
 2553 008c 0346     		mov	r3, r0
 2554 008e 1A46     		mov	r2, r3
 2555 0090 F96A     		ldr	r1, [r7, #44]
 2556 0092 4448     		ldr	r0, .L119+16
 2557 0094 FFF7FEFF 		bl	printf
 793:c:/Users/lenovo/Desktop/AIoT/first_day/firstday_afternoon/LiteOS_Lab_STM32_IoT/iot_link/oc/oc_mqtt/oc_mqtt_tiny_v5\oc_mqtt_tiny.c **** 
 794:c:/Users/lenovo/Desktop/AIoT/first_day/firstday_afternoon/LiteOS_Lab_STM32_IoT/iot_link/oc/oc_mqtt/oc_mqtt_tiny_v5\oc_mqtt_tiny.c ****     ///if not the bs mode, then subscribe all the other topic
 795:c:/Users/lenovo/Desktop/AIoT/first_day/firstday_afternoon/LiteOS_Lab_STM32_IoT/iot_link/oc/oc_mqtt/oc_mqtt_tiny_v5\oc_mqtt_tiny.c ****     if(cb->flag.bits.bit_daemon_status != en_daemon_status_bs_getaddr)
 2558              		.loc 1 795 40
 2559 0098 7B68     		ldr	r3, [r7, #4]
 2560 009a 93F86C30 		ldrb	r3, [r3, #108]	@ zero_extendqisi2
 2561 009e 03F00E03 		and	r3, r3, #14
 2562 00a2 DBB2     		uxtb	r3, r3
 2563              		.loc 1 795 7
 2564 00a4 022B     		cmp	r3, #2
 2565 00a6 6FD0     		beq	.L111
 2566              	.LBB2:
 796:c:/Users/lenovo/Desktop/AIoT/first_day/firstday_afternoon/LiteOS_Lab_STM32_IoT/iot_link/oc/oc_mqtt/oc_mqtt_tiny_v5\oc_mqtt_tiny.c ****     {
 797:c:/Users/lenovo/Desktop/AIoT/first_day/firstday_afternoon/LiteOS_Lab_STM32_IoT/iot_link/oc/oc_mqtt/oc_mqtt_tiny_v5\oc_mqtt_tiny.c ****         int i = 0;
 2567              		.loc 1 797 13
 2568 00a8 0023     		movs	r3, #0
 2569 00aa BB62     		str	r3, [r7, #40]
 798:c:/Users/lenovo/Desktop/AIoT/first_day/firstday_afternoon/LiteOS_Lab_STM32_IoT/iot_link/oc/oc_mqtt/oc_mqtt_tiny_v5\oc_mqtt_tiny.c ****         for(i =0;i<CN_NEW_TOPIC_NUM;i++)
 2570              		.loc 1 798 15
 2571 00ac 0023     		movs	r3, #0
 2572 00ae BB62     		str	r3, [r7, #40]
 2573              		.loc 1 798 9
 2574 00b0 32E0     		b	.L112
 2575              	.L115:
 799:c:/Users/lenovo/Desktop/AIoT/first_day/firstday_afternoon/LiteOS_Lab_STM32_IoT/iot_link/oc/oc_mqtt/oc_mqtt_tiny_v5\oc_mqtt_tiny.c ****         {
 800:c:/Users/lenovo/Desktop/AIoT/first_day/firstday_afternoon/LiteOS_Lab_STM32_IoT/iot_link/oc/oc_mqtt/oc_mqtt_tiny_v5\oc_mqtt_tiny.c ****             subpara.arg = cb;
 2576              		.loc 1 800 25
 2577 00b2 7B68     		ldr	r3, [r7, #4]
 2578 00b4 BB61     		str	r3, [r7, #24]
 801:c:/Users/lenovo/Desktop/AIoT/first_day/firstday_afternoon/LiteOS_Lab_STM32_IoT/iot_link/oc/oc_mqtt/oc_mqtt_tiny_v5\oc_mqtt_tiny.c ****             subpara.qos = en_mqtt_al_qos_1;
 2579              		.loc 1 801 25
 2580 00b6 0123     		movs	r3, #1
ARM GAS  C:\Users\lenovo\AppData\Local\Temp\cceHxmqh.s 			page 64


 2581 00b8 3B74     		strb	r3, [r7, #16]
 802:c:/Users/lenovo/Desktop/AIoT/first_day/firstday_afternoon/LiteOS_Lab_STM32_IoT/iot_link/oc/oc_mqtt/oc_mqtt_tiny_v5\oc_mqtt_tiny.c ****             subpara.topic.data = cb->hub_sub_topic[i] ;
 2582              		.loc 1 802 51
 2583 00ba 7B68     		ldr	r3, [r7, #4]
 2584 00bc BA6A     		ldr	r2, [r7, #40]
 2585 00be 2432     		adds	r2, r2, #36
 2586 00c0 53F82230 		ldr	r3, [r3, r2, lsl #2]
 2587              		.loc 1 802 32
 2588 00c4 BB60     		str	r3, [r7, #8]
 803:c:/Users/lenovo/Desktop/AIoT/first_day/firstday_afternoon/LiteOS_Lab_STM32_IoT/iot_link/oc/oc_mqtt/oc_mqtt_tiny_v5\oc_mqtt_tiny.c ****             subpara.topic.len = strlen(subpara.topic.data );
 2589              		.loc 1 803 53
 2590 00c6 BB68     		ldr	r3, [r7, #8]
 2591              		.loc 1 803 33
 2592 00c8 1846     		mov	r0, r3
 2593 00ca FFF7FEFF 		bl	strlen
 2594 00ce 0346     		mov	r3, r0
 2595              		.loc 1 803 31
 2596 00d0 FB60     		str	r3, [r7, #12]
 804:c:/Users/lenovo/Desktop/AIoT/first_day/firstday_afternoon/LiteOS_Lab_STM32_IoT/iot_link/oc/oc_mqtt/oc_mqtt_tiny_v5\oc_mqtt_tiny.c ****             subpara.timeout = CN_OC_MQTT_TIMEOUT;
 2597              		.loc 1 804 29
 2598 00d2 42F21073 		movw	r3, #10000
 2599 00d6 3B62     		str	r3, [r7, #32]
 805:c:/Users/lenovo/Desktop/AIoT/first_day/firstday_afternoon/LiteOS_Lab_STM32_IoT/iot_link/oc/oc_mqtt/oc_mqtt_tiny_v5\oc_mqtt_tiny.c **** 
 806:c:/Users/lenovo/Desktop/AIoT/first_day/firstday_afternoon/LiteOS_Lab_STM32_IoT/iot_link/oc/oc_mqtt/oc_mqtt_tiny_v5\oc_mqtt_tiny.c ****             printf("oc_mqtt_subscribe:topic:%s\n\r",subpara.topic.data);
 2600              		.loc 1 806 13
 2601 00d8 BB68     		ldr	r3, [r7, #8]
 2602 00da 1946     		mov	r1, r3
 2603 00dc 3248     		ldr	r0, .L119+20
 2604 00de FFF7FEFF 		bl	printf
 807:c:/Users/lenovo/Desktop/AIoT/first_day/firstday_afternoon/LiteOS_Lab_STM32_IoT/iot_link/oc/oc_mqtt/oc_mqtt_tiny_v5\oc_mqtt_tiny.c **** 
 808:c:/Users/lenovo/Desktop/AIoT/first_day/firstday_afternoon/LiteOS_Lab_STM32_IoT/iot_link/oc/oc_mqtt/oc_mqtt_tiny_v5\oc_mqtt_tiny.c ****             ret = mqtt_al_subscribe(cb->mqtt_para.mqtt_handle,&subpara);
 2605              		.loc 1 808 19
 2606 00e2 7B68     		ldr	r3, [r7, #4]
 2607 00e4 9B6E     		ldr	r3, [r3, #104]
 2608 00e6 07F10802 		add	r2, r7, #8
 2609 00ea 1146     		mov	r1, r2
 2610 00ec 1846     		mov	r0, r3
 2611 00ee FFF7FEFF 		bl	mqtt_al_subscribe
 2612 00f2 F862     		str	r0, [r7, #44]
 809:c:/Users/lenovo/Desktop/AIoT/first_day/firstday_afternoon/LiteOS_Lab_STM32_IoT/iot_link/oc/oc_mqtt/oc_mqtt_tiny_v5\oc_mqtt_tiny.c **** 
 810:c:/Users/lenovo/Desktop/AIoT/first_day/firstday_afternoon/LiteOS_Lab_STM32_IoT/iot_link/oc/oc_mqtt/oc_mqtt_tiny_v5\oc_mqtt_tiny.c ****             printf("oc_mqtt_subscribe:retcode:%d:%s\n\r",ret,oc_mqtt_err(ret));
 2613              		.loc 1 810 13
 2614 00f4 F86A     		ldr	r0, [r7, #44]
 2615 00f6 FFF7FEFF 		bl	oc_mqtt_err
 2616 00fa 0346     		mov	r3, r0
 2617 00fc 1A46     		mov	r2, r3
 2618 00fe F96A     		ldr	r1, [r7, #44]
 2619 0100 2A48     		ldr	r0, .L119+24
 2620 0102 FFF7FEFF 		bl	printf
 811:c:/Users/lenovo/Desktop/AIoT/first_day/firstday_afternoon/LiteOS_Lab_STM32_IoT/iot_link/oc/oc_mqtt/oc_mqtt_tiny_v5\oc_mqtt_tiny.c ****             if(0 != ret)
 2621              		.loc 1 811 15
 2622 0106 FB6A     		ldr	r3, [r7, #44]
 2623 0108 002B     		cmp	r3, #0
 2624 010a 02D0     		beq	.L113
 812:c:/Users/lenovo/Desktop/AIoT/first_day/firstday_afternoon/LiteOS_Lab_STM32_IoT/iot_link/oc/oc_mqtt/oc_mqtt_tiny_v5\oc_mqtt_tiny.c ****             {
 813:c:/Users/lenovo/Desktop/AIoT/first_day/firstday_afternoon/LiteOS_Lab_STM32_IoT/iot_link/oc/oc_mqtt/oc_mqtt_tiny_v5\oc_mqtt_tiny.c ****                  ret = en_oc_mqtt_err_subscribe;
 2625              		.loc 1 813 22
ARM GAS  C:\Users\lenovo\AppData\Local\Temp\cceHxmqh.s 			page 65


 2626 010c 0823     		movs	r3, #8
 2627 010e FB62     		str	r3, [r7, #44]
 814:c:/Users/lenovo/Desktop/AIoT/first_day/firstday_afternoon/LiteOS_Lab_STM32_IoT/iot_link/oc/oc_mqtt/oc_mqtt_tiny_v5\oc_mqtt_tiny.c ****                  break;
 2628              		.loc 1 814 18
 2629 0110 05E0     		b	.L114
 2630              	.L113:
 798:c:/Users/lenovo/Desktop/AIoT/first_day/firstday_afternoon/LiteOS_Lab_STM32_IoT/iot_link/oc/oc_mqtt/oc_mqtt_tiny_v5\oc_mqtt_tiny.c ****         {
 2631              		.loc 1 798 38 discriminator 2
 2632 0112 BB6A     		ldr	r3, [r7, #40]
 2633 0114 0133     		adds	r3, r3, #1
 2634 0116 BB62     		str	r3, [r7, #40]
 2635              	.L112:
 798:c:/Users/lenovo/Desktop/AIoT/first_day/firstday_afternoon/LiteOS_Lab_STM32_IoT/iot_link/oc/oc_mqtt/oc_mqtt_tiny_v5\oc_mqtt_tiny.c ****         {
 2636              		.loc 1 798 19 discriminator 1
 2637 0118 BB6A     		ldr	r3, [r7, #40]
 798:c:/Users/lenovo/Desktop/AIoT/first_day/firstday_afternoon/LiteOS_Lab_STM32_IoT/iot_link/oc/oc_mqtt/oc_mqtt_tiny_v5\oc_mqtt_tiny.c ****         {
 2638              		.loc 1 798 9 discriminator 1
 2639 011a 042B     		cmp	r3, #4
 2640 011c C9D9     		bls	.L115
 2641              	.L114:
 815:c:/Users/lenovo/Desktop/AIoT/first_day/firstday_afternoon/LiteOS_Lab_STM32_IoT/iot_link/oc/oc_mqtt/oc_mqtt_tiny_v5\oc_mqtt_tiny.c ****             }
 816:c:/Users/lenovo/Desktop/AIoT/first_day/firstday_afternoon/LiteOS_Lab_STM32_IoT/iot_link/oc/oc_mqtt/oc_mqtt_tiny_v5\oc_mqtt_tiny.c ****         }
 817:c:/Users/lenovo/Desktop/AIoT/first_day/firstday_afternoon/LiteOS_Lab_STM32_IoT/iot_link/oc/oc_mqtt/oc_mqtt_tiny_v5\oc_mqtt_tiny.c **** 
 818:c:/Users/lenovo/Desktop/AIoT/first_day/firstday_afternoon/LiteOS_Lab_STM32_IoT/iot_link/oc/oc_mqtt/oc_mqtt_tiny_v5\oc_mqtt_tiny.c ****         ///< subscribe the user topic
 819:c:/Users/lenovo/Desktop/AIoT/first_day/firstday_afternoon/LiteOS_Lab_STM32_IoT/iot_link/oc/oc_mqtt/oc_mqtt_tiny_v5\oc_mqtt_tiny.c ****         tiny_topic_sub_t  *topic_sub;
 820:c:/Users/lenovo/Desktop/AIoT/first_day/firstday_afternoon/LiteOS_Lab_STM32_IoT/iot_link/oc/oc_mqtt/oc_mqtt_tiny_v5\oc_mqtt_tiny.c ****         topic_sub = cb->subscribe_lst;
 2642              		.loc 1 820 19
 2643 011e 7B68     		ldr	r3, [r7, #4]
 2644 0120 D3F8A430 		ldr	r3, [r3, #164]
 2645 0124 7B62     		str	r3, [r7, #36]
 821:c:/Users/lenovo/Desktop/AIoT/first_day/firstday_afternoon/LiteOS_Lab_STM32_IoT/iot_link/oc/oc_mqtt/oc_mqtt_tiny_v5\oc_mqtt_tiny.c ****         while(NULL != topic_sub)
 2646              		.loc 1 821 14
 2647 0126 2CE0     		b	.L116
 2648              	.L117:
 822:c:/Users/lenovo/Desktop/AIoT/first_day/firstday_afternoon/LiteOS_Lab_STM32_IoT/iot_link/oc/oc_mqtt/oc_mqtt_tiny_v5\oc_mqtt_tiny.c ****         {
 823:c:/Users/lenovo/Desktop/AIoT/first_day/firstday_afternoon/LiteOS_Lab_STM32_IoT/iot_link/oc/oc_mqtt/oc_mqtt_tiny_v5\oc_mqtt_tiny.c ****             subpara.arg = cb;
 2649              		.loc 1 823 25
 2650 0128 7B68     		ldr	r3, [r7, #4]
 2651 012a BB61     		str	r3, [r7, #24]
 824:c:/Users/lenovo/Desktop/AIoT/first_day/firstday_afternoon/LiteOS_Lab_STM32_IoT/iot_link/oc/oc_mqtt/oc_mqtt_tiny_v5\oc_mqtt_tiny.c ****             subpara.qos = en_mqtt_al_qos_1;
 2652              		.loc 1 824 25
 2653 012c 0123     		movs	r3, #1
 2654 012e 3B74     		strb	r3, [r7, #16]
 825:c:/Users/lenovo/Desktop/AIoT/first_day/firstday_afternoon/LiteOS_Lab_STM32_IoT/iot_link/oc/oc_mqtt/oc_mqtt_tiny_v5\oc_mqtt_tiny.c ****             subpara.topic.data = topic_sub->topic ;
 2655              		.loc 1 825 43
 2656 0130 7B6A     		ldr	r3, [r7, #36]
 2657 0132 5B68     		ldr	r3, [r3, #4]
 2658              		.loc 1 825 32
 2659 0134 BB60     		str	r3, [r7, #8]
 826:c:/Users/lenovo/Desktop/AIoT/first_day/firstday_afternoon/LiteOS_Lab_STM32_IoT/iot_link/oc/oc_mqtt/oc_mqtt_tiny_v5\oc_mqtt_tiny.c ****             subpara.topic.len = strlen(subpara.topic.data );
 2660              		.loc 1 826 53
 2661 0136 BB68     		ldr	r3, [r7, #8]
 2662              		.loc 1 826 33
 2663 0138 1846     		mov	r0, r3
 2664 013a FFF7FEFF 		bl	strlen
 2665 013e 0346     		mov	r3, r0
 2666              		.loc 1 826 31
ARM GAS  C:\Users\lenovo\AppData\Local\Temp\cceHxmqh.s 			page 66


 2667 0140 FB60     		str	r3, [r7, #12]
 827:c:/Users/lenovo/Desktop/AIoT/first_day/firstday_afternoon/LiteOS_Lab_STM32_IoT/iot_link/oc/oc_mqtt/oc_mqtt_tiny_v5\oc_mqtt_tiny.c ****             subpara.timeout = CN_OC_MQTT_TIMEOUT;
 2668              		.loc 1 827 29
 2669 0142 42F21073 		movw	r3, #10000
 2670 0146 3B62     		str	r3, [r7, #32]
 828:c:/Users/lenovo/Desktop/AIoT/first_day/firstday_afternoon/LiteOS_Lab_STM32_IoT/iot_link/oc/oc_mqtt/oc_mqtt_tiny_v5\oc_mqtt_tiny.c **** 
 829:c:/Users/lenovo/Desktop/AIoT/first_day/firstday_afternoon/LiteOS_Lab_STM32_IoT/iot_link/oc/oc_mqtt/oc_mqtt_tiny_v5\oc_mqtt_tiny.c ****             printf("oc_mqtt_subscribe:topic:%s\n\r",subpara.topic.data);
 2671              		.loc 1 829 13
 2672 0148 BB68     		ldr	r3, [r7, #8]
 2673 014a 1946     		mov	r1, r3
 2674 014c 1648     		ldr	r0, .L119+20
 2675 014e FFF7FEFF 		bl	printf
 830:c:/Users/lenovo/Desktop/AIoT/first_day/firstday_afternoon/LiteOS_Lab_STM32_IoT/iot_link/oc/oc_mqtt/oc_mqtt_tiny_v5\oc_mqtt_tiny.c **** 
 831:c:/Users/lenovo/Desktop/AIoT/first_day/firstday_afternoon/LiteOS_Lab_STM32_IoT/iot_link/oc/oc_mqtt/oc_mqtt_tiny_v5\oc_mqtt_tiny.c ****             ret = mqtt_al_subscribe(cb->mqtt_para.mqtt_handle,&subpara);
 2676              		.loc 1 831 19
 2677 0152 7B68     		ldr	r3, [r7, #4]
 2678 0154 9B6E     		ldr	r3, [r3, #104]
 2679 0156 07F10802 		add	r2, r7, #8
 2680 015a 1146     		mov	r1, r2
 2681 015c 1846     		mov	r0, r3
 2682 015e FFF7FEFF 		bl	mqtt_al_subscribe
 2683 0162 F862     		str	r0, [r7, #44]
 832:c:/Users/lenovo/Desktop/AIoT/first_day/firstday_afternoon/LiteOS_Lab_STM32_IoT/iot_link/oc/oc_mqtt/oc_mqtt_tiny_v5\oc_mqtt_tiny.c **** 
 833:c:/Users/lenovo/Desktop/AIoT/first_day/firstday_afternoon/LiteOS_Lab_STM32_IoT/iot_link/oc/oc_mqtt/oc_mqtt_tiny_v5\oc_mqtt_tiny.c ****             printf("oc_mqtt_subscribe:retcode:%d:%s\n\r",ret,oc_mqtt_err(ret));
 2684              		.loc 1 833 13
 2685 0164 F86A     		ldr	r0, [r7, #44]
 2686 0166 FFF7FEFF 		bl	oc_mqtt_err
 2687 016a 0346     		mov	r3, r0
 2688 016c 1A46     		mov	r2, r3
 2689 016e F96A     		ldr	r1, [r7, #44]
 2690 0170 0E48     		ldr	r0, .L119+24
 2691 0172 FFF7FEFF 		bl	printf
 834:c:/Users/lenovo/Desktop/AIoT/first_day/firstday_afternoon/LiteOS_Lab_STM32_IoT/iot_link/oc/oc_mqtt/oc_mqtt_tiny_v5\oc_mqtt_tiny.c ****             if(0 != ret)
 2692              		.loc 1 834 15
 2693 0176 FB6A     		ldr	r3, [r7, #44]
 2694 0178 002B     		cmp	r3, #0
 2695 017a 02D0     		beq	.L116
 835:c:/Users/lenovo/Desktop/AIoT/first_day/firstday_afternoon/LiteOS_Lab_STM32_IoT/iot_link/oc/oc_mqtt/oc_mqtt_tiny_v5\oc_mqtt_tiny.c ****             {
 836:c:/Users/lenovo/Desktop/AIoT/first_day/firstday_afternoon/LiteOS_Lab_STM32_IoT/iot_link/oc/oc_mqtt/oc_mqtt_tiny_v5\oc_mqtt_tiny.c ****                  ret = en_oc_mqtt_err_subscribe;
 2696              		.loc 1 836 22
 2697 017c 0823     		movs	r3, #8
 2698 017e FB62     		str	r3, [r7, #44]
 837:c:/Users/lenovo/Desktop/AIoT/first_day/firstday_afternoon/LiteOS_Lab_STM32_IoT/iot_link/oc/oc_mqtt/oc_mqtt_tiny_v5\oc_mqtt_tiny.c ****                  break;
 2699              		.loc 1 837 18
 2700 0180 02E0     		b	.L111
 2701              	.L116:
 821:c:/Users/lenovo/Desktop/AIoT/first_day/firstday_afternoon/LiteOS_Lab_STM32_IoT/iot_link/oc/oc_mqtt/oc_mqtt_tiny_v5\oc_mqtt_tiny.c ****         {
 2702              		.loc 1 821 14
 2703 0182 7B6A     		ldr	r3, [r7, #36]
 2704 0184 002B     		cmp	r3, #0
 2705 0186 CFD1     		bne	.L117
 2706              	.L111:
 2707              	.LBE2:
 838:c:/Users/lenovo/Desktop/AIoT/first_day/firstday_afternoon/LiteOS_Lab_STM32_IoT/iot_link/oc/oc_mqtt/oc_mqtt_tiny_v5\oc_mqtt_tiny.c ****             }
 839:c:/Users/lenovo/Desktop/AIoT/first_day/firstday_afternoon/LiteOS_Lab_STM32_IoT/iot_link/oc/oc_mqtt/oc_mqtt_tiny_v5\oc_mqtt_tiny.c ****         }
 840:c:/Users/lenovo/Desktop/AIoT/first_day/firstday_afternoon/LiteOS_Lab_STM32_IoT/iot_link/oc/oc_mqtt/oc_mqtt_tiny_v5\oc_mqtt_tiny.c ****     }
 841:c:/Users/lenovo/Desktop/AIoT/first_day/firstday_afternoon/LiteOS_Lab_STM32_IoT/iot_link/oc/oc_mqtt/oc_mqtt_tiny_v5\oc_mqtt_tiny.c **** 
ARM GAS  C:\Users\lenovo\AppData\Local\Temp\cceHxmqh.s 			page 67


 842:c:/Users/lenovo/Desktop/AIoT/first_day/firstday_afternoon/LiteOS_Lab_STM32_IoT/iot_link/oc/oc_mqtt/oc_mqtt_tiny_v5\oc_mqtt_tiny.c ****     return ret;
 2708              		.loc 1 842 12
 2709 0188 FB6A     		ldr	r3, [r7, #44]
 843:c:/Users/lenovo/Desktop/AIoT/first_day/firstday_afternoon/LiteOS_Lab_STM32_IoT/iot_link/oc/oc_mqtt/oc_mqtt_tiny_v5\oc_mqtt_tiny.c **** }
 2710              		.loc 1 843 1
 2711 018a 1846     		mov	r0, r3
 2712 018c 3037     		adds	r7, r7, #48
 2713              	.LCFI53:
 2714              		.cfi_def_cfa_offset 8
 2715 018e BD46     		mov	sp, r7
 2716              	.LCFI54:
 2717              		.cfi_def_cfa_register 13
 2718              		@ sp needed
 2719 0190 80BD     		pop	{r7, pc}
 2720              	.L120:
 2721 0192 00BF     		.align	2
 2722              	.L119:
 2723 0194 6C020000 		.word	.LC25
 2724 0198 00000000 		.word	bs_msg_default_deal
 2725 019c 00000000 		.word	hub_msg_default_deal
 2726 01a0 88020000 		.word	.LC26
 2727 01a4 B0020000 		.word	.LC27
 2728 01a8 DC020000 		.word	.LC28
 2729 01ac FC020000 		.word	.LC29
 2730              		.cfi_endproc
 2731              	.LFE13:
 2733              		.section	.rodata
 2734 031e 0000     		.align	2
 2735              	.LC30:
 2736 0320 6F635F6D 		.ascii	"oc_mqtt_publish:topic:%s  qos:%d msglen:%d\012\015\000"
 2736      7174745F 
 2736      7075626C 
 2736      6973683A 
 2736      746F7069 
 2737 034d 000000   		.align	2
 2738              	.LC31:
 2739 0350 4641494C 		.ascii	"FAIL\000"
 2739      00
 2740 0355 000000   		.align	2
 2741              	.LC32:
 2742 0358 6F635F6D 		.ascii	"oc_mqtt_publish:retcode:%d:%s\012\015\000"
 2742      7174745F 
 2742      7075626C 
 2742      6973683A 
 2742      72657463 
 2743              		.section	.text.dmp_publish,"ax",%progbits
 2744              		.align	1
 2745              		.syntax unified
 2746              		.thumb
 2747              		.thumb_func
 2748              		.fpu fpv4-sp-d16
 2750              	dmp_publish:
 2751              	.LFB14:
 844:c:/Users/lenovo/Desktop/AIoT/first_day/firstday_afternoon/LiteOS_Lab_STM32_IoT/iot_link/oc/oc_mqtt/oc_mqtt_tiny_v5\oc_mqtt_tiny.c **** 
 845:c:/Users/lenovo/Desktop/AIoT/first_day/firstday_afternoon/LiteOS_Lab_STM32_IoT/iot_link/oc/oc_mqtt/oc_mqtt_tiny_v5\oc_mqtt_tiny.c **** static int dmp_publish(oc_mqtt_tiny_cb_t *cb,char *topic, uint8_t *msg, int len, int qos)
 846:c:/Users/lenovo/Desktop/AIoT/first_day/firstday_afternoon/LiteOS_Lab_STM32_IoT/iot_link/oc/oc_mqtt/oc_mqtt_tiny_v5\oc_mqtt_tiny.c **** {
 2752              		.loc 1 846 1
ARM GAS  C:\Users\lenovo\AppData\Local\Temp\cceHxmqh.s 			page 68


 2753              		.cfi_startproc
 2754              		@ args = 4, pretend = 0, frame = 48
 2755              		@ frame_needed = 1, uses_anonymous_args = 0
 2756 0000 80B5     		push	{r7, lr}
 2757              	.LCFI55:
 2758              		.cfi_def_cfa_offset 8
 2759              		.cfi_offset 7, -8
 2760              		.cfi_offset 14, -4
 2761 0002 8CB0     		sub	sp, sp, #48
 2762              	.LCFI56:
 2763              		.cfi_def_cfa_offset 56
 2764 0004 00AF     		add	r7, sp, #0
 2765              	.LCFI57:
 2766              		.cfi_def_cfa_register 7
 2767 0006 F860     		str	r0, [r7, #12]
 2768 0008 B960     		str	r1, [r7, #8]
 2769 000a 7A60     		str	r2, [r7, #4]
 2770 000c 3B60     		str	r3, [r7]
 847:c:/Users/lenovo/Desktop/AIoT/first_day/firstday_afternoon/LiteOS_Lab_STM32_IoT/iot_link/oc/oc_mqtt/oc_mqtt_tiny_v5\oc_mqtt_tiny.c ****     int  ret = en_oc_mqtt_err_system;
 2771              		.loc 1 847 10
 2772 000e 1023     		movs	r3, #16
 2773 0010 FB62     		str	r3, [r7, #44]
 848:c:/Users/lenovo/Desktop/AIoT/first_day/firstday_afternoon/LiteOS_Lab_STM32_IoT/iot_link/oc/oc_mqtt/oc_mqtt_tiny_v5\oc_mqtt_tiny.c ****     mqtt_al_pubpara_t pubpara;
 849:c:/Users/lenovo/Desktop/AIoT/first_day/firstday_afternoon/LiteOS_Lab_STM32_IoT/iot_link/oc/oc_mqtt/oc_mqtt_tiny_v5\oc_mqtt_tiny.c **** 
 850:c:/Users/lenovo/Desktop/AIoT/first_day/firstday_afternoon/LiteOS_Lab_STM32_IoT/iot_link/oc/oc_mqtt/oc_mqtt_tiny_v5\oc_mqtt_tiny.c **** 
 851:c:/Users/lenovo/Desktop/AIoT/first_day/firstday_afternoon/LiteOS_Lab_STM32_IoT/iot_link/oc/oc_mqtt/oc_mqtt_tiny_v5\oc_mqtt_tiny.c ****     ///< pub the mqtt request
 852:c:/Users/lenovo/Desktop/AIoT/first_day/firstday_afternoon/LiteOS_Lab_STM32_IoT/iot_link/oc/oc_mqtt/oc_mqtt_tiny_v5\oc_mqtt_tiny.c ****     memset(&pubpara, 0, sizeof(pubpara));
 2774              		.loc 1 852 5
 2775 0012 07F11003 		add	r3, r7, #16
 2776 0016 1C22     		movs	r2, #28
 2777 0018 0021     		movs	r1, #0
 2778 001a 1846     		mov	r0, r3
 2779 001c FFF7FEFF 		bl	memset
 853:c:/Users/lenovo/Desktop/AIoT/first_day/firstday_afternoon/LiteOS_Lab_STM32_IoT/iot_link/oc/oc_mqtt/oc_mqtt_tiny_v5\oc_mqtt_tiny.c ****     pubpara.qos = qos;
 2780              		.loc 1 853 17
 2781 0020 BB6B     		ldr	r3, [r7, #56]
 2782 0022 DBB2     		uxtb	r3, r3
 2783 0024 87F82030 		strb	r3, [r7, #32]
 854:c:/Users/lenovo/Desktop/AIoT/first_day/firstday_afternoon/LiteOS_Lab_STM32_IoT/iot_link/oc/oc_mqtt/oc_mqtt_tiny_v5\oc_mqtt_tiny.c ****     pubpara.retain = 0;
 2784              		.loc 1 854 20
 2785 0028 0023     		movs	r3, #0
 2786 002a 7B62     		str	r3, [r7, #36]
 855:c:/Users/lenovo/Desktop/AIoT/first_day/firstday_afternoon/LiteOS_Lab_STM32_IoT/iot_link/oc/oc_mqtt/oc_mqtt_tiny_v5\oc_mqtt_tiny.c ****     pubpara.timeout = 1000;
 2787              		.loc 1 855 21
 2788 002c 4FF47A73 		mov	r3, #1000
 2789 0030 BB62     		str	r3, [r7, #40]
 856:c:/Users/lenovo/Desktop/AIoT/first_day/firstday_afternoon/LiteOS_Lab_STM32_IoT/iot_link/oc/oc_mqtt/oc_mqtt_tiny_v5\oc_mqtt_tiny.c **** 
 857:c:/Users/lenovo/Desktop/AIoT/first_day/firstday_afternoon/LiteOS_Lab_STM32_IoT/iot_link/oc/oc_mqtt/oc_mqtt_tiny_v5\oc_mqtt_tiny.c ****     if(NULL == topic)
 2790              		.loc 1 857 7
 2791 0032 BB68     		ldr	r3, [r7, #8]
 2792 0034 002B     		cmp	r3, #0
 2793 0036 02D1     		bne	.L122
 858:c:/Users/lenovo/Desktop/AIoT/first_day/firstday_afternoon/LiteOS_Lab_STM32_IoT/iot_link/oc/oc_mqtt/oc_mqtt_tiny_v5\oc_mqtt_tiny.c ****     {
 859:c:/Users/lenovo/Desktop/AIoT/first_day/firstday_afternoon/LiteOS_Lab_STM32_IoT/iot_link/oc/oc_mqtt/oc_mqtt_tiny_v5\oc_mqtt_tiny.c ****         topic = cb->mqtt_para.default_pub_topic;
 2794              		.loc 1 859 15
 2795 0038 FB68     		ldr	r3, [r7, #12]
 2796 003a DB6D     		ldr	r3, [r3, #92]
ARM GAS  C:\Users\lenovo\AppData\Local\Temp\cceHxmqh.s 			page 69


 2797 003c BB60     		str	r3, [r7, #8]
 2798              	.L122:
 860:c:/Users/lenovo/Desktop/AIoT/first_day/firstday_afternoon/LiteOS_Lab_STM32_IoT/iot_link/oc/oc_mqtt/oc_mqtt_tiny_v5\oc_mqtt_tiny.c ****     }
 861:c:/Users/lenovo/Desktop/AIoT/first_day/firstday_afternoon/LiteOS_Lab_STM32_IoT/iot_link/oc/oc_mqtt/oc_mqtt_tiny_v5\oc_mqtt_tiny.c **** 
 862:c:/Users/lenovo/Desktop/AIoT/first_day/firstday_afternoon/LiteOS_Lab_STM32_IoT/iot_link/oc/oc_mqtt/oc_mqtt_tiny_v5\oc_mqtt_tiny.c ****     pubpara.topic.data = topic;
 2799              		.loc 1 862 24
 2800 003e BB68     		ldr	r3, [r7, #8]
 2801 0040 3B61     		str	r3, [r7, #16]
 863:c:/Users/lenovo/Desktop/AIoT/first_day/firstday_afternoon/LiteOS_Lab_STM32_IoT/iot_link/oc/oc_mqtt/oc_mqtt_tiny_v5\oc_mqtt_tiny.c ****     pubpara.topic.len =strlen(pubpara.topic.data );
 2802              		.loc 1 863 44
 2803 0042 3B69     		ldr	r3, [r7, #16]
 2804              		.loc 1 863 24
 2805 0044 1846     		mov	r0, r3
 2806 0046 FFF7FEFF 		bl	strlen
 2807 004a 0346     		mov	r3, r0
 2808              		.loc 1 863 23
 2809 004c 7B61     		str	r3, [r7, #20]
 864:c:/Users/lenovo/Desktop/AIoT/first_day/firstday_afternoon/LiteOS_Lab_STM32_IoT/iot_link/oc/oc_mqtt/oc_mqtt_tiny_v5\oc_mqtt_tiny.c ****     pubpara.msg.data = (char *)msg;
 2810              		.loc 1 864 22
 2811 004e 7B68     		ldr	r3, [r7, #4]
 2812 0050 BB61     		str	r3, [r7, #24]
 865:c:/Users/lenovo/Desktop/AIoT/first_day/firstday_afternoon/LiteOS_Lab_STM32_IoT/iot_link/oc/oc_mqtt/oc_mqtt_tiny_v5\oc_mqtt_tiny.c ****     pubpara.msg.len = len;
 2813              		.loc 1 865 21
 2814 0052 3B68     		ldr	r3, [r7]
 2815 0054 FB61     		str	r3, [r7, #28]
 866:c:/Users/lenovo/Desktop/AIoT/first_day/firstday_afternoon/LiteOS_Lab_STM32_IoT/iot_link/oc/oc_mqtt/oc_mqtt_tiny_v5\oc_mqtt_tiny.c **** 
 867:c:/Users/lenovo/Desktop/AIoT/first_day/firstday_afternoon/LiteOS_Lab_STM32_IoT/iot_link/oc/oc_mqtt/oc_mqtt_tiny_v5\oc_mqtt_tiny.c ****     printf("oc_mqtt_publish:topic:%s  qos:%d msglen:%d\n\r",topic,qos,len);
 2816              		.loc 1 867 5
 2817 0056 3B68     		ldr	r3, [r7]
 2818 0058 BA6B     		ldr	r2, [r7, #56]
 2819 005a B968     		ldr	r1, [r7, #8]
 2820 005c 1048     		ldr	r0, .L127
 2821 005e FFF7FEFF 		bl	printf
 868:c:/Users/lenovo/Desktop/AIoT/first_day/firstday_afternoon/LiteOS_Lab_STM32_IoT/iot_link/oc/oc_mqtt/oc_mqtt_tiny_v5\oc_mqtt_tiny.c **** 
 869:c:/Users/lenovo/Desktop/AIoT/first_day/firstday_afternoon/LiteOS_Lab_STM32_IoT/iot_link/oc/oc_mqtt/oc_mqtt_tiny_v5\oc_mqtt_tiny.c ****     ret = mqtt_al_publish(cb->mqtt_para.mqtt_handle, &pubpara);
 2822              		.loc 1 869 11
 2823 0062 FB68     		ldr	r3, [r7, #12]
 2824 0064 9B6E     		ldr	r3, [r3, #104]
 2825 0066 07F11002 		add	r2, r7, #16
 2826 006a 1146     		mov	r1, r2
 2827 006c 1846     		mov	r0, r3
 2828 006e FFF7FEFF 		bl	mqtt_al_publish
 2829 0072 F862     		str	r0, [r7, #44]
 870:c:/Users/lenovo/Desktop/AIoT/first_day/firstday_afternoon/LiteOS_Lab_STM32_IoT/iot_link/oc/oc_mqtt/oc_mqtt_tiny_v5\oc_mqtt_tiny.c ****     if(ret != 0)
 2830              		.loc 1 870 7
 2831 0074 FB6A     		ldr	r3, [r7, #44]
 2832 0076 002B     		cmp	r3, #0
 2833 0078 01D0     		beq	.L123
 871:c:/Users/lenovo/Desktop/AIoT/first_day/firstday_afternoon/LiteOS_Lab_STM32_IoT/iot_link/oc/oc_mqtt/oc_mqtt_tiny_v5\oc_mqtt_tiny.c ****     {
 872:c:/Users/lenovo/Desktop/AIoT/first_day/firstday_afternoon/LiteOS_Lab_STM32_IoT/iot_link/oc/oc_mqtt/oc_mqtt_tiny_v5\oc_mqtt_tiny.c ****         ret = en_oc_mqtt_err_publish;
 2834              		.loc 1 872 13
 2835 007a 0A23     		movs	r3, #10
 2836 007c FB62     		str	r3, [r7, #44]
 2837              	.L123:
 873:c:/Users/lenovo/Desktop/AIoT/first_day/firstday_afternoon/LiteOS_Lab_STM32_IoT/iot_link/oc/oc_mqtt/oc_mqtt_tiny_v5\oc_mqtt_tiny.c ****     }
 874:c:/Users/lenovo/Desktop/AIoT/first_day/firstday_afternoon/LiteOS_Lab_STM32_IoT/iot_link/oc/oc_mqtt/oc_mqtt_tiny_v5\oc_mqtt_tiny.c ****     printf("oc_mqtt_publish:retcode:%d:%s\n\r",ret,ret==0?"SUCCESS":"FAIL");
 2838              		.loc 1 874 5
ARM GAS  C:\Users\lenovo\AppData\Local\Temp\cceHxmqh.s 			page 70


 2839 007e FB6A     		ldr	r3, [r7, #44]
 2840 0080 002B     		cmp	r3, #0
 2841 0082 01D1     		bne	.L124
 2842              		.loc 1 874 5 is_stmt 0 discriminator 1
 2843 0084 074B     		ldr	r3, .L127+4
 2844 0086 00E0     		b	.L125
 2845              	.L124:
 2846              		.loc 1 874 5 discriminator 2
 2847 0088 074B     		ldr	r3, .L127+8
 2848              	.L125:
 2849              		.loc 1 874 5 discriminator 4
 2850 008a 1A46     		mov	r2, r3
 2851 008c F96A     		ldr	r1, [r7, #44]
 2852 008e 0748     		ldr	r0, .L127+12
 2853 0090 FFF7FEFF 		bl	printf
 875:c:/Users/lenovo/Desktop/AIoT/first_day/firstday_afternoon/LiteOS_Lab_STM32_IoT/iot_link/oc/oc_mqtt/oc_mqtt_tiny_v5\oc_mqtt_tiny.c ****     return ret;
 2854              		.loc 1 875 12 is_stmt 1 discriminator 4
 2855 0094 FB6A     		ldr	r3, [r7, #44]
 876:c:/Users/lenovo/Desktop/AIoT/first_day/firstday_afternoon/LiteOS_Lab_STM32_IoT/iot_link/oc/oc_mqtt/oc_mqtt_tiny_v5\oc_mqtt_tiny.c **** }
 2856              		.loc 1 876 1 discriminator 4
 2857 0096 1846     		mov	r0, r3
 2858 0098 3037     		adds	r7, r7, #48
 2859              	.LCFI58:
 2860              		.cfi_def_cfa_offset 8
 2861 009a BD46     		mov	sp, r7
 2862              	.LCFI59:
 2863              		.cfi_def_cfa_register 13
 2864              		@ sp needed
 2865 009c 80BD     		pop	{r7, pc}
 2866              	.L128:
 2867 009e 00BF     		.align	2
 2868              	.L127:
 2869 00a0 20030000 		.word	.LC30
 2870 00a4 3C020000 		.word	.LC22
 2871 00a8 50030000 		.word	.LC31
 2872 00ac 58030000 		.word	.LC32
 2873              		.cfi_endproc
 2874              	.LFE14:
 2876              		.section	.rodata
 2877              		.align	2
 2878              	.LC33:
 2879 0378 25733A65 		.ascii	"%s:enter\012\015\000"
 2879      6E746572 
 2879      0A0D00
 2880 0383 00       		.align	2
 2881              	.LC34:
 2882 0384 25733A6F 		.ascii	"%s:ok exit\012\015\000"
 2882      6B206578 
 2882      69740A0D 
 2882      00
 2883 0391 000000   		.align	2
 2884              	.LC35:
 2885 0394 25733A65 		.ascii	"%s:err:%d \012\015\000"
 2885      72723A25 
 2885      64200A0D 
 2885      00
 2886              		.section	.text.hub_step,"ax",%progbits
ARM GAS  C:\Users\lenovo\AppData\Local\Temp\cceHxmqh.s 			page 71


 2887              		.align	1
 2888              		.syntax unified
 2889              		.thumb
 2890              		.thumb_func
 2891              		.fpu fpv4-sp-d16
 2893              	hub_step:
 2894              	.LFB15:
 877:c:/Users/lenovo/Desktop/AIoT/first_day/firstday_afternoon/LiteOS_Lab_STM32_IoT/iot_link/oc/oc_mqtt/oc_mqtt_tiny_v5\oc_mqtt_tiny.c **** static int hub_step(oc_mqtt_tiny_cb_t  *cb)
 878:c:/Users/lenovo/Desktop/AIoT/first_day/firstday_afternoon/LiteOS_Lab_STM32_IoT/iot_link/oc/oc_mqtt/oc_mqtt_tiny_v5\oc_mqtt_tiny.c **** {
 2895              		.loc 1 878 1
 2896              		.cfi_startproc
 2897              		@ args = 0, pretend = 0, frame = 16
 2898              		@ frame_needed = 1, uses_anonymous_args = 0
 2899 0000 80B5     		push	{r7, lr}
 2900              	.LCFI60:
 2901              		.cfi_def_cfa_offset 8
 2902              		.cfi_offset 7, -8
 2903              		.cfi_offset 14, -4
 2904 0002 84B0     		sub	sp, sp, #16
 2905              	.LCFI61:
 2906              		.cfi_def_cfa_offset 24
 2907 0004 00AF     		add	r7, sp, #0
 2908              	.LCFI62:
 2909              		.cfi_def_cfa_register 7
 2910 0006 7860     		str	r0, [r7, #4]
 879:c:/Users/lenovo/Desktop/AIoT/first_day/firstday_afternoon/LiteOS_Lab_STM32_IoT/iot_link/oc/oc_mqtt/oc_mqtt_tiny_v5\oc_mqtt_tiny.c ****     int ret = en_oc_mqtt_err_system;
 2911              		.loc 1 879 9
 2912 0008 1023     		movs	r3, #16
 2913 000a FB60     		str	r3, [r7, #12]
 880:c:/Users/lenovo/Desktop/AIoT/first_day/firstday_afternoon/LiteOS_Lab_STM32_IoT/iot_link/oc/oc_mqtt/oc_mqtt_tiny_v5\oc_mqtt_tiny.c **** 
 881:c:/Users/lenovo/Desktop/AIoT/first_day/firstday_afternoon/LiteOS_Lab_STM32_IoT/iot_link/oc/oc_mqtt/oc_mqtt_tiny_v5\oc_mqtt_tiny.c ****     printf("%s:enter\n\r",__FUNCTION__);
 2914              		.loc 1 881 5
 2915 000c 1749     		ldr	r1, .L138
 2916 000e 1848     		ldr	r0, .L138+4
 2917 0010 FFF7FEFF 		bl	printf
 882:c:/Users/lenovo/Desktop/AIoT/first_day/firstday_afternoon/LiteOS_Lab_STM32_IoT/iot_link/oc/oc_mqtt/oc_mqtt_tiny_v5\oc_mqtt_tiny.c ****     if(en_oc_mqtt_err_ok != oc_mqtt_para_gernerate(cb))
 2918              		.loc 1 882 29
 2919 0014 7868     		ldr	r0, [r7, #4]
 2920 0016 FFF7FEFF 		bl	oc_mqtt_para_gernerate
 2921 001a 0346     		mov	r3, r0
 2922              		.loc 1 882 7
 2923 001c 002B     		cmp	r3, #0
 2924 001e 13D1     		bne	.L135
 883:c:/Users/lenovo/Desktop/AIoT/first_day/firstday_afternoon/LiteOS_Lab_STM32_IoT/iot_link/oc/oc_mqtt/oc_mqtt_tiny_v5\oc_mqtt_tiny.c ****     {
 884:c:/Users/lenovo/Desktop/AIoT/first_day/firstday_afternoon/LiteOS_Lab_STM32_IoT/iot_link/oc/oc_mqtt/oc_mqtt_tiny_v5\oc_mqtt_tiny.c ****         goto EXIT_ERR;
 885:c:/Users/lenovo/Desktop/AIoT/first_day/firstday_afternoon/LiteOS_Lab_STM32_IoT/iot_link/oc/oc_mqtt/oc_mqtt_tiny_v5\oc_mqtt_tiny.c ****     }
 886:c:/Users/lenovo/Desktop/AIoT/first_day/firstday_afternoon/LiteOS_Lab_STM32_IoT/iot_link/oc/oc_mqtt/oc_mqtt_tiny_v5\oc_mqtt_tiny.c **** 
 887:c:/Users/lenovo/Desktop/AIoT/first_day/firstday_afternoon/LiteOS_Lab_STM32_IoT/iot_link/oc/oc_mqtt/oc_mqtt_tiny_v5\oc_mqtt_tiny.c ****     ret = dmp_connect(cb);
 2925              		.loc 1 887 11
 2926 0020 7868     		ldr	r0, [r7, #4]
 2927 0022 FFF7FEFF 		bl	dmp_connect
 2928 0026 F860     		str	r0, [r7, #12]
 888:c:/Users/lenovo/Desktop/AIoT/first_day/firstday_afternoon/LiteOS_Lab_STM32_IoT/iot_link/oc/oc_mqtt/oc_mqtt_tiny_v5\oc_mqtt_tiny.c ****     if(en_oc_mqtt_err_ok != ret)
 2929              		.loc 1 888 7
 2930 0028 FB68     		ldr	r3, [r7, #12]
 2931 002a 002B     		cmp	r3, #0
 2932 002c 0ED1     		bne	.L136
ARM GAS  C:\Users\lenovo\AppData\Local\Temp\cceHxmqh.s 			page 72


 889:c:/Users/lenovo/Desktop/AIoT/first_day/firstday_afternoon/LiteOS_Lab_STM32_IoT/iot_link/oc/oc_mqtt/oc_mqtt_tiny_v5\oc_mqtt_tiny.c ****     {
 890:c:/Users/lenovo/Desktop/AIoT/first_day/firstday_afternoon/LiteOS_Lab_STM32_IoT/iot_link/oc/oc_mqtt/oc_mqtt_tiny_v5\oc_mqtt_tiny.c ****        goto EXIT_ERR;
 891:c:/Users/lenovo/Desktop/AIoT/first_day/firstday_afternoon/LiteOS_Lab_STM32_IoT/iot_link/oc/oc_mqtt/oc_mqtt_tiny_v5\oc_mqtt_tiny.c ****     }
 892:c:/Users/lenovo/Desktop/AIoT/first_day/firstday_afternoon/LiteOS_Lab_STM32_IoT/iot_link/oc/oc_mqtt/oc_mqtt_tiny_v5\oc_mqtt_tiny.c ****     ///< subscribe the topic here
 893:c:/Users/lenovo/Desktop/AIoT/first_day/firstday_afternoon/LiteOS_Lab_STM32_IoT/iot_link/oc/oc_mqtt/oc_mqtt_tiny_v5\oc_mqtt_tiny.c ****     ret = dmp_subscribe(cb);
 2933              		.loc 1 893 11
 2934 002e 7868     		ldr	r0, [r7, #4]
 2935 0030 FFF7FEFF 		bl	dmp_subscribe
 2936 0034 F860     		str	r0, [r7, #12]
 894:c:/Users/lenovo/Desktop/AIoT/first_day/firstday_afternoon/LiteOS_Lab_STM32_IoT/iot_link/oc/oc_mqtt/oc_mqtt_tiny_v5\oc_mqtt_tiny.c ****     if(ret  != en_oc_mqtt_err_ok)
 2937              		.loc 1 894 7
 2938 0036 FB68     		ldr	r3, [r7, #12]
 2939 0038 002B     		cmp	r3, #0
 2940 003a 09D1     		bne	.L137
 895:c:/Users/lenovo/Desktop/AIoT/first_day/firstday_afternoon/LiteOS_Lab_STM32_IoT/iot_link/oc/oc_mqtt/oc_mqtt_tiny_v5\oc_mqtt_tiny.c ****     {
 896:c:/Users/lenovo/Desktop/AIoT/first_day/firstday_afternoon/LiteOS_Lab_STM32_IoT/iot_link/oc/oc_mqtt/oc_mqtt_tiny_v5\oc_mqtt_tiny.c ****         goto EXIT_ERR;
 897:c:/Users/lenovo/Desktop/AIoT/first_day/firstday_afternoon/LiteOS_Lab_STM32_IoT/iot_link/oc/oc_mqtt/oc_mqtt_tiny_v5\oc_mqtt_tiny.c ****     }
 898:c:/Users/lenovo/Desktop/AIoT/first_day/firstday_afternoon/LiteOS_Lab_STM32_IoT/iot_link/oc/oc_mqtt/oc_mqtt_tiny_v5\oc_mqtt_tiny.c **** 
 899:c:/Users/lenovo/Desktop/AIoT/first_day/firstday_afternoon/LiteOS_Lab_STM32_IoT/iot_link/oc/oc_mqtt/oc_mqtt_tiny_v5\oc_mqtt_tiny.c ****     printf("%s:ok exit\n\r",__FUNCTION__);
 2941              		.loc 1 899 5
 2942 003c 0B49     		ldr	r1, .L138
 2943 003e 0D48     		ldr	r0, .L138+8
 2944 0040 FFF7FEFF 		bl	printf
 900:c:/Users/lenovo/Desktop/AIoT/first_day/firstday_afternoon/LiteOS_Lab_STM32_IoT/iot_link/oc/oc_mqtt/oc_mqtt_tiny_v5\oc_mqtt_tiny.c ****     return ret;
 2945              		.loc 1 900 12
 2946 0044 FB68     		ldr	r3, [r7, #12]
 2947 0046 0DE0     		b	.L134
 2948              	.L135:
 884:c:/Users/lenovo/Desktop/AIoT/first_day/firstday_afternoon/LiteOS_Lab_STM32_IoT/iot_link/oc/oc_mqtt/oc_mqtt_tiny_v5\oc_mqtt_tiny.c ****     }
 2949              		.loc 1 884 9
 2950 0048 00BF     		nop
 2951 004a 02E0     		b	.L131
 2952              	.L136:
 890:c:/Users/lenovo/Desktop/AIoT/first_day/firstday_afternoon/LiteOS_Lab_STM32_IoT/iot_link/oc/oc_mqtt/oc_mqtt_tiny_v5\oc_mqtt_tiny.c ****     }
 2953              		.loc 1 890 8
 2954 004c 00BF     		nop
 2955 004e 00E0     		b	.L131
 2956              	.L137:
 896:c:/Users/lenovo/Desktop/AIoT/first_day/firstday_afternoon/LiteOS_Lab_STM32_IoT/iot_link/oc/oc_mqtt/oc_mqtt_tiny_v5\oc_mqtt_tiny.c ****     }
 2957              		.loc 1 896 9
 2958 0050 00BF     		nop
 2959              	.L131:
 901:c:/Users/lenovo/Desktop/AIoT/first_day/firstday_afternoon/LiteOS_Lab_STM32_IoT/iot_link/oc/oc_mqtt/oc_mqtt_tiny_v5\oc_mqtt_tiny.c **** 
 902:c:/Users/lenovo/Desktop/AIoT/first_day/firstday_afternoon/LiteOS_Lab_STM32_IoT/iot_link/oc/oc_mqtt/oc_mqtt_tiny_v5\oc_mqtt_tiny.c **** EXIT_ERR:
 903:c:/Users/lenovo/Desktop/AIoT/first_day/firstday_afternoon/LiteOS_Lab_STM32_IoT/iot_link/oc/oc_mqtt/oc_mqtt_tiny_v5\oc_mqtt_tiny.c ****     oc_mqtt_para_release(cb);
 2960              		.loc 1 903 5
 2961 0052 7868     		ldr	r0, [r7, #4]
 2962 0054 FFF7FEFF 		bl	oc_mqtt_para_release
 904:c:/Users/lenovo/Desktop/AIoT/first_day/firstday_afternoon/LiteOS_Lab_STM32_IoT/iot_link/oc/oc_mqtt/oc_mqtt_tiny_v5\oc_mqtt_tiny.c ****     printf("%s:err:%d \n\r",__FUNCTION__,ret);
 2963              		.loc 1 904 5
 2964 0058 FA68     		ldr	r2, [r7, #12]
 2965 005a 0449     		ldr	r1, .L138
 2966 005c 0648     		ldr	r0, .L138+12
 2967 005e FFF7FEFF 		bl	printf
 905:c:/Users/lenovo/Desktop/AIoT/first_day/firstday_afternoon/LiteOS_Lab_STM32_IoT/iot_link/oc/oc_mqtt/oc_mqtt_tiny_v5\oc_mqtt_tiny.c ****     return ret;
 2968              		.loc 1 905 12
 2969 0062 FB68     		ldr	r3, [r7, #12]
ARM GAS  C:\Users\lenovo\AppData\Local\Temp\cceHxmqh.s 			page 73


 2970              	.L134:
 906:c:/Users/lenovo/Desktop/AIoT/first_day/firstday_afternoon/LiteOS_Lab_STM32_IoT/iot_link/oc/oc_mqtt/oc_mqtt_tiny_v5\oc_mqtt_tiny.c **** 
 907:c:/Users/lenovo/Desktop/AIoT/first_day/firstday_afternoon/LiteOS_Lab_STM32_IoT/iot_link/oc/oc_mqtt/oc_mqtt_tiny_v5\oc_mqtt_tiny.c **** }
 2971              		.loc 1 907 1
 2972 0064 1846     		mov	r0, r3
 2973 0066 1037     		adds	r7, r7, #16
 2974              	.LCFI63:
 2975              		.cfi_def_cfa_offset 8
 2976 0068 BD46     		mov	sp, r7
 2977              	.LCFI64:
 2978              		.cfi_def_cfa_register 13
 2979              		@ sp needed
 2980 006a 80BD     		pop	{r7, pc}
 2981              	.L139:
 2982              		.align	2
 2983              	.L138:
 2984 006c 00000000 		.word	__FUNCTION__.8239
 2985 0070 78030000 		.word	.LC33
 2986 0074 84030000 		.word	.LC34
 2987 0078 94030000 		.word	.LC35
 2988              		.cfi_endproc
 2989              	.LFE15:
 2991              		.section	.rodata
 2992 03a1 000000   		.align	2
 2993              	.LC36:
 2994 03a4 25733A65 		.ascii	"%s:exit ret:%d\012\015\000"
 2994      78697420 
 2994      7265743A 
 2994      25640A0D 
 2994      00
 2995              		.section	.text.bs_step,"ax",%progbits
 2996              		.align	1
 2997              		.syntax unified
 2998              		.thumb
 2999              		.thumb_func
 3000              		.fpu fpv4-sp-d16
 3002              	bs_step:
 3003              	.LFB16:
 908:c:/Users/lenovo/Desktop/AIoT/first_day/firstday_afternoon/LiteOS_Lab_STM32_IoT/iot_link/oc/oc_mqtt/oc_mqtt_tiny_v5\oc_mqtt_tiny.c **** 
 909:c:/Users/lenovo/Desktop/AIoT/first_day/firstday_afternoon/LiteOS_Lab_STM32_IoT/iot_link/oc/oc_mqtt/oc_mqtt_tiny_v5\oc_mqtt_tiny.c **** ///< this is the hub connect subscribe
 910:c:/Users/lenovo/Desktop/AIoT/first_day/firstday_afternoon/LiteOS_Lab_STM32_IoT/iot_link/oc/oc_mqtt/oc_mqtt_tiny_v5\oc_mqtt_tiny.c **** static int bs_step(oc_mqtt_tiny_cb_t  *cb)
 911:c:/Users/lenovo/Desktop/AIoT/first_day/firstday_afternoon/LiteOS_Lab_STM32_IoT/iot_link/oc/oc_mqtt/oc_mqtt_tiny_v5\oc_mqtt_tiny.c **** {
 3004              		.loc 1 911 1
 3005              		.cfi_startproc
 3006              		@ args = 0, pretend = 0, frame = 16
 3007              		@ frame_needed = 1, uses_anonymous_args = 0
 3008 0000 80B5     		push	{r7, lr}
 3009              	.LCFI65:
 3010              		.cfi_def_cfa_offset 8
 3011              		.cfi_offset 7, -8
 3012              		.cfi_offset 14, -4
 3013 0002 86B0     		sub	sp, sp, #24
 3014              	.LCFI66:
 3015              		.cfi_def_cfa_offset 32
 3016 0004 02AF     		add	r7, sp, #8
 3017              	.LCFI67:
 3018              		.cfi_def_cfa 7, 24
ARM GAS  C:\Users\lenovo\AppData\Local\Temp\cceHxmqh.s 			page 74


 3019 0006 7860     		str	r0, [r7, #4]
 912:c:/Users/lenovo/Desktop/AIoT/first_day/firstday_afternoon/LiteOS_Lab_STM32_IoT/iot_link/oc/oc_mqtt/oc_mqtt_tiny_v5\oc_mqtt_tiny.c ****     int ret = en_oc_mqtt_err_system;
 3020              		.loc 1 912 9
 3021 0008 1023     		movs	r3, #16
 3022 000a FB60     		str	r3, [r7, #12]
 913:c:/Users/lenovo/Desktop/AIoT/first_day/firstday_afternoon/LiteOS_Lab_STM32_IoT/iot_link/oc/oc_mqtt/oc_mqtt_tiny_v5\oc_mqtt_tiny.c ****     int wait_times = CN_CON_BACKOFF_MAXTIMES;
 3023              		.loc 1 913 9
 3024 000c 1423     		movs	r3, #20
 3025 000e BB60     		str	r3, [r7, #8]
 914:c:/Users/lenovo/Desktop/AIoT/first_day/firstday_afternoon/LiteOS_Lab_STM32_IoT/iot_link/oc/oc_mqtt/oc_mqtt_tiny_v5\oc_mqtt_tiny.c **** 
 915:c:/Users/lenovo/Desktop/AIoT/first_day/firstday_afternoon/LiteOS_Lab_STM32_IoT/iot_link/oc/oc_mqtt/oc_mqtt_tiny_v5\oc_mqtt_tiny.c ****     printf("%s:enter\n\r",__FUNCTION__);
 3026              		.loc 1 915 5
 3027 0010 2F49     		ldr	r1, .L155
 3028 0012 3048     		ldr	r0, .L155+4
 3029 0014 FFF7FEFF 		bl	printf
 916:c:/Users/lenovo/Desktop/AIoT/first_day/firstday_afternoon/LiteOS_Lab_STM32_IoT/iot_link/oc/oc_mqtt/oc_mqtt_tiny_v5\oc_mqtt_tiny.c ****     cb->flag.bits.bit_get_hubaddr = 0;
 3030              		.loc 1 916 35
 3031 0018 7A68     		ldr	r2, [r7, #4]
 3032 001a 92F86C30 		ldrb	r3, [r2, #108]
 3033 001e 6FF30413 		bfc	r3, #4, #1
 3034 0022 82F86C30 		strb	r3, [r2, #108]
 917:c:/Users/lenovo/Desktop/AIoT/first_day/firstday_afternoon/LiteOS_Lab_STM32_IoT/iot_link/oc/oc_mqtt/oc_mqtt_tiny_v5\oc_mqtt_tiny.c **** 
 918:c:/Users/lenovo/Desktop/AIoT/first_day/firstday_afternoon/LiteOS_Lab_STM32_IoT/iot_link/oc/oc_mqtt/oc_mqtt_tiny_v5\oc_mqtt_tiny.c ****     if(en_oc_mqtt_err_ok != oc_mqtt_para_gernerate(cb))
 3035              		.loc 1 918 29
 3036 0026 7868     		ldr	r0, [r7, #4]
 3037 0028 FFF7FEFF 		bl	oc_mqtt_para_gernerate
 3038 002c 0346     		mov	r3, r0
 3039              		.loc 1 918 7
 3040 002e 002B     		cmp	r3, #0
 3041 0030 39D1     		bne	.L151
 919:c:/Users/lenovo/Desktop/AIoT/first_day/firstday_afternoon/LiteOS_Lab_STM32_IoT/iot_link/oc/oc_mqtt/oc_mqtt_tiny_v5\oc_mqtt_tiny.c ****     {
 920:c:/Users/lenovo/Desktop/AIoT/first_day/firstday_afternoon/LiteOS_Lab_STM32_IoT/iot_link/oc/oc_mqtt/oc_mqtt_tiny_v5\oc_mqtt_tiny.c ****         goto EXIT_ERR;
 921:c:/Users/lenovo/Desktop/AIoT/first_day/firstday_afternoon/LiteOS_Lab_STM32_IoT/iot_link/oc/oc_mqtt/oc_mqtt_tiny_v5\oc_mqtt_tiny.c ****     }
 922:c:/Users/lenovo/Desktop/AIoT/first_day/firstday_afternoon/LiteOS_Lab_STM32_IoT/iot_link/oc/oc_mqtt/oc_mqtt_tiny_v5\oc_mqtt_tiny.c **** 
 923:c:/Users/lenovo/Desktop/AIoT/first_day/firstday_afternoon/LiteOS_Lab_STM32_IoT/iot_link/oc/oc_mqtt/oc_mqtt_tiny_v5\oc_mqtt_tiny.c ****     ret = dmp_connect(cb);
 3042              		.loc 1 923 11
 3043 0032 7868     		ldr	r0, [r7, #4]
 3044 0034 FFF7FEFF 		bl	dmp_connect
 3045 0038 F860     		str	r0, [r7, #12]
 924:c:/Users/lenovo/Desktop/AIoT/first_day/firstday_afternoon/LiteOS_Lab_STM32_IoT/iot_link/oc/oc_mqtt/oc_mqtt_tiny_v5\oc_mqtt_tiny.c ****     if(en_oc_mqtt_err_ok != ret)
 3046              		.loc 1 924 7
 3047 003a FB68     		ldr	r3, [r7, #12]
 3048 003c 002B     		cmp	r3, #0
 3049 003e 34D1     		bne	.L152
 925:c:/Users/lenovo/Desktop/AIoT/first_day/firstday_afternoon/LiteOS_Lab_STM32_IoT/iot_link/oc/oc_mqtt/oc_mqtt_tiny_v5\oc_mqtt_tiny.c ****     {
 926:c:/Users/lenovo/Desktop/AIoT/first_day/firstday_afternoon/LiteOS_Lab_STM32_IoT/iot_link/oc/oc_mqtt/oc_mqtt_tiny_v5\oc_mqtt_tiny.c ****        goto EXIT_ERR;
 927:c:/Users/lenovo/Desktop/AIoT/first_day/firstday_afternoon/LiteOS_Lab_STM32_IoT/iot_link/oc/oc_mqtt/oc_mqtt_tiny_v5\oc_mqtt_tiny.c ****     }
 928:c:/Users/lenovo/Desktop/AIoT/first_day/firstday_afternoon/LiteOS_Lab_STM32_IoT/iot_link/oc/oc_mqtt/oc_mqtt_tiny_v5\oc_mqtt_tiny.c ****     ///< subscribe the topic here
 929:c:/Users/lenovo/Desktop/AIoT/first_day/firstday_afternoon/LiteOS_Lab_STM32_IoT/iot_link/oc/oc_mqtt/oc_mqtt_tiny_v5\oc_mqtt_tiny.c ****     ret = dmp_subscribe(cb);
 3050              		.loc 1 929 11
 3051 0040 7868     		ldr	r0, [r7, #4]
 3052 0042 FFF7FEFF 		bl	dmp_subscribe
 3053 0046 F860     		str	r0, [r7, #12]
 930:c:/Users/lenovo/Desktop/AIoT/first_day/firstday_afternoon/LiteOS_Lab_STM32_IoT/iot_link/oc/oc_mqtt/oc_mqtt_tiny_v5\oc_mqtt_tiny.c ****     if(ret  != en_oc_mqtt_err_ok)
 3054              		.loc 1 930 7
 3055 0048 FB68     		ldr	r3, [r7, #12]
 3056 004a 002B     		cmp	r3, #0
ARM GAS  C:\Users\lenovo\AppData\Local\Temp\cceHxmqh.s 			page 75


 3057 004c 2FD1     		bne	.L153
 931:c:/Users/lenovo/Desktop/AIoT/first_day/firstday_afternoon/LiteOS_Lab_STM32_IoT/iot_link/oc/oc_mqtt/oc_mqtt_tiny_v5\oc_mqtt_tiny.c ****     {
 932:c:/Users/lenovo/Desktop/AIoT/first_day/firstday_afternoon/LiteOS_Lab_STM32_IoT/iot_link/oc/oc_mqtt/oc_mqtt_tiny_v5\oc_mqtt_tiny.c ****        goto EXIT_ERR;
 933:c:/Users/lenovo/Desktop/AIoT/first_day/firstday_afternoon/LiteOS_Lab_STM32_IoT/iot_link/oc/oc_mqtt/oc_mqtt_tiny_v5\oc_mqtt_tiny.c ****     }
 934:c:/Users/lenovo/Desktop/AIoT/first_day/firstday_afternoon/LiteOS_Lab_STM32_IoT/iot_link/oc/oc_mqtt/oc_mqtt_tiny_v5\oc_mqtt_tiny.c **** 
 935:c:/Users/lenovo/Desktop/AIoT/first_day/firstday_afternoon/LiteOS_Lab_STM32_IoT/iot_link/oc/oc_mqtt/oc_mqtt_tiny_v5\oc_mqtt_tiny.c ****     ///< pub the mqtt request
 936:c:/Users/lenovo/Desktop/AIoT/first_day/firstday_afternoon/LiteOS_Lab_STM32_IoT/iot_link/oc/oc_mqtt/oc_mqtt_tiny_v5\oc_mqtt_tiny.c ****     if(ret != dmp_publish(cb,NULL,NULL,0,1))
 3058              		.loc 1 936 15
 3059 004e 0123     		movs	r3, #1
 3060 0050 0093     		str	r3, [sp]
 3061 0052 0023     		movs	r3, #0
 3062 0054 0022     		movs	r2, #0
 3063 0056 0021     		movs	r1, #0
 3064 0058 7868     		ldr	r0, [r7, #4]
 3065 005a FFF7FEFF 		bl	dmp_publish
 3066 005e 0246     		mov	r2, r0
 3067              		.loc 1 936 7
 3068 0060 FB68     		ldr	r3, [r7, #12]
 3069 0062 9342     		cmp	r3, r2
 3070 0064 25D1     		bne	.L154
 937:c:/Users/lenovo/Desktop/AIoT/first_day/firstday_afternoon/LiteOS_Lab_STM32_IoT/iot_link/oc/oc_mqtt/oc_mqtt_tiny_v5\oc_mqtt_tiny.c ****     {
 938:c:/Users/lenovo/Desktop/AIoT/first_day/firstday_afternoon/LiteOS_Lab_STM32_IoT/iot_link/oc/oc_mqtt/oc_mqtt_tiny_v5\oc_mqtt_tiny.c ****         goto EXIT_ERR;
 939:c:/Users/lenovo/Desktop/AIoT/first_day/firstday_afternoon/LiteOS_Lab_STM32_IoT/iot_link/oc/oc_mqtt/oc_mqtt_tiny_v5\oc_mqtt_tiny.c ****     }
 940:c:/Users/lenovo/Desktop/AIoT/first_day/firstday_afternoon/LiteOS_Lab_STM32_IoT/iot_link/oc/oc_mqtt/oc_mqtt_tiny_v5\oc_mqtt_tiny.c ****     ///< do the wait for the new address until timeout
 941:c:/Users/lenovo/Desktop/AIoT/first_day/firstday_afternoon/LiteOS_Lab_STM32_IoT/iot_link/oc/oc_mqtt/oc_mqtt_tiny_v5\oc_mqtt_tiny.c ****     while((0 == cb->flag.bits.bit_get_hubaddr) && (wait_times-- > 0))
 3071              		.loc 1 941 10
 3072 0066 03E0     		b	.L146
 3073              	.L148:
 942:c:/Users/lenovo/Desktop/AIoT/first_day/firstday_afternoon/LiteOS_Lab_STM32_IoT/iot_link/oc/oc_mqtt/oc_mqtt_tiny_v5\oc_mqtt_tiny.c ****     {
 943:c:/Users/lenovo/Desktop/AIoT/first_day/firstday_afternoon/LiteOS_Lab_STM32_IoT/iot_link/oc/oc_mqtt/oc_mqtt_tiny_v5\oc_mqtt_tiny.c ****         osal_task_sleep(CN_CON_BACKOFF_TIME);
 3074              		.loc 1 943 9
 3075 0068 4FF47A70 		mov	r0, #1000
 3076 006c FFF7FEFF 		bl	osal_task_sleep
 3077              	.L146:
 941:c:/Users/lenovo/Desktop/AIoT/first_day/firstday_afternoon/LiteOS_Lab_STM32_IoT/iot_link/oc/oc_mqtt/oc_mqtt_tiny_v5\oc_mqtt_tiny.c ****     {
 3078              		.loc 1 941 14
 3079 0070 7B68     		ldr	r3, [r7, #4]
 3080 0072 93F86C30 		ldrb	r3, [r3, #108]	@ zero_extendqisi2
 3081 0076 03F01003 		and	r3, r3, #16
 3082 007a DBB2     		uxtb	r3, r3
 941:c:/Users/lenovo/Desktop/AIoT/first_day/firstday_afternoon/LiteOS_Lab_STM32_IoT/iot_link/oc/oc_mqtt/oc_mqtt_tiny_v5\oc_mqtt_tiny.c ****     {
 3083              		.loc 1 941 10
 3084 007c 002B     		cmp	r3, #0
 3085 007e 04D1     		bne	.L147
 941:c:/Users/lenovo/Desktop/AIoT/first_day/firstday_afternoon/LiteOS_Lab_STM32_IoT/iot_link/oc/oc_mqtt/oc_mqtt_tiny_v5\oc_mqtt_tiny.c ****     {
 3086              		.loc 1 941 62 discriminator 1
 3087 0080 BB68     		ldr	r3, [r7, #8]
 3088 0082 5A1E     		subs	r2, r3, #1
 3089 0084 BA60     		str	r2, [r7, #8]
 941:c:/Users/lenovo/Desktop/AIoT/first_day/firstday_afternoon/LiteOS_Lab_STM32_IoT/iot_link/oc/oc_mqtt/oc_mqtt_tiny_v5\oc_mqtt_tiny.c ****     {
 3090              		.loc 1 941 48 discriminator 1
 3091 0086 002B     		cmp	r3, #0
 3092 0088 EEDC     		bgt	.L148
 3093              	.L147:
 944:c:/Users/lenovo/Desktop/AIoT/first_day/firstday_afternoon/LiteOS_Lab_STM32_IoT/iot_link/oc/oc_mqtt/oc_mqtt_tiny_v5\oc_mqtt_tiny.c ****     }
 945:c:/Users/lenovo/Desktop/AIoT/first_day/firstday_afternoon/LiteOS_Lab_STM32_IoT/iot_link/oc/oc_mqtt/oc_mqtt_tiny_v5\oc_mqtt_tiny.c **** 
 946:c:/Users/lenovo/Desktop/AIoT/first_day/firstday_afternoon/LiteOS_Lab_STM32_IoT/iot_link/oc/oc_mqtt/oc_mqtt_tiny_v5\oc_mqtt_tiny.c ****     if(cb->flag.bits.bit_get_hubaddr)
ARM GAS  C:\Users\lenovo\AppData\Local\Temp\cceHxmqh.s 			page 76


 3094              		.loc 1 946 8
 3095 008a 7B68     		ldr	r3, [r7, #4]
 3096 008c 93F86C30 		ldrb	r3, [r3, #108]	@ zero_extendqisi2
 3097 0090 03F01003 		and	r3, r3, #16
 3098 0094 DBB2     		uxtb	r3, r3
 3099              		.loc 1 946 7
 3100 0096 002B     		cmp	r3, #0
 3101 0098 02D0     		beq	.L149
 947:c:/Users/lenovo/Desktop/AIoT/first_day/firstday_afternoon/LiteOS_Lab_STM32_IoT/iot_link/oc/oc_mqtt/oc_mqtt_tiny_v5\oc_mqtt_tiny.c ****     {
 948:c:/Users/lenovo/Desktop/AIoT/first_day/firstday_afternoon/LiteOS_Lab_STM32_IoT/iot_link/oc/oc_mqtt/oc_mqtt_tiny_v5\oc_mqtt_tiny.c ****         ret = en_oc_mqtt_err_ok;
 3102              		.loc 1 948 13
 3103 009a 0023     		movs	r3, #0
 3104 009c FB60     		str	r3, [r7, #12]
 3105 009e 09E0     		b	.L142
 3106              	.L149:
 949:c:/Users/lenovo/Desktop/AIoT/first_day/firstday_afternoon/LiteOS_Lab_STM32_IoT/iot_link/oc/oc_mqtt/oc_mqtt_tiny_v5\oc_mqtt_tiny.c ****     }
 950:c:/Users/lenovo/Desktop/AIoT/first_day/firstday_afternoon/LiteOS_Lab_STM32_IoT/iot_link/oc/oc_mqtt/oc_mqtt_tiny_v5\oc_mqtt_tiny.c ****     else
 951:c:/Users/lenovo/Desktop/AIoT/first_day/firstday_afternoon/LiteOS_Lab_STM32_IoT/iot_link/oc/oc_mqtt/oc_mqtt_tiny_v5\oc_mqtt_tiny.c ****     {
 952:c:/Users/lenovo/Desktop/AIoT/first_day/firstday_afternoon/LiteOS_Lab_STM32_IoT/iot_link/oc/oc_mqtt/oc_mqtt_tiny_v5\oc_mqtt_tiny.c ****         ret = en_oc_mqtt_err_gethubaddrtimeout;
 3107              		.loc 1 952 13
 3108 00a0 0E23     		movs	r3, #14
 3109 00a2 FB60     		str	r3, [r7, #12]
 3110 00a4 06E0     		b	.L142
 3111              	.L151:
 920:c:/Users/lenovo/Desktop/AIoT/first_day/firstday_afternoon/LiteOS_Lab_STM32_IoT/iot_link/oc/oc_mqtt/oc_mqtt_tiny_v5\oc_mqtt_tiny.c ****     }
 3112              		.loc 1 920 9
 3113 00a6 00BF     		nop
 3114 00a8 04E0     		b	.L142
 3115              	.L152:
 926:c:/Users/lenovo/Desktop/AIoT/first_day/firstday_afternoon/LiteOS_Lab_STM32_IoT/iot_link/oc/oc_mqtt/oc_mqtt_tiny_v5\oc_mqtt_tiny.c ****     }
 3116              		.loc 1 926 8
 3117 00aa 00BF     		nop
 3118 00ac 02E0     		b	.L142
 3119              	.L153:
 932:c:/Users/lenovo/Desktop/AIoT/first_day/firstday_afternoon/LiteOS_Lab_STM32_IoT/iot_link/oc/oc_mqtt/oc_mqtt_tiny_v5\oc_mqtt_tiny.c ****     }
 3120              		.loc 1 932 8
 3121 00ae 00BF     		nop
 3122 00b0 00E0     		b	.L142
 3123              	.L154:
 938:c:/Users/lenovo/Desktop/AIoT/first_day/firstday_afternoon/LiteOS_Lab_STM32_IoT/iot_link/oc/oc_mqtt/oc_mqtt_tiny_v5\oc_mqtt_tiny.c ****     }
 3124              		.loc 1 938 9
 3125 00b2 00BF     		nop
 3126              	.L142:
 953:c:/Users/lenovo/Desktop/AIoT/first_day/firstday_afternoon/LiteOS_Lab_STM32_IoT/iot_link/oc/oc_mqtt/oc_mqtt_tiny_v5\oc_mqtt_tiny.c ****     }
 954:c:/Users/lenovo/Desktop/AIoT/first_day/firstday_afternoon/LiteOS_Lab_STM32_IoT/iot_link/oc/oc_mqtt/oc_mqtt_tiny_v5\oc_mqtt_tiny.c **** 
 955:c:/Users/lenovo/Desktop/AIoT/first_day/firstday_afternoon/LiteOS_Lab_STM32_IoT/iot_link/oc/oc_mqtt/oc_mqtt_tiny_v5\oc_mqtt_tiny.c **** 
 956:c:/Users/lenovo/Desktop/AIoT/first_day/firstday_afternoon/LiteOS_Lab_STM32_IoT/iot_link/oc/oc_mqtt/oc_mqtt_tiny_v5\oc_mqtt_tiny.c **** 
 957:c:/Users/lenovo/Desktop/AIoT/first_day/firstday_afternoon/LiteOS_Lab_STM32_IoT/iot_link/oc/oc_mqtt/oc_mqtt_tiny_v5\oc_mqtt_tiny.c **** EXIT_ERR:
 958:c:/Users/lenovo/Desktop/AIoT/first_day/firstday_afternoon/LiteOS_Lab_STM32_IoT/iot_link/oc/oc_mqtt/oc_mqtt_tiny_v5\oc_mqtt_tiny.c ****     oc_mqtt_para_release(cb);
 3127              		.loc 1 958 5
 3128 00b4 7868     		ldr	r0, [r7, #4]
 3129 00b6 FFF7FEFF 		bl	oc_mqtt_para_release
 959:c:/Users/lenovo/Desktop/AIoT/first_day/firstday_afternoon/LiteOS_Lab_STM32_IoT/iot_link/oc/oc_mqtt/oc_mqtt_tiny_v5\oc_mqtt_tiny.c **** 
 960:c:/Users/lenovo/Desktop/AIoT/first_day/firstday_afternoon/LiteOS_Lab_STM32_IoT/iot_link/oc/oc_mqtt/oc_mqtt_tiny_v5\oc_mqtt_tiny.c ****     printf("%s:exit ret:%d\n\r",__FUNCTION__,ret);
 3130              		.loc 1 960 5
 3131 00ba FA68     		ldr	r2, [r7, #12]
 3132 00bc 0449     		ldr	r1, .L155
ARM GAS  C:\Users\lenovo\AppData\Local\Temp\cceHxmqh.s 			page 77


 3133 00be 0648     		ldr	r0, .L155+8
 3134 00c0 FFF7FEFF 		bl	printf
 961:c:/Users/lenovo/Desktop/AIoT/first_day/firstday_afternoon/LiteOS_Lab_STM32_IoT/iot_link/oc/oc_mqtt/oc_mqtt_tiny_v5\oc_mqtt_tiny.c **** 
 962:c:/Users/lenovo/Desktop/AIoT/first_day/firstday_afternoon/LiteOS_Lab_STM32_IoT/iot_link/oc/oc_mqtt/oc_mqtt_tiny_v5\oc_mqtt_tiny.c ****     return ret;
 3135              		.loc 1 962 12
 3136 00c4 FB68     		ldr	r3, [r7, #12]
 963:c:/Users/lenovo/Desktop/AIoT/first_day/firstday_afternoon/LiteOS_Lab_STM32_IoT/iot_link/oc/oc_mqtt/oc_mqtt_tiny_v5\oc_mqtt_tiny.c **** 
 964:c:/Users/lenovo/Desktop/AIoT/first_day/firstday_afternoon/LiteOS_Lab_STM32_IoT/iot_link/oc/oc_mqtt/oc_mqtt_tiny_v5\oc_mqtt_tiny.c **** }
 3137              		.loc 1 964 1
 3138 00c6 1846     		mov	r0, r3
 3139 00c8 1037     		adds	r7, r7, #16
 3140              	.LCFI68:
 3141              		.cfi_def_cfa_offset 8
 3142 00ca BD46     		mov	sp, r7
 3143              	.LCFI69:
 3144              		.cfi_def_cfa_register 13
 3145              		@ sp needed
 3146 00cc 80BD     		pop	{r7, pc}
 3147              	.L156:
 3148 00ce 00BF     		.align	2
 3149              	.L155:
 3150 00d0 00000000 		.word	__FUNCTION__.8246
 3151 00d4 78030000 		.word	.LC33
 3152 00d8 A4030000 		.word	.LC36
 3153              		.cfi_endproc
 3154              	.LFE16:
 3156              		.section	.text.deal_api_subscribe,"ax",%progbits
 3157              		.align	1
 3158              		.syntax unified
 3159              		.thumb
 3160              		.thumb_func
 3161              		.fpu fpv4-sp-d16
 3163              	deal_api_subscribe:
 3164              	.LFB17:
 965:c:/Users/lenovo/Desktop/AIoT/first_day/firstday_afternoon/LiteOS_Lab_STM32_IoT/iot_link/oc/oc_mqtt/oc_mqtt_tiny_v5\oc_mqtt_tiny.c **** 
 966:c:/Users/lenovo/Desktop/AIoT/first_day/firstday_afternoon/LiteOS_Lab_STM32_IoT/iot_link/oc/oc_mqtt/oc_mqtt_tiny_v5\oc_mqtt_tiny.c **** 
 967:c:/Users/lenovo/Desktop/AIoT/first_day/firstday_afternoon/LiteOS_Lab_STM32_IoT/iot_link/oc/oc_mqtt/oc_mqtt_tiny_v5\oc_mqtt_tiny.c **** ///< this function deal with api subscribe
 968:c:/Users/lenovo/Desktop/AIoT/first_day/firstday_afternoon/LiteOS_Lab_STM32_IoT/iot_link/oc/oc_mqtt/oc_mqtt_tiny_v5\oc_mqtt_tiny.c **** static int deal_api_subscribe( oc_mqtt_tiny_cb_t  *cb, oc_mqtt_daemon_cmd_t *cmd)
 969:c:/Users/lenovo/Desktop/AIoT/first_day/firstday_afternoon/LiteOS_Lab_STM32_IoT/iot_link/oc/oc_mqtt/oc_mqtt_tiny_v5\oc_mqtt_tiny.c **** {
 3165              		.loc 1 969 1
 3166              		.cfi_startproc
 3167              		@ args = 0, pretend = 0, frame = 24
 3168              		@ frame_needed = 1, uses_anonymous_args = 0
 3169 0000 80B5     		push	{r7, lr}
 3170              	.LCFI70:
 3171              		.cfi_def_cfa_offset 8
 3172              		.cfi_offset 7, -8
 3173              		.cfi_offset 14, -4
 3174 0002 86B0     		sub	sp, sp, #24
 3175              	.LCFI71:
 3176              		.cfi_def_cfa_offset 32
 3177 0004 00AF     		add	r7, sp, #0
 3178              	.LCFI72:
 3179              		.cfi_def_cfa_register 7
 3180 0006 7860     		str	r0, [r7, #4]
 3181 0008 3960     		str	r1, [r7]
 970:c:/Users/lenovo/Desktop/AIoT/first_day/firstday_afternoon/LiteOS_Lab_STM32_IoT/iot_link/oc/oc_mqtt/oc_mqtt_tiny_v5\oc_mqtt_tiny.c ****     int ret = en_oc_mqtt_err_noconfigured;
ARM GAS  C:\Users\lenovo\AppData\Local\Temp\cceHxmqh.s 			page 78


 3182              		.loc 1 970 9
 3183 000a 0C23     		movs	r3, #12
 3184 000c 7B61     		str	r3, [r7, #20]
 971:c:/Users/lenovo/Desktop/AIoT/first_day/firstday_afternoon/LiteOS_Lab_STM32_IoT/iot_link/oc/oc_mqtt/oc_mqtt_tiny_v5\oc_mqtt_tiny.c ****     tiny_topic_sub_t  *topic_sub;
 972:c:/Users/lenovo/Desktop/AIoT/first_day/firstday_afternoon/LiteOS_Lab_STM32_IoT/iot_link/oc/oc_mqtt/oc_mqtt_tiny_v5\oc_mqtt_tiny.c ****     mqtt_al_subpara_t *subpara;
 973:c:/Users/lenovo/Desktop/AIoT/first_day/firstday_afternoon/LiteOS_Lab_STM32_IoT/iot_link/oc/oc_mqtt/oc_mqtt_tiny_v5\oc_mqtt_tiny.c **** 
 974:c:/Users/lenovo/Desktop/AIoT/first_day/firstday_afternoon/LiteOS_Lab_STM32_IoT/iot_link/oc/oc_mqtt/oc_mqtt_tiny_v5\oc_mqtt_tiny.c ****     subpara = cmd->arg;
 3185              		.loc 1 974 13
 3186 000e 3B68     		ldr	r3, [r7]
 3187 0010 5B68     		ldr	r3, [r3, #4]
 3188 0012 3B61     		str	r3, [r7, #16]
 975:c:/Users/lenovo/Desktop/AIoT/first_day/firstday_afternoon/LiteOS_Lab_STM32_IoT/iot_link/oc/oc_mqtt/oc_mqtt_tiny_v5\oc_mqtt_tiny.c **** 
 976:c:/Users/lenovo/Desktop/AIoT/first_day/firstday_afternoon/LiteOS_Lab_STM32_IoT/iot_link/oc/oc_mqtt/oc_mqtt_tiny_v5\oc_mqtt_tiny.c ****     if(en_daemon_status_idle == cb->flag.bits.bit_daemon_status)
 3189              		.loc 1 976 30
 3190 0014 7B68     		ldr	r3, [r7, #4]
 3191 0016 93F86C30 		ldrb	r3, [r3, #108]	@ zero_extendqisi2
 3192 001a 03F00E03 		and	r3, r3, #14
 3193 001e DBB2     		uxtb	r3, r3
 3194              		.loc 1 976 7
 3195 0020 002B     		cmp	r3, #0
 3196 0022 02D1     		bne	.L158
 977:c:/Users/lenovo/Desktop/AIoT/first_day/firstday_afternoon/LiteOS_Lab_STM32_IoT/iot_link/oc/oc_mqtt/oc_mqtt_tiny_v5\oc_mqtt_tiny.c ****     {
 978:c:/Users/lenovo/Desktop/AIoT/first_day/firstday_afternoon/LiteOS_Lab_STM32_IoT/iot_link/oc/oc_mqtt/oc_mqtt_tiny_v5\oc_mqtt_tiny.c ****         ret = en_oc_mqtt_err_noconfigured;
 3197              		.loc 1 978 13
 3198 0024 0C23     		movs	r3, #12
 3199 0026 7B61     		str	r3, [r7, #20]
 3200 0028 55E0     		b	.L159
 3201              	.L158:
 979:c:/Users/lenovo/Desktop/AIoT/first_day/firstday_afternoon/LiteOS_Lab_STM32_IoT/iot_link/oc/oc_mqtt/oc_mqtt_tiny_v5\oc_mqtt_tiny.c ****     }
 980:c:/Users/lenovo/Desktop/AIoT/first_day/firstday_afternoon/LiteOS_Lab_STM32_IoT/iot_link/oc/oc_mqtt/oc_mqtt_tiny_v5\oc_mqtt_tiny.c ****     else if((en_daemon_status_hub_keep == cb->flag.bits.bit_daemon_status) &&\
 3202              		.loc 1 980 40
 3203 002a 7B68     		ldr	r3, [r7, #4]
 3204 002c 93F86C30 		ldrb	r3, [r3, #108]	@ zero_extendqisi2
 3205 0030 03F00E03 		and	r3, r3, #14
 3206 0034 DBB2     		uxtb	r3, r3
 3207              		.loc 1 980 12
 3208 0036 062B     		cmp	r3, #6
 3209 0038 4BD1     		bne	.L160
 981:c:/Users/lenovo/Desktop/AIoT/first_day/firstday_afternoon/LiteOS_Lab_STM32_IoT/iot_link/oc/oc_mqtt/oc_mqtt_tiny_v5\oc_mqtt_tiny.c ****             (en_mqtt_al_connect_ok == mqtt_al_check_status(cb->mqtt_para.mqtt_handle)))
 3210              		.loc 1 981 39 discriminator 1
 3211 003a 7B68     		ldr	r3, [r7, #4]
 3212 003c 9B6E     		ldr	r3, [r3, #104]
 3213 003e 1846     		mov	r0, r3
 3214 0040 FFF7FEFF 		bl	mqtt_al_check_status
 3215 0044 0346     		mov	r3, r0
 980:c:/Users/lenovo/Desktop/AIoT/first_day/firstday_afternoon/LiteOS_Lab_STM32_IoT/iot_link/oc/oc_mqtt/oc_mqtt_tiny_v5\oc_mqtt_tiny.c ****             (en_mqtt_al_connect_ok == mqtt_al_check_status(cb->mqtt_para.mqtt_handle)))
 3216              		.loc 1 980 76 discriminator 1
 3217 0046 002B     		cmp	r3, #0
 3218 0048 43D1     		bne	.L160
 982:c:/Users/lenovo/Desktop/AIoT/first_day/firstday_afternoon/LiteOS_Lab_STM32_IoT/iot_link/oc/oc_mqtt/oc_mqtt_tiny_v5\oc_mqtt_tiny.c ****     {
 983:c:/Users/lenovo/Desktop/AIoT/first_day/firstday_afternoon/LiteOS_Lab_STM32_IoT/iot_link/oc/oc_mqtt/oc_mqtt_tiny_v5\oc_mqtt_tiny.c **** 
 984:c:/Users/lenovo/Desktop/AIoT/first_day/firstday_afternoon/LiteOS_Lab_STM32_IoT/iot_link/oc/oc_mqtt/oc_mqtt_tiny_v5\oc_mqtt_tiny.c ****         topic_sub = osal_malloc( sizeof( tiny_topic_sub_t ) + subpara->topic.len + 1 );
 3219              		.loc 1 984 77
 3220 004a 3B69     		ldr	r3, [r7, #16]
 3221 004c 5B68     		ldr	r3, [r3, #4]
 3222              		.loc 1 984 21
 3223 004e 0D33     		adds	r3, r3, #13
ARM GAS  C:\Users\lenovo\AppData\Local\Temp\cceHxmqh.s 			page 79


 3224 0050 1846     		mov	r0, r3
 3225 0052 FFF7FEFF 		bl	osal_malloc
 3226 0056 F860     		str	r0, [r7, #12]
 985:c:/Users/lenovo/Desktop/AIoT/first_day/firstday_afternoon/LiteOS_Lab_STM32_IoT/iot_link/oc/oc_mqtt/oc_mqtt_tiny_v5\oc_mqtt_tiny.c ****         if ( NULL != topic_sub)
 3227              		.loc 1 985 12
 3228 0058 FB68     		ldr	r3, [r7, #12]
 3229 005a 002B     		cmp	r3, #0
 3230 005c 36D0     		beq	.L161
 986:c:/Users/lenovo/Desktop/AIoT/first_day/firstday_afternoon/LiteOS_Lab_STM32_IoT/iot_link/oc/oc_mqtt/oc_mqtt_tiny_v5\oc_mqtt_tiny.c ****         {
 987:c:/Users/lenovo/Desktop/AIoT/first_day/firstday_afternoon/LiteOS_Lab_STM32_IoT/iot_link/oc/oc_mqtt/oc_mqtt_tiny_v5\oc_mqtt_tiny.c **** 
 988:c:/Users/lenovo/Desktop/AIoT/first_day/firstday_afternoon/LiteOS_Lab_STM32_IoT/iot_link/oc/oc_mqtt/oc_mqtt_tiny_v5\oc_mqtt_tiny.c ****             subpara->arg = cb;
 3231              		.loc 1 988 26
 3232 005e 3B69     		ldr	r3, [r7, #16]
 3233 0060 7A68     		ldr	r2, [r7, #4]
 3234 0062 1A61     		str	r2, [r3, #16]
 989:c:/Users/lenovo/Desktop/AIoT/first_day/firstday_afternoon/LiteOS_Lab_STM32_IoT/iot_link/oc/oc_mqtt/oc_mqtt_tiny_v5\oc_mqtt_tiny.c ****             subpara->dealer = hub_msg_default_deal;
 3235              		.loc 1 989 29
 3236 0064 3B69     		ldr	r3, [r7, #16]
 3237 0066 204A     		ldr	r2, .L165
 3238 0068 DA60     		str	r2, [r3, #12]
 990:c:/Users/lenovo/Desktop/AIoT/first_day/firstday_afternoon/LiteOS_Lab_STM32_IoT/iot_link/oc/oc_mqtt/oc_mqtt_tiny_v5\oc_mqtt_tiny.c ****             subpara->timeout = CN_OC_MQTT_TIMEOUT;
 3239              		.loc 1 990 30
 3240 006a 3B69     		ldr	r3, [r7, #16]
 3241 006c 42F21072 		movw	r2, #10000
 3242 0070 9A61     		str	r2, [r3, #24]
 991:c:/Users/lenovo/Desktop/AIoT/first_day/firstday_afternoon/LiteOS_Lab_STM32_IoT/iot_link/oc/oc_mqtt/oc_mqtt_tiny_v5\oc_mqtt_tiny.c ****             if( 0  == mqtt_al_subscribe( cb->mqtt_para.mqtt_handle, subpara) )
 3243              		.loc 1 991 23
 3244 0072 7B68     		ldr	r3, [r7, #4]
 3245 0074 9B6E     		ldr	r3, [r3, #104]
 3246 0076 3969     		ldr	r1, [r7, #16]
 3247 0078 1846     		mov	r0, r3
 3248 007a FFF7FEFF 		bl	mqtt_al_subscribe
 3249 007e 0346     		mov	r3, r0
 3250              		.loc 1 991 15
 3251 0080 002B     		cmp	r3, #0
 3252 0082 1DD1     		bne	.L162
 992:c:/Users/lenovo/Desktop/AIoT/first_day/firstday_afternoon/LiteOS_Lab_STM32_IoT/iot_link/oc/oc_mqtt/oc_mqtt_tiny_v5\oc_mqtt_tiny.c ****             {
 993:c:/Users/lenovo/Desktop/AIoT/first_day/firstday_afternoon/LiteOS_Lab_STM32_IoT/iot_link/oc/oc_mqtt/oc_mqtt_tiny_v5\oc_mqtt_tiny.c ****                 ///< initialize the subtopic add it to the subscribe list
 994:c:/Users/lenovo/Desktop/AIoT/first_day/firstday_afternoon/LiteOS_Lab_STM32_IoT/iot_link/oc/oc_mqtt/oc_mqtt_tiny_v5\oc_mqtt_tiny.c ****                 topic_sub->qos = subpara->qos;
 3253              		.loc 1 994 41
 3254 0084 3B69     		ldr	r3, [r7, #16]
 3255 0086 1B7A     		ldrb	r3, [r3, #8]	@ zero_extendqisi2
 3256 0088 1A46     		mov	r2, r3
 3257              		.loc 1 994 32
 3258 008a FB68     		ldr	r3, [r7, #12]
 3259 008c 9A60     		str	r2, [r3, #8]
 995:c:/Users/lenovo/Desktop/AIoT/first_day/firstday_afternoon/LiteOS_Lab_STM32_IoT/iot_link/oc/oc_mqtt/oc_mqtt_tiny_v5\oc_mqtt_tiny.c ****                 topic_sub->topic = (char *)topic_sub + sizeof(tiny_topic_sub_t);
 3260              		.loc 1 995 54
 3261 008e FB68     		ldr	r3, [r7, #12]
 3262 0090 03F10C02 		add	r2, r3, #12
 3263              		.loc 1 995 34
 3264 0094 FB68     		ldr	r3, [r7, #12]
 3265 0096 5A60     		str	r2, [r3, #4]
 996:c:/Users/lenovo/Desktop/AIoT/first_day/firstday_afternoon/LiteOS_Lab_STM32_IoT/iot_link/oc/oc_mqtt/oc_mqtt_tiny_v5\oc_mqtt_tiny.c ****                 strcpy(topic_sub->topic, subpara->topic.data);
 3266              		.loc 1 996 17
 3267 0098 FB68     		ldr	r3, [r7, #12]
 3268 009a 5A68     		ldr	r2, [r3, #4]
ARM GAS  C:\Users\lenovo\AppData\Local\Temp\cceHxmqh.s 			page 80


 3269              		.loc 1 996 56
 3270 009c 3B69     		ldr	r3, [r7, #16]
 3271 009e 1B68     		ldr	r3, [r3]
 3272              		.loc 1 996 17
 3273 00a0 1946     		mov	r1, r3
 3274 00a2 1046     		mov	r0, r2
 3275 00a4 FFF7FEFF 		bl	strcpy
 997:c:/Users/lenovo/Desktop/AIoT/first_day/firstday_afternoon/LiteOS_Lab_STM32_IoT/iot_link/oc/oc_mqtt/oc_mqtt_tiny_v5\oc_mqtt_tiny.c ****                 topic_sub->nxt = cb->subscribe_lst;
 3276              		.loc 1 997 36
 3277 00a8 7B68     		ldr	r3, [r7, #4]
 3278 00aa D3F8A420 		ldr	r2, [r3, #164]
 3279              		.loc 1 997 32
 3280 00ae FB68     		ldr	r3, [r7, #12]
 3281 00b0 1A60     		str	r2, [r3]
 998:c:/Users/lenovo/Desktop/AIoT/first_day/firstday_afternoon/LiteOS_Lab_STM32_IoT/iot_link/oc/oc_mqtt/oc_mqtt_tiny_v5\oc_mqtt_tiny.c ****                 cb->subscribe_lst = topic_sub;
 3282              		.loc 1 998 35
 3283 00b2 7B68     		ldr	r3, [r7, #4]
 3284 00b4 FA68     		ldr	r2, [r7, #12]
 3285 00b6 C3F8A420 		str	r2, [r3, #164]
 999:c:/Users/lenovo/Desktop/AIoT/first_day/firstday_afternoon/LiteOS_Lab_STM32_IoT/iot_link/oc/oc_mqtt/oc_mqtt_tiny_v5\oc_mqtt_tiny.c **** 
1000:c:/Users/lenovo/Desktop/AIoT/first_day/firstday_afternoon/LiteOS_Lab_STM32_IoT/iot_link/oc/oc_mqtt/oc_mqtt_tiny_v5\oc_mqtt_tiny.c ****                 ret = en_oc_mqtt_err_ok;
 3286              		.loc 1 1000 21
 3287 00ba 0023     		movs	r3, #0
 3288 00bc 7B61     		str	r3, [r7, #20]
 985:c:/Users/lenovo/Desktop/AIoT/first_day/firstday_afternoon/LiteOS_Lab_STM32_IoT/iot_link/oc/oc_mqtt/oc_mqtt_tiny_v5\oc_mqtt_tiny.c ****         {
 3289              		.loc 1 985 12
 3290 00be 0AE0     		b	.L159
 3291              	.L162:
1001:c:/Users/lenovo/Desktop/AIoT/first_day/firstday_afternoon/LiteOS_Lab_STM32_IoT/iot_link/oc/oc_mqtt/oc_mqtt_tiny_v5\oc_mqtt_tiny.c ****             }
1002:c:/Users/lenovo/Desktop/AIoT/first_day/firstday_afternoon/LiteOS_Lab_STM32_IoT/iot_link/oc/oc_mqtt/oc_mqtt_tiny_v5\oc_mqtt_tiny.c ****             else
1003:c:/Users/lenovo/Desktop/AIoT/first_day/firstday_afternoon/LiteOS_Lab_STM32_IoT/iot_link/oc/oc_mqtt/oc_mqtt_tiny_v5\oc_mqtt_tiny.c ****             {
1004:c:/Users/lenovo/Desktop/AIoT/first_day/firstday_afternoon/LiteOS_Lab_STM32_IoT/iot_link/oc/oc_mqtt/oc_mqtt_tiny_v5\oc_mqtt_tiny.c ****                 osal_free ( topic_sub );
 3292              		.loc 1 1004 17
 3293 00c0 F868     		ldr	r0, [r7, #12]
 3294 00c2 FFF7FEFF 		bl	osal_free
1005:c:/Users/lenovo/Desktop/AIoT/first_day/firstday_afternoon/LiteOS_Lab_STM32_IoT/iot_link/oc/oc_mqtt/oc_mqtt_tiny_v5\oc_mqtt_tiny.c ****                 ret = en_oc_mqtt_err_subscribe;
 3295              		.loc 1 1005 21
 3296 00c6 0823     		movs	r3, #8
 3297 00c8 7B61     		str	r3, [r7, #20]
 985:c:/Users/lenovo/Desktop/AIoT/first_day/firstday_afternoon/LiteOS_Lab_STM32_IoT/iot_link/oc/oc_mqtt/oc_mqtt_tiny_v5\oc_mqtt_tiny.c ****         {
 3298              		.loc 1 985 12
 3299 00ca 04E0     		b	.L159
 3300              	.L161:
1006:c:/Users/lenovo/Desktop/AIoT/first_day/firstday_afternoon/LiteOS_Lab_STM32_IoT/iot_link/oc/oc_mqtt/oc_mqtt_tiny_v5\oc_mqtt_tiny.c ****             }
1007:c:/Users/lenovo/Desktop/AIoT/first_day/firstday_afternoon/LiteOS_Lab_STM32_IoT/iot_link/oc/oc_mqtt/oc_mqtt_tiny_v5\oc_mqtt_tiny.c ****         }
1008:c:/Users/lenovo/Desktop/AIoT/first_day/firstday_afternoon/LiteOS_Lab_STM32_IoT/iot_link/oc/oc_mqtt/oc_mqtt_tiny_v5\oc_mqtt_tiny.c ****         else
1009:c:/Users/lenovo/Desktop/AIoT/first_day/firstday_afternoon/LiteOS_Lab_STM32_IoT/iot_link/oc/oc_mqtt/oc_mqtt_tiny_v5\oc_mqtt_tiny.c ****         {
1010:c:/Users/lenovo/Desktop/AIoT/first_day/firstday_afternoon/LiteOS_Lab_STM32_IoT/iot_link/oc/oc_mqtt/oc_mqtt_tiny_v5\oc_mqtt_tiny.c ****             ret = en_oc_mqtt_err_sysmem;
 3301              		.loc 1 1010 17
 3302 00cc 0F23     		movs	r3, #15
 3303 00ce 7B61     		str	r3, [r7, #20]
 985:c:/Users/lenovo/Desktop/AIoT/first_day/firstday_afternoon/LiteOS_Lab_STM32_IoT/iot_link/oc/oc_mqtt/oc_mqtt_tiny_v5\oc_mqtt_tiny.c ****         {
 3304              		.loc 1 985 12
 3305 00d0 01E0     		b	.L159
 3306              	.L160:
1011:c:/Users/lenovo/Desktop/AIoT/first_day/firstday_afternoon/LiteOS_Lab_STM32_IoT/iot_link/oc/oc_mqtt/oc_mqtt_tiny_v5\oc_mqtt_tiny.c ****         }
1012:c:/Users/lenovo/Desktop/AIoT/first_day/firstday_afternoon/LiteOS_Lab_STM32_IoT/iot_link/oc/oc_mqtt/oc_mqtt_tiny_v5\oc_mqtt_tiny.c ****     }
ARM GAS  C:\Users\lenovo\AppData\Local\Temp\cceHxmqh.s 			page 81


1013:c:/Users/lenovo/Desktop/AIoT/first_day/firstday_afternoon/LiteOS_Lab_STM32_IoT/iot_link/oc/oc_mqtt/oc_mqtt_tiny_v5\oc_mqtt_tiny.c ****     else
1014:c:/Users/lenovo/Desktop/AIoT/first_day/firstday_afternoon/LiteOS_Lab_STM32_IoT/iot_link/oc/oc_mqtt/oc_mqtt_tiny_v5\oc_mqtt_tiny.c ****     {
1015:c:/Users/lenovo/Desktop/AIoT/first_day/firstday_afternoon/LiteOS_Lab_STM32_IoT/iot_link/oc/oc_mqtt/oc_mqtt_tiny_v5\oc_mqtt_tiny.c ****         ret = en_oc_mqtt_err_noconected;
 3307              		.loc 1 1015 13
 3308 00d2 0D23     		movs	r3, #13
 3309 00d4 7B61     		str	r3, [r7, #20]
 3310              	.L159:
1016:c:/Users/lenovo/Desktop/AIoT/first_day/firstday_afternoon/LiteOS_Lab_STM32_IoT/iot_link/oc/oc_mqtt/oc_mqtt_tiny_v5\oc_mqtt_tiny.c ****     }
1017:c:/Users/lenovo/Desktop/AIoT/first_day/firstday_afternoon/LiteOS_Lab_STM32_IoT/iot_link/oc/oc_mqtt/oc_mqtt_tiny_v5\oc_mqtt_tiny.c **** 
1018:c:/Users/lenovo/Desktop/AIoT/first_day/firstday_afternoon/LiteOS_Lab_STM32_IoT/iot_link/oc/oc_mqtt/oc_mqtt_tiny_v5\oc_mqtt_tiny.c ****     cmd->retcode = ret;
 3311              		.loc 1 1018 18
 3312 00d6 3B68     		ldr	r3, [r7]
 3313 00d8 7A69     		ldr	r2, [r7, #20]
 3314 00da DA60     		str	r2, [r3, #12]
1019:c:/Users/lenovo/Desktop/AIoT/first_day/firstday_afternoon/LiteOS_Lab_STM32_IoT/iot_link/oc/oc_mqtt/oc_mqtt_tiny_v5\oc_mqtt_tiny.c **** 
1020:c:/Users/lenovo/Desktop/AIoT/first_day/firstday_afternoon/LiteOS_Lab_STM32_IoT/iot_link/oc/oc_mqtt/oc_mqtt_tiny_v5\oc_mqtt_tiny.c ****     return ret;
 3315              		.loc 1 1020 12
 3316 00dc 7B69     		ldr	r3, [r7, #20]
1021:c:/Users/lenovo/Desktop/AIoT/first_day/firstday_afternoon/LiteOS_Lab_STM32_IoT/iot_link/oc/oc_mqtt/oc_mqtt_tiny_v5\oc_mqtt_tiny.c **** 
1022:c:/Users/lenovo/Desktop/AIoT/first_day/firstday_afternoon/LiteOS_Lab_STM32_IoT/iot_link/oc/oc_mqtt/oc_mqtt_tiny_v5\oc_mqtt_tiny.c **** }
 3317              		.loc 1 1022 1
 3318 00de 1846     		mov	r0, r3
 3319 00e0 1837     		adds	r7, r7, #24
 3320              	.LCFI73:
 3321              		.cfi_def_cfa_offset 8
 3322 00e2 BD46     		mov	sp, r7
 3323              	.LCFI74:
 3324              		.cfi_def_cfa_register 13
 3325              		@ sp needed
 3326 00e4 80BD     		pop	{r7, pc}
 3327              	.L166:
 3328 00e6 00BF     		.align	2
 3329              	.L165:
 3330 00e8 00000000 		.word	hub_msg_default_deal
 3331              		.cfi_endproc
 3332              	.LFE17:
 3334              		.section	.text.deal_api_unsubscribe,"ax",%progbits
 3335              		.align	1
 3336              		.syntax unified
 3337              		.thumb
 3338              		.thumb_func
 3339              		.fpu fpv4-sp-d16
 3341              	deal_api_unsubscribe:
 3342              	.LFB18:
1023:c:/Users/lenovo/Desktop/AIoT/first_day/firstday_afternoon/LiteOS_Lab_STM32_IoT/iot_link/oc/oc_mqtt/oc_mqtt_tiny_v5\oc_mqtt_tiny.c **** 
1024:c:/Users/lenovo/Desktop/AIoT/first_day/firstday_afternoon/LiteOS_Lab_STM32_IoT/iot_link/oc/oc_mqtt/oc_mqtt_tiny_v5\oc_mqtt_tiny.c **** ///< unsubscribe the specified topic
1025:c:/Users/lenovo/Desktop/AIoT/first_day/firstday_afternoon/LiteOS_Lab_STM32_IoT/iot_link/oc/oc_mqtt/oc_mqtt_tiny_v5\oc_mqtt_tiny.c **** static int deal_api_unsubscribe( oc_mqtt_tiny_cb_t  *cb, oc_mqtt_daemon_cmd_t *cmd)
1026:c:/Users/lenovo/Desktop/AIoT/first_day/firstday_afternoon/LiteOS_Lab_STM32_IoT/iot_link/oc/oc_mqtt/oc_mqtt_tiny_v5\oc_mqtt_tiny.c **** {
 3343              		.loc 1 1026 1
 3344              		.cfi_startproc
 3345              		@ args = 0, pretend = 0, frame = 24
 3346              		@ frame_needed = 1, uses_anonymous_args = 0
 3347 0000 80B5     		push	{r7, lr}
 3348              	.LCFI75:
 3349              		.cfi_def_cfa_offset 8
 3350              		.cfi_offset 7, -8
 3351              		.cfi_offset 14, -4
ARM GAS  C:\Users\lenovo\AppData\Local\Temp\cceHxmqh.s 			page 82


 3352 0002 86B0     		sub	sp, sp, #24
 3353              	.LCFI76:
 3354              		.cfi_def_cfa_offset 32
 3355 0004 00AF     		add	r7, sp, #0
 3356              	.LCFI77:
 3357              		.cfi_def_cfa_register 7
 3358 0006 7860     		str	r0, [r7, #4]
 3359 0008 3960     		str	r1, [r7]
1027:c:/Users/lenovo/Desktop/AIoT/first_day/firstday_afternoon/LiteOS_Lab_STM32_IoT/iot_link/oc/oc_mqtt/oc_mqtt_tiny_v5\oc_mqtt_tiny.c ****     int ret = en_oc_mqtt_err_noconfigured;
 3360              		.loc 1 1027 9
 3361 000a 0C23     		movs	r3, #12
 3362 000c 7B61     		str	r3, [r7, #20]
1028:c:/Users/lenovo/Desktop/AIoT/first_day/firstday_afternoon/LiteOS_Lab_STM32_IoT/iot_link/oc/oc_mqtt/oc_mqtt_tiny_v5\oc_mqtt_tiny.c ****     tiny_topic_sub_t  *topic_sub;
1029:c:/Users/lenovo/Desktop/AIoT/first_day/firstday_afternoon/LiteOS_Lab_STM32_IoT/iot_link/oc/oc_mqtt/oc_mqtt_tiny_v5\oc_mqtt_tiny.c ****     tiny_topic_sub_t  *topic_sub_nxt;
1030:c:/Users/lenovo/Desktop/AIoT/first_day/firstday_afternoon/LiteOS_Lab_STM32_IoT/iot_link/oc/oc_mqtt/oc_mqtt_tiny_v5\oc_mqtt_tiny.c ****     mqtt_al_unsubpara_t *unsubpara;
1031:c:/Users/lenovo/Desktop/AIoT/first_day/firstday_afternoon/LiteOS_Lab_STM32_IoT/iot_link/oc/oc_mqtt/oc_mqtt_tiny_v5\oc_mqtt_tiny.c **** 
1032:c:/Users/lenovo/Desktop/AIoT/first_day/firstday_afternoon/LiteOS_Lab_STM32_IoT/iot_link/oc/oc_mqtt/oc_mqtt_tiny_v5\oc_mqtt_tiny.c ****     unsubpara = cmd->arg;
 3363              		.loc 1 1032 15
 3364 000e 3B68     		ldr	r3, [r7]
 3365 0010 5B68     		ldr	r3, [r3, #4]
 3366 0012 BB60     		str	r3, [r7, #8]
1033:c:/Users/lenovo/Desktop/AIoT/first_day/firstday_afternoon/LiteOS_Lab_STM32_IoT/iot_link/oc/oc_mqtt/oc_mqtt_tiny_v5\oc_mqtt_tiny.c **** 
1034:c:/Users/lenovo/Desktop/AIoT/first_day/firstday_afternoon/LiteOS_Lab_STM32_IoT/iot_link/oc/oc_mqtt/oc_mqtt_tiny_v5\oc_mqtt_tiny.c ****     if(en_daemon_status_idle == cb->flag.bits.bit_daemon_status)
 3367              		.loc 1 1034 30
 3368 0014 7B68     		ldr	r3, [r7, #4]
 3369 0016 93F86C30 		ldrb	r3, [r3, #108]	@ zero_extendqisi2
 3370 001a 03F00E03 		and	r3, r3, #14
 3371 001e DBB2     		uxtb	r3, r3
 3372              		.loc 1 1034 7
 3373 0020 002B     		cmp	r3, #0
 3374 0022 02D1     		bne	.L168
1035:c:/Users/lenovo/Desktop/AIoT/first_day/firstday_afternoon/LiteOS_Lab_STM32_IoT/iot_link/oc/oc_mqtt/oc_mqtt_tiny_v5\oc_mqtt_tiny.c ****     {
1036:c:/Users/lenovo/Desktop/AIoT/first_day/firstday_afternoon/LiteOS_Lab_STM32_IoT/iot_link/oc/oc_mqtt/oc_mqtt_tiny_v5\oc_mqtt_tiny.c ****         ret = en_oc_mqtt_err_noconfigured;
 3375              		.loc 1 1036 13
 3376 0024 0C23     		movs	r3, #12
 3377 0026 7B61     		str	r3, [r7, #20]
 3378 0028 5AE0     		b	.L169
 3379              	.L168:
1037:c:/Users/lenovo/Desktop/AIoT/first_day/firstday_afternoon/LiteOS_Lab_STM32_IoT/iot_link/oc/oc_mqtt/oc_mqtt_tiny_v5\oc_mqtt_tiny.c ****     }
1038:c:/Users/lenovo/Desktop/AIoT/first_day/firstday_afternoon/LiteOS_Lab_STM32_IoT/iot_link/oc/oc_mqtt/oc_mqtt_tiny_v5\oc_mqtt_tiny.c ****     else if((en_daemon_status_hub_keep == cb->flag.bits.bit_daemon_status) &&\
 3380              		.loc 1 1038 40
 3381 002a 7B68     		ldr	r3, [r7, #4]
 3382 002c 93F86C30 		ldrb	r3, [r3, #108]	@ zero_extendqisi2
 3383 0030 03F00E03 		and	r3, r3, #14
 3384 0034 DBB2     		uxtb	r3, r3
 3385              		.loc 1 1038 12
 3386 0036 062B     		cmp	r3, #6
 3387 0038 50D1     		bne	.L170
1039:c:/Users/lenovo/Desktop/AIoT/first_day/firstday_afternoon/LiteOS_Lab_STM32_IoT/iot_link/oc/oc_mqtt/oc_mqtt_tiny_v5\oc_mqtt_tiny.c ****             (en_mqtt_al_connect_ok == mqtt_al_check_status(cb->mqtt_para.mqtt_handle)))
 3388              		.loc 1 1039 39 discriminator 1
 3389 003a 7B68     		ldr	r3, [r7, #4]
 3390 003c 9B6E     		ldr	r3, [r3, #104]
 3391 003e 1846     		mov	r0, r3
 3392 0040 FFF7FEFF 		bl	mqtt_al_check_status
 3393 0044 0346     		mov	r3, r0
1038:c:/Users/lenovo/Desktop/AIoT/first_day/firstday_afternoon/LiteOS_Lab_STM32_IoT/iot_link/oc/oc_mqtt/oc_mqtt_tiny_v5\oc_mqtt_tiny.c ****             (en_mqtt_al_connect_ok == mqtt_al_check_status(cb->mqtt_para.mqtt_handle)))
 3394              		.loc 1 1038 76 discriminator 1
ARM GAS  C:\Users\lenovo\AppData\Local\Temp\cceHxmqh.s 			page 83


 3395 0046 002B     		cmp	r3, #0
 3396 0048 48D1     		bne	.L170
1040:c:/Users/lenovo/Desktop/AIoT/first_day/firstday_afternoon/LiteOS_Lab_STM32_IoT/iot_link/oc/oc_mqtt/oc_mqtt_tiny_v5\oc_mqtt_tiny.c ****     {
1041:c:/Users/lenovo/Desktop/AIoT/first_day/firstday_afternoon/LiteOS_Lab_STM32_IoT/iot_link/oc/oc_mqtt/oc_mqtt_tiny_v5\oc_mqtt_tiny.c **** 
1042:c:/Users/lenovo/Desktop/AIoT/first_day/firstday_afternoon/LiteOS_Lab_STM32_IoT/iot_link/oc/oc_mqtt/oc_mqtt_tiny_v5\oc_mqtt_tiny.c ****         if( 0  == mqtt_al_unsubscribe( cb->mqtt_para.mqtt_handle, unsubpara) )
 3397              		.loc 1 1042 19
 3398 004a 7B68     		ldr	r3, [r7, #4]
 3399 004c 9B6E     		ldr	r3, [r3, #104]
 3400 004e B968     		ldr	r1, [r7, #8]
 3401 0050 1846     		mov	r0, r3
 3402 0052 FFF7FEFF 		bl	mqtt_al_unsubscribe
 3403 0056 0346     		mov	r3, r0
 3404              		.loc 1 1042 11
 3405 0058 002B     		cmp	r3, #0
 3406 005a 3CD1     		bne	.L171
1043:c:/Users/lenovo/Desktop/AIoT/first_day/firstday_afternoon/LiteOS_Lab_STM32_IoT/iot_link/oc/oc_mqtt/oc_mqtt_tiny_v5\oc_mqtt_tiny.c ****         {
1044:c:/Users/lenovo/Desktop/AIoT/first_day/firstday_afternoon/LiteOS_Lab_STM32_IoT/iot_link/oc/oc_mqtt/oc_mqtt_tiny_v5\oc_mqtt_tiny.c ****             ///< remove the topic from the subscribe list;
1045:c:/Users/lenovo/Desktop/AIoT/first_day/firstday_afternoon/LiteOS_Lab_STM32_IoT/iot_link/oc/oc_mqtt/oc_mqtt_tiny_v5\oc_mqtt_tiny.c ****             topic_sub = cb->subscribe_lst;
 3407              		.loc 1 1045 23
 3408 005c 7B68     		ldr	r3, [r7, #4]
 3409 005e D3F8A430 		ldr	r3, [r3, #164]
 3410 0062 3B61     		str	r3, [r7, #16]
1046:c:/Users/lenovo/Desktop/AIoT/first_day/firstday_afternoon/LiteOS_Lab_STM32_IoT/iot_link/oc/oc_mqtt/oc_mqtt_tiny_v5\oc_mqtt_tiny.c ****             if(NULL != topic_sub)
 3411              		.loc 1 1046 15
 3412 0064 3B69     		ldr	r3, [r7, #16]
 3413 0066 002B     		cmp	r3, #0
 3414 0068 32D0     		beq	.L172
1047:c:/Users/lenovo/Desktop/AIoT/first_day/firstday_afternoon/LiteOS_Lab_STM32_IoT/iot_link/oc/oc_mqtt/oc_mqtt_tiny_v5\oc_mqtt_tiny.c ****             {
1048:c:/Users/lenovo/Desktop/AIoT/first_day/firstday_afternoon/LiteOS_Lab_STM32_IoT/iot_link/oc/oc_mqtt/oc_mqtt_tiny_v5\oc_mqtt_tiny.c ****                 if  ( 0 == strcmp( unsubpara->topic.data, topic_sub->topic ))
 3415              		.loc 1 1048 52
 3416 006a BB68     		ldr	r3, [r7, #8]
 3417 006c 1A68     		ldr	r2, [r3]
 3418              		.loc 1 1048 68
 3419 006e 3B69     		ldr	r3, [r7, #16]
 3420 0070 5B68     		ldr	r3, [r3, #4]
 3421              		.loc 1 1048 28
 3422 0072 1946     		mov	r1, r3
 3423 0074 1046     		mov	r0, r2
 3424 0076 FFF7FEFF 		bl	strcmp
 3425 007a 0346     		mov	r3, r0
 3426              		.loc 1 1048 21
 3427 007c 002B     		cmp	r3, #0
 3428 007e 08D1     		bne	.L173
1049:c:/Users/lenovo/Desktop/AIoT/first_day/firstday_afternoon/LiteOS_Lab_STM32_IoT/iot_link/oc/oc_mqtt/oc_mqtt_tiny_v5\oc_mqtt_tiny.c ****                 {
1050:c:/Users/lenovo/Desktop/AIoT/first_day/firstday_afternoon/LiteOS_Lab_STM32_IoT/iot_link/oc/oc_mqtt/oc_mqtt_tiny_v5\oc_mqtt_tiny.c ****                     cb->subscribe_lst = topic_sub->nxt;
 3429              		.loc 1 1050 50
 3430 0080 3B69     		ldr	r3, [r7, #16]
 3431 0082 1A68     		ldr	r2, [r3]
 3432              		.loc 1 1050 39
 3433 0084 7B68     		ldr	r3, [r7, #4]
 3434 0086 C3F8A420 		str	r2, [r3, #164]
1051:c:/Users/lenovo/Desktop/AIoT/first_day/firstday_afternoon/LiteOS_Lab_STM32_IoT/iot_link/oc/oc_mqtt/oc_mqtt_tiny_v5\oc_mqtt_tiny.c ****                     osal_free(topic_sub);
 3435              		.loc 1 1051 21
 3436 008a 3869     		ldr	r0, [r7, #16]
 3437 008c FFF7FEFF 		bl	osal_free
 3438 0090 1EE0     		b	.L172
 3439              	.L173:
ARM GAS  C:\Users\lenovo\AppData\Local\Temp\cceHxmqh.s 			page 84


1052:c:/Users/lenovo/Desktop/AIoT/first_day/firstday_afternoon/LiteOS_Lab_STM32_IoT/iot_link/oc/oc_mqtt/oc_mqtt_tiny_v5\oc_mqtt_tiny.c ****                 }
1053:c:/Users/lenovo/Desktop/AIoT/first_day/firstday_afternoon/LiteOS_Lab_STM32_IoT/iot_link/oc/oc_mqtt/oc_mqtt_tiny_v5\oc_mqtt_tiny.c ****                 else
1054:c:/Users/lenovo/Desktop/AIoT/first_day/firstday_afternoon/LiteOS_Lab_STM32_IoT/iot_link/oc/oc_mqtt/oc_mqtt_tiny_v5\oc_mqtt_tiny.c ****                 {
1055:c:/Users/lenovo/Desktop/AIoT/first_day/firstday_afternoon/LiteOS_Lab_STM32_IoT/iot_link/oc/oc_mqtt/oc_mqtt_tiny_v5\oc_mqtt_tiny.c ****                     topic_sub_nxt = topic_sub->nxt;
 3440              		.loc 1 1055 35
 3441 0092 3B69     		ldr	r3, [r7, #16]
 3442 0094 1B68     		ldr	r3, [r3]
 3443 0096 FB60     		str	r3, [r7, #12]
1056:c:/Users/lenovo/Desktop/AIoT/first_day/firstday_afternoon/LiteOS_Lab_STM32_IoT/iot_link/oc/oc_mqtt/oc_mqtt_tiny_v5\oc_mqtt_tiny.c ****                     while( NULL != topic_sub_nxt )
 3444              		.loc 1 1056 26
 3445 0098 17E0     		b	.L174
 3446              	.L176:
1057:c:/Users/lenovo/Desktop/AIoT/first_day/firstday_afternoon/LiteOS_Lab_STM32_IoT/iot_link/oc/oc_mqtt/oc_mqtt_tiny_v5\oc_mqtt_tiny.c ****                     {
1058:c:/Users/lenovo/Desktop/AIoT/first_day/firstday_afternoon/LiteOS_Lab_STM32_IoT/iot_link/oc/oc_mqtt/oc_mqtt_tiny_v5\oc_mqtt_tiny.c ****                         if ( 0 == strcmp( unsubpara->topic.data, topic_sub_nxt->topic))
 3447              		.loc 1 1058 59
 3448 009a BB68     		ldr	r3, [r7, #8]
 3449 009c 1A68     		ldr	r2, [r3]
 3450              		.loc 1 1058 79
 3451 009e FB68     		ldr	r3, [r7, #12]
 3452 00a0 5B68     		ldr	r3, [r3, #4]
 3453              		.loc 1 1058 35
 3454 00a2 1946     		mov	r1, r3
 3455 00a4 1046     		mov	r0, r2
 3456 00a6 FFF7FEFF 		bl	strcmp
 3457 00aa 0346     		mov	r3, r0
 3458              		.loc 1 1058 28
 3459 00ac 002B     		cmp	r3, #0
 3460 00ae 07D1     		bne	.L175
1059:c:/Users/lenovo/Desktop/AIoT/first_day/firstday_afternoon/LiteOS_Lab_STM32_IoT/iot_link/oc/oc_mqtt/oc_mqtt_tiny_v5\oc_mqtt_tiny.c ****                         {
1060:c:/Users/lenovo/Desktop/AIoT/first_day/firstday_afternoon/LiteOS_Lab_STM32_IoT/iot_link/oc/oc_mqtt/oc_mqtt_tiny_v5\oc_mqtt_tiny.c ****                             topic_sub->nxt = topic_sub_nxt->nxt;
 3461              		.loc 1 1060 59
 3462 00b0 FB68     		ldr	r3, [r7, #12]
 3463 00b2 1A68     		ldr	r2, [r3]
 3464              		.loc 1 1060 44
 3465 00b4 3B69     		ldr	r3, [r7, #16]
 3466 00b6 1A60     		str	r2, [r3]
1061:c:/Users/lenovo/Desktop/AIoT/first_day/firstday_afternoon/LiteOS_Lab_STM32_IoT/iot_link/oc/oc_mqtt/oc_mqtt_tiny_v5\oc_mqtt_tiny.c ****                             osal_free(topic_sub_nxt);
 3467              		.loc 1 1061 29
 3468 00b8 F868     		ldr	r0, [r7, #12]
 3469 00ba FFF7FEFF 		bl	osal_free
1062:c:/Users/lenovo/Desktop/AIoT/first_day/firstday_afternoon/LiteOS_Lab_STM32_IoT/iot_link/oc/oc_mqtt/oc_mqtt_tiny_v5\oc_mqtt_tiny.c ****                             break;
 3470              		.loc 1 1062 29
 3471 00be 07E0     		b	.L172
 3472              	.L175:
1063:c:/Users/lenovo/Desktop/AIoT/first_day/firstday_afternoon/LiteOS_Lab_STM32_IoT/iot_link/oc/oc_mqtt/oc_mqtt_tiny_v5\oc_mqtt_tiny.c ****                         }
1064:c:/Users/lenovo/Desktop/AIoT/first_day/firstday_afternoon/LiteOS_Lab_STM32_IoT/iot_link/oc/oc_mqtt/oc_mqtt_tiny_v5\oc_mqtt_tiny.c ****                         else
1065:c:/Users/lenovo/Desktop/AIoT/first_day/firstday_afternoon/LiteOS_Lab_STM32_IoT/iot_link/oc/oc_mqtt/oc_mqtt_tiny_v5\oc_mqtt_tiny.c ****                         {
1066:c:/Users/lenovo/Desktop/AIoT/first_day/firstday_afternoon/LiteOS_Lab_STM32_IoT/iot_link/oc/oc_mqtt/oc_mqtt_tiny_v5\oc_mqtt_tiny.c ****                             topic_sub = topic_sub_nxt;
 3473              		.loc 1 1066 39
 3474 00c0 FB68     		ldr	r3, [r7, #12]
 3475 00c2 3B61     		str	r3, [r7, #16]
1067:c:/Users/lenovo/Desktop/AIoT/first_day/firstday_afternoon/LiteOS_Lab_STM32_IoT/iot_link/oc/oc_mqtt/oc_mqtt_tiny_v5\oc_mqtt_tiny.c ****                             topic_sub_nxt = topic_sub_nxt->nxt;
 3476              		.loc 1 1067 43
 3477 00c4 FB68     		ldr	r3, [r7, #12]
 3478 00c6 1B68     		ldr	r3, [r3]
 3479 00c8 FB60     		str	r3, [r7, #12]
 3480              	.L174:
ARM GAS  C:\Users\lenovo\AppData\Local\Temp\cceHxmqh.s 			page 85


1056:c:/Users/lenovo/Desktop/AIoT/first_day/firstday_afternoon/LiteOS_Lab_STM32_IoT/iot_link/oc/oc_mqtt/oc_mqtt_tiny_v5\oc_mqtt_tiny.c ****                     {
 3481              		.loc 1 1056 26
 3482 00ca FB68     		ldr	r3, [r7, #12]
 3483 00cc 002B     		cmp	r3, #0
 3484 00ce E4D1     		bne	.L176
 3485              	.L172:
1068:c:/Users/lenovo/Desktop/AIoT/first_day/firstday_afternoon/LiteOS_Lab_STM32_IoT/iot_link/oc/oc_mqtt/oc_mqtt_tiny_v5\oc_mqtt_tiny.c ****                         }
1069:c:/Users/lenovo/Desktop/AIoT/first_day/firstday_afternoon/LiteOS_Lab_STM32_IoT/iot_link/oc/oc_mqtt/oc_mqtt_tiny_v5\oc_mqtt_tiny.c ****                     }
1070:c:/Users/lenovo/Desktop/AIoT/first_day/firstday_afternoon/LiteOS_Lab_STM32_IoT/iot_link/oc/oc_mqtt/oc_mqtt_tiny_v5\oc_mqtt_tiny.c ****                 }
1071:c:/Users/lenovo/Desktop/AIoT/first_day/firstday_afternoon/LiteOS_Lab_STM32_IoT/iot_link/oc/oc_mqtt/oc_mqtt_tiny_v5\oc_mqtt_tiny.c ****             }
1072:c:/Users/lenovo/Desktop/AIoT/first_day/firstday_afternoon/LiteOS_Lab_STM32_IoT/iot_link/oc/oc_mqtt/oc_mqtt_tiny_v5\oc_mqtt_tiny.c ****             ret = en_oc_mqtt_err_ok;
 3486              		.loc 1 1072 17
 3487 00d0 0023     		movs	r3, #0
 3488 00d2 7B61     		str	r3, [r7, #20]
1042:c:/Users/lenovo/Desktop/AIoT/first_day/firstday_afternoon/LiteOS_Lab_STM32_IoT/iot_link/oc/oc_mqtt/oc_mqtt_tiny_v5\oc_mqtt_tiny.c ****         {
 3489              		.loc 1 1042 11
 3490 00d4 04E0     		b	.L169
 3491              	.L171:
1073:c:/Users/lenovo/Desktop/AIoT/first_day/firstday_afternoon/LiteOS_Lab_STM32_IoT/iot_link/oc/oc_mqtt/oc_mqtt_tiny_v5\oc_mqtt_tiny.c ****         }
1074:c:/Users/lenovo/Desktop/AIoT/first_day/firstday_afternoon/LiteOS_Lab_STM32_IoT/iot_link/oc/oc_mqtt/oc_mqtt_tiny_v5\oc_mqtt_tiny.c ****         else
1075:c:/Users/lenovo/Desktop/AIoT/first_day/firstday_afternoon/LiteOS_Lab_STM32_IoT/iot_link/oc/oc_mqtt/oc_mqtt_tiny_v5\oc_mqtt_tiny.c ****         {
1076:c:/Users/lenovo/Desktop/AIoT/first_day/firstday_afternoon/LiteOS_Lab_STM32_IoT/iot_link/oc/oc_mqtt/oc_mqtt_tiny_v5\oc_mqtt_tiny.c ****             ret = en_oc_mqtt_err_unsubscribe;
 3492              		.loc 1 1076 17
 3493 00d6 0923     		movs	r3, #9
 3494 00d8 7B61     		str	r3, [r7, #20]
1042:c:/Users/lenovo/Desktop/AIoT/first_day/firstday_afternoon/LiteOS_Lab_STM32_IoT/iot_link/oc/oc_mqtt/oc_mqtt_tiny_v5\oc_mqtt_tiny.c ****         {
 3495              		.loc 1 1042 11
 3496 00da 01E0     		b	.L169
 3497              	.L170:
1077:c:/Users/lenovo/Desktop/AIoT/first_day/firstday_afternoon/LiteOS_Lab_STM32_IoT/iot_link/oc/oc_mqtt/oc_mqtt_tiny_v5\oc_mqtt_tiny.c ****         }
1078:c:/Users/lenovo/Desktop/AIoT/first_day/firstday_afternoon/LiteOS_Lab_STM32_IoT/iot_link/oc/oc_mqtt/oc_mqtt_tiny_v5\oc_mqtt_tiny.c ****     }
1079:c:/Users/lenovo/Desktop/AIoT/first_day/firstday_afternoon/LiteOS_Lab_STM32_IoT/iot_link/oc/oc_mqtt/oc_mqtt_tiny_v5\oc_mqtt_tiny.c ****     else
1080:c:/Users/lenovo/Desktop/AIoT/first_day/firstday_afternoon/LiteOS_Lab_STM32_IoT/iot_link/oc/oc_mqtt/oc_mqtt_tiny_v5\oc_mqtt_tiny.c ****     {
1081:c:/Users/lenovo/Desktop/AIoT/first_day/firstday_afternoon/LiteOS_Lab_STM32_IoT/iot_link/oc/oc_mqtt/oc_mqtt_tiny_v5\oc_mqtt_tiny.c ****         ret = en_oc_mqtt_err_noconected;
 3498              		.loc 1 1081 13
 3499 00dc 0D23     		movs	r3, #13
 3500 00de 7B61     		str	r3, [r7, #20]
 3501              	.L169:
1082:c:/Users/lenovo/Desktop/AIoT/first_day/firstday_afternoon/LiteOS_Lab_STM32_IoT/iot_link/oc/oc_mqtt/oc_mqtt_tiny_v5\oc_mqtt_tiny.c ****     }
1083:c:/Users/lenovo/Desktop/AIoT/first_day/firstday_afternoon/LiteOS_Lab_STM32_IoT/iot_link/oc/oc_mqtt/oc_mqtt_tiny_v5\oc_mqtt_tiny.c **** 
1084:c:/Users/lenovo/Desktop/AIoT/first_day/firstday_afternoon/LiteOS_Lab_STM32_IoT/iot_link/oc/oc_mqtt/oc_mqtt_tiny_v5\oc_mqtt_tiny.c ****     cmd->retcode = ret;
 3502              		.loc 1 1084 18
 3503 00e0 3B68     		ldr	r3, [r7]
 3504 00e2 7A69     		ldr	r2, [r7, #20]
 3505 00e4 DA60     		str	r2, [r3, #12]
1085:c:/Users/lenovo/Desktop/AIoT/first_day/firstday_afternoon/LiteOS_Lab_STM32_IoT/iot_link/oc/oc_mqtt/oc_mqtt_tiny_v5\oc_mqtt_tiny.c **** 
1086:c:/Users/lenovo/Desktop/AIoT/first_day/firstday_afternoon/LiteOS_Lab_STM32_IoT/iot_link/oc/oc_mqtt/oc_mqtt_tiny_v5\oc_mqtt_tiny.c ****     return ret;
 3506              		.loc 1 1086 12
 3507 00e6 7B69     		ldr	r3, [r7, #20]
1087:c:/Users/lenovo/Desktop/AIoT/first_day/firstday_afternoon/LiteOS_Lab_STM32_IoT/iot_link/oc/oc_mqtt/oc_mqtt_tiny_v5\oc_mqtt_tiny.c **** 
1088:c:/Users/lenovo/Desktop/AIoT/first_day/firstday_afternoon/LiteOS_Lab_STM32_IoT/iot_link/oc/oc_mqtt/oc_mqtt_tiny_v5\oc_mqtt_tiny.c **** }
 3508              		.loc 1 1088 1
 3509 00e8 1846     		mov	r0, r3
 3510 00ea 1837     		adds	r7, r7, #24
 3511              	.LCFI78:
 3512              		.cfi_def_cfa_offset 8
 3513 00ec BD46     		mov	sp, r7
ARM GAS  C:\Users\lenovo\AppData\Local\Temp\cceHxmqh.s 			page 86


 3514              	.LCFI79:
 3515              		.cfi_def_cfa_register 13
 3516              		@ sp needed
 3517 00ee 80BD     		pop	{r7, pc}
 3518              		.cfi_endproc
 3519              	.LFE18:
 3521              		.section	.rodata
 3522 03b5 000000   		.align	2
 3523              	.LC37:
 3524 03b8 25733A73 		.ascii	"%s:start\012\015\000"
 3524      74617274 
 3524      0A0D00
 3525 03c3 00       		.align	2
 3526              	.LC38:
 3527 03c4 6461656D 		.ascii	"daemon:publish enter\012\015\000"
 3527      6F6E3A70 
 3527      75626C69 
 3527      73682065 
 3527      6E746572 
 3528 03db 00       		.align	2
 3529              	.LC39:
 3530 03dc 6461656D 		.ascii	"daemon:publish exit\012\015\000"
 3530      6F6E3A70 
 3530      75626C69 
 3530      73682065 
 3530      7869740A 
 3531 03f2 0000     		.align	2
 3532              	.LC40:
 3533 03f4 6461656D 		.ascii	"daemon:subscribe enter\012\015\000"
 3533      6F6E3A73 
 3533      75627363 
 3533      72696265 
 3533      20656E74 
 3534 040d 000000   		.align	2
 3535              	.LC41:
 3536 0410 6461656D 		.ascii	"daemon:subscribe exit\012\015\000"
 3536      6F6E3A73 
 3536      75627363 
 3536      72696265 
 3536      20657869 
 3537              		.align	2
 3538              	.LC42:
 3539 0428 6461656D 		.ascii	"daemon:unsubscribe enter\012\015\000"
 3539      6F6E3A75 
 3539      6E737562 
 3539      73637269 
 3539      62652065 
 3540 0443 00       		.align	2
 3541              	.LC43:
 3542 0444 6461656D 		.ascii	"daemon:unsubscribe exit\012\015\000"
 3542      6F6E3A75 
 3542      6E737562 
 3542      73637269 
 3542      62652065 
 3543              		.section	.text.daemon_entry,"ax",%progbits
 3544              		.align	1
 3545              		.syntax unified
ARM GAS  C:\Users\lenovo\AppData\Local\Temp\cceHxmqh.s 			page 87


 3546              		.thumb
 3547              		.thumb_func
 3548              		.fpu fpv4-sp-d16
 3550              	daemon_entry:
 3551              	.LFB19:
1089:c:/Users/lenovo/Desktop/AIoT/first_day/firstday_afternoon/LiteOS_Lab_STM32_IoT/iot_link/oc/oc_mqtt/oc_mqtt_tiny_v5\oc_mqtt_tiny.c **** 
1090:c:/Users/lenovo/Desktop/AIoT/first_day/firstday_afternoon/LiteOS_Lab_STM32_IoT/iot_link/oc/oc_mqtt/oc_mqtt_tiny_v5\oc_mqtt_tiny.c **** 
1091:c:/Users/lenovo/Desktop/AIoT/first_day/firstday_afternoon/LiteOS_Lab_STM32_IoT/iot_link/oc/oc_mqtt/oc_mqtt_tiny_v5\oc_mqtt_tiny.c **** ///< this is the daemon task entry
1092:c:/Users/lenovo/Desktop/AIoT/first_day/firstday_afternoon/LiteOS_Lab_STM32_IoT/iot_link/oc/oc_mqtt/oc_mqtt_tiny_v5\oc_mqtt_tiny.c **** static int daemon_entry(void *arg)
1093:c:/Users/lenovo/Desktop/AIoT/first_day/firstday_afternoon/LiteOS_Lab_STM32_IoT/iot_link/oc/oc_mqtt/oc_mqtt_tiny_v5\oc_mqtt_tiny.c **** {
 3552              		.loc 1 1093 1
 3553              		.cfi_startproc
 3554              		@ args = 0, pretend = 0, frame = 24
 3555              		@ frame_needed = 1, uses_anonymous_args = 0
 3556 0000 90B5     		push	{r4, r7, lr}
 3557              	.LCFI80:
 3558              		.cfi_def_cfa_offset 12
 3559              		.cfi_offset 4, -12
 3560              		.cfi_offset 7, -8
 3561              		.cfi_offset 14, -4
 3562 0002 89B0     		sub	sp, sp, #36
 3563              	.LCFI81:
 3564              		.cfi_def_cfa_offset 48
 3565 0004 02AF     		add	r7, sp, #8
 3566              	.LCFI82:
 3567              		.cfi_def_cfa 7, 40
 3568 0006 7860     		str	r0, [r7, #4]
1094:c:/Users/lenovo/Desktop/AIoT/first_day/firstday_afternoon/LiteOS_Lab_STM32_IoT/iot_link/oc/oc_mqtt/oc_mqtt_tiny_v5\oc_mqtt_tiny.c ****     int ret = en_oc_mqtt_err_ok;
 3569              		.loc 1 1094 9
 3570 0008 0023     		movs	r3, #0
 3571 000a 7B61     		str	r3, [r7, #20]
1095:c:/Users/lenovo/Desktop/AIoT/first_day/firstday_afternoon/LiteOS_Lab_STM32_IoT/iot_link/oc/oc_mqtt/oc_mqtt_tiny_v5\oc_mqtt_tiny.c ****     oc_mqtt_tiny_cb_t  *cb;
1096:c:/Users/lenovo/Desktop/AIoT/first_day/firstday_afternoon/LiteOS_Lab_STM32_IoT/iot_link/oc/oc_mqtt/oc_mqtt_tiny_v5\oc_mqtt_tiny.c ****     oc_mqtt_daemon_cmd_t   *daemon_cmd = NULL;
 3572              		.loc 1 1096 29
 3573 000c 0023     		movs	r3, #0
 3574 000e BB60     		str	r3, [r7, #8]
1097:c:/Users/lenovo/Desktop/AIoT/first_day/firstday_afternoon/LiteOS_Lab_STM32_IoT/iot_link/oc/oc_mqtt/oc_mqtt_tiny_v5\oc_mqtt_tiny.c **** 
1098:c:/Users/lenovo/Desktop/AIoT/first_day/firstday_afternoon/LiteOS_Lab_STM32_IoT/iot_link/oc/oc_mqtt/oc_mqtt_tiny_v5\oc_mqtt_tiny.c ****     cb = arg;
 3575              		.loc 1 1098 8
 3576 0010 7B68     		ldr	r3, [r7, #4]
 3577 0012 3B61     		str	r3, [r7, #16]
1099:c:/Users/lenovo/Desktop/AIoT/first_day/firstday_afternoon/LiteOS_Lab_STM32_IoT/iot_link/oc/oc_mqtt/oc_mqtt_tiny_v5\oc_mqtt_tiny.c ****     printf("%s:start\n\r",__FUNCTION__);
 3578              		.loc 1 1099 5
 3579 0014 9349     		ldr	r1, .L203
 3580 0016 9448     		ldr	r0, .L203+4
 3581 0018 FFF7FEFF 		bl	printf
 3582              	.L201:
1100:c:/Users/lenovo/Desktop/AIoT/first_day/firstday_afternoon/LiteOS_Lab_STM32_IoT/iot_link/oc/oc_mqtt/oc_mqtt_tiny_v5\oc_mqtt_tiny.c ****     while(1)
1101:c:/Users/lenovo/Desktop/AIoT/first_day/firstday_afternoon/LiteOS_Lab_STM32_IoT/iot_link/oc/oc_mqtt/oc_mqtt_tiny_v5\oc_mqtt_tiny.c ****     {
1102:c:/Users/lenovo/Desktop/AIoT/first_day/firstday_afternoon/LiteOS_Lab_STM32_IoT/iot_link/oc/oc_mqtt/oc_mqtt_tiny_v5\oc_mqtt_tiny.c ****         if(0 == queue_pop(cb->task_daemon_cmd_queue,(void **)&daemon_cmd,10*1000))
 3583              		.loc 1 1102 17
 3584 001c 3B69     		ldr	r3, [r7, #16]
 3585 001e DB6F     		ldr	r3, [r3, #124]
 3586 0020 07F10801 		add	r1, r7, #8
 3587 0024 42F21072 		movw	r2, #10000
 3588 0028 1846     		mov	r0, r3
 3589 002a FFF7FEFF 		bl	queue_pop
ARM GAS  C:\Users\lenovo\AppData\Local\Temp\cceHxmqh.s 			page 88


 3590 002e 0346     		mov	r3, r0
 3591              		.loc 1 1102 11
 3592 0030 002B     		cmp	r3, #0
 3593 0032 40F0DA80 		bne	.L180
1103:c:/Users/lenovo/Desktop/AIoT/first_day/firstday_afternoon/LiteOS_Lab_STM32_IoT/iot_link/oc/oc_mqtt/oc_mqtt_tiny_v5\oc_mqtt_tiny.c ****         {
1104:c:/Users/lenovo/Desktop/AIoT/first_day/firstday_afternoon/LiteOS_Lab_STM32_IoT/iot_link/oc/oc_mqtt/oc_mqtt_tiny_v5\oc_mqtt_tiny.c ****             ret = en_oc_mqtt_err_ok;
 3594              		.loc 1 1104 17
 3595 0036 0023     		movs	r3, #0
 3596 0038 7B61     		str	r3, [r7, #20]
1105:c:/Users/lenovo/Desktop/AIoT/first_day/firstday_afternoon/LiteOS_Lab_STM32_IoT/iot_link/oc/oc_mqtt/oc_mqtt_tiny_v5\oc_mqtt_tiny.c ****             switch (daemon_cmd->cmd)             ///< execute the command here
 3597              		.loc 1 1105 31
 3598 003a BB68     		ldr	r3, [r7, #8]
 3599 003c 1B78     		ldrb	r3, [r3]	@ zero_extendqisi2
 3600 003e 052B     		cmp	r3, #5
 3601 0040 00F2CD80 		bhi	.L202
 3602 0044 01A2     		adr	r2, .L183
 3603 0046 52F823F0 		ldr	pc, [r2, r3, lsl #2]
 3604 004a 00BF     		.p2align 2
 3605              	.L183:
 3606 004c 65000000 		.word	.L187+1
 3607 0050 DF010000 		.word	.L202+1
 3608 0054 3B010000 		.word	.L186+1
 3609 0058 AF010000 		.word	.L185+1
 3610 005c C7010000 		.word	.L184+1
 3611 0060 0F010000 		.word	.L182+1
 3612              		.p2align 1
 3613              	.L187:
1106:c:/Users/lenovo/Desktop/AIoT/first_day/firstday_afternoon/LiteOS_Lab_STM32_IoT/iot_link/oc/oc_mqtt/oc_mqtt_tiny_v5\oc_mqtt_tiny.c ****             {
1107:c:/Users/lenovo/Desktop/AIoT/first_day/firstday_afternoon/LiteOS_Lab_STM32_IoT/iot_link/oc/oc_mqtt/oc_mqtt_tiny_v5\oc_mqtt_tiny.c ****                 case en_oc_mqtt_daemon_cmd_connect:
1108:c:/Users/lenovo/Desktop/AIoT/first_day/firstday_afternoon/LiteOS_Lab_STM32_IoT/iot_link/oc/oc_mqtt/oc_mqtt_tiny_v5\oc_mqtt_tiny.c ****                     if(cb->flag.bits.bit_daemon_status != en_daemon_status_idle)
 3614              		.loc 1 1108 56
 3615 0064 3B69     		ldr	r3, [r7, #16]
 3616 0066 93F86C30 		ldrb	r3, [r3, #108]	@ zero_extendqisi2
 3617 006a 03F00E03 		and	r3, r3, #14
 3618 006e DBB2     		uxtb	r3, r3
 3619              		.loc 1 1108 23
 3620 0070 002B     		cmp	r3, #0
 3621 0072 02D0     		beq	.L188
1109:c:/Users/lenovo/Desktop/AIoT/first_day/firstday_afternoon/LiteOS_Lab_STM32_IoT/iot_link/oc/oc_mqtt/oc_mqtt_tiny_v5\oc_mqtt_tiny.c ****                     {
1110:c:/Users/lenovo/Desktop/AIoT/first_day/firstday_afternoon/LiteOS_Lab_STM32_IoT/iot_link/oc/oc_mqtt/oc_mqtt_tiny_v5\oc_mqtt_tiny.c ****                          ret = en_oc_mqtt_err_configured;
 3622              		.loc 1 1110 30
 3623 0074 0B23     		movs	r3, #11
 3624 0076 7B61     		str	r3, [r7, #20]
 3625 0078 45E0     		b	.L189
 3626              	.L188:
1111:c:/Users/lenovo/Desktop/AIoT/first_day/firstday_afternoon/LiteOS_Lab_STM32_IoT/iot_link/oc/oc_mqtt/oc_mqtt_tiny_v5\oc_mqtt_tiny.c ****                     }
1112:c:/Users/lenovo/Desktop/AIoT/first_day/firstday_afternoon/LiteOS_Lab_STM32_IoT/iot_link/oc/oc_mqtt/oc_mqtt_tiny_v5\oc_mqtt_tiny.c ****                     else
1113:c:/Users/lenovo/Desktop/AIoT/first_day/firstday_afternoon/LiteOS_Lab_STM32_IoT/iot_link/oc/oc_mqtt/oc_mqtt_tiny_v5\oc_mqtt_tiny.c ****                     {
1114:c:/Users/lenovo/Desktop/AIoT/first_day/firstday_afternoon/LiteOS_Lab_STM32_IoT/iot_link/oc/oc_mqtt/oc_mqtt_tiny_v5\oc_mqtt_tiny.c ****                         ret = config_parameter_clone(cb,daemon_cmd->arg);
 3627              		.loc 1 1114 67
 3628 007a BB68     		ldr	r3, [r7, #8]
 3629 007c 5B68     		ldr	r3, [r3, #4]
 3630              		.loc 1 1114 31
 3631 007e 1946     		mov	r1, r3
 3632 0080 3869     		ldr	r0, [r7, #16]
 3633 0082 FFF7FEFF 		bl	config_parameter_clone
 3634 0086 7861     		str	r0, [r7, #20]
ARM GAS  C:\Users\lenovo\AppData\Local\Temp\cceHxmqh.s 			page 89


1115:c:/Users/lenovo/Desktop/AIoT/first_day/firstday_afternoon/LiteOS_Lab_STM32_IoT/iot_link/oc/oc_mqtt/oc_mqtt_tiny_v5\oc_mqtt_tiny.c ****                         if((ret == en_oc_mqtt_err_ok) && (cb->flag.bits.bit_bs_enable))
 3635              		.loc 1 1115 27
 3636 0088 7B69     		ldr	r3, [r7, #20]
 3637 008a 002B     		cmp	r3, #0
 3638 008c 13D1     		bne	.L190
 3639              		.loc 1 1115 55 discriminator 1
 3640 008e 3B69     		ldr	r3, [r7, #16]
 3641 0090 93F86C30 		ldrb	r3, [r3, #108]	@ zero_extendqisi2
 3642 0094 03F00103 		and	r3, r3, #1
 3643 0098 DBB2     		uxtb	r3, r3
 3644 009a 002B     		cmp	r3, #0
 3645 009c 0BD0     		beq	.L190
1116:c:/Users/lenovo/Desktop/AIoT/first_day/firstday_afternoon/LiteOS_Lab_STM32_IoT/iot_link/oc/oc_mqtt/oc_mqtt_tiny_v5\oc_mqtt_tiny.c ****                         {
1117:c:/Users/lenovo/Desktop/AIoT/first_day/firstday_afternoon/LiteOS_Lab_STM32_IoT/iot_link/oc/oc_mqtt/oc_mqtt_tiny_v5\oc_mqtt_tiny.c ****                             cb->flag.bits.bit_daemon_status = en_daemon_status_bs_getaddr;
 3646              		.loc 1 1117 61
 3647 009e 3A69     		ldr	r2, [r7, #16]
 3648 00a0 92F86C30 		ldrb	r3, [r2, #108]
 3649 00a4 0121     		movs	r1, #1
 3650 00a6 61F34303 		bfi	r3, r1, #1, #3
 3651 00aa 82F86C30 		strb	r3, [r2, #108]
1118:c:/Users/lenovo/Desktop/AIoT/first_day/firstday_afternoon/LiteOS_Lab_STM32_IoT/iot_link/oc/oc_mqtt/oc_mqtt_tiny_v5\oc_mqtt_tiny.c ****                             ret = bs_step(cb);
 3652              		.loc 1 1118 35
 3653 00ae 3869     		ldr	r0, [r7, #16]
 3654 00b0 FFF7FEFF 		bl	bs_step
 3655 00b4 7861     		str	r0, [r7, #20]
 3656              	.L190:
1119:c:/Users/lenovo/Desktop/AIoT/first_day/firstday_afternoon/LiteOS_Lab_STM32_IoT/iot_link/oc/oc_mqtt/oc_mqtt_tiny_v5\oc_mqtt_tiny.c ****                         }
1120:c:/Users/lenovo/Desktop/AIoT/first_day/firstday_afternoon/LiteOS_Lab_STM32_IoT/iot_link/oc/oc_mqtt/oc_mqtt_tiny_v5\oc_mqtt_tiny.c ****                         if(ret == en_oc_mqtt_err_ok)
 3657              		.loc 1 1120 27
 3658 00b6 7B69     		ldr	r3, [r7, #20]
 3659 00b8 002B     		cmp	r3, #0
 3660 00ba 0BD1     		bne	.L191
1121:c:/Users/lenovo/Desktop/AIoT/first_day/firstday_afternoon/LiteOS_Lab_STM32_IoT/iot_link/oc/oc_mqtt/oc_mqtt_tiny_v5\oc_mqtt_tiny.c ****                         {
1122:c:/Users/lenovo/Desktop/AIoT/first_day/firstday_afternoon/LiteOS_Lab_STM32_IoT/iot_link/oc/oc_mqtt/oc_mqtt_tiny_v5\oc_mqtt_tiny.c ****                             cb->flag.bits.bit_daemon_status = en_daemon_status_dmp_connecting;  ///
 3661              		.loc 1 1122 61
 3662 00bc 3A69     		ldr	r2, [r7, #16]
 3663 00be 92F86C30 		ldrb	r3, [r2, #108]
 3664 00c2 0221     		movs	r1, #2
 3665 00c4 61F34303 		bfi	r3, r1, #1, #3
 3666 00c8 82F86C30 		strb	r3, [r2, #108]
1123:c:/Users/lenovo/Desktop/AIoT/first_day/firstday_afternoon/LiteOS_Lab_STM32_IoT/iot_link/oc/oc_mqtt/oc_mqtt_tiny_v5\oc_mqtt_tiny.c ****                             ret = hub_step(cb);
 3667              		.loc 1 1123 35
 3668 00cc 3869     		ldr	r0, [r7, #16]
 3669 00ce FFF7FEFF 		bl	hub_step
 3670 00d2 7861     		str	r0, [r7, #20]
 3671              	.L191:
1124:c:/Users/lenovo/Desktop/AIoT/first_day/firstday_afternoon/LiteOS_Lab_STM32_IoT/iot_link/oc/oc_mqtt/oc_mqtt_tiny_v5\oc_mqtt_tiny.c ****                         }
1125:c:/Users/lenovo/Desktop/AIoT/first_day/firstday_afternoon/LiteOS_Lab_STM32_IoT/iot_link/oc/oc_mqtt/oc_mqtt_tiny_v5\oc_mqtt_tiny.c **** 
1126:c:/Users/lenovo/Desktop/AIoT/first_day/firstday_afternoon/LiteOS_Lab_STM32_IoT/iot_link/oc/oc_mqtt/oc_mqtt_tiny_v5\oc_mqtt_tiny.c ****                         if(ret == en_oc_mqtt_err_ok)
 3672              		.loc 1 1126 27
 3673 00d4 7B69     		ldr	r3, [r7, #20]
 3674 00d6 002B     		cmp	r3, #0
 3675 00d8 08D1     		bne	.L192
1127:c:/Users/lenovo/Desktop/AIoT/first_day/firstday_afternoon/LiteOS_Lab_STM32_IoT/iot_link/oc/oc_mqtt/oc_mqtt_tiny_v5\oc_mqtt_tiny.c ****                         {
1128:c:/Users/lenovo/Desktop/AIoT/first_day/firstday_afternoon/LiteOS_Lab_STM32_IoT/iot_link/oc/oc_mqtt/oc_mqtt_tiny_v5\oc_mqtt_tiny.c ****                             cb->flag.bits.bit_daemon_status = en_daemon_status_hub_keep;    ///< no
 3676              		.loc 1 1128 61
 3677 00da 3A69     		ldr	r2, [r7, #16]
ARM GAS  C:\Users\lenovo\AppData\Local\Temp\cceHxmqh.s 			page 90


 3678 00dc 92F86C30 		ldrb	r3, [r2, #108]
 3679 00e0 0321     		movs	r1, #3
 3680 00e2 61F34303 		bfi	r3, r1, #1, #3
 3681 00e6 82F86C30 		strb	r3, [r2, #108]
 3682 00ea 0CE0     		b	.L189
 3683              	.L192:
1129:c:/Users/lenovo/Desktop/AIoT/first_day/firstday_afternoon/LiteOS_Lab_STM32_IoT/iot_link/oc/oc_mqtt/oc_mqtt_tiny_v5\oc_mqtt_tiny.c ****                         }
1130:c:/Users/lenovo/Desktop/AIoT/first_day/firstday_afternoon/LiteOS_Lab_STM32_IoT/iot_link/oc/oc_mqtt/oc_mqtt_tiny_v5\oc_mqtt_tiny.c ****                         else
1131:c:/Users/lenovo/Desktop/AIoT/first_day/firstday_afternoon/LiteOS_Lab_STM32_IoT/iot_link/oc/oc_mqtt/oc_mqtt_tiny_v5\oc_mqtt_tiny.c ****                         {
1132:c:/Users/lenovo/Desktop/AIoT/first_day/firstday_afternoon/LiteOS_Lab_STM32_IoT/iot_link/oc/oc_mqtt/oc_mqtt_tiny_v5\oc_mqtt_tiny.c ****                             cb->flag.bits.bit_daemon_status = en_daemon_status_idle;
 3684              		.loc 1 1132 61
 3685 00ec 3A69     		ldr	r2, [r7, #16]
 3686 00ee 92F86C30 		ldrb	r3, [r2, #108]
 3687 00f2 6FF34303 		bfc	r3, #1, #3
 3688 00f6 82F86C30 		strb	r3, [r2, #108]
1133:c:/Users/lenovo/Desktop/AIoT/first_day/firstday_afternoon/LiteOS_Lab_STM32_IoT/iot_link/oc/oc_mqtt/oc_mqtt_tiny_v5\oc_mqtt_tiny.c ****                             oc_mqtt_para_release(cb);
 3689              		.loc 1 1133 29
 3690 00fa 3869     		ldr	r0, [r7, #16]
 3691 00fc FFF7FEFF 		bl	oc_mqtt_para_release
1134:c:/Users/lenovo/Desktop/AIoT/first_day/firstday_afternoon/LiteOS_Lab_STM32_IoT/iot_link/oc/oc_mqtt/oc_mqtt_tiny_v5\oc_mqtt_tiny.c ****                             config_parameter_release(cb);
 3692              		.loc 1 1134 29
 3693 0100 3869     		ldr	r0, [r7, #16]
 3694 0102 FFF7FEFF 		bl	config_parameter_release
 3695              	.L189:
1135:c:/Users/lenovo/Desktop/AIoT/first_day/firstday_afternoon/LiteOS_Lab_STM32_IoT/iot_link/oc/oc_mqtt/oc_mqtt_tiny_v5\oc_mqtt_tiny.c ****                         }
1136:c:/Users/lenovo/Desktop/AIoT/first_day/firstday_afternoon/LiteOS_Lab_STM32_IoT/iot_link/oc/oc_mqtt/oc_mqtt_tiny_v5\oc_mqtt_tiny.c ****                     }
1137:c:/Users/lenovo/Desktop/AIoT/first_day/firstday_afternoon/LiteOS_Lab_STM32_IoT/iot_link/oc/oc_mqtt/oc_mqtt_tiny_v5\oc_mqtt_tiny.c ****                     daemon_cmd->retcode = ret;
 3696              		.loc 1 1137 31
 3697 0106 BB68     		ldr	r3, [r7, #8]
 3698              		.loc 1 1137 41
 3699 0108 7A69     		ldr	r2, [r7, #20]
 3700 010a DA60     		str	r2, [r3, #12]
1138:c:/Users/lenovo/Desktop/AIoT/first_day/firstday_afternoon/LiteOS_Lab_STM32_IoT/iot_link/oc/oc_mqtt/oc_mqtt_tiny_v5\oc_mqtt_tiny.c ****                     break;
 3701              		.loc 1 1138 21
 3702 010c 68E0     		b	.L193
 3703              	.L182:
1139:c:/Users/lenovo/Desktop/AIoT/first_day/firstday_afternoon/LiteOS_Lab_STM32_IoT/iot_link/oc/oc_mqtt/oc_mqtt_tiny_v5\oc_mqtt_tiny.c ****                 case en_oc_mqtt_daemon_cmd_disconnect:
1140:c:/Users/lenovo/Desktop/AIoT/first_day/firstday_afternoon/LiteOS_Lab_STM32_IoT/iot_link/oc/oc_mqtt/oc_mqtt_tiny_v5\oc_mqtt_tiny.c ****                     if(cb->flag.bits.bit_daemon_status == en_daemon_status_idle)
 3704              		.loc 1 1140 56
 3705 010e 3B69     		ldr	r3, [r7, #16]
 3706 0110 93F86C30 		ldrb	r3, [r3, #108]	@ zero_extendqisi2
 3707 0114 03F00E03 		and	r3, r3, #14
 3708 0118 DBB2     		uxtb	r3, r3
 3709              		.loc 1 1140 23
 3710 011a 002B     		cmp	r3, #0
 3711 011c 03D1     		bne	.L194
1141:c:/Users/lenovo/Desktop/AIoT/first_day/firstday_afternoon/LiteOS_Lab_STM32_IoT/iot_link/oc/oc_mqtt/oc_mqtt_tiny_v5\oc_mqtt_tiny.c ****                     {
1142:c:/Users/lenovo/Desktop/AIoT/first_day/firstday_afternoon/LiteOS_Lab_STM32_IoT/iot_link/oc/oc_mqtt/oc_mqtt_tiny_v5\oc_mqtt_tiny.c ****                         daemon_cmd->retcode = en_oc_mqtt_err_noconfigured;
 3712              		.loc 1 1142 35
 3713 011e BB68     		ldr	r3, [r7, #8]
 3714              		.loc 1 1142 45
 3715 0120 0C22     		movs	r2, #12
 3716 0122 DA60     		str	r2, [r3, #12]
1143:c:/Users/lenovo/Desktop/AIoT/first_day/firstday_afternoon/LiteOS_Lab_STM32_IoT/iot_link/oc/oc_mqtt/oc_mqtt_tiny_v5\oc_mqtt_tiny.c ****                     }
1144:c:/Users/lenovo/Desktop/AIoT/first_day/firstday_afternoon/LiteOS_Lab_STM32_IoT/iot_link/oc/oc_mqtt/oc_mqtt_tiny_v5\oc_mqtt_tiny.c ****                     else
1145:c:/Users/lenovo/Desktop/AIoT/first_day/firstday_afternoon/LiteOS_Lab_STM32_IoT/iot_link/oc/oc_mqtt/oc_mqtt_tiny_v5\oc_mqtt_tiny.c ****                     {
1146:c:/Users/lenovo/Desktop/AIoT/first_day/firstday_afternoon/LiteOS_Lab_STM32_IoT/iot_link/oc/oc_mqtt/oc_mqtt_tiny_v5\oc_mqtt_tiny.c ****                         oc_mqtt_para_release(cb);
ARM GAS  C:\Users\lenovo\AppData\Local\Temp\cceHxmqh.s 			page 91


1147:c:/Users/lenovo/Desktop/AIoT/first_day/firstday_afternoon/LiteOS_Lab_STM32_IoT/iot_link/oc/oc_mqtt/oc_mqtt_tiny_v5\oc_mqtt_tiny.c **** 
1148:c:/Users/lenovo/Desktop/AIoT/first_day/firstday_afternoon/LiteOS_Lab_STM32_IoT/iot_link/oc/oc_mqtt/oc_mqtt_tiny_v5\oc_mqtt_tiny.c ****                         daemon_cmd->retcode = config_parameter_release(cb);
1149:c:/Users/lenovo/Desktop/AIoT/first_day/firstday_afternoon/LiteOS_Lab_STM32_IoT/iot_link/oc/oc_mqtt/oc_mqtt_tiny_v5\oc_mqtt_tiny.c ****                     }
1150:c:/Users/lenovo/Desktop/AIoT/first_day/firstday_afternoon/LiteOS_Lab_STM32_IoT/iot_link/oc/oc_mqtt/oc_mqtt_tiny_v5\oc_mqtt_tiny.c ****                     break;
 3717              		.loc 1 1150 21
 3718 0124 5CE0     		b	.L193
 3719              	.L194:
1146:c:/Users/lenovo/Desktop/AIoT/first_day/firstday_afternoon/LiteOS_Lab_STM32_IoT/iot_link/oc/oc_mqtt/oc_mqtt_tiny_v5\oc_mqtt_tiny.c **** 
 3720              		.loc 1 1146 25
 3721 0126 3869     		ldr	r0, [r7, #16]
 3722 0128 FFF7FEFF 		bl	oc_mqtt_para_release
1148:c:/Users/lenovo/Desktop/AIoT/first_day/firstday_afternoon/LiteOS_Lab_STM32_IoT/iot_link/oc/oc_mqtt/oc_mqtt_tiny_v5\oc_mqtt_tiny.c ****                     }
 3723              		.loc 1 1148 35
 3724 012c BC68     		ldr	r4, [r7, #8]
1148:c:/Users/lenovo/Desktop/AIoT/first_day/firstday_afternoon/LiteOS_Lab_STM32_IoT/iot_link/oc/oc_mqtt/oc_mqtt_tiny_v5\oc_mqtt_tiny.c ****                     }
 3725              		.loc 1 1148 47
 3726 012e 3869     		ldr	r0, [r7, #16]
 3727 0130 FFF7FEFF 		bl	config_parameter_release
 3728 0134 0346     		mov	r3, r0
1148:c:/Users/lenovo/Desktop/AIoT/first_day/firstday_afternoon/LiteOS_Lab_STM32_IoT/iot_link/oc/oc_mqtt/oc_mqtt_tiny_v5\oc_mqtt_tiny.c ****                     }
 3729              		.loc 1 1148 45
 3730 0136 E360     		str	r3, [r4, #12]
 3731              		.loc 1 1150 21
 3732 0138 52E0     		b	.L193
 3733              	.L186:
1151:c:/Users/lenovo/Desktop/AIoT/first_day/firstday_afternoon/LiteOS_Lab_STM32_IoT/iot_link/oc/oc_mqtt/oc_mqtt_tiny_v5\oc_mqtt_tiny.c ****                 case en_oc_mqtt_daemon_cmd_publish:
1152:c:/Users/lenovo/Desktop/AIoT/first_day/firstday_afternoon/LiteOS_Lab_STM32_IoT/iot_link/oc/oc_mqtt/oc_mqtt_tiny_v5\oc_mqtt_tiny.c ****                     printf("daemon:publish enter\n\r");
 3734              		.loc 1 1152 21
 3735 013a 4C48     		ldr	r0, .L203+8
 3736 013c FFF7FEFF 		bl	printf
1153:c:/Users/lenovo/Desktop/AIoT/first_day/firstday_afternoon/LiteOS_Lab_STM32_IoT/iot_link/oc/oc_mqtt/oc_mqtt_tiny_v5\oc_mqtt_tiny.c ****                     if(en_daemon_status_idle == cb->flag.bits.bit_daemon_status)
 3737              		.loc 1 1153 46
 3738 0140 3B69     		ldr	r3, [r7, #16]
 3739 0142 93F86C30 		ldrb	r3, [r3, #108]	@ zero_extendqisi2
 3740 0146 03F00E03 		and	r3, r3, #14
 3741 014a DBB2     		uxtb	r3, r3
 3742              		.loc 1 1153 23
 3743 014c 002B     		cmp	r3, #0
 3744 014e 03D1     		bne	.L196
1154:c:/Users/lenovo/Desktop/AIoT/first_day/firstday_afternoon/LiteOS_Lab_STM32_IoT/iot_link/oc/oc_mqtt/oc_mqtt_tiny_v5\oc_mqtt_tiny.c ****                     {
1155:c:/Users/lenovo/Desktop/AIoT/first_day/firstday_afternoon/LiteOS_Lab_STM32_IoT/iot_link/oc/oc_mqtt/oc_mqtt_tiny_v5\oc_mqtt_tiny.c ****                         daemon_cmd->retcode = en_oc_mqtt_err_noconfigured;
 3745              		.loc 1 1155 35
 3746 0150 BB68     		ldr	r3, [r7, #8]
 3747              		.loc 1 1155 45
 3748 0152 0C22     		movs	r2, #12
 3749 0154 DA60     		str	r2, [r3, #12]
 3750 0156 26E0     		b	.L197
 3751              	.L196:
1156:c:/Users/lenovo/Desktop/AIoT/first_day/firstday_afternoon/LiteOS_Lab_STM32_IoT/iot_link/oc/oc_mqtt/oc_mqtt_tiny_v5\oc_mqtt_tiny.c ****                     }
1157:c:/Users/lenovo/Desktop/AIoT/first_day/firstday_afternoon/LiteOS_Lab_STM32_IoT/iot_link/oc/oc_mqtt/oc_mqtt_tiny_v5\oc_mqtt_tiny.c ****                     else if((en_daemon_status_hub_keep == cb->flag.bits.bit_daemon_status) &&\
 3752              		.loc 1 1157 56
 3753 0158 3B69     		ldr	r3, [r7, #16]
 3754 015a 93F86C30 		ldrb	r3, [r3, #108]	@ zero_extendqisi2
 3755 015e 03F00E03 		and	r3, r3, #14
 3756 0162 DBB2     		uxtb	r3, r3
 3757              		.loc 1 1157 28
 3758 0164 062B     		cmp	r3, #6
ARM GAS  C:\Users\lenovo\AppData\Local\Temp\cceHxmqh.s 			page 92


 3759 0166 1BD1     		bne	.L198
1158:c:/Users/lenovo/Desktop/AIoT/first_day/firstday_afternoon/LiteOS_Lab_STM32_IoT/iot_link/oc/oc_mqtt/oc_mqtt_tiny_v5\oc_mqtt_tiny.c ****                             (en_mqtt_al_connect_ok == mqtt_al_check_status(cb->mqtt_para.mqtt_handl
 3760              		.loc 1 1158 55 discriminator 1
 3761 0168 3B69     		ldr	r3, [r7, #16]
 3762 016a 9B6E     		ldr	r3, [r3, #104]
 3763 016c 1846     		mov	r0, r3
 3764 016e FFF7FEFF 		bl	mqtt_al_check_status
 3765 0172 0346     		mov	r3, r0
1157:c:/Users/lenovo/Desktop/AIoT/first_day/firstday_afternoon/LiteOS_Lab_STM32_IoT/iot_link/oc/oc_mqtt/oc_mqtt_tiny_v5\oc_mqtt_tiny.c ****                             (en_mqtt_al_connect_ok == mqtt_al_check_status(cb->mqtt_para.mqtt_handl
 3766              		.loc 1 1157 92 discriminator 1
 3767 0174 002B     		cmp	r3, #0
 3768 0176 13D1     		bne	.L198
 3769              	.LBB3:
1159:c:/Users/lenovo/Desktop/AIoT/first_day/firstday_afternoon/LiteOS_Lab_STM32_IoT/iot_link/oc/oc_mqtt/oc_mqtt_tiny_v5\oc_mqtt_tiny.c ****                     {
1160:c:/Users/lenovo/Desktop/AIoT/first_day/firstday_afternoon/LiteOS_Lab_STM32_IoT/iot_link/oc/oc_mqtt/oc_mqtt_tiny_v5\oc_mqtt_tiny.c ****                         mqtt_al_pubpara_t *pubpara;
1161:c:/Users/lenovo/Desktop/AIoT/first_day/firstday_afternoon/LiteOS_Lab_STM32_IoT/iot_link/oc/oc_mqtt/oc_mqtt_tiny_v5\oc_mqtt_tiny.c ****                         pubpara = daemon_cmd->arg;
 3770              		.loc 1 1161 45
 3771 0178 BB68     		ldr	r3, [r7, #8]
 3772              		.loc 1 1161 33
 3773 017a 5B68     		ldr	r3, [r3, #4]
 3774 017c FB60     		str	r3, [r7, #12]
1162:c:/Users/lenovo/Desktop/AIoT/first_day/firstday_afternoon/LiteOS_Lab_STM32_IoT/iot_link/oc/oc_mqtt/oc_mqtt_tiny_v5\oc_mqtt_tiny.c ****                         daemon_cmd->retcode = dmp_publish(cb, pubpara->topic.data,\
 3775              		.loc 1 1162 47
 3776 017e FB68     		ldr	r3, [r7, #12]
 3777 0180 1968     		ldr	r1, [r3]
1163:c:/Users/lenovo/Desktop/AIoT/first_day/firstday_afternoon/LiteOS_Lab_STM32_IoT/iot_link/oc/oc_mqtt/oc_mqtt_tiny_v5\oc_mqtt_tiny.c ****                                    (uint8_t *)pubpara->msg.data,pubpara->msg.len,pubpara->qos);
 3778              		.loc 1 1163 59
 3779 0182 FB68     		ldr	r3, [r7, #12]
 3780 0184 9A68     		ldr	r2, [r3, #8]
1162:c:/Users/lenovo/Desktop/AIoT/first_day/firstday_afternoon/LiteOS_Lab_STM32_IoT/iot_link/oc/oc_mqtt/oc_mqtt_tiny_v5\oc_mqtt_tiny.c ****                         daemon_cmd->retcode = dmp_publish(cb, pubpara->topic.data,\
 3781              		.loc 1 1162 47
 3782 0186 FB68     		ldr	r3, [r7, #12]
 3783 0188 D868     		ldr	r0, [r3, #12]
 3784              		.loc 1 1163 89
 3785 018a FB68     		ldr	r3, [r7, #12]
 3786 018c 1B7C     		ldrb	r3, [r3, #16]	@ zero_extendqisi2
1162:c:/Users/lenovo/Desktop/AIoT/first_day/firstday_afternoon/LiteOS_Lab_STM32_IoT/iot_link/oc/oc_mqtt/oc_mqtt_tiny_v5\oc_mqtt_tiny.c ****                         daemon_cmd->retcode = dmp_publish(cb, pubpara->topic.data,\
 3787              		.loc 1 1162 35
 3788 018e BC68     		ldr	r4, [r7, #8]
1162:c:/Users/lenovo/Desktop/AIoT/first_day/firstday_afternoon/LiteOS_Lab_STM32_IoT/iot_link/oc/oc_mqtt/oc_mqtt_tiny_v5\oc_mqtt_tiny.c ****                         daemon_cmd->retcode = dmp_publish(cb, pubpara->topic.data,\
 3789              		.loc 1 1162 47
 3790 0190 0093     		str	r3, [sp]
 3791 0192 0346     		mov	r3, r0
 3792 0194 3869     		ldr	r0, [r7, #16]
 3793 0196 FFF7FEFF 		bl	dmp_publish
 3794 019a 0346     		mov	r3, r0
1162:c:/Users/lenovo/Desktop/AIoT/first_day/firstday_afternoon/LiteOS_Lab_STM32_IoT/iot_link/oc/oc_mqtt/oc_mqtt_tiny_v5\oc_mqtt_tiny.c ****                         daemon_cmd->retcode = dmp_publish(cb, pubpara->topic.data,\
 3795              		.loc 1 1162 45
 3796 019c E360     		str	r3, [r4, #12]
 3797              	.LBE3:
1159:c:/Users/lenovo/Desktop/AIoT/first_day/firstday_afternoon/LiteOS_Lab_STM32_IoT/iot_link/oc/oc_mqtt/oc_mqtt_tiny_v5\oc_mqtt_tiny.c ****                     {
 3798              		.loc 1 1159 21
 3799 019e 02E0     		b	.L197
 3800              	.L198:
1164:c:/Users/lenovo/Desktop/AIoT/first_day/firstday_afternoon/LiteOS_Lab_STM32_IoT/iot_link/oc/oc_mqtt/oc_mqtt_tiny_v5\oc_mqtt_tiny.c ****                     }
1165:c:/Users/lenovo/Desktop/AIoT/first_day/firstday_afternoon/LiteOS_Lab_STM32_IoT/iot_link/oc/oc_mqtt/oc_mqtt_tiny_v5\oc_mqtt_tiny.c ****                     else
1166:c:/Users/lenovo/Desktop/AIoT/first_day/firstday_afternoon/LiteOS_Lab_STM32_IoT/iot_link/oc/oc_mqtt/oc_mqtt_tiny_v5\oc_mqtt_tiny.c ****                     {
ARM GAS  C:\Users\lenovo\AppData\Local\Temp\cceHxmqh.s 			page 93


1167:c:/Users/lenovo/Desktop/AIoT/first_day/firstday_afternoon/LiteOS_Lab_STM32_IoT/iot_link/oc/oc_mqtt/oc_mqtt_tiny_v5\oc_mqtt_tiny.c ****                         daemon_cmd->retcode = en_oc_mqtt_err_noconected;
 3801              		.loc 1 1167 35
 3802 01a0 BB68     		ldr	r3, [r7, #8]
 3803              		.loc 1 1167 45
 3804 01a2 0D22     		movs	r2, #13
 3805 01a4 DA60     		str	r2, [r3, #12]
 3806              	.L197:
1168:c:/Users/lenovo/Desktop/AIoT/first_day/firstday_afternoon/LiteOS_Lab_STM32_IoT/iot_link/oc/oc_mqtt/oc_mqtt_tiny_v5\oc_mqtt_tiny.c ****                     }
1169:c:/Users/lenovo/Desktop/AIoT/first_day/firstday_afternoon/LiteOS_Lab_STM32_IoT/iot_link/oc/oc_mqtt/oc_mqtt_tiny_v5\oc_mqtt_tiny.c ****                     printf("daemon:publish exit\n\r");
 3807              		.loc 1 1169 21
 3808 01a6 3248     		ldr	r0, .L203+12
 3809 01a8 FFF7FEFF 		bl	printf
1170:c:/Users/lenovo/Desktop/AIoT/first_day/firstday_afternoon/LiteOS_Lab_STM32_IoT/iot_link/oc/oc_mqtt/oc_mqtt_tiny_v5\oc_mqtt_tiny.c ****                     break;
 3810              		.loc 1 1170 21
 3811 01ac 18E0     		b	.L193
 3812              	.L185:
1171:c:/Users/lenovo/Desktop/AIoT/first_day/firstday_afternoon/LiteOS_Lab_STM32_IoT/iot_link/oc/oc_mqtt/oc_mqtt_tiny_v5\oc_mqtt_tiny.c ****                 case en_oc_mqtt_daemon_cmd_subscribe:
1172:c:/Users/lenovo/Desktop/AIoT/first_day/firstday_afternoon/LiteOS_Lab_STM32_IoT/iot_link/oc/oc_mqtt/oc_mqtt_tiny_v5\oc_mqtt_tiny.c ****                     printf("daemon:subscribe enter\n\r");
 3813              		.loc 1 1172 21
 3814 01ae 3148     		ldr	r0, .L203+16
 3815 01b0 FFF7FEFF 		bl	printf
1173:c:/Users/lenovo/Desktop/AIoT/first_day/firstday_afternoon/LiteOS_Lab_STM32_IoT/iot_link/oc/oc_mqtt/oc_mqtt_tiny_v5\oc_mqtt_tiny.c ****                     deal_api_subscribe( cb, daemon_cmd );
 3816              		.loc 1 1173 21
 3817 01b4 BB68     		ldr	r3, [r7, #8]
 3818 01b6 1946     		mov	r1, r3
 3819 01b8 3869     		ldr	r0, [r7, #16]
 3820 01ba FFF7FEFF 		bl	deal_api_subscribe
1174:c:/Users/lenovo/Desktop/AIoT/first_day/firstday_afternoon/LiteOS_Lab_STM32_IoT/iot_link/oc/oc_mqtt/oc_mqtt_tiny_v5\oc_mqtt_tiny.c ****                     printf("daemon:subscribe exit\n\r");
 3821              		.loc 1 1174 21
 3822 01be 2E48     		ldr	r0, .L203+20
 3823 01c0 FFF7FEFF 		bl	printf
1175:c:/Users/lenovo/Desktop/AIoT/first_day/firstday_afternoon/LiteOS_Lab_STM32_IoT/iot_link/oc/oc_mqtt/oc_mqtt_tiny_v5\oc_mqtt_tiny.c ****                     break;
 3824              		.loc 1 1175 21
 3825 01c4 0CE0     		b	.L193
 3826              	.L184:
1176:c:/Users/lenovo/Desktop/AIoT/first_day/firstday_afternoon/LiteOS_Lab_STM32_IoT/iot_link/oc/oc_mqtt/oc_mqtt_tiny_v5\oc_mqtt_tiny.c ****                 case en_oc_mqtt_daemon_cmd_unsubscribe:
1177:c:/Users/lenovo/Desktop/AIoT/first_day/firstday_afternoon/LiteOS_Lab_STM32_IoT/iot_link/oc/oc_mqtt/oc_mqtt_tiny_v5\oc_mqtt_tiny.c ****                     printf("daemon:unsubscribe enter\n\r");
 3827              		.loc 1 1177 21
 3828 01c6 2D48     		ldr	r0, .L203+24
 3829 01c8 FFF7FEFF 		bl	printf
1178:c:/Users/lenovo/Desktop/AIoT/first_day/firstday_afternoon/LiteOS_Lab_STM32_IoT/iot_link/oc/oc_mqtt/oc_mqtt_tiny_v5\oc_mqtt_tiny.c ****                     deal_api_unsubscribe( cb, daemon_cmd );
 3830              		.loc 1 1178 21
 3831 01cc BB68     		ldr	r3, [r7, #8]
 3832 01ce 1946     		mov	r1, r3
 3833 01d0 3869     		ldr	r0, [r7, #16]
 3834 01d2 FFF7FEFF 		bl	deal_api_unsubscribe
1179:c:/Users/lenovo/Desktop/AIoT/first_day/firstday_afternoon/LiteOS_Lab_STM32_IoT/iot_link/oc/oc_mqtt/oc_mqtt_tiny_v5\oc_mqtt_tiny.c ****                     printf("daemon:unsubscribe exit\n\r");
 3835              		.loc 1 1179 21
 3836 01d6 2A48     		ldr	r0, .L203+28
 3837 01d8 FFF7FEFF 		bl	printf
1180:c:/Users/lenovo/Desktop/AIoT/first_day/firstday_afternoon/LiteOS_Lab_STM32_IoT/iot_link/oc/oc_mqtt/oc_mqtt_tiny_v5\oc_mqtt_tiny.c ****                     break;
 3838              		.loc 1 1180 21
 3839 01dc 00E0     		b	.L193
 3840              	.L202:
1181:c:/Users/lenovo/Desktop/AIoT/first_day/firstday_afternoon/LiteOS_Lab_STM32_IoT/iot_link/oc/oc_mqtt/oc_mqtt_tiny_v5\oc_mqtt_tiny.c **** 
1182:c:/Users/lenovo/Desktop/AIoT/first_day/firstday_afternoon/LiteOS_Lab_STM32_IoT/iot_link/oc/oc_mqtt/oc_mqtt_tiny_v5\oc_mqtt_tiny.c ****                 default:
1183:c:/Users/lenovo/Desktop/AIoT/first_day/firstday_afternoon/LiteOS_Lab_STM32_IoT/iot_link/oc/oc_mqtt/oc_mqtt_tiny_v5\oc_mqtt_tiny.c ****                     break;
ARM GAS  C:\Users\lenovo\AppData\Local\Temp\cceHxmqh.s 			page 94


 3841              		.loc 1 1183 21
 3842 01de 00BF     		nop
 3843              	.L193:
1184:c:/Users/lenovo/Desktop/AIoT/first_day/firstday_afternoon/LiteOS_Lab_STM32_IoT/iot_link/oc/oc_mqtt/oc_mqtt_tiny_v5\oc_mqtt_tiny.c **** 
1185:c:/Users/lenovo/Desktop/AIoT/first_day/firstday_afternoon/LiteOS_Lab_STM32_IoT/iot_link/oc/oc_mqtt/oc_mqtt_tiny_v5\oc_mqtt_tiny.c ****             }
1186:c:/Users/lenovo/Desktop/AIoT/first_day/firstday_afternoon/LiteOS_Lab_STM32_IoT/iot_link/oc/oc_mqtt/oc_mqtt_tiny_v5\oc_mqtt_tiny.c ****             osal_semp_post(daemon_cmd->signal); ///< activate the commander
 3844              		.loc 1 1186 38
 3845 01e0 BB68     		ldr	r3, [r7, #8]
 3846              		.loc 1 1186 13
 3847 01e2 9B68     		ldr	r3, [r3, #8]
 3848 01e4 1846     		mov	r0, r3
 3849 01e6 FFF7FEFF 		bl	osal_semp_post
 3850              	.L180:
1187:c:/Users/lenovo/Desktop/AIoT/first_day/firstday_afternoon/LiteOS_Lab_STM32_IoT/iot_link/oc/oc_mqtt/oc_mqtt_tiny_v5\oc_mqtt_tiny.c ****         }
1188:c:/Users/lenovo/Desktop/AIoT/first_day/firstday_afternoon/LiteOS_Lab_STM32_IoT/iot_link/oc/oc_mqtt/oc_mqtt_tiny_v5\oc_mqtt_tiny.c **** 
1189:c:/Users/lenovo/Desktop/AIoT/first_day/firstday_afternoon/LiteOS_Lab_STM32_IoT/iot_link/oc/oc_mqtt/oc_mqtt_tiny_v5\oc_mqtt_tiny.c ****         ///< timeout we should check if we should do the reconnect
1190:c:/Users/lenovo/Desktop/AIoT/first_day/firstday_afternoon/LiteOS_Lab_STM32_IoT/iot_link/oc/oc_mqtt/oc_mqtt_tiny_v5\oc_mqtt_tiny.c ****         if(cb->flag.bits.bit_do_bootstrap)
 3851              		.loc 1 1190 12
 3852 01ea 3B69     		ldr	r3, [r7, #16]
 3853 01ec 93F86C30 		ldrb	r3, [r3, #108]	@ zero_extendqisi2
 3854 01f0 03F02003 		and	r3, r3, #32
 3855 01f4 DBB2     		uxtb	r3, r3
 3856              		.loc 1 1190 11
 3857 01f6 002B     		cmp	r3, #0
 3858 01f8 1DD0     		beq	.L199
1191:c:/Users/lenovo/Desktop/AIoT/first_day/firstday_afternoon/LiteOS_Lab_STM32_IoT/iot_link/oc/oc_mqtt/oc_mqtt_tiny_v5\oc_mqtt_tiny.c ****         {
1192:c:/Users/lenovo/Desktop/AIoT/first_day/firstday_afternoon/LiteOS_Lab_STM32_IoT/iot_link/oc/oc_mqtt/oc_mqtt_tiny_v5\oc_mqtt_tiny.c ****             cb->flag.bits.bit_do_bootstrap = 0;
 3859              		.loc 1 1192 44
 3860 01fa 3A69     		ldr	r2, [r7, #16]
 3861 01fc 92F86C30 		ldrb	r3, [r2, #108]
 3862 0200 6FF34513 		bfc	r3, #5, #1
 3863 0204 82F86C30 		strb	r3, [r2, #108]
1193:c:/Users/lenovo/Desktop/AIoT/first_day/firstday_afternoon/LiteOS_Lab_STM32_IoT/iot_link/oc/oc_mqtt/oc_mqtt_tiny_v5\oc_mqtt_tiny.c **** 
1194:c:/Users/lenovo/Desktop/AIoT/first_day/firstday_afternoon/LiteOS_Lab_STM32_IoT/iot_link/oc/oc_mqtt/oc_mqtt_tiny_v5\oc_mqtt_tiny.c ****             cb->flag.bits.bit_daemon_status = en_daemon_status_bs_getaddr;
 3864              		.loc 1 1194 45
 3865 0208 3A69     		ldr	r2, [r7, #16]
 3866 020a 92F86C30 		ldrb	r3, [r2, #108]
 3867 020e 0121     		movs	r1, #1
 3868 0210 61F34303 		bfi	r3, r1, #1, #3
 3869 0214 82F86C30 		strb	r3, [r2, #108]
1195:c:/Users/lenovo/Desktop/AIoT/first_day/firstday_afternoon/LiteOS_Lab_STM32_IoT/iot_link/oc/oc_mqtt/oc_mqtt_tiny_v5\oc_mqtt_tiny.c ****             bs_step(cb);
 3870              		.loc 1 1195 13
 3871 0218 3869     		ldr	r0, [r7, #16]
 3872 021a FFF7FEFF 		bl	bs_step
1196:c:/Users/lenovo/Desktop/AIoT/first_day/firstday_afternoon/LiteOS_Lab_STM32_IoT/iot_link/oc/oc_mqtt/oc_mqtt_tiny_v5\oc_mqtt_tiny.c **** 
1197:c:/Users/lenovo/Desktop/AIoT/first_day/firstday_afternoon/LiteOS_Lab_STM32_IoT/iot_link/oc/oc_mqtt/oc_mqtt_tiny_v5\oc_mqtt_tiny.c ****             cb->flag.bits.bit_daemon_status = en_daemon_status_hub_keep;
 3873              		.loc 1 1197 45
 3874 021e 3A69     		ldr	r2, [r7, #16]
 3875 0220 92F86C30 		ldrb	r3, [r2, #108]
 3876 0224 0321     		movs	r1, #3
 3877 0226 61F34303 		bfi	r3, r1, #1, #3
 3878 022a 82F86C30 		strb	r3, [r2, #108]
1198:c:/Users/lenovo/Desktop/AIoT/first_day/firstday_afternoon/LiteOS_Lab_STM32_IoT/iot_link/oc/oc_mqtt/oc_mqtt_tiny_v5\oc_mqtt_tiny.c ****             hub_step(cb);
 3879              		.loc 1 1198 13
 3880 022e 3869     		ldr	r0, [r7, #16]
 3881 0230 FFF7FEFF 		bl	hub_step
 3882 0234 F2E6     		b	.L201
ARM GAS  C:\Users\lenovo\AppData\Local\Temp\cceHxmqh.s 			page 95


 3883              	.L199:
1199:c:/Users/lenovo/Desktop/AIoT/first_day/firstday_afternoon/LiteOS_Lab_STM32_IoT/iot_link/oc/oc_mqtt/oc_mqtt_tiny_v5\oc_mqtt_tiny.c ****         }
1200:c:/Users/lenovo/Desktop/AIoT/first_day/firstday_afternoon/LiteOS_Lab_STM32_IoT/iot_link/oc/oc_mqtt/oc_mqtt_tiny_v5\oc_mqtt_tiny.c ****         else if((cb->flag.bits.bit_daemon_status == en_daemon_status_hub_keep) &&\
 3884              		.loc 1 1200 50
 3885 0236 3B69     		ldr	r3, [r7, #16]
 3886 0238 93F86C30 		ldrb	r3, [r3, #108]	@ zero_extendqisi2
 3887 023c 03F00E03 		and	r3, r3, #14
 3888 0240 DBB2     		uxtb	r3, r3
 3889              		.loc 1 1200 16
 3890 0242 062B     		cmp	r3, #6
 3891 0244 7FF4EAAE 		bne	.L201
1201:c:/Users/lenovo/Desktop/AIoT/first_day/firstday_afternoon/LiteOS_Lab_STM32_IoT/iot_link/oc/oc_mqtt/oc_mqtt_tiny_v5\oc_mqtt_tiny.c ****                 (en_mqtt_al_connect_ok != mqtt_al_check_status(cb->mqtt_para.mqtt_handle)))
 3892              		.loc 1 1201 43 discriminator 1
 3893 0248 3B69     		ldr	r3, [r7, #16]
 3894 024a 9B6E     		ldr	r3, [r3, #104]
 3895 024c 1846     		mov	r0, r3
 3896 024e FFF7FEFF 		bl	mqtt_al_check_status
 3897 0252 0346     		mov	r3, r0
1200:c:/Users/lenovo/Desktop/AIoT/first_day/firstday_afternoon/LiteOS_Lab_STM32_IoT/iot_link/oc/oc_mqtt/oc_mqtt_tiny_v5\oc_mqtt_tiny.c ****                 (en_mqtt_al_connect_ok != mqtt_al_check_status(cb->mqtt_para.mqtt_handle)))
 3898              		.loc 1 1200 80 discriminator 1
 3899 0254 002B     		cmp	r3, #0
 3900 0256 3FF4E1AE 		beq	.L201
1202:c:/Users/lenovo/Desktop/AIoT/first_day/firstday_afternoon/LiteOS_Lab_STM32_IoT/iot_link/oc/oc_mqtt/oc_mqtt_tiny_v5\oc_mqtt_tiny.c ****         {
1203:c:/Users/lenovo/Desktop/AIoT/first_day/firstday_afternoon/LiteOS_Lab_STM32_IoT/iot_link/oc/oc_mqtt/oc_mqtt_tiny_v5\oc_mqtt_tiny.c ****             hub_step(cb);
 3901              		.loc 1 1203 13
 3902 025a 3869     		ldr	r0, [r7, #16]
 3903 025c FFF7FEFF 		bl	hub_step
1102:c:/Users/lenovo/Desktop/AIoT/first_day/firstday_afternoon/LiteOS_Lab_STM32_IoT/iot_link/oc/oc_mqtt/oc_mqtt_tiny_v5\oc_mqtt_tiny.c ****         {
 3904              		.loc 1 1102 11
 3905 0260 DCE6     		b	.L201
 3906              	.L204:
 3907 0262 00BF     		.align	2
 3908              	.L203:
 3909 0264 00000000 		.word	__FUNCTION__.8275
 3910 0268 B8030000 		.word	.LC37
 3911 026c C4030000 		.word	.LC38
 3912 0270 DC030000 		.word	.LC39
 3913 0274 F4030000 		.word	.LC40
 3914 0278 10040000 		.word	.LC41
 3915 027c 28040000 		.word	.LC42
 3916 0280 44040000 		.word	.LC43
 3917              		.cfi_endproc
 3918              	.LFE19:
 3920              		.section	.text.tiny_config,"ax",%progbits
 3921              		.align	1
 3922              		.syntax unified
 3923              		.thumb
 3924              		.thumb_func
 3925              		.fpu fpv4-sp-d16
 3927              	tiny_config:
 3928              	.LFB20:
1204:c:/Users/lenovo/Desktop/AIoT/first_day/firstday_afternoon/LiteOS_Lab_STM32_IoT/iot_link/oc/oc_mqtt/oc_mqtt_tiny_v5\oc_mqtt_tiny.c ****         }
1205:c:/Users/lenovo/Desktop/AIoT/first_day/firstday_afternoon/LiteOS_Lab_STM32_IoT/iot_link/oc/oc_mqtt/oc_mqtt_tiny_v5\oc_mqtt_tiny.c ****         else
1206:c:/Users/lenovo/Desktop/AIoT/first_day/firstday_afternoon/LiteOS_Lab_STM32_IoT/iot_link/oc/oc_mqtt/oc_mqtt_tiny_v5\oc_mqtt_tiny.c ****         {
1207:c:/Users/lenovo/Desktop/AIoT/first_day/firstday_afternoon/LiteOS_Lab_STM32_IoT/iot_link/oc/oc_mqtt/oc_mqtt_tiny_v5\oc_mqtt_tiny.c ****             ///< do nothing here
1208:c:/Users/lenovo/Desktop/AIoT/first_day/firstday_afternoon/LiteOS_Lab_STM32_IoT/iot_link/oc/oc_mqtt/oc_mqtt_tiny_v5\oc_mqtt_tiny.c ****         }
1209:c:/Users/lenovo/Desktop/AIoT/first_day/firstday_afternoon/LiteOS_Lab_STM32_IoT/iot_link/oc/oc_mqtt/oc_mqtt_tiny_v5\oc_mqtt_tiny.c ****     }
ARM GAS  C:\Users\lenovo\AppData\Local\Temp\cceHxmqh.s 			page 96


1210:c:/Users/lenovo/Desktop/AIoT/first_day/firstday_afternoon/LiteOS_Lab_STM32_IoT/iot_link/oc/oc_mqtt/oc_mqtt_tiny_v5\oc_mqtt_tiny.c **** 
1211:c:/Users/lenovo/Desktop/AIoT/first_day/firstday_afternoon/LiteOS_Lab_STM32_IoT/iot_link/oc/oc_mqtt/oc_mqtt_tiny_v5\oc_mqtt_tiny.c ****     printf("%s:quit\n\r",__FUNCTION__);
1212:c:/Users/lenovo/Desktop/AIoT/first_day/firstday_afternoon/LiteOS_Lab_STM32_IoT/iot_link/oc/oc_mqtt/oc_mqtt_tiny_v5\oc_mqtt_tiny.c ****     return 0;
1213:c:/Users/lenovo/Desktop/AIoT/first_day/firstday_afternoon/LiteOS_Lab_STM32_IoT/iot_link/oc/oc_mqtt/oc_mqtt_tiny_v5\oc_mqtt_tiny.c **** }
1214:c:/Users/lenovo/Desktop/AIoT/first_day/firstday_afternoon/LiteOS_Lab_STM32_IoT/iot_link/oc/oc_mqtt/oc_mqtt_tiny_v5\oc_mqtt_tiny.c **** 
1215:c:/Users/lenovo/Desktop/AIoT/first_day/firstday_afternoon/LiteOS_Lab_STM32_IoT/iot_link/oc/oc_mqtt/oc_mqtt_tiny_v5\oc_mqtt_tiny.c **** 
1216:c:/Users/lenovo/Desktop/AIoT/first_day/firstday_afternoon/LiteOS_Lab_STM32_IoT/iot_link/oc/oc_mqtt/oc_mqtt_tiny_v5\oc_mqtt_tiny.c **** ///< use this function to configure
1217:c:/Users/lenovo/Desktop/AIoT/first_day/firstday_afternoon/LiteOS_Lab_STM32_IoT/iot_link/oc/oc_mqtt/oc_mqtt_tiny_v5\oc_mqtt_tiny.c **** static int tiny_config(oc_mqtt_config_t *config)
1218:c:/Users/lenovo/Desktop/AIoT/first_day/firstday_afternoon/LiteOS_Lab_STM32_IoT/iot_link/oc/oc_mqtt/oc_mqtt_tiny_v5\oc_mqtt_tiny.c **** {
 3929              		.loc 1 1218 1
 3930              		.cfi_startproc
 3931              		@ args = 0, pretend = 0, frame = 16
 3932              		@ frame_needed = 1, uses_anonymous_args = 0
 3933 0000 80B5     		push	{r7, lr}
 3934              	.LCFI83:
 3935              		.cfi_def_cfa_offset 8
 3936              		.cfi_offset 7, -8
 3937              		.cfi_offset 14, -4
 3938 0002 84B0     		sub	sp, sp, #16
 3939              	.LCFI84:
 3940              		.cfi_def_cfa_offset 24
 3941 0004 00AF     		add	r7, sp, #0
 3942              	.LCFI85:
 3943              		.cfi_def_cfa_register 7
 3944 0006 7860     		str	r0, [r7, #4]
1219:c:/Users/lenovo/Desktop/AIoT/first_day/firstday_afternoon/LiteOS_Lab_STM32_IoT/iot_link/oc/oc_mqtt/oc_mqtt_tiny_v5\oc_mqtt_tiny.c ****     int ret = en_oc_mqtt_err_parafmt;
 3945              		.loc 1 1219 9
 3946 0008 0123     		movs	r3, #1
 3947 000a FB60     		str	r3, [r7, #12]
1220:c:/Users/lenovo/Desktop/AIoT/first_day/firstday_afternoon/LiteOS_Lab_STM32_IoT/iot_link/oc/oc_mqtt/oc_mqtt_tiny_v5\oc_mqtt_tiny.c ****     if(NULL != config)
 3948              		.loc 1 1220 7
 3949 000c 7B68     		ldr	r3, [r7, #4]
 3950 000e 002B     		cmp	r3, #0
 3951 0010 16D0     		beq	.L206
1221:c:/Users/lenovo/Desktop/AIoT/first_day/firstday_afternoon/LiteOS_Lab_STM32_IoT/iot_link/oc/oc_mqtt/oc_mqtt_tiny_v5\oc_mqtt_tiny.c ****     {
1222:c:/Users/lenovo/Desktop/AIoT/first_day/firstday_afternoon/LiteOS_Lab_STM32_IoT/iot_link/oc/oc_mqtt/oc_mqtt_tiny_v5\oc_mqtt_tiny.c ****         if((NULL == config->id) || (NULL == config->pwd) ||\
 3952              		.loc 1 1222 27
 3953 0012 7B68     		ldr	r3, [r7, #4]
 3954 0014 5B6B     		ldr	r3, [r3, #52]
 3955              		.loc 1 1222 11
 3956 0016 002B     		cmp	r3, #0
 3957 0018 0BD0     		beq	.L207
 3958              		.loc 1 1222 51 discriminator 1
 3959 001a 7B68     		ldr	r3, [r7, #4]
 3960 001c 9B6B     		ldr	r3, [r3, #56]
 3961              		.loc 1 1222 33 discriminator 1
 3962 001e 002B     		cmp	r3, #0
 3963 0020 07D0     		beq	.L207
1223:c:/Users/lenovo/Desktop/AIoT/first_day/firstday_afternoon/LiteOS_Lab_STM32_IoT/iot_link/oc/oc_mqtt/oc_mqtt_tiny_v5\oc_mqtt_tiny.c ****             (NULL == config->server_addr) || (NULL == config->server_port))
 3964              		.loc 1 1223 28 discriminator 2
 3965 0022 7B68     		ldr	r3, [r7, #4]
 3966 0024 5B68     		ldr	r3, [r3, #4]
1222:c:/Users/lenovo/Desktop/AIoT/first_day/firstday_afternoon/LiteOS_Lab_STM32_IoT/iot_link/oc/oc_mqtt/oc_mqtt_tiny_v5\oc_mqtt_tiny.c ****             (NULL == config->server_addr) || (NULL == config->server_port))
 3967              		.loc 1 1222 58 discriminator 2
 3968 0026 002B     		cmp	r3, #0
 3969 0028 03D0     		beq	.L207
 3970              		.loc 1 1223 61
ARM GAS  C:\Users\lenovo\AppData\Local\Temp\cceHxmqh.s 			page 97


 3971 002a 7B68     		ldr	r3, [r7, #4]
 3972 002c 9B68     		ldr	r3, [r3, #8]
 3973              		.loc 1 1223 43
 3974 002e 002B     		cmp	r3, #0
 3975 0030 01D1     		bne	.L208
 3976              	.L207:
1224:c:/Users/lenovo/Desktop/AIoT/first_day/firstday_afternoon/LiteOS_Lab_STM32_IoT/iot_link/oc/oc_mqtt/oc_mqtt_tiny_v5\oc_mqtt_tiny.c ****         {
1225:c:/Users/lenovo/Desktop/AIoT/first_day/firstday_afternoon/LiteOS_Lab_STM32_IoT/iot_link/oc/oc_mqtt/oc_mqtt_tiny_v5\oc_mqtt_tiny.c ****             return ret;
 3977              		.loc 1 1225 20
 3978 0032 FB68     		ldr	r3, [r7, #12]
 3979 0034 05E0     		b	.L209
 3980              	.L208:
1226:c:/Users/lenovo/Desktop/AIoT/first_day/firstday_afternoon/LiteOS_Lab_STM32_IoT/iot_link/oc/oc_mqtt/oc_mqtt_tiny_v5\oc_mqtt_tiny.c ****         }
1227:c:/Users/lenovo/Desktop/AIoT/first_day/firstday_afternoon/LiteOS_Lab_STM32_IoT/iot_link/oc/oc_mqtt/oc_mqtt_tiny_v5\oc_mqtt_tiny.c ****         ret = daemon_cmd_post(en_oc_mqtt_daemon_cmd_connect,config);
 3981              		.loc 1 1227 15
 3982 0036 7968     		ldr	r1, [r7, #4]
 3983 0038 0020     		movs	r0, #0
 3984 003a FFF7FEFF 		bl	daemon_cmd_post
 3985 003e F860     		str	r0, [r7, #12]
 3986              	.L206:
1228:c:/Users/lenovo/Desktop/AIoT/first_day/firstday_afternoon/LiteOS_Lab_STM32_IoT/iot_link/oc/oc_mqtt/oc_mqtt_tiny_v5\oc_mqtt_tiny.c ****     }
1229:c:/Users/lenovo/Desktop/AIoT/first_day/firstday_afternoon/LiteOS_Lab_STM32_IoT/iot_link/oc/oc_mqtt/oc_mqtt_tiny_v5\oc_mqtt_tiny.c ****     return ret;
 3987              		.loc 1 1229 12
 3988 0040 FB68     		ldr	r3, [r7, #12]
 3989              	.L209:
1230:c:/Users/lenovo/Desktop/AIoT/first_day/firstday_afternoon/LiteOS_Lab_STM32_IoT/iot_link/oc/oc_mqtt/oc_mqtt_tiny_v5\oc_mqtt_tiny.c **** }
 3990              		.loc 1 1230 1
 3991 0042 1846     		mov	r0, r3
 3992 0044 1037     		adds	r7, r7, #16
 3993              	.LCFI86:
 3994              		.cfi_def_cfa_offset 8
 3995 0046 BD46     		mov	sp, r7
 3996              	.LCFI87:
 3997              		.cfi_def_cfa_register 13
 3998              		@ sp needed
 3999 0048 80BD     		pop	{r7, pc}
 4000              		.cfi_endproc
 4001              	.LFE20:
 4003              		.section	.text.tiny_publish,"ax",%progbits
 4004              		.align	1
 4005              		.syntax unified
 4006              		.thumb
 4007              		.thumb_func
 4008              		.fpu fpv4-sp-d16
 4010              	tiny_publish:
 4011              	.LFB21:
1231:c:/Users/lenovo/Desktop/AIoT/first_day/firstday_afternoon/LiteOS_Lab_STM32_IoT/iot_link/oc/oc_mqtt/oc_mqtt_tiny_v5\oc_mqtt_tiny.c **** 
1232:c:/Users/lenovo/Desktop/AIoT/first_day/firstday_afternoon/LiteOS_Lab_STM32_IoT/iot_link/oc/oc_mqtt/oc_mqtt_tiny_v5\oc_mqtt_tiny.c **** 
1233:c:/Users/lenovo/Desktop/AIoT/first_day/firstday_afternoon/LiteOS_Lab_STM32_IoT/iot_link/oc/oc_mqtt/oc_mqtt_tiny_v5\oc_mqtt_tiny.c **** 
1234:c:/Users/lenovo/Desktop/AIoT/first_day/firstday_afternoon/LiteOS_Lab_STM32_IoT/iot_link/oc/oc_mqtt/oc_mqtt_tiny_v5\oc_mqtt_tiny.c **** ///< use this function to publish message
1235:c:/Users/lenovo/Desktop/AIoT/first_day/firstday_afternoon/LiteOS_Lab_STM32_IoT/iot_link/oc/oc_mqtt/oc_mqtt_tiny_v5\oc_mqtt_tiny.c **** static int tiny_publish(char *topic,uint8_t *payload, int len,int qos )
1236:c:/Users/lenovo/Desktop/AIoT/first_day/firstday_afternoon/LiteOS_Lab_STM32_IoT/iot_link/oc/oc_mqtt/oc_mqtt_tiny_v5\oc_mqtt_tiny.c **** {
 4012              		.loc 1 1236 1
 4013              		.cfi_startproc
 4014              		@ args = 0, pretend = 0, frame = 48
 4015              		@ frame_needed = 1, uses_anonymous_args = 0
 4016 0000 80B5     		push	{r7, lr}
ARM GAS  C:\Users\lenovo\AppData\Local\Temp\cceHxmqh.s 			page 98


 4017              	.LCFI88:
 4018              		.cfi_def_cfa_offset 8
 4019              		.cfi_offset 7, -8
 4020              		.cfi_offset 14, -4
 4021 0002 8CB0     		sub	sp, sp, #48
 4022              	.LCFI89:
 4023              		.cfi_def_cfa_offset 56
 4024 0004 00AF     		add	r7, sp, #0
 4025              	.LCFI90:
 4026              		.cfi_def_cfa_register 7
 4027 0006 F860     		str	r0, [r7, #12]
 4028 0008 B960     		str	r1, [r7, #8]
 4029 000a 7A60     		str	r2, [r7, #4]
 4030 000c 3B60     		str	r3, [r7]
1237:c:/Users/lenovo/Desktop/AIoT/first_day/firstday_afternoon/LiteOS_Lab_STM32_IoT/iot_link/oc/oc_mqtt/oc_mqtt_tiny_v5\oc_mqtt_tiny.c ****     mqtt_al_pubpara_t pubpara;
1238:c:/Users/lenovo/Desktop/AIoT/first_day/firstday_afternoon/LiteOS_Lab_STM32_IoT/iot_link/oc/oc_mqtt/oc_mqtt_tiny_v5\oc_mqtt_tiny.c ****     int  ret = en_oc_mqtt_err_parafmt;
 4031              		.loc 1 1238 10
 4032 000e 0123     		movs	r3, #1
 4033 0010 FB62     		str	r3, [r7, #44]
1239:c:/Users/lenovo/Desktop/AIoT/first_day/firstday_afternoon/LiteOS_Lab_STM32_IoT/iot_link/oc/oc_mqtt/oc_mqtt_tiny_v5\oc_mqtt_tiny.c **** 
1240:c:/Users/lenovo/Desktop/AIoT/first_day/firstday_afternoon/LiteOS_Lab_STM32_IoT/iot_link/oc/oc_mqtt/oc_mqtt_tiny_v5\oc_mqtt_tiny.c ****     if(qos >= en_mqtt_al_qos_err)
 4034              		.loc 1 1240 7
 4035 0012 3B68     		ldr	r3, [r7]
 4036 0014 022B     		cmp	r3, #2
 4037 0016 01DD     		ble	.L211
1241:c:/Users/lenovo/Desktop/AIoT/first_day/firstday_afternoon/LiteOS_Lab_STM32_IoT/iot_link/oc/oc_mqtt/oc_mqtt_tiny_v5\oc_mqtt_tiny.c ****     {
1242:c:/Users/lenovo/Desktop/AIoT/first_day/firstday_afternoon/LiteOS_Lab_STM32_IoT/iot_link/oc/oc_mqtt/oc_mqtt_tiny_v5\oc_mqtt_tiny.c ****         return ret;
 4038              		.loc 1 1242 16
 4039 0018 FB6A     		ldr	r3, [r7, #44]
 4040 001a 23E0     		b	.L214
 4041              	.L211:
1243:c:/Users/lenovo/Desktop/AIoT/first_day/firstday_afternoon/LiteOS_Lab_STM32_IoT/iot_link/oc/oc_mqtt/oc_mqtt_tiny_v5\oc_mqtt_tiny.c ****     }
1244:c:/Users/lenovo/Desktop/AIoT/first_day/firstday_afternoon/LiteOS_Lab_STM32_IoT/iot_link/oc/oc_mqtt/oc_mqtt_tiny_v5\oc_mqtt_tiny.c ****     if(NULL == s_oc_mqtt_tiny_cb)
 4042              		.loc 1 1244 13
 4043 001c 134B     		ldr	r3, .L215
 4044 001e 1B68     		ldr	r3, [r3]
 4045              		.loc 1 1244 7
 4046 0020 002B     		cmp	r3, #0
 4047 0022 01D1     		bne	.L213
1245:c:/Users/lenovo/Desktop/AIoT/first_day/firstday_afternoon/LiteOS_Lab_STM32_IoT/iot_link/oc/oc_mqtt/oc_mqtt_tiny_v5\oc_mqtt_tiny.c ****     {
1246:c:/Users/lenovo/Desktop/AIoT/first_day/firstday_afternoon/LiteOS_Lab_STM32_IoT/iot_link/oc/oc_mqtt/oc_mqtt_tiny_v5\oc_mqtt_tiny.c ****         ret = en_oc_mqtt_err_system;
 4048              		.loc 1 1246 13
 4049 0024 1023     		movs	r3, #16
 4050 0026 FB62     		str	r3, [r7, #44]
 4051              	.L213:
1247:c:/Users/lenovo/Desktop/AIoT/first_day/firstday_afternoon/LiteOS_Lab_STM32_IoT/iot_link/oc/oc_mqtt/oc_mqtt_tiny_v5\oc_mqtt_tiny.c ****     }
1248:c:/Users/lenovo/Desktop/AIoT/first_day/firstday_afternoon/LiteOS_Lab_STM32_IoT/iot_link/oc/oc_mqtt/oc_mqtt_tiny_v5\oc_mqtt_tiny.c **** 
1249:c:/Users/lenovo/Desktop/AIoT/first_day/firstday_afternoon/LiteOS_Lab_STM32_IoT/iot_link/oc/oc_mqtt/oc_mqtt_tiny_v5\oc_mqtt_tiny.c ****     ///< pub the mqtt request
1250:c:/Users/lenovo/Desktop/AIoT/first_day/firstday_afternoon/LiteOS_Lab_STM32_IoT/iot_link/oc/oc_mqtt/oc_mqtt_tiny_v5\oc_mqtt_tiny.c ****     memset(&pubpara, 0, sizeof(pubpara));
 4052              		.loc 1 1250 5
 4053 0028 07F11003 		add	r3, r7, #16
 4054 002c 1C22     		movs	r2, #28
 4055 002e 0021     		movs	r1, #0
 4056 0030 1846     		mov	r0, r3
 4057 0032 FFF7FEFF 		bl	memset
1251:c:/Users/lenovo/Desktop/AIoT/first_day/firstday_afternoon/LiteOS_Lab_STM32_IoT/iot_link/oc/oc_mqtt/oc_mqtt_tiny_v5\oc_mqtt_tiny.c ****     pubpara.qos = qos;
 4058              		.loc 1 1251 17
ARM GAS  C:\Users\lenovo\AppData\Local\Temp\cceHxmqh.s 			page 99


 4059 0036 3B68     		ldr	r3, [r7]
 4060 0038 DBB2     		uxtb	r3, r3
 4061 003a 87F82030 		strb	r3, [r7, #32]
1252:c:/Users/lenovo/Desktop/AIoT/first_day/firstday_afternoon/LiteOS_Lab_STM32_IoT/iot_link/oc/oc_mqtt/oc_mqtt_tiny_v5\oc_mqtt_tiny.c ****     pubpara.retain = 0;
 4062              		.loc 1 1252 20
 4063 003e 0023     		movs	r3, #0
 4064 0040 7B62     		str	r3, [r7, #36]
1253:c:/Users/lenovo/Desktop/AIoT/first_day/firstday_afternoon/LiteOS_Lab_STM32_IoT/iot_link/oc/oc_mqtt/oc_mqtt_tiny_v5\oc_mqtt_tiny.c ****     pubpara.timeout = 1000;
 4065              		.loc 1 1253 21
 4066 0042 4FF47A73 		mov	r3, #1000
 4067 0046 BB62     		str	r3, [r7, #40]
1254:c:/Users/lenovo/Desktop/AIoT/first_day/firstday_afternoon/LiteOS_Lab_STM32_IoT/iot_link/oc/oc_mqtt/oc_mqtt_tiny_v5\oc_mqtt_tiny.c ****     pubpara.topic.data = topic;
 4068              		.loc 1 1254 24
 4069 0048 FB68     		ldr	r3, [r7, #12]
 4070 004a 3B61     		str	r3, [r7, #16]
1255:c:/Users/lenovo/Desktop/AIoT/first_day/firstday_afternoon/LiteOS_Lab_STM32_IoT/iot_link/oc/oc_mqtt/oc_mqtt_tiny_v5\oc_mqtt_tiny.c ****     pubpara.msg.data = (char *)payload;
 4071              		.loc 1 1255 22
 4072 004c BB68     		ldr	r3, [r7, #8]
 4073 004e BB61     		str	r3, [r7, #24]
1256:c:/Users/lenovo/Desktop/AIoT/first_day/firstday_afternoon/LiteOS_Lab_STM32_IoT/iot_link/oc/oc_mqtt/oc_mqtt_tiny_v5\oc_mqtt_tiny.c ****     pubpara.msg.len = len;
 4074              		.loc 1 1256 21
 4075 0050 7B68     		ldr	r3, [r7, #4]
 4076 0052 FB61     		str	r3, [r7, #28]
1257:c:/Users/lenovo/Desktop/AIoT/first_day/firstday_afternoon/LiteOS_Lab_STM32_IoT/iot_link/oc/oc_mqtt/oc_mqtt_tiny_v5\oc_mqtt_tiny.c **** 
1258:c:/Users/lenovo/Desktop/AIoT/first_day/firstday_afternoon/LiteOS_Lab_STM32_IoT/iot_link/oc/oc_mqtt/oc_mqtt_tiny_v5\oc_mqtt_tiny.c ****     ret = daemon_cmd_post(en_oc_mqtt_daemon_cmd_publish,&pubpara);
 4077              		.loc 1 1258 11
 4078 0054 07F11003 		add	r3, r7, #16
 4079 0058 1946     		mov	r1, r3
 4080 005a 0220     		movs	r0, #2
 4081 005c FFF7FEFF 		bl	daemon_cmd_post
 4082 0060 F862     		str	r0, [r7, #44]
1259:c:/Users/lenovo/Desktop/AIoT/first_day/firstday_afternoon/LiteOS_Lab_STM32_IoT/iot_link/oc/oc_mqtt/oc_mqtt_tiny_v5\oc_mqtt_tiny.c **** 
1260:c:/Users/lenovo/Desktop/AIoT/first_day/firstday_afternoon/LiteOS_Lab_STM32_IoT/iot_link/oc/oc_mqtt/oc_mqtt_tiny_v5\oc_mqtt_tiny.c ****     return ret;
 4083              		.loc 1 1260 12
 4084 0062 FB6A     		ldr	r3, [r7, #44]
 4085              	.L214:
1261:c:/Users/lenovo/Desktop/AIoT/first_day/firstday_afternoon/LiteOS_Lab_STM32_IoT/iot_link/oc/oc_mqtt/oc_mqtt_tiny_v5\oc_mqtt_tiny.c **** }
 4086              		.loc 1 1261 1 discriminator 1
 4087 0064 1846     		mov	r0, r3
 4088 0066 3037     		adds	r7, r7, #48
 4089              	.LCFI91:
 4090              		.cfi_def_cfa_offset 8
 4091 0068 BD46     		mov	sp, r7
 4092              	.LCFI92:
 4093              		.cfi_def_cfa_register 13
 4094              		@ sp needed
 4095 006a 80BD     		pop	{r7, pc}
 4096              	.L216:
 4097              		.align	2
 4098              	.L215:
 4099 006c 00000000 		.word	s_oc_mqtt_tiny_cb
 4100              		.cfi_endproc
 4101              	.LFE21:
 4103              		.section	.text.tiny_subscribe,"ax",%progbits
 4104              		.align	1
 4105              		.syntax unified
 4106              		.thumb
ARM GAS  C:\Users\lenovo\AppData\Local\Temp\cceHxmqh.s 			page 100


 4107              		.thumb_func
 4108              		.fpu fpv4-sp-d16
 4110              	tiny_subscribe:
 4111              	.LFB22:
1262:c:/Users/lenovo/Desktop/AIoT/first_day/firstday_afternoon/LiteOS_Lab_STM32_IoT/iot_link/oc/oc_mqtt/oc_mqtt_tiny_v5\oc_mqtt_tiny.c **** 
1263:c:/Users/lenovo/Desktop/AIoT/first_day/firstday_afternoon/LiteOS_Lab_STM32_IoT/iot_link/oc/oc_mqtt/oc_mqtt_tiny_v5\oc_mqtt_tiny.c **** ///< use this function to subscribe a topic
1264:c:/Users/lenovo/Desktop/AIoT/first_day/firstday_afternoon/LiteOS_Lab_STM32_IoT/iot_link/oc/oc_mqtt/oc_mqtt_tiny_v5\oc_mqtt_tiny.c **** static int tiny_subscribe(char *topic, int qos)
1265:c:/Users/lenovo/Desktop/AIoT/first_day/firstday_afternoon/LiteOS_Lab_STM32_IoT/iot_link/oc/oc_mqtt/oc_mqtt_tiny_v5\oc_mqtt_tiny.c **** {
 4112              		.loc 1 1265 1
 4113              		.cfi_startproc
 4114              		@ args = 0, pretend = 0, frame = 40
 4115              		@ frame_needed = 1, uses_anonymous_args = 0
 4116 0000 80B5     		push	{r7, lr}
 4117              	.LCFI93:
 4118              		.cfi_def_cfa_offset 8
 4119              		.cfi_offset 7, -8
 4120              		.cfi_offset 14, -4
 4121 0002 8AB0     		sub	sp, sp, #40
 4122              	.LCFI94:
 4123              		.cfi_def_cfa_offset 48
 4124 0004 00AF     		add	r7, sp, #0
 4125              	.LCFI95:
 4126              		.cfi_def_cfa_register 7
 4127 0006 7860     		str	r0, [r7, #4]
 4128 0008 3960     		str	r1, [r7]
1266:c:/Users/lenovo/Desktop/AIoT/first_day/firstday_afternoon/LiteOS_Lab_STM32_IoT/iot_link/oc/oc_mqtt/oc_mqtt_tiny_v5\oc_mqtt_tiny.c ****     ///< use this function to subscribe a topic
1267:c:/Users/lenovo/Desktop/AIoT/first_day/firstday_afternoon/LiteOS_Lab_STM32_IoT/iot_link/oc/oc_mqtt/oc_mqtt_tiny_v5\oc_mqtt_tiny.c ****     mqtt_al_subpara_t  subpara;
1268:c:/Users/lenovo/Desktop/AIoT/first_day/firstday_afternoon/LiteOS_Lab_STM32_IoT/iot_link/oc/oc_mqtt/oc_mqtt_tiny_v5\oc_mqtt_tiny.c **** 
1269:c:/Users/lenovo/Desktop/AIoT/first_day/firstday_afternoon/LiteOS_Lab_STM32_IoT/iot_link/oc/oc_mqtt/oc_mqtt_tiny_v5\oc_mqtt_tiny.c ****     int  ret = en_oc_mqtt_err_parafmt;
 4129              		.loc 1 1269 10
 4130 000a 0123     		movs	r3, #1
 4131 000c 7B62     		str	r3, [r7, #36]
1270:c:/Users/lenovo/Desktop/AIoT/first_day/firstday_afternoon/LiteOS_Lab_STM32_IoT/iot_link/oc/oc_mqtt/oc_mqtt_tiny_v5\oc_mqtt_tiny.c **** 
1271:c:/Users/lenovo/Desktop/AIoT/first_day/firstday_afternoon/LiteOS_Lab_STM32_IoT/iot_link/oc/oc_mqtt/oc_mqtt_tiny_v5\oc_mqtt_tiny.c ****     if(qos >= en_mqtt_al_qos_err)
 4132              		.loc 1 1271 7
 4133 000e 3B68     		ldr	r3, [r7]
 4134 0010 022B     		cmp	r3, #2
 4135 0012 01DD     		ble	.L218
1272:c:/Users/lenovo/Desktop/AIoT/first_day/firstday_afternoon/LiteOS_Lab_STM32_IoT/iot_link/oc/oc_mqtt/oc_mqtt_tiny_v5\oc_mqtt_tiny.c ****     {
1273:c:/Users/lenovo/Desktop/AIoT/first_day/firstday_afternoon/LiteOS_Lab_STM32_IoT/iot_link/oc/oc_mqtt/oc_mqtt_tiny_v5\oc_mqtt_tiny.c ****         return ret;
 4136              		.loc 1 1273 16
 4137 0014 7B6A     		ldr	r3, [r7, #36]
 4138 0016 1EE0     		b	.L221
 4139              	.L218:
1274:c:/Users/lenovo/Desktop/AIoT/first_day/firstday_afternoon/LiteOS_Lab_STM32_IoT/iot_link/oc/oc_mqtt/oc_mqtt_tiny_v5\oc_mqtt_tiny.c ****     }
1275:c:/Users/lenovo/Desktop/AIoT/first_day/firstday_afternoon/LiteOS_Lab_STM32_IoT/iot_link/oc/oc_mqtt/oc_mqtt_tiny_v5\oc_mqtt_tiny.c ****     if(NULL == s_oc_mqtt_tiny_cb)
 4140              		.loc 1 1275 13
 4141 0018 114B     		ldr	r3, .L222
 4142 001a 1B68     		ldr	r3, [r3]
 4143              		.loc 1 1275 7
 4144 001c 002B     		cmp	r3, #0
 4145 001e 01D1     		bne	.L220
1276:c:/Users/lenovo/Desktop/AIoT/first_day/firstday_afternoon/LiteOS_Lab_STM32_IoT/iot_link/oc/oc_mqtt/oc_mqtt_tiny_v5\oc_mqtt_tiny.c ****     {
1277:c:/Users/lenovo/Desktop/AIoT/first_day/firstday_afternoon/LiteOS_Lab_STM32_IoT/iot_link/oc/oc_mqtt/oc_mqtt_tiny_v5\oc_mqtt_tiny.c ****         ret = en_oc_mqtt_err_system;
 4146              		.loc 1 1277 13
 4147 0020 1023     		movs	r3, #16
 4148 0022 7B62     		str	r3, [r7, #36]
ARM GAS  C:\Users\lenovo\AppData\Local\Temp\cceHxmqh.s 			page 101


 4149              	.L220:
1278:c:/Users/lenovo/Desktop/AIoT/first_day/firstday_afternoon/LiteOS_Lab_STM32_IoT/iot_link/oc/oc_mqtt/oc_mqtt_tiny_v5\oc_mqtt_tiny.c ****     }
1279:c:/Users/lenovo/Desktop/AIoT/first_day/firstday_afternoon/LiteOS_Lab_STM32_IoT/iot_link/oc/oc_mqtt/oc_mqtt_tiny_v5\oc_mqtt_tiny.c **** 
1280:c:/Users/lenovo/Desktop/AIoT/first_day/firstday_afternoon/LiteOS_Lab_STM32_IoT/iot_link/oc/oc_mqtt/oc_mqtt_tiny_v5\oc_mqtt_tiny.c ****     ///< pub the mqtt request
1281:c:/Users/lenovo/Desktop/AIoT/first_day/firstday_afternoon/LiteOS_Lab_STM32_IoT/iot_link/oc/oc_mqtt/oc_mqtt_tiny_v5\oc_mqtt_tiny.c ****     memset(&subpara, 0, sizeof(subpara));
 4150              		.loc 1 1281 5
 4151 0024 07F10803 		add	r3, r7, #8
 4152 0028 1C22     		movs	r2, #28
 4153 002a 0021     		movs	r1, #0
 4154 002c 1846     		mov	r0, r3
 4155 002e FFF7FEFF 		bl	memset
1282:c:/Users/lenovo/Desktop/AIoT/first_day/firstday_afternoon/LiteOS_Lab_STM32_IoT/iot_link/oc/oc_mqtt/oc_mqtt_tiny_v5\oc_mqtt_tiny.c ****     subpara.qos = qos;
 4156              		.loc 1 1282 17
 4157 0032 3B68     		ldr	r3, [r7]
 4158 0034 DBB2     		uxtb	r3, r3
 4159 0036 3B74     		strb	r3, [r7, #16]
1283:c:/Users/lenovo/Desktop/AIoT/first_day/firstday_afternoon/LiteOS_Lab_STM32_IoT/iot_link/oc/oc_mqtt/oc_mqtt_tiny_v5\oc_mqtt_tiny.c ****     subpara.topic.data = topic;
 4160              		.loc 1 1283 24
 4161 0038 7B68     		ldr	r3, [r7, #4]
 4162 003a BB60     		str	r3, [r7, #8]
1284:c:/Users/lenovo/Desktop/AIoT/first_day/firstday_afternoon/LiteOS_Lab_STM32_IoT/iot_link/oc/oc_mqtt/oc_mqtt_tiny_v5\oc_mqtt_tiny.c ****     subpara.topic.len = strlen(topic);
 4163              		.loc 1 1284 25
 4164 003c 7868     		ldr	r0, [r7, #4]
 4165 003e FFF7FEFF 		bl	strlen
 4166 0042 0346     		mov	r3, r0
 4167              		.loc 1 1284 23
 4168 0044 FB60     		str	r3, [r7, #12]
1285:c:/Users/lenovo/Desktop/AIoT/first_day/firstday_afternoon/LiteOS_Lab_STM32_IoT/iot_link/oc/oc_mqtt/oc_mqtt_tiny_v5\oc_mqtt_tiny.c **** 
1286:c:/Users/lenovo/Desktop/AIoT/first_day/firstday_afternoon/LiteOS_Lab_STM32_IoT/iot_link/oc/oc_mqtt/oc_mqtt_tiny_v5\oc_mqtt_tiny.c ****     ret = daemon_cmd_post(en_oc_mqtt_daemon_cmd_subscribe,&subpara);
 4169              		.loc 1 1286 11
 4170 0046 07F10803 		add	r3, r7, #8
 4171 004a 1946     		mov	r1, r3
 4172 004c 0320     		movs	r0, #3
 4173 004e FFF7FEFF 		bl	daemon_cmd_post
 4174 0052 7862     		str	r0, [r7, #36]
1287:c:/Users/lenovo/Desktop/AIoT/first_day/firstday_afternoon/LiteOS_Lab_STM32_IoT/iot_link/oc/oc_mqtt/oc_mqtt_tiny_v5\oc_mqtt_tiny.c **** 
1288:c:/Users/lenovo/Desktop/AIoT/first_day/firstday_afternoon/LiteOS_Lab_STM32_IoT/iot_link/oc/oc_mqtt/oc_mqtt_tiny_v5\oc_mqtt_tiny.c ****     return ret;
 4175              		.loc 1 1288 12
 4176 0054 7B6A     		ldr	r3, [r7, #36]
 4177              	.L221:
1289:c:/Users/lenovo/Desktop/AIoT/first_day/firstday_afternoon/LiteOS_Lab_STM32_IoT/iot_link/oc/oc_mqtt/oc_mqtt_tiny_v5\oc_mqtt_tiny.c **** }
 4178              		.loc 1 1289 1 discriminator 1
 4179 0056 1846     		mov	r0, r3
 4180 0058 2837     		adds	r7, r7, #40
 4181              	.LCFI96:
 4182              		.cfi_def_cfa_offset 8
 4183 005a BD46     		mov	sp, r7
 4184              	.LCFI97:
 4185              		.cfi_def_cfa_register 13
 4186              		@ sp needed
 4187 005c 80BD     		pop	{r7, pc}
 4188              	.L223:
 4189 005e 00BF     		.align	2
 4190              	.L222:
 4191 0060 00000000 		.word	s_oc_mqtt_tiny_cb
 4192              		.cfi_endproc
 4193              	.LFE22:
ARM GAS  C:\Users\lenovo\AppData\Local\Temp\cceHxmqh.s 			page 102


 4195              		.section	.text.tiny_unsubscribe,"ax",%progbits
 4196              		.align	1
 4197              		.syntax unified
 4198              		.thumb
 4199              		.thumb_func
 4200              		.fpu fpv4-sp-d16
 4202              	tiny_unsubscribe:
 4203              	.LFB23:
1290:c:/Users/lenovo/Desktop/AIoT/first_day/firstday_afternoon/LiteOS_Lab_STM32_IoT/iot_link/oc/oc_mqtt/oc_mqtt_tiny_v5\oc_mqtt_tiny.c **** ///< use this function to unsubscribe a topic
1291:c:/Users/lenovo/Desktop/AIoT/first_day/firstday_afternoon/LiteOS_Lab_STM32_IoT/iot_link/oc/oc_mqtt/oc_mqtt_tiny_v5\oc_mqtt_tiny.c **** static en_oc_mqtt_err_code_t tiny_unsubscribe(char *topic)
1292:c:/Users/lenovo/Desktop/AIoT/first_day/firstday_afternoon/LiteOS_Lab_STM32_IoT/iot_link/oc/oc_mqtt/oc_mqtt_tiny_v5\oc_mqtt_tiny.c **** {
 4204              		.loc 1 1292 1
 4205              		.cfi_startproc
 4206              		@ args = 0, pretend = 0, frame = 24
 4207              		@ frame_needed = 1, uses_anonymous_args = 0
 4208 0000 80B5     		push	{r7, lr}
 4209              	.LCFI98:
 4210              		.cfi_def_cfa_offset 8
 4211              		.cfi_offset 7, -8
 4212              		.cfi_offset 14, -4
 4213 0002 86B0     		sub	sp, sp, #24
 4214              	.LCFI99:
 4215              		.cfi_def_cfa_offset 32
 4216 0004 00AF     		add	r7, sp, #0
 4217              	.LCFI100:
 4218              		.cfi_def_cfa_register 7
 4219 0006 7860     		str	r0, [r7, #4]
1293:c:/Users/lenovo/Desktop/AIoT/first_day/firstday_afternoon/LiteOS_Lab_STM32_IoT/iot_link/oc/oc_mqtt/oc_mqtt_tiny_v5\oc_mqtt_tiny.c ****     ///< use this function to subscribe a topic
1294:c:/Users/lenovo/Desktop/AIoT/first_day/firstday_afternoon/LiteOS_Lab_STM32_IoT/iot_link/oc/oc_mqtt/oc_mqtt_tiny_v5\oc_mqtt_tiny.c ****     mqtt_al_unsubpara_t  unsubpara;
1295:c:/Users/lenovo/Desktop/AIoT/first_day/firstday_afternoon/LiteOS_Lab_STM32_IoT/iot_link/oc/oc_mqtt/oc_mqtt_tiny_v5\oc_mqtt_tiny.c **** 
1296:c:/Users/lenovo/Desktop/AIoT/first_day/firstday_afternoon/LiteOS_Lab_STM32_IoT/iot_link/oc/oc_mqtt/oc_mqtt_tiny_v5\oc_mqtt_tiny.c ****     en_oc_mqtt_err_code_t  ret = en_oc_mqtt_err_parafmt;
 4220              		.loc 1 1296 28
 4221 0008 0123     		movs	r3, #1
 4222 000a FB75     		strb	r3, [r7, #23]
1297:c:/Users/lenovo/Desktop/AIoT/first_day/firstday_afternoon/LiteOS_Lab_STM32_IoT/iot_link/oc/oc_mqtt/oc_mqtt_tiny_v5\oc_mqtt_tiny.c ****     if(NULL == s_oc_mqtt_tiny_cb)
 4223              		.loc 1 1297 13
 4224 000c 104B     		ldr	r3, .L227
 4225 000e 1B68     		ldr	r3, [r3]
 4226              		.loc 1 1297 7
 4227 0010 002B     		cmp	r3, #0
 4228 0012 01D1     		bne	.L225
1298:c:/Users/lenovo/Desktop/AIoT/first_day/firstday_afternoon/LiteOS_Lab_STM32_IoT/iot_link/oc/oc_mqtt/oc_mqtt_tiny_v5\oc_mqtt_tiny.c ****     {
1299:c:/Users/lenovo/Desktop/AIoT/first_day/firstday_afternoon/LiteOS_Lab_STM32_IoT/iot_link/oc/oc_mqtt/oc_mqtt_tiny_v5\oc_mqtt_tiny.c ****         ret = en_oc_mqtt_err_system;
 4229              		.loc 1 1299 13
 4230 0014 1023     		movs	r3, #16
 4231 0016 FB75     		strb	r3, [r7, #23]
 4232              	.L225:
1300:c:/Users/lenovo/Desktop/AIoT/first_day/firstday_afternoon/LiteOS_Lab_STM32_IoT/iot_link/oc/oc_mqtt/oc_mqtt_tiny_v5\oc_mqtt_tiny.c ****     }
1301:c:/Users/lenovo/Desktop/AIoT/first_day/firstday_afternoon/LiteOS_Lab_STM32_IoT/iot_link/oc/oc_mqtt/oc_mqtt_tiny_v5\oc_mqtt_tiny.c ****     ///< pub the mqtt request
1302:c:/Users/lenovo/Desktop/AIoT/first_day/firstday_afternoon/LiteOS_Lab_STM32_IoT/iot_link/oc/oc_mqtt/oc_mqtt_tiny_v5\oc_mqtt_tiny.c ****     memset(&unsubpara, 0, sizeof(unsubpara));
 4233              		.loc 1 1302 5
 4234 0018 07F10C03 		add	r3, r7, #12
 4235 001c 0822     		movs	r2, #8
 4236 001e 0021     		movs	r1, #0
 4237 0020 1846     		mov	r0, r3
 4238 0022 FFF7FEFF 		bl	memset
1303:c:/Users/lenovo/Desktop/AIoT/first_day/firstday_afternoon/LiteOS_Lab_STM32_IoT/iot_link/oc/oc_mqtt/oc_mqtt_tiny_v5\oc_mqtt_tiny.c ****     unsubpara.topic.data = topic;
ARM GAS  C:\Users\lenovo\AppData\Local\Temp\cceHxmqh.s 			page 103


 4239              		.loc 1 1303 26
 4240 0026 7B68     		ldr	r3, [r7, #4]
 4241 0028 FB60     		str	r3, [r7, #12]
1304:c:/Users/lenovo/Desktop/AIoT/first_day/firstday_afternoon/LiteOS_Lab_STM32_IoT/iot_link/oc/oc_mqtt/oc_mqtt_tiny_v5\oc_mqtt_tiny.c ****     unsubpara.topic.len = strlen(topic);
 4242              		.loc 1 1304 27
 4243 002a 7868     		ldr	r0, [r7, #4]
 4244 002c FFF7FEFF 		bl	strlen
 4245 0030 0346     		mov	r3, r0
 4246              		.loc 1 1304 25
 4247 0032 3B61     		str	r3, [r7, #16]
1305:c:/Users/lenovo/Desktop/AIoT/first_day/firstday_afternoon/LiteOS_Lab_STM32_IoT/iot_link/oc/oc_mqtt/oc_mqtt_tiny_v5\oc_mqtt_tiny.c ****     ret = daemon_cmd_post(en_oc_mqtt_daemon_cmd_unsubscribe,&unsubpara);
 4248              		.loc 1 1305 11
 4249 0034 07F10C03 		add	r3, r7, #12
 4250 0038 1946     		mov	r1, r3
 4251 003a 0420     		movs	r0, #4
 4252 003c FFF7FEFF 		bl	daemon_cmd_post
 4253 0040 0346     		mov	r3, r0
 4254              		.loc 1 1305 9
 4255 0042 FB75     		strb	r3, [r7, #23]
1306:c:/Users/lenovo/Desktop/AIoT/first_day/firstday_afternoon/LiteOS_Lab_STM32_IoT/iot_link/oc/oc_mqtt/oc_mqtt_tiny_v5\oc_mqtt_tiny.c **** 
1307:c:/Users/lenovo/Desktop/AIoT/first_day/firstday_afternoon/LiteOS_Lab_STM32_IoT/iot_link/oc/oc_mqtt/oc_mqtt_tiny_v5\oc_mqtt_tiny.c ****     return ret;
 4256              		.loc 1 1307 12
 4257 0044 FB7D     		ldrb	r3, [r7, #23]	@ zero_extendqisi2
1308:c:/Users/lenovo/Desktop/AIoT/first_day/firstday_afternoon/LiteOS_Lab_STM32_IoT/iot_link/oc/oc_mqtt/oc_mqtt_tiny_v5\oc_mqtt_tiny.c **** }
 4258              		.loc 1 1308 1
 4259 0046 1846     		mov	r0, r3
 4260 0048 1837     		adds	r7, r7, #24
 4261              	.LCFI101:
 4262              		.cfi_def_cfa_offset 8
 4263 004a BD46     		mov	sp, r7
 4264              	.LCFI102:
 4265              		.cfi_def_cfa_register 13
 4266              		@ sp needed
 4267 004c 80BD     		pop	{r7, pc}
 4268              	.L228:
 4269 004e 00BF     		.align	2
 4270              	.L227:
 4271 0050 00000000 		.word	s_oc_mqtt_tiny_cb
 4272              		.cfi_endproc
 4273              	.LFE23:
 4275              		.section	.text.tiny_deconfig,"ax",%progbits
 4276              		.align	1
 4277              		.syntax unified
 4278              		.thumb
 4279              		.thumb_func
 4280              		.fpu fpv4-sp-d16
 4282              	tiny_deconfig:
 4283              	.LFB24:
1309:c:/Users/lenovo/Desktop/AIoT/first_day/firstday_afternoon/LiteOS_Lab_STM32_IoT/iot_link/oc/oc_mqtt/oc_mqtt_tiny_v5\oc_mqtt_tiny.c **** 
1310:c:/Users/lenovo/Desktop/AIoT/first_day/firstday_afternoon/LiteOS_Lab_STM32_IoT/iot_link/oc/oc_mqtt/oc_mqtt_tiny_v5\oc_mqtt_tiny.c **** ///< use this function to deconfig it
1311:c:/Users/lenovo/Desktop/AIoT/first_day/firstday_afternoon/LiteOS_Lab_STM32_IoT/iot_link/oc/oc_mqtt/oc_mqtt_tiny_v5\oc_mqtt_tiny.c **** static int tiny_deconfig()
1312:c:/Users/lenovo/Desktop/AIoT/first_day/firstday_afternoon/LiteOS_Lab_STM32_IoT/iot_link/oc/oc_mqtt/oc_mqtt_tiny_v5\oc_mqtt_tiny.c **** {
 4284              		.loc 1 1312 1
 4285              		.cfi_startproc
 4286              		@ args = 0, pretend = 0, frame = 8
 4287              		@ frame_needed = 1, uses_anonymous_args = 0
 4288 0000 80B5     		push	{r7, lr}
ARM GAS  C:\Users\lenovo\AppData\Local\Temp\cceHxmqh.s 			page 104


 4289              	.LCFI103:
 4290              		.cfi_def_cfa_offset 8
 4291              		.cfi_offset 7, -8
 4292              		.cfi_offset 14, -4
 4293 0002 82B0     		sub	sp, sp, #8
 4294              	.LCFI104:
 4295              		.cfi_def_cfa_offset 16
 4296 0004 00AF     		add	r7, sp, #0
 4297              	.LCFI105:
 4298              		.cfi_def_cfa_register 7
1313:c:/Users/lenovo/Desktop/AIoT/first_day/firstday_afternoon/LiteOS_Lab_STM32_IoT/iot_link/oc/oc_mqtt/oc_mqtt_tiny_v5\oc_mqtt_tiny.c ****     int ret = en_oc_mqtt_err_system;
 4299              		.loc 1 1313 9
 4300 0006 1023     		movs	r3, #16
 4301 0008 7B60     		str	r3, [r7, #4]
1314:c:/Users/lenovo/Desktop/AIoT/first_day/firstday_afternoon/LiteOS_Lab_STM32_IoT/iot_link/oc/oc_mqtt/oc_mqtt_tiny_v5\oc_mqtt_tiny.c **** 
1315:c:/Users/lenovo/Desktop/AIoT/first_day/firstday_afternoon/LiteOS_Lab_STM32_IoT/iot_link/oc/oc_mqtt/oc_mqtt_tiny_v5\oc_mqtt_tiny.c ****     ret = daemon_cmd_post(en_oc_mqtt_daemon_cmd_disconnect,NULL);
 4302              		.loc 1 1315 11
 4303 000a 0021     		movs	r1, #0
 4304 000c 0520     		movs	r0, #5
 4305 000e FFF7FEFF 		bl	daemon_cmd_post
 4306 0012 7860     		str	r0, [r7, #4]
1316:c:/Users/lenovo/Desktop/AIoT/first_day/firstday_afternoon/LiteOS_Lab_STM32_IoT/iot_link/oc/oc_mqtt/oc_mqtt_tiny_v5\oc_mqtt_tiny.c **** 
1317:c:/Users/lenovo/Desktop/AIoT/first_day/firstday_afternoon/LiteOS_Lab_STM32_IoT/iot_link/oc/oc_mqtt/oc_mqtt_tiny_v5\oc_mqtt_tiny.c ****     return ret;
 4307              		.loc 1 1317 12
 4308 0014 7B68     		ldr	r3, [r7, #4]
1318:c:/Users/lenovo/Desktop/AIoT/first_day/firstday_afternoon/LiteOS_Lab_STM32_IoT/iot_link/oc/oc_mqtt/oc_mqtt_tiny_v5\oc_mqtt_tiny.c **** }
 4309              		.loc 1 1318 1
 4310 0016 1846     		mov	r0, r3
 4311 0018 0837     		adds	r7, r7, #8
 4312              	.LCFI106:
 4313              		.cfi_def_cfa_offset 8
 4314 001a BD46     		mov	sp, r7
 4315              	.LCFI107:
 4316              		.cfi_def_cfa_register 13
 4317              		@ sp needed
 4318 001c 80BD     		pop	{r7, pc}
 4319              		.cfi_endproc
 4320              	.LFE24:
 4322              		.section	.rodata
 4323 045e 0000     		.align	2
 4324              	.LC44:
 4325 0460 6F635F6D 		.ascii	"oc_mqtt_tiny\000"
 4325      7174745F 
 4325      74696E79 
 4325      00
 4326              		.section	.rodata.s_oc_mqtt_lite,"a"
 4327              		.align	2
 4330              	s_oc_mqtt_lite:
 4331 0000 60040000 		.word	.LC44
 4332 0004 00000000 		.word	tiny_config
 4333 0008 00000000 		.word	tiny_deconfig
 4334 000c 00000000 		.word	tiny_publish
 4335 0010 00000000 		.word	tiny_subscribe
 4336 0014 00000000 		.word	tiny_unsubscribe
 4337              		.section	.rodata
 4338 046d 000000   		.align	2
 4339              	.LC45:
ARM GAS  C:\Users\lenovo\AppData\Local\Temp\cceHxmqh.s 			page 105


 4340 0470 6461656D 		.ascii	"daemon_cmd_queue\000"
 4340      6F6E5F63 
 4340      6D645F71 
 4340      75657565 
 4340      00
 4341              		.section	.text.oc_mqtt_tiny_install,"ax",%progbits
 4342              		.align	1
 4343              		.global	oc_mqtt_tiny_install
 4344              		.syntax unified
 4345              		.thumb
 4346              		.thumb_func
 4347              		.fpu fpv4-sp-d16
 4349              	oc_mqtt_tiny_install:
 4350              	.LFB25:
1319:c:/Users/lenovo/Desktop/AIoT/first_day/firstday_afternoon/LiteOS_Lab_STM32_IoT/iot_link/oc/oc_mqtt/oc_mqtt_tiny_v5\oc_mqtt_tiny.c **** 
1320:c:/Users/lenovo/Desktop/AIoT/first_day/firstday_afternoon/LiteOS_Lab_STM32_IoT/iot_link/oc/oc_mqtt/oc_mqtt_tiny_v5\oc_mqtt_tiny.c **** 
1321:c:/Users/lenovo/Desktop/AIoT/first_day/firstday_afternoon/LiteOS_Lab_STM32_IoT/iot_link/oc/oc_mqtt/oc_mqtt_tiny_v5\oc_mqtt_tiny.c **** 
1322:c:/Users/lenovo/Desktop/AIoT/first_day/firstday_afternoon/LiteOS_Lab_STM32_IoT/iot_link/oc/oc_mqtt/oc_mqtt_tiny_v5\oc_mqtt_tiny.c **** static const oc_mqtt_t s_oc_mqtt_lite = \
1323:c:/Users/lenovo/Desktop/AIoT/first_day/firstday_afternoon/LiteOS_Lab_STM32_IoT/iot_link/oc/oc_mqtt/oc_mqtt_tiny_v5\oc_mqtt_tiny.c **** {
1324:c:/Users/lenovo/Desktop/AIoT/first_day/firstday_afternoon/LiteOS_Lab_STM32_IoT/iot_link/oc/oc_mqtt/oc_mqtt_tiny_v5\oc_mqtt_tiny.c ****     .name = "oc_mqtt_tiny",
1325:c:/Users/lenovo/Desktop/AIoT/first_day/firstday_afternoon/LiteOS_Lab_STM32_IoT/iot_link/oc/oc_mqtt/oc_mqtt_tiny_v5\oc_mqtt_tiny.c ****     .op =
1326:c:/Users/lenovo/Desktop/AIoT/first_day/firstday_afternoon/LiteOS_Lab_STM32_IoT/iot_link/oc/oc_mqtt/oc_mqtt_tiny_v5\oc_mqtt_tiny.c ****     {
1327:c:/Users/lenovo/Desktop/AIoT/first_day/firstday_afternoon/LiteOS_Lab_STM32_IoT/iot_link/oc/oc_mqtt/oc_mqtt_tiny_v5\oc_mqtt_tiny.c ****         .config = tiny_config,
1328:c:/Users/lenovo/Desktop/AIoT/first_day/firstday_afternoon/LiteOS_Lab_STM32_IoT/iot_link/oc/oc_mqtt/oc_mqtt_tiny_v5\oc_mqtt_tiny.c ****         .deconfig = tiny_deconfig,
1329:c:/Users/lenovo/Desktop/AIoT/first_day/firstday_afternoon/LiteOS_Lab_STM32_IoT/iot_link/oc/oc_mqtt/oc_mqtt_tiny_v5\oc_mqtt_tiny.c ****         .publish = tiny_publish,
1330:c:/Users/lenovo/Desktop/AIoT/first_day/firstday_afternoon/LiteOS_Lab_STM32_IoT/iot_link/oc/oc_mqtt/oc_mqtt_tiny_v5\oc_mqtt_tiny.c ****         .subscribe = tiny_subscribe,
1331:c:/Users/lenovo/Desktop/AIoT/first_day/firstday_afternoon/LiteOS_Lab_STM32_IoT/iot_link/oc/oc_mqtt/oc_mqtt_tiny_v5\oc_mqtt_tiny.c ****         .unsubscribe = tiny_unsubscribe,
1332:c:/Users/lenovo/Desktop/AIoT/first_day/firstday_afternoon/LiteOS_Lab_STM32_IoT/iot_link/oc/oc_mqtt/oc_mqtt_tiny_v5\oc_mqtt_tiny.c ****     },
1333:c:/Users/lenovo/Desktop/AIoT/first_day/firstday_afternoon/LiteOS_Lab_STM32_IoT/iot_link/oc/oc_mqtt/oc_mqtt_tiny_v5\oc_mqtt_tiny.c **** };
1334:c:/Users/lenovo/Desktop/AIoT/first_day/firstday_afternoon/LiteOS_Lab_STM32_IoT/iot_link/oc/oc_mqtt/oc_mqtt_tiny_v5\oc_mqtt_tiny.c **** 
1335:c:/Users/lenovo/Desktop/AIoT/first_day/firstday_afternoon/LiteOS_Lab_STM32_IoT/iot_link/oc/oc_mqtt/oc_mqtt_tiny_v5\oc_mqtt_tiny.c **** ///< use this function to install the oc mqtt to the oc mqtt abstract layer
1336:c:/Users/lenovo/Desktop/AIoT/first_day/firstday_afternoon/LiteOS_Lab_STM32_IoT/iot_link/oc/oc_mqtt/oc_mqtt_tiny_v5\oc_mqtt_tiny.c **** int oc_mqtt_tiny_install()
1337:c:/Users/lenovo/Desktop/AIoT/first_day/firstday_afternoon/LiteOS_Lab_STM32_IoT/iot_link/oc/oc_mqtt/oc_mqtt_tiny_v5\oc_mqtt_tiny.c **** {
 4351              		.loc 1 1337 1
 4352              		.cfi_startproc
 4353              		@ args = 0, pretend = 0, frame = 8
 4354              		@ frame_needed = 1, uses_anonymous_args = 0
 4355 0000 80B5     		push	{r7, lr}
 4356              	.LCFI108:
 4357              		.cfi_def_cfa_offset 8
 4358              		.cfi_offset 7, -8
 4359              		.cfi_offset 14, -4
 4360 0002 84B0     		sub	sp, sp, #16
 4361              	.LCFI109:
 4362              		.cfi_def_cfa_offset 24
 4363 0004 02AF     		add	r7, sp, #8
 4364              	.LCFI110:
 4365              		.cfi_def_cfa 7, 16
1338:c:/Users/lenovo/Desktop/AIoT/first_day/firstday_afternoon/LiteOS_Lab_STM32_IoT/iot_link/oc/oc_mqtt/oc_mqtt_tiny_v5\oc_mqtt_tiny.c ****     int ret = -1;
 4366              		.loc 1 1338 9
 4367 0006 4FF0FF33 		mov	r3, #-1
 4368 000a 7B60     		str	r3, [r7, #4]
1339:c:/Users/lenovo/Desktop/AIoT/first_day/firstday_afternoon/LiteOS_Lab_STM32_IoT/iot_link/oc/oc_mqtt/oc_mqtt_tiny_v5\oc_mqtt_tiny.c **** 
1340:c:/Users/lenovo/Desktop/AIoT/first_day/firstday_afternoon/LiteOS_Lab_STM32_IoT/iot_link/oc/oc_mqtt/oc_mqtt_tiny_v5\oc_mqtt_tiny.c ****     oc_mqtt_tiny_cb_t *cb;
1341:c:/Users/lenovo/Desktop/AIoT/first_day/firstday_afternoon/LiteOS_Lab_STM32_IoT/iot_link/oc/oc_mqtt/oc_mqtt_tiny_v5\oc_mqtt_tiny.c **** 
1342:c:/Users/lenovo/Desktop/AIoT/first_day/firstday_afternoon/LiteOS_Lab_STM32_IoT/iot_link/oc/oc_mqtt/oc_mqtt_tiny_v5\oc_mqtt_tiny.c ****     cb = osal_malloc(sizeof(oc_mqtt_tiny_cb_t));
 4369              		.loc 1 1342 10
ARM GAS  C:\Users\lenovo\AppData\Local\Temp\cceHxmqh.s 			page 106


 4370 000c A820     		movs	r0, #168
 4371 000e FFF7FEFF 		bl	osal_malloc
 4372 0012 3860     		str	r0, [r7]
1343:c:/Users/lenovo/Desktop/AIoT/first_day/firstday_afternoon/LiteOS_Lab_STM32_IoT/iot_link/oc/oc_mqtt/oc_mqtt_tiny_v5\oc_mqtt_tiny.c ****     if(NULL == cb)
 4373              		.loc 1 1343 7
 4374 0014 3B68     		ldr	r3, [r7]
 4375 0016 002B     		cmp	r3, #0
 4376 0018 49D0     		beq	.L242
1344:c:/Users/lenovo/Desktop/AIoT/first_day/firstday_afternoon/LiteOS_Lab_STM32_IoT/iot_link/oc/oc_mqtt/oc_mqtt_tiny_v5\oc_mqtt_tiny.c ****     {
1345:c:/Users/lenovo/Desktop/AIoT/first_day/firstday_afternoon/LiteOS_Lab_STM32_IoT/iot_link/oc/oc_mqtt/oc_mqtt_tiny_v5\oc_mqtt_tiny.c ****         goto EXIT_MALLOC;
1346:c:/Users/lenovo/Desktop/AIoT/first_day/firstday_afternoon/LiteOS_Lab_STM32_IoT/iot_link/oc/oc_mqtt/oc_mqtt_tiny_v5\oc_mqtt_tiny.c ****     }
1347:c:/Users/lenovo/Desktop/AIoT/first_day/firstday_afternoon/LiteOS_Lab_STM32_IoT/iot_link/oc/oc_mqtt/oc_mqtt_tiny_v5\oc_mqtt_tiny.c ****     memset(cb,0,sizeof(oc_mqtt_tiny_cb_t));
 4377              		.loc 1 1347 5
 4378 001a A822     		movs	r2, #168
 4379 001c 0021     		movs	r1, #0
 4380 001e 3868     		ldr	r0, [r7]
 4381 0020 FFF7FEFF 		bl	memset
1348:c:/Users/lenovo/Desktop/AIoT/first_day/firstday_afternoon/LiteOS_Lab_STM32_IoT/iot_link/oc/oc_mqtt/oc_mqtt_tiny_v5\oc_mqtt_tiny.c **** 
1349:c:/Users/lenovo/Desktop/AIoT/first_day/firstday_afternoon/LiteOS_Lab_STM32_IoT/iot_link/oc/oc_mqtt/oc_mqtt_tiny_v5\oc_mqtt_tiny.c ****     cb->task_daemon_cmd_queue = queue_create("daemon_cmd_queue",10,1);
 4382              		.loc 1 1349 33
 4383 0024 0122     		movs	r2, #1
 4384 0026 0A21     		movs	r1, #10
 4385 0028 2448     		ldr	r0, .L246
 4386 002a FFF7FEFF 		bl	queue_create
 4387 002e 0246     		mov	r2, r0
 4388              		.loc 1 1349 31
 4389 0030 3B68     		ldr	r3, [r7]
 4390 0032 DA67     		str	r2, [r3, #124]
1350:c:/Users/lenovo/Desktop/AIoT/first_day/firstday_afternoon/LiteOS_Lab_STM32_IoT/iot_link/oc/oc_mqtt/oc_mqtt_tiny_v5\oc_mqtt_tiny.c ****     if(NULL == cb->task_daemon_cmd_queue)
 4391              		.loc 1 1350 18
 4392 0034 3B68     		ldr	r3, [r7]
 4393 0036 DB6F     		ldr	r3, [r3, #124]
 4394              		.loc 1 1350 7
 4395 0038 002B     		cmp	r3, #0
 4396 003a 31D0     		beq	.L243
1351:c:/Users/lenovo/Desktop/AIoT/first_day/firstday_afternoon/LiteOS_Lab_STM32_IoT/iot_link/oc/oc_mqtt/oc_mqtt_tiny_v5\oc_mqtt_tiny.c ****     {
1352:c:/Users/lenovo/Desktop/AIoT/first_day/firstday_afternoon/LiteOS_Lab_STM32_IoT/iot_link/oc/oc_mqtt/oc_mqtt_tiny_v5\oc_mqtt_tiny.c ****         goto EXIT_QUEUE;
1353:c:/Users/lenovo/Desktop/AIoT/first_day/firstday_afternoon/LiteOS_Lab_STM32_IoT/iot_link/oc/oc_mqtt/oc_mqtt_tiny_v5\oc_mqtt_tiny.c ****     }
1354:c:/Users/lenovo/Desktop/AIoT/first_day/firstday_afternoon/LiteOS_Lab_STM32_IoT/iot_link/oc/oc_mqtt/oc_mqtt_tiny_v5\oc_mqtt_tiny.c **** 
1355:c:/Users/lenovo/Desktop/AIoT/first_day/firstday_afternoon/LiteOS_Lab_STM32_IoT/iot_link/oc/oc_mqtt/oc_mqtt_tiny_v5\oc_mqtt_tiny.c ****     cb->task_daemon = osal_task_create("oc_mqtt_tiny",daemon_entry,\
 4397              		.loc 1 1355 23
 4398 003c 0A23     		movs	r3, #10
 4399 003e 0193     		str	r3, [sp, #4]
 4400 0040 0023     		movs	r3, #0
 4401 0042 0093     		str	r3, [sp]
 4402 0044 4FF4C053 		mov	r3, #6144
 4403 0048 3A68     		ldr	r2, [r7]
 4404 004a 1D49     		ldr	r1, .L246+4
 4405 004c 1D48     		ldr	r0, .L246+8
 4406 004e FFF7FEFF 		bl	osal_task_create
 4407 0052 0246     		mov	r2, r0
 4408              		.loc 1 1355 21
 4409 0054 3B68     		ldr	r3, [r7]
 4410 0056 9A67     		str	r2, [r3, #120]
1356:c:/Users/lenovo/Desktop/AIoT/first_day/firstday_afternoon/LiteOS_Lab_STM32_IoT/iot_link/oc/oc_mqtt/oc_mqtt_tiny_v5\oc_mqtt_tiny.c ****                                         cb,0x1800,NULL,10);
1357:c:/Users/lenovo/Desktop/AIoT/first_day/firstday_afternoon/LiteOS_Lab_STM32_IoT/iot_link/oc/oc_mqtt/oc_mqtt_tiny_v5\oc_mqtt_tiny.c ****     if(NULL == cb->task_daemon)
 4411              		.loc 1 1357 18
ARM GAS  C:\Users\lenovo\AppData\Local\Temp\cceHxmqh.s 			page 107


 4412 0058 3B68     		ldr	r3, [r7]
 4413 005a 9B6F     		ldr	r3, [r3, #120]
 4414              		.loc 1 1357 7
 4415 005c 002B     		cmp	r3, #0
 4416 005e 15D0     		beq	.L244
1358:c:/Users/lenovo/Desktop/AIoT/first_day/firstday_afternoon/LiteOS_Lab_STM32_IoT/iot_link/oc/oc_mqtt/oc_mqtt_tiny_v5\oc_mqtt_tiny.c ****     {
1359:c:/Users/lenovo/Desktop/AIoT/first_day/firstday_afternoon/LiteOS_Lab_STM32_IoT/iot_link/oc/oc_mqtt/oc_mqtt_tiny_v5\oc_mqtt_tiny.c ****         goto EXIT_TASK;
1360:c:/Users/lenovo/Desktop/AIoT/first_day/firstday_afternoon/LiteOS_Lab_STM32_IoT/iot_link/oc/oc_mqtt/oc_mqtt_tiny_v5\oc_mqtt_tiny.c ****     }
1361:c:/Users/lenovo/Desktop/AIoT/first_day/firstday_afternoon/LiteOS_Lab_STM32_IoT/iot_link/oc/oc_mqtt/oc_mqtt_tiny_v5\oc_mqtt_tiny.c **** 
1362:c:/Users/lenovo/Desktop/AIoT/first_day/firstday_afternoon/LiteOS_Lab_STM32_IoT/iot_link/oc/oc_mqtt/oc_mqtt_tiny_v5\oc_mqtt_tiny.c ****     ret = oc_mqtt_register(&s_oc_mqtt_lite);
 4417              		.loc 1 1362 11
 4418 0060 1948     		ldr	r0, .L246+12
 4419 0062 FFF7FEFF 		bl	oc_mqtt_register
 4420 0066 7860     		str	r0, [r7, #4]
1363:c:/Users/lenovo/Desktop/AIoT/first_day/firstday_afternoon/LiteOS_Lab_STM32_IoT/iot_link/oc/oc_mqtt/oc_mqtt_tiny_v5\oc_mqtt_tiny.c ****     if(0 != ret)
 4421              		.loc 1 1363 7
 4422 0068 7B68     		ldr	r3, [r7, #4]
 4423 006a 002B     		cmp	r3, #0
 4424 006c 04D1     		bne	.L245
1364:c:/Users/lenovo/Desktop/AIoT/first_day/firstday_afternoon/LiteOS_Lab_STM32_IoT/iot_link/oc/oc_mqtt/oc_mqtt_tiny_v5\oc_mqtt_tiny.c ****     {
1365:c:/Users/lenovo/Desktop/AIoT/first_day/firstday_afternoon/LiteOS_Lab_STM32_IoT/iot_link/oc/oc_mqtt/oc_mqtt_tiny_v5\oc_mqtt_tiny.c ****         goto EXIT_REGISTER;
1366:c:/Users/lenovo/Desktop/AIoT/first_day/firstday_afternoon/LiteOS_Lab_STM32_IoT/iot_link/oc/oc_mqtt/oc_mqtt_tiny_v5\oc_mqtt_tiny.c ****     }
1367:c:/Users/lenovo/Desktop/AIoT/first_day/firstday_afternoon/LiteOS_Lab_STM32_IoT/iot_link/oc/oc_mqtt/oc_mqtt_tiny_v5\oc_mqtt_tiny.c ****     s_oc_mqtt_tiny_cb = cb;
 4425              		.loc 1 1367 23
 4426 006e 174A     		ldr	r2, .L246+16
 4427 0070 3B68     		ldr	r3, [r7]
 4428 0072 1360     		str	r3, [r2]
1368:c:/Users/lenovo/Desktop/AIoT/first_day/firstday_afternoon/LiteOS_Lab_STM32_IoT/iot_link/oc/oc_mqtt/oc_mqtt_tiny_v5\oc_mqtt_tiny.c ****     return ret;
 4429              		.loc 1 1368 12
 4430 0074 7B68     		ldr	r3, [r7, #4]
 4431 0076 1CE0     		b	.L240
 4432              	.L245:
1365:c:/Users/lenovo/Desktop/AIoT/first_day/firstday_afternoon/LiteOS_Lab_STM32_IoT/iot_link/oc/oc_mqtt/oc_mqtt_tiny_v5\oc_mqtt_tiny.c ****     }
 4433              		.loc 1 1365 9
 4434 0078 00BF     		nop
 4435              	.L239:
1369:c:/Users/lenovo/Desktop/AIoT/first_day/firstday_afternoon/LiteOS_Lab_STM32_IoT/iot_link/oc/oc_mqtt/oc_mqtt_tiny_v5\oc_mqtt_tiny.c **** 
1370:c:/Users/lenovo/Desktop/AIoT/first_day/firstday_afternoon/LiteOS_Lab_STM32_IoT/iot_link/oc/oc_mqtt/oc_mqtt_tiny_v5\oc_mqtt_tiny.c **** 
1371:c:/Users/lenovo/Desktop/AIoT/first_day/firstday_afternoon/LiteOS_Lab_STM32_IoT/iot_link/oc/oc_mqtt/oc_mqtt_tiny_v5\oc_mqtt_tiny.c **** EXIT_REGISTER:
1372:c:/Users/lenovo/Desktop/AIoT/first_day/firstday_afternoon/LiteOS_Lab_STM32_IoT/iot_link/oc/oc_mqtt/oc_mqtt_tiny_v5\oc_mqtt_tiny.c ****     osal_task_kill(cb->task_daemon);
 4436              		.loc 1 1372 5
 4437 007a 3B68     		ldr	r3, [r7]
 4438 007c 9B6F     		ldr	r3, [r3, #120]
 4439 007e 1846     		mov	r0, r3
 4440 0080 FFF7FEFF 		bl	osal_task_kill
1373:c:/Users/lenovo/Desktop/AIoT/first_day/firstday_afternoon/LiteOS_Lab_STM32_IoT/iot_link/oc/oc_mqtt/oc_mqtt_tiny_v5\oc_mqtt_tiny.c ****     cb->task_daemon = NULL;
 4441              		.loc 1 1373 21
 4442 0084 3B68     		ldr	r3, [r7]
 4443 0086 0022     		movs	r2, #0
 4444 0088 9A67     		str	r2, [r3, #120]
 4445 008a 00E0     		b	.L237
 4446              	.L244:
1359:c:/Users/lenovo/Desktop/AIoT/first_day/firstday_afternoon/LiteOS_Lab_STM32_IoT/iot_link/oc/oc_mqtt/oc_mqtt_tiny_v5\oc_mqtt_tiny.c ****     }
 4447              		.loc 1 1359 9
 4448 008c 00BF     		nop
 4449              	.L237:
1374:c:/Users/lenovo/Desktop/AIoT/first_day/firstday_afternoon/LiteOS_Lab_STM32_IoT/iot_link/oc/oc_mqtt/oc_mqtt_tiny_v5\oc_mqtt_tiny.c **** 
ARM GAS  C:\Users\lenovo\AppData\Local\Temp\cceHxmqh.s 			page 108


1375:c:/Users/lenovo/Desktop/AIoT/first_day/firstday_afternoon/LiteOS_Lab_STM32_IoT/iot_link/oc/oc_mqtt/oc_mqtt_tiny_v5\oc_mqtt_tiny.c **** EXIT_TASK:
1376:c:/Users/lenovo/Desktop/AIoT/first_day/firstday_afternoon/LiteOS_Lab_STM32_IoT/iot_link/oc/oc_mqtt/oc_mqtt_tiny_v5\oc_mqtt_tiny.c ****     queue_delete(cb->task_daemon_cmd_queue);
 4450              		.loc 1 1376 5
 4451 008e 3B68     		ldr	r3, [r7]
 4452 0090 DB6F     		ldr	r3, [r3, #124]
 4453 0092 1846     		mov	r0, r3
 4454 0094 FFF7FEFF 		bl	queue_delete
1377:c:/Users/lenovo/Desktop/AIoT/first_day/firstday_afternoon/LiteOS_Lab_STM32_IoT/iot_link/oc/oc_mqtt/oc_mqtt_tiny_v5\oc_mqtt_tiny.c ****     cb->task_daemon_cmd_queue = NULL;
 4455              		.loc 1 1377 31
 4456 0098 3B68     		ldr	r3, [r7]
 4457 009a 0022     		movs	r2, #0
 4458 009c DA67     		str	r2, [r3, #124]
 4459 009e 00E0     		b	.L235
 4460              	.L243:
1352:c:/Users/lenovo/Desktop/AIoT/first_day/firstday_afternoon/LiteOS_Lab_STM32_IoT/iot_link/oc/oc_mqtt/oc_mqtt_tiny_v5\oc_mqtt_tiny.c ****     }
 4461              		.loc 1 1352 9
 4462 00a0 00BF     		nop
 4463              	.L235:
1378:c:/Users/lenovo/Desktop/AIoT/first_day/firstday_afternoon/LiteOS_Lab_STM32_IoT/iot_link/oc/oc_mqtt/oc_mqtt_tiny_v5\oc_mqtt_tiny.c **** 
1379:c:/Users/lenovo/Desktop/AIoT/first_day/firstday_afternoon/LiteOS_Lab_STM32_IoT/iot_link/oc/oc_mqtt/oc_mqtt_tiny_v5\oc_mqtt_tiny.c **** EXIT_QUEUE:
1380:c:/Users/lenovo/Desktop/AIoT/first_day/firstday_afternoon/LiteOS_Lab_STM32_IoT/iot_link/oc/oc_mqtt/oc_mqtt_tiny_v5\oc_mqtt_tiny.c ****     osal_free(cb);
 4464              		.loc 1 1380 5
 4465 00a2 3868     		ldr	r0, [r7]
 4466 00a4 FFF7FEFF 		bl	osal_free
1381:c:/Users/lenovo/Desktop/AIoT/first_day/firstday_afternoon/LiteOS_Lab_STM32_IoT/iot_link/oc/oc_mqtt/oc_mqtt_tiny_v5\oc_mqtt_tiny.c ****     cb = NULL;
 4467              		.loc 1 1381 8
 4468 00a8 0023     		movs	r3, #0
 4469 00aa 3B60     		str	r3, [r7]
 4470 00ac 00E0     		b	.L233
 4471              	.L242:
1345:c:/Users/lenovo/Desktop/AIoT/first_day/firstday_afternoon/LiteOS_Lab_STM32_IoT/iot_link/oc/oc_mqtt/oc_mqtt_tiny_v5\oc_mqtt_tiny.c ****     }
 4472              		.loc 1 1345 9
 4473 00ae 00BF     		nop
 4474              	.L233:
1382:c:/Users/lenovo/Desktop/AIoT/first_day/firstday_afternoon/LiteOS_Lab_STM32_IoT/iot_link/oc/oc_mqtt/oc_mqtt_tiny_v5\oc_mqtt_tiny.c **** 
1383:c:/Users/lenovo/Desktop/AIoT/first_day/firstday_afternoon/LiteOS_Lab_STM32_IoT/iot_link/oc/oc_mqtt/oc_mqtt_tiny_v5\oc_mqtt_tiny.c **** EXIT_MALLOC:
1384:c:/Users/lenovo/Desktop/AIoT/first_day/firstday_afternoon/LiteOS_Lab_STM32_IoT/iot_link/oc/oc_mqtt/oc_mqtt_tiny_v5\oc_mqtt_tiny.c ****     return ret;
 4475              		.loc 1 1384 12
 4476 00b0 7B68     		ldr	r3, [r7, #4]
 4477              	.L240:
1385:c:/Users/lenovo/Desktop/AIoT/first_day/firstday_afternoon/LiteOS_Lab_STM32_IoT/iot_link/oc/oc_mqtt/oc_mqtt_tiny_v5\oc_mqtt_tiny.c **** }
 4478              		.loc 1 1385 1
 4479 00b2 1846     		mov	r0, r3
 4480 00b4 0837     		adds	r7, r7, #8
 4481              	.LCFI111:
 4482              		.cfi_def_cfa_offset 8
 4483 00b6 BD46     		mov	sp, r7
 4484              	.LCFI112:
 4485              		.cfi_def_cfa_register 13
 4486              		@ sp needed
 4487 00b8 80BD     		pop	{r7, pc}
 4488              	.L247:
 4489 00ba 00BF     		.align	2
 4490              	.L246:
 4491 00bc 70040000 		.word	.LC45
 4492 00c0 00000000 		.word	daemon_entry
 4493 00c4 60040000 		.word	.LC44
ARM GAS  C:\Users\lenovo\AppData\Local\Temp\cceHxmqh.s 			page 109


 4494 00c8 00000000 		.word	s_oc_mqtt_lite
 4495 00cc 00000000 		.word	s_oc_mqtt_tiny_cb
 4496              		.cfi_endproc
 4497              	.LFE25:
 4499              		.section	.rodata.__FUNCTION__.8239,"a"
 4500              		.align	2
 4503              	__FUNCTION__.8239:
 4504 0000 6875625F 		.ascii	"hub_step\000"
 4504      73746570 
 4504      00
 4505              		.section	.rodata.__FUNCTION__.8246,"a"
 4506              		.align	2
 4509              	__FUNCTION__.8246:
 4510 0000 62735F73 		.ascii	"bs_step\000"
 4510      74657000 
 4511              		.section	.rodata.__FUNCTION__.8275,"a"
 4512              		.align	2
 4515              	__FUNCTION__.8275:
 4516 0000 6461656D 		.ascii	"daemon_entry\000"
 4516      6F6E5F65 
 4516      6E747279 
 4516      00
 4517              		.text
 4518              	.Letext0:
 4519              		.file 2 "c:\\users\\lenovo\\.iotlink\\tools\\gcc-arm-none-eabi\\arm-none-eabi\\include\\machine\\_
 4520              		.file 3 "c:\\users\\lenovo\\.iotlink\\tools\\gcc-arm-none-eabi\\arm-none-eabi\\include\\sys\\_stdi
 4521              		.file 4 "c:\\users\\lenovo\\.iotlink\\tools\\gcc-arm-none-eabi\\arm-none-eabi\\include\\sys\\lock.
 4522              		.file 5 "c:\\users\\lenovo\\.iotlink\\tools\\gcc-arm-none-eabi\\arm-none-eabi\\include\\sys\\_type
 4523              		.file 6 "c:\\users\\lenovo\\.iotlink\\tools\\gcc-arm-none-eabi\\lib\\gcc\\arm-none-eabi\\9.2.1\\in
 4524              		.file 7 "c:\\users\\lenovo\\.iotlink\\tools\\gcc-arm-none-eabi\\arm-none-eabi\\include\\sys\\reent
 4525              		.file 8 "c:\\users\\lenovo\\.iotlink\\tools\\gcc-arm-none-eabi\\arm-none-eabi\\include\\stdlib.h"
 4526              		.file 9 "c:\\users\\lenovo\\.iotlink\\tools\\gcc-arm-none-eabi\\arm-none-eabi\\include\\sys\\_time
 4527              		.file 10 "c:\\users\\lenovo\\.iotlink\\tools\\gcc-arm-none-eabi\\arm-none-eabi\\include\\time.h"
 4528              		.file 11 "c:/Users/lenovo/Desktop/AIoT/first_day/firstday_afternoon/LiteOS_Lab_STM32_IoT/iot_link/
 4529              		.file 12 "c:/Users/lenovo/Desktop/AIoT/first_day/firstday_afternoon/LiteOS_Lab_STM32_IoT/iot_link/
 4530              		.file 13 "c:/Users/lenovo/Desktop/AIoT/first_day/firstday_afternoon/LiteOS_Lab_STM32_IoT/iot_link/
 4531              		.file 14 "c:/Users/lenovo/Desktop/AIoT/first_day/firstday_afternoon/LiteOS_Lab_STM32_IoT/iot_link/
 4532              		.file 15 "c:/Users/lenovo/Desktop/AIoT/first_day/firstday_afternoon/LiteOS_Lab_STM32_IoT/iot_link/
 4533              		.file 16 "c:/Users/lenovo/Desktop/AIoT/first_day/firstday_afternoon/LiteOS_Lab_STM32_IoT/iot_link/
ARM GAS  C:\Users\lenovo\AppData\Local\Temp\cceHxmqh.s 			page 110


DEFINED SYMBOLS
                            *ABS*:00000000 oc_mqtt_tiny.c
C:\Users\lenovo\AppData\Local\Temp\cceHxmqh.s:18     .rodata.s_oc_mqtt_ca_crt:00000000 $d
C:\Users\lenovo\AppData\Local\Temp\cceHxmqh.s:21     .rodata.s_oc_mqtt_ca_crt:00000000 s_oc_mqtt_ca_crt
C:\Users\lenovo\AppData\Local\Temp\cceHxmqh.s:73     .data.s_new_topic_fmt:00000000 s_new_topic_fmt
C:\Users\lenovo\AppData\Local\Temp\cceHxmqh.s:54     .rodata:00000000 $d
C:\Users\lenovo\AppData\Local\Temp\cceHxmqh.s:70     .data.s_new_topic_fmt:00000000 $d
C:\Users\lenovo\AppData\Local\Temp\cceHxmqh.s:80     .bss.s_oc_mqtt_tiny_cb:00000000 $d
C:\Users\lenovo\AppData\Local\Temp\cceHxmqh.s:83     .bss.s_oc_mqtt_tiny_cb:00000000 s_oc_mqtt_tiny_cb
C:\Users\lenovo\AppData\Local\Temp\cceHxmqh.s:99     .text.hub_msg_default_deal:00000000 $t
C:\Users\lenovo\AppData\Local\Temp\cceHxmqh.s:106    .text.hub_msg_default_deal:00000000 hub_msg_default_deal
C:\Users\lenovo\AppData\Local\Temp\cceHxmqh.s:353    .text.hub_msg_default_deal:0000016c $d
C:\Users\lenovo\AppData\Local\Temp\cceHxmqh.s:375    .text.bs_msg_default_deal:00000000 $t
C:\Users\lenovo\AppData\Local\Temp\cceHxmqh.s:381    .text.bs_msg_default_deal:00000000 bs_msg_default_deal
C:\Users\lenovo\AppData\Local\Temp\cceHxmqh.s:590    .text.bs_msg_default_deal:00000124 $d
C:\Users\lenovo\AppData\Local\Temp\cceHxmqh.s:599    .text.topic_fmt:00000000 $t
C:\Users\lenovo\AppData\Local\Temp\cceHxmqh.s:605    .text.topic_fmt:00000000 topic_fmt
C:\Users\lenovo\AppData\Local\Temp\cceHxmqh.s:677    .text.clientid_fmt:00000000 $t
C:\Users\lenovo\AppData\Local\Temp\cceHxmqh.s:683    .text.clientid_fmt:00000000 clientid_fmt
C:\Users\lenovo\AppData\Local\Temp\cceHxmqh.s:764    .text.daemon_cmd_post:00000000 $t
C:\Users\lenovo\AppData\Local\Temp\cceHxmqh.s:770    .text.daemon_cmd_post:00000000 daemon_cmd_post
C:\Users\lenovo\AppData\Local\Temp\cceHxmqh.s:873    .text.daemon_cmd_post:00000088 $d
C:\Users\lenovo\AppData\Local\Temp\cceHxmqh.s:878    .text.config_parameter_release:00000000 $t
C:\Users\lenovo\AppData\Local\Temp\cceHxmqh.s:884    .text.config_parameter_release:00000000 config_parameter_release
C:\Users\lenovo\AppData\Local\Temp\cceHxmqh.s:1052   .text.config_parameter_clone:00000000 $t
C:\Users\lenovo\AppData\Local\Temp\cceHxmqh.s:1058   .text.config_parameter_clone:00000000 config_parameter_clone
C:\Users\lenovo\AppData\Local\Temp\cceHxmqh.s:1692   .text.config_parameter_clone:00000394 $d
C:\Users\lenovo\AppData\Local\Temp\cceHxmqh.s:1698   .text.oc_mqtt_para_release:00000000 $t
C:\Users\lenovo\AppData\Local\Temp\cceHxmqh.s:1704   .text.oc_mqtt_para_release:00000000 oc_mqtt_para_release
C:\Users\lenovo\AppData\Local\Temp\cceHxmqh.s:1801   .text.oc_mqtt_para_gernerate:00000000 $t
C:\Users\lenovo\AppData\Local\Temp\cceHxmqh.s:1807   .text.oc_mqtt_para_gernerate:00000000 oc_mqtt_para_gernerate
C:\Users\lenovo\AppData\Local\Temp\cceHxmqh.s:2157   .text.oc_mqtt_para_gernerate:00000214 $d
C:\Users\lenovo\AppData\Local\Temp\cceHxmqh.s:2188   .text.dmp_connect:00000000 $t
C:\Users\lenovo\AppData\Local\Temp\cceHxmqh.s:2194   .text.dmp_connect:00000000 dmp_connect
C:\Users\lenovo\AppData\Local\Temp\cceHxmqh.s:2421   .text.dmp_connect:00000138 $d
C:\Users\lenovo\AppData\Local\Temp\cceHxmqh.s:2447   .text.dmp_subscribe:00000000 $t
C:\Users\lenovo\AppData\Local\Temp\cceHxmqh.s:2453   .text.dmp_subscribe:00000000 dmp_subscribe
C:\Users\lenovo\AppData\Local\Temp\cceHxmqh.s:2723   .text.dmp_subscribe:00000194 $d
C:\Users\lenovo\AppData\Local\Temp\cceHxmqh.s:2744   .text.dmp_publish:00000000 $t
C:\Users\lenovo\AppData\Local\Temp\cceHxmqh.s:2750   .text.dmp_publish:00000000 dmp_publish
C:\Users\lenovo\AppData\Local\Temp\cceHxmqh.s:2869   .text.dmp_publish:000000a0 $d
C:\Users\lenovo\AppData\Local\Temp\cceHxmqh.s:2887   .text.hub_step:00000000 $t
C:\Users\lenovo\AppData\Local\Temp\cceHxmqh.s:2893   .text.hub_step:00000000 hub_step
C:\Users\lenovo\AppData\Local\Temp\cceHxmqh.s:2984   .text.hub_step:0000006c $d
C:\Users\lenovo\AppData\Local\Temp\cceHxmqh.s:4503   .rodata.__FUNCTION__.8239:00000000 __FUNCTION__.8239
C:\Users\lenovo\AppData\Local\Temp\cceHxmqh.s:2996   .text.bs_step:00000000 $t
C:\Users\lenovo\AppData\Local\Temp\cceHxmqh.s:3002   .text.bs_step:00000000 bs_step
C:\Users\lenovo\AppData\Local\Temp\cceHxmqh.s:3150   .text.bs_step:000000d0 $d
C:\Users\lenovo\AppData\Local\Temp\cceHxmqh.s:4509   .rodata.__FUNCTION__.8246:00000000 __FUNCTION__.8246
C:\Users\lenovo\AppData\Local\Temp\cceHxmqh.s:3157   .text.deal_api_subscribe:00000000 $t
C:\Users\lenovo\AppData\Local\Temp\cceHxmqh.s:3163   .text.deal_api_subscribe:00000000 deal_api_subscribe
C:\Users\lenovo\AppData\Local\Temp\cceHxmqh.s:3330   .text.deal_api_subscribe:000000e8 $d
C:\Users\lenovo\AppData\Local\Temp\cceHxmqh.s:3335   .text.deal_api_unsubscribe:00000000 $t
C:\Users\lenovo\AppData\Local\Temp\cceHxmqh.s:3341   .text.deal_api_unsubscribe:00000000 deal_api_unsubscribe
C:\Users\lenovo\AppData\Local\Temp\cceHxmqh.s:3544   .text.daemon_entry:00000000 $t
C:\Users\lenovo\AppData\Local\Temp\cceHxmqh.s:3550   .text.daemon_entry:00000000 daemon_entry
C:\Users\lenovo\AppData\Local\Temp\cceHxmqh.s:3606   .text.daemon_entry:0000004c $d
ARM GAS  C:\Users\lenovo\AppData\Local\Temp\cceHxmqh.s 			page 111


C:\Users\lenovo\AppData\Local\Temp\cceHxmqh.s:3612   .text.daemon_entry:00000064 $t
C:\Users\lenovo\AppData\Local\Temp\cceHxmqh.s:3909   .text.daemon_entry:00000264 $d
C:\Users\lenovo\AppData\Local\Temp\cceHxmqh.s:4515   .rodata.__FUNCTION__.8275:00000000 __FUNCTION__.8275
C:\Users\lenovo\AppData\Local\Temp\cceHxmqh.s:3921   .text.tiny_config:00000000 $t
C:\Users\lenovo\AppData\Local\Temp\cceHxmqh.s:3927   .text.tiny_config:00000000 tiny_config
C:\Users\lenovo\AppData\Local\Temp\cceHxmqh.s:4004   .text.tiny_publish:00000000 $t
C:\Users\lenovo\AppData\Local\Temp\cceHxmqh.s:4010   .text.tiny_publish:00000000 tiny_publish
C:\Users\lenovo\AppData\Local\Temp\cceHxmqh.s:4099   .text.tiny_publish:0000006c $d
C:\Users\lenovo\AppData\Local\Temp\cceHxmqh.s:4104   .text.tiny_subscribe:00000000 $t
C:\Users\lenovo\AppData\Local\Temp\cceHxmqh.s:4110   .text.tiny_subscribe:00000000 tiny_subscribe
C:\Users\lenovo\AppData\Local\Temp\cceHxmqh.s:4191   .text.tiny_subscribe:00000060 $d
C:\Users\lenovo\AppData\Local\Temp\cceHxmqh.s:4196   .text.tiny_unsubscribe:00000000 $t
C:\Users\lenovo\AppData\Local\Temp\cceHxmqh.s:4202   .text.tiny_unsubscribe:00000000 tiny_unsubscribe
C:\Users\lenovo\AppData\Local\Temp\cceHxmqh.s:4271   .text.tiny_unsubscribe:00000050 $d
C:\Users\lenovo\AppData\Local\Temp\cceHxmqh.s:4276   .text.tiny_deconfig:00000000 $t
C:\Users\lenovo\AppData\Local\Temp\cceHxmqh.s:4282   .text.tiny_deconfig:00000000 tiny_deconfig
C:\Users\lenovo\AppData\Local\Temp\cceHxmqh.s:4327   .rodata.s_oc_mqtt_lite:00000000 $d
C:\Users\lenovo\AppData\Local\Temp\cceHxmqh.s:4330   .rodata.s_oc_mqtt_lite:00000000 s_oc_mqtt_lite
C:\Users\lenovo\AppData\Local\Temp\cceHxmqh.s:4342   .text.oc_mqtt_tiny_install:00000000 $t
C:\Users\lenovo\AppData\Local\Temp\cceHxmqh.s:4349   .text.oc_mqtt_tiny_install:00000000 oc_mqtt_tiny_install
C:\Users\lenovo\AppData\Local\Temp\cceHxmqh.s:4491   .text.oc_mqtt_tiny_install:000000bc $d
C:\Users\lenovo\AppData\Local\Temp\cceHxmqh.s:4500   .rodata.__FUNCTION__.8239:00000000 $d
C:\Users\lenovo\AppData\Local\Temp\cceHxmqh.s:4506   .rodata.__FUNCTION__.8246:00000000 $d
C:\Users\lenovo\AppData\Local\Temp\cceHxmqh.s:4512   .rodata.__FUNCTION__.8275:00000000 $d

UNDEFINED SYMBOLS
osal_malloc
memcpy
cJSON_Parse
cJSON_GetObjectItem
strlen
strncmp
cJSON_Delete
osal_free
printf
strrchr
osal_strdup
snprintf
osal_semp_create
queue_push
osal_semp_pend
osal_semp_del
memset
strcpy
mqtt_al_disconnect
__aeabi_uldivmod
osal_sys_time
gmtime
hmac_generate_passwd
byte2hexstr
atoi
mqtt_al_connect
mqtt_al_subscribe
oc_mqtt_err
mqtt_al_publish
osal_task_sleep
mqtt_al_check_status
ARM GAS  C:\Users\lenovo\AppData\Local\Temp\cceHxmqh.s 			page 112


mqtt_al_unsubscribe
strcmp
queue_pop
osal_semp_post
queue_create
osal_task_create
oc_mqtt_register
osal_task_kill
queue_delete
