ARM GAS  C:\Users\lenovo\AppData\Local\Temp\ccxMpoX7.s 			page 1


   1              		.cpu cortex-m4
   2              		.eabi_attribute 27, 1
   3              		.eabi_attribute 28, 1
   4              		.eabi_attribute 20, 1
   5              		.eabi_attribute 21, 1
   6              		.eabi_attribute 23, 3
   7              		.eabi_attribute 24, 1
   8              		.eabi_attribute 25, 1
   9              		.eabi_attribute 26, 1
  10              		.eabi_attribute 30, 6
  11              		.eabi_attribute 34, 1
  12              		.eabi_attribute 18, 4
  13              		.file	"paho_mqtt_port.c"
  14              		.text
  15              	.Ltext0:
  16              		.cfi_sections	.debug_frame
  17              		.section	.text.MQTTIsConnected,"ax",%progbits
  18              		.align	1
  19              		.arch armv7e-m
  20              		.syntax unified
  21              		.thumb
  22              		.thumb_func
  23              		.fpu fpv4-sp-d16
  25              	MQTTIsConnected:
  26              	.LFB3:
  27              		.file 1 "c:/Users/lenovo/Desktop/AIoT/first_day/firstday_afternoon/LiteOS_Lab_STM32_IoT/iot_link/n
   1:c:/Users/lenovo/Desktop/AIoT/first_day/firstday_afternoon/LiteOS_Lab_STM32_IoT/iot_link/network/mqtt/paho_mqtt/paho/MQTTClient-C/src\MQTTClient.h **** /*******************************************************************************
   2:c:/Users/lenovo/Desktop/AIoT/first_day/firstday_afternoon/LiteOS_Lab_STM32_IoT/iot_link/network/mqtt/paho_mqtt/paho/MQTTClient-C/src\MQTTClient.h ****  * Copyright (c) 2014, 2017 IBM Corp.
   3:c:/Users/lenovo/Desktop/AIoT/first_day/firstday_afternoon/LiteOS_Lab_STM32_IoT/iot_link/network/mqtt/paho_mqtt/paho/MQTTClient-C/src\MQTTClient.h ****  *
   4:c:/Users/lenovo/Desktop/AIoT/first_day/firstday_afternoon/LiteOS_Lab_STM32_IoT/iot_link/network/mqtt/paho_mqtt/paho/MQTTClient-C/src\MQTTClient.h ****  * All rights reserved. This program and the accompanying materials
   5:c:/Users/lenovo/Desktop/AIoT/first_day/firstday_afternoon/LiteOS_Lab_STM32_IoT/iot_link/network/mqtt/paho_mqtt/paho/MQTTClient-C/src\MQTTClient.h ****  * are made available under the terms of the Eclipse Public License v1.0
   6:c:/Users/lenovo/Desktop/AIoT/first_day/firstday_afternoon/LiteOS_Lab_STM32_IoT/iot_link/network/mqtt/paho_mqtt/paho/MQTTClient-C/src\MQTTClient.h ****  * and Eclipse Distribution License v1.0 which accompany this distribution.
   7:c:/Users/lenovo/Desktop/AIoT/first_day/firstday_afternoon/LiteOS_Lab_STM32_IoT/iot_link/network/mqtt/paho_mqtt/paho/MQTTClient-C/src\MQTTClient.h ****  *
   8:c:/Users/lenovo/Desktop/AIoT/first_day/firstday_afternoon/LiteOS_Lab_STM32_IoT/iot_link/network/mqtt/paho_mqtt/paho/MQTTClient-C/src\MQTTClient.h ****  * The Eclipse Public License is available at
   9:c:/Users/lenovo/Desktop/AIoT/first_day/firstday_afternoon/LiteOS_Lab_STM32_IoT/iot_link/network/mqtt/paho_mqtt/paho/MQTTClient-C/src\MQTTClient.h ****  *    http://www.eclipse.org/legal/epl-v10.html
  10:c:/Users/lenovo/Desktop/AIoT/first_day/firstday_afternoon/LiteOS_Lab_STM32_IoT/iot_link/network/mqtt/paho_mqtt/paho/MQTTClient-C/src\MQTTClient.h ****  * and the Eclipse Distribution License is available at
  11:c:/Users/lenovo/Desktop/AIoT/first_day/firstday_afternoon/LiteOS_Lab_STM32_IoT/iot_link/network/mqtt/paho_mqtt/paho/MQTTClient-C/src\MQTTClient.h ****  *   http://www.eclipse.org/org/documents/edl-v10.php.
  12:c:/Users/lenovo/Desktop/AIoT/first_day/firstday_afternoon/LiteOS_Lab_STM32_IoT/iot_link/network/mqtt/paho_mqtt/paho/MQTTClient-C/src\MQTTClient.h ****  *
  13:c:/Users/lenovo/Desktop/AIoT/first_day/firstday_afternoon/LiteOS_Lab_STM32_IoT/iot_link/network/mqtt/paho_mqtt/paho/MQTTClient-C/src\MQTTClient.h ****  * Contributors:
  14:c:/Users/lenovo/Desktop/AIoT/first_day/firstday_afternoon/LiteOS_Lab_STM32_IoT/iot_link/network/mqtt/paho_mqtt/paho/MQTTClient-C/src\MQTTClient.h ****  *    Allan Stockdill-Mander/Ian Craggs - initial API and implementation and/or initial documentati
  15:c:/Users/lenovo/Desktop/AIoT/first_day/firstday_afternoon/LiteOS_Lab_STM32_IoT/iot_link/network/mqtt/paho_mqtt/paho/MQTTClient-C/src\MQTTClient.h ****  *    Ian Craggs - documentation and platform specific header
  16:c:/Users/lenovo/Desktop/AIoT/first_day/firstday_afternoon/LiteOS_Lab_STM32_IoT/iot_link/network/mqtt/paho_mqtt/paho/MQTTClient-C/src\MQTTClient.h ****  *    Ian Craggs - add setMessageHandler function
  17:c:/Users/lenovo/Desktop/AIoT/first_day/firstday_afternoon/LiteOS_Lab_STM32_IoT/iot_link/network/mqtt/paho_mqtt/paho/MQTTClient-C/src\MQTTClient.h ****  *******************************************************************************/
  18:c:/Users/lenovo/Desktop/AIoT/first_day/firstday_afternoon/LiteOS_Lab_STM32_IoT/iot_link/network/mqtt/paho_mqtt/paho/MQTTClient-C/src\MQTTClient.h **** 
  19:c:/Users/lenovo/Desktop/AIoT/first_day/firstday_afternoon/LiteOS_Lab_STM32_IoT/iot_link/network/mqtt/paho_mqtt/paho/MQTTClient-C/src\MQTTClient.h **** #if !defined(__MQTT_CLIENT_C_)
  20:c:/Users/lenovo/Desktop/AIoT/first_day/firstday_afternoon/LiteOS_Lab_STM32_IoT/iot_link/network/mqtt/paho_mqtt/paho/MQTTClient-C/src\MQTTClient.h **** #define __MQTT_CLIENT_C_
  21:c:/Users/lenovo/Desktop/AIoT/first_day/firstday_afternoon/LiteOS_Lab_STM32_IoT/iot_link/network/mqtt/paho_mqtt/paho/MQTTClient-C/src\MQTTClient.h **** 
  22:c:/Users/lenovo/Desktop/AIoT/first_day/firstday_afternoon/LiteOS_Lab_STM32_IoT/iot_link/network/mqtt/paho_mqtt/paho/MQTTClient-C/src\MQTTClient.h **** #if defined(__cplusplus)
  23:c:/Users/lenovo/Desktop/AIoT/first_day/firstday_afternoon/LiteOS_Lab_STM32_IoT/iot_link/network/mqtt/paho_mqtt/paho/MQTTClient-C/src\MQTTClient.h ****  extern "C" {
  24:c:/Users/lenovo/Desktop/AIoT/first_day/firstday_afternoon/LiteOS_Lab_STM32_IoT/iot_link/network/mqtt/paho_mqtt/paho/MQTTClient-C/src\MQTTClient.h **** #endif
  25:c:/Users/lenovo/Desktop/AIoT/first_day/firstday_afternoon/LiteOS_Lab_STM32_IoT/iot_link/network/mqtt/paho_mqtt/paho/MQTTClient-C/src\MQTTClient.h **** 
  26:c:/Users/lenovo/Desktop/AIoT/first_day/firstday_afternoon/LiteOS_Lab_STM32_IoT/iot_link/network/mqtt/paho_mqtt/paho/MQTTClient-C/src\MQTTClient.h **** #if defined(WIN32_DLL) || defined(WIN64_DLL)
  27:c:/Users/lenovo/Desktop/AIoT/first_day/firstday_afternoon/LiteOS_Lab_STM32_IoT/iot_link/network/mqtt/paho_mqtt/paho/MQTTClient-C/src\MQTTClient.h ****   #define DLLImport __declspec(dllimport)
  28:c:/Users/lenovo/Desktop/AIoT/first_day/firstday_afternoon/LiteOS_Lab_STM32_IoT/iot_link/network/mqtt/paho_mqtt/paho/MQTTClient-C/src\MQTTClient.h ****   #define DLLExport __declspec(dllexport)
  29:c:/Users/lenovo/Desktop/AIoT/first_day/firstday_afternoon/LiteOS_Lab_STM32_IoT/iot_link/network/mqtt/paho_mqtt/paho/MQTTClient-C/src\MQTTClient.h **** #elif defined(LINUX_SO)
  30:c:/Users/lenovo/Desktop/AIoT/first_day/firstday_afternoon/LiteOS_Lab_STM32_IoT/iot_link/network/mqtt/paho_mqtt/paho/MQTTClient-C/src\MQTTClient.h ****   #define DLLImport extern
  31:c:/Users/lenovo/Desktop/AIoT/first_day/firstday_afternoon/LiteOS_Lab_STM32_IoT/iot_link/network/mqtt/paho_mqtt/paho/MQTTClient-C/src\MQTTClient.h ****   #define DLLExport  __attribute__ ((visibility ("default")))
ARM GAS  C:\Users\lenovo\AppData\Local\Temp\ccxMpoX7.s 			page 2


  32:c:/Users/lenovo/Desktop/AIoT/first_day/firstday_afternoon/LiteOS_Lab_STM32_IoT/iot_link/network/mqtt/paho_mqtt/paho/MQTTClient-C/src\MQTTClient.h **** #else
  33:c:/Users/lenovo/Desktop/AIoT/first_day/firstday_afternoon/LiteOS_Lab_STM32_IoT/iot_link/network/mqtt/paho_mqtt/paho/MQTTClient-C/src\MQTTClient.h ****   #define DLLImport
  34:c:/Users/lenovo/Desktop/AIoT/first_day/firstday_afternoon/LiteOS_Lab_STM32_IoT/iot_link/network/mqtt/paho_mqtt/paho/MQTTClient-C/src\MQTTClient.h ****   #define DLLExport
  35:c:/Users/lenovo/Desktop/AIoT/first_day/firstday_afternoon/LiteOS_Lab_STM32_IoT/iot_link/network/mqtt/paho_mqtt/paho/MQTTClient-C/src\MQTTClient.h **** #endif
  36:c:/Users/lenovo/Desktop/AIoT/first_day/firstday_afternoon/LiteOS_Lab_STM32_IoT/iot_link/network/mqtt/paho_mqtt/paho/MQTTClient-C/src\MQTTClient.h **** 
  37:c:/Users/lenovo/Desktop/AIoT/first_day/firstday_afternoon/LiteOS_Lab_STM32_IoT/iot_link/network/mqtt/paho_mqtt/paho/MQTTClient-C/src\MQTTClient.h **** #include "MQTTPacket.h"
  38:c:/Users/lenovo/Desktop/AIoT/first_day/firstday_afternoon/LiteOS_Lab_STM32_IoT/iot_link/network/mqtt/paho_mqtt/paho/MQTTClient-C/src\MQTTClient.h **** #include "stdio.h"
  39:c:/Users/lenovo/Desktop/AIoT/first_day/firstday_afternoon/LiteOS_Lab_STM32_IoT/iot_link/network/mqtt/paho_mqtt/paho/MQTTClient-C/src\MQTTClient.h **** 
  40:c:/Users/lenovo/Desktop/AIoT/first_day/firstday_afternoon/LiteOS_Lab_STM32_IoT/iot_link/network/mqtt/paho_mqtt/paho/MQTTClient-C/src\MQTTClient.h **** #if defined(MQTTCLIENT_PLATFORM_HEADER)
  41:c:/Users/lenovo/Desktop/AIoT/first_day/firstday_afternoon/LiteOS_Lab_STM32_IoT/iot_link/network/mqtt/paho_mqtt/paho/MQTTClient-C/src\MQTTClient.h **** /* The following sequence of macros converts the MQTTCLIENT_PLATFORM_HEADER value
  42:c:/Users/lenovo/Desktop/AIoT/first_day/firstday_afternoon/LiteOS_Lab_STM32_IoT/iot_link/network/mqtt/paho_mqtt/paho/MQTTClient-C/src\MQTTClient.h ****  * into a string constant suitable for use with include.
  43:c:/Users/lenovo/Desktop/AIoT/first_day/firstday_afternoon/LiteOS_Lab_STM32_IoT/iot_link/network/mqtt/paho_mqtt/paho/MQTTClient-C/src\MQTTClient.h ****  */
  44:c:/Users/lenovo/Desktop/AIoT/first_day/firstday_afternoon/LiteOS_Lab_STM32_IoT/iot_link/network/mqtt/paho_mqtt/paho/MQTTClient-C/src\MQTTClient.h **** #define xstr(s) str(s)
  45:c:/Users/lenovo/Desktop/AIoT/first_day/firstday_afternoon/LiteOS_Lab_STM32_IoT/iot_link/network/mqtt/paho_mqtt/paho/MQTTClient-C/src\MQTTClient.h **** #define str(s) #s
  46:c:/Users/lenovo/Desktop/AIoT/first_day/firstday_afternoon/LiteOS_Lab_STM32_IoT/iot_link/network/mqtt/paho_mqtt/paho/MQTTClient-C/src\MQTTClient.h **** #include xstr(MQTTCLIENT_PLATFORM_HEADER)
  47:c:/Users/lenovo/Desktop/AIoT/first_day/firstday_afternoon/LiteOS_Lab_STM32_IoT/iot_link/network/mqtt/paho_mqtt/paho/MQTTClient-C/src\MQTTClient.h **** #endif
  48:c:/Users/lenovo/Desktop/AIoT/first_day/firstday_afternoon/LiteOS_Lab_STM32_IoT/iot_link/network/mqtt/paho_mqtt/paho/MQTTClient-C/src\MQTTClient.h **** 
  49:c:/Users/lenovo/Desktop/AIoT/first_day/firstday_afternoon/LiteOS_Lab_STM32_IoT/iot_link/network/mqtt/paho_mqtt/paho/MQTTClient-C/src\MQTTClient.h **** #define MAX_PACKET_ID 65535 /* according to the MQTT specification - do not change! */
  50:c:/Users/lenovo/Desktop/AIoT/first_day/firstday_afternoon/LiteOS_Lab_STM32_IoT/iot_link/network/mqtt/paho_mqtt/paho/MQTTClient-C/src\MQTTClient.h **** 
  51:c:/Users/lenovo/Desktop/AIoT/first_day/firstday_afternoon/LiteOS_Lab_STM32_IoT/iot_link/network/mqtt/paho_mqtt/paho/MQTTClient-C/src\MQTTClient.h **** #if !defined(MAX_MESSAGE_HANDLERS)
  52:c:/Users/lenovo/Desktop/AIoT/first_day/firstday_afternoon/LiteOS_Lab_STM32_IoT/iot_link/network/mqtt/paho_mqtt/paho/MQTTClient-C/src\MQTTClient.h **** #define MAX_MESSAGE_HANDLERS 10/* redefinable - how many subscriptions do you want? */
  53:c:/Users/lenovo/Desktop/AIoT/first_day/firstday_afternoon/LiteOS_Lab_STM32_IoT/iot_link/network/mqtt/paho_mqtt/paho/MQTTClient-C/src\MQTTClient.h **** #endif
  54:c:/Users/lenovo/Desktop/AIoT/first_day/firstday_afternoon/LiteOS_Lab_STM32_IoT/iot_link/network/mqtt/paho_mqtt/paho/MQTTClient-C/src\MQTTClient.h **** 
  55:c:/Users/lenovo/Desktop/AIoT/first_day/firstday_afternoon/LiteOS_Lab_STM32_IoT/iot_link/network/mqtt/paho_mqtt/paho/MQTTClient-C/src\MQTTClient.h **** enum QoS { QOS0, QOS1, QOS2, SUBFAIL=0x80 };
  56:c:/Users/lenovo/Desktop/AIoT/first_day/firstday_afternoon/LiteOS_Lab_STM32_IoT/iot_link/network/mqtt/paho_mqtt/paho/MQTTClient-C/src\MQTTClient.h **** 
  57:c:/Users/lenovo/Desktop/AIoT/first_day/firstday_afternoon/LiteOS_Lab_STM32_IoT/iot_link/network/mqtt/paho_mqtt/paho/MQTTClient-C/src\MQTTClient.h **** /* all failure return codes must be negative */
  58:c:/Users/lenovo/Desktop/AIoT/first_day/firstday_afternoon/LiteOS_Lab_STM32_IoT/iot_link/network/mqtt/paho_mqtt/paho/MQTTClient-C/src\MQTTClient.h **** enum returnCode { BUFFER_OVERFLOW = -2, FAILURE = -1, MQTT_SUCCESS = 0 };
  59:c:/Users/lenovo/Desktop/AIoT/first_day/firstday_afternoon/LiteOS_Lab_STM32_IoT/iot_link/network/mqtt/paho_mqtt/paho/MQTTClient-C/src\MQTTClient.h **** 
  60:c:/Users/lenovo/Desktop/AIoT/first_day/firstday_afternoon/LiteOS_Lab_STM32_IoT/iot_link/network/mqtt/paho_mqtt/paho/MQTTClient-C/src\MQTTClient.h **** /* The Platform specific header must define the Network and Timer structures and functions
  61:c:/Users/lenovo/Desktop/AIoT/first_day/firstday_afternoon/LiteOS_Lab_STM32_IoT/iot_link/network/mqtt/paho_mqtt/paho/MQTTClient-C/src\MQTTClient.h ****  * which operate on them.
  62:c:/Users/lenovo/Desktop/AIoT/first_day/firstday_afternoon/LiteOS_Lab_STM32_IoT/iot_link/network/mqtt/paho_mqtt/paho/MQTTClient-C/src\MQTTClient.h ****  *
  63:c:/Users/lenovo/Desktop/AIoT/first_day/firstday_afternoon/LiteOS_Lab_STM32_IoT/iot_link/network/mqtt/paho_mqtt/paho/MQTTClient-C/src\MQTTClient.h **** typedef struct Network
  64:c:/Users/lenovo/Desktop/AIoT/first_day/firstday_afternoon/LiteOS_Lab_STM32_IoT/iot_link/network/mqtt/paho_mqtt/paho/MQTTClient-C/src\MQTTClient.h **** {
  65:c:/Users/lenovo/Desktop/AIoT/first_day/firstday_afternoon/LiteOS_Lab_STM32_IoT/iot_link/network/mqtt/paho_mqtt/paho/MQTTClient-C/src\MQTTClient.h **** 	int (*mqttread)(Network*, unsigned char* read_buffer, int, int);
  66:c:/Users/lenovo/Desktop/AIoT/first_day/firstday_afternoon/LiteOS_Lab_STM32_IoT/iot_link/network/mqtt/paho_mqtt/paho/MQTTClient-C/src\MQTTClient.h **** 	int (*mqttwrite)(Network*, unsigned char* send_buffer, int, int);
  67:c:/Users/lenovo/Desktop/AIoT/first_day/firstday_afternoon/LiteOS_Lab_STM32_IoT/iot_link/network/mqtt/paho_mqtt/paho/MQTTClient-C/src\MQTTClient.h **** } Network;*/
  68:c:/Users/lenovo/Desktop/AIoT/first_day/firstday_afternoon/LiteOS_Lab_STM32_IoT/iot_link/network/mqtt/paho_mqtt/paho/MQTTClient-C/src\MQTTClient.h **** 
  69:c:/Users/lenovo/Desktop/AIoT/first_day/firstday_afternoon/LiteOS_Lab_STM32_IoT/iot_link/network/mqtt/paho_mqtt/paho/MQTTClient-C/src\MQTTClient.h **** /* The Timer structure must be defined in the platform specific header,
  70:c:/Users/lenovo/Desktop/AIoT/first_day/firstday_afternoon/LiteOS_Lab_STM32_IoT/iot_link/network/mqtt/paho_mqtt/paho/MQTTClient-C/src\MQTTClient.h ****  * and have the following functions to operate on it.  */
  71:c:/Users/lenovo/Desktop/AIoT/first_day/firstday_afternoon/LiteOS_Lab_STM32_IoT/iot_link/network/mqtt/paho_mqtt/paho/MQTTClient-C/src\MQTTClient.h **** extern void TimerInit(Timer*);
  72:c:/Users/lenovo/Desktop/AIoT/first_day/firstday_afternoon/LiteOS_Lab_STM32_IoT/iot_link/network/mqtt/paho_mqtt/paho/MQTTClient-C/src\MQTTClient.h **** extern char TimerIsExpired(Timer*);
  73:c:/Users/lenovo/Desktop/AIoT/first_day/firstday_afternoon/LiteOS_Lab_STM32_IoT/iot_link/network/mqtt/paho_mqtt/paho/MQTTClient-C/src\MQTTClient.h **** extern void TimerCountdownMS(Timer*, unsigned int);
  74:c:/Users/lenovo/Desktop/AIoT/first_day/firstday_afternoon/LiteOS_Lab_STM32_IoT/iot_link/network/mqtt/paho_mqtt/paho/MQTTClient-C/src\MQTTClient.h **** extern void TimerCountdown(Timer*, unsigned int);
  75:c:/Users/lenovo/Desktop/AIoT/first_day/firstday_afternoon/LiteOS_Lab_STM32_IoT/iot_link/network/mqtt/paho_mqtt/paho/MQTTClient-C/src\MQTTClient.h **** extern int TimerLeftMS(Timer*);
  76:c:/Users/lenovo/Desktop/AIoT/first_day/firstday_afternoon/LiteOS_Lab_STM32_IoT/iot_link/network/mqtt/paho_mqtt/paho/MQTTClient-C/src\MQTTClient.h **** 
  77:c:/Users/lenovo/Desktop/AIoT/first_day/firstday_afternoon/LiteOS_Lab_STM32_IoT/iot_link/network/mqtt/paho_mqtt/paho/MQTTClient-C/src\MQTTClient.h **** typedef struct MQTTMessage
  78:c:/Users/lenovo/Desktop/AIoT/first_day/firstday_afternoon/LiteOS_Lab_STM32_IoT/iot_link/network/mqtt/paho_mqtt/paho/MQTTClient-C/src\MQTTClient.h **** {
  79:c:/Users/lenovo/Desktop/AIoT/first_day/firstday_afternoon/LiteOS_Lab_STM32_IoT/iot_link/network/mqtt/paho_mqtt/paho/MQTTClient-C/src\MQTTClient.h ****     enum QoS qos;
  80:c:/Users/lenovo/Desktop/AIoT/first_day/firstday_afternoon/LiteOS_Lab_STM32_IoT/iot_link/network/mqtt/paho_mqtt/paho/MQTTClient-C/src\MQTTClient.h ****     unsigned char retained;
  81:c:/Users/lenovo/Desktop/AIoT/first_day/firstday_afternoon/LiteOS_Lab_STM32_IoT/iot_link/network/mqtt/paho_mqtt/paho/MQTTClient-C/src\MQTTClient.h ****     unsigned char dup;
  82:c:/Users/lenovo/Desktop/AIoT/first_day/firstday_afternoon/LiteOS_Lab_STM32_IoT/iot_link/network/mqtt/paho_mqtt/paho/MQTTClient-C/src\MQTTClient.h ****     unsigned short id;
  83:c:/Users/lenovo/Desktop/AIoT/first_day/firstday_afternoon/LiteOS_Lab_STM32_IoT/iot_link/network/mqtt/paho_mqtt/paho/MQTTClient-C/src\MQTTClient.h ****     void *payload;
  84:c:/Users/lenovo/Desktop/AIoT/first_day/firstday_afternoon/LiteOS_Lab_STM32_IoT/iot_link/network/mqtt/paho_mqtt/paho/MQTTClient-C/src\MQTTClient.h ****     size_t payloadlen;
  85:c:/Users/lenovo/Desktop/AIoT/first_day/firstday_afternoon/LiteOS_Lab_STM32_IoT/iot_link/network/mqtt/paho_mqtt/paho/MQTTClient-C/src\MQTTClient.h **** } MQTTMessage;
  86:c:/Users/lenovo/Desktop/AIoT/first_day/firstday_afternoon/LiteOS_Lab_STM32_IoT/iot_link/network/mqtt/paho_mqtt/paho/MQTTClient-C/src\MQTTClient.h **** 
  87:c:/Users/lenovo/Desktop/AIoT/first_day/firstday_afternoon/LiteOS_Lab_STM32_IoT/iot_link/network/mqtt/paho_mqtt/paho/MQTTClient-C/src\MQTTClient.h **** typedef struct MessageData
  88:c:/Users/lenovo/Desktop/AIoT/first_day/firstday_afternoon/LiteOS_Lab_STM32_IoT/iot_link/network/mqtt/paho_mqtt/paho/MQTTClient-C/src\MQTTClient.h **** {
ARM GAS  C:\Users\lenovo\AppData\Local\Temp\ccxMpoX7.s 			page 3


  89:c:/Users/lenovo/Desktop/AIoT/first_day/firstday_afternoon/LiteOS_Lab_STM32_IoT/iot_link/network/mqtt/paho_mqtt/paho/MQTTClient-C/src\MQTTClient.h ****     MQTTMessage* message;
  90:c:/Users/lenovo/Desktop/AIoT/first_day/firstday_afternoon/LiteOS_Lab_STM32_IoT/iot_link/network/mqtt/paho_mqtt/paho/MQTTClient-C/src\MQTTClient.h ****     MQTTString* topicName;
  91:c:/Users/lenovo/Desktop/AIoT/first_day/firstday_afternoon/LiteOS_Lab_STM32_IoT/iot_link/network/mqtt/paho_mqtt/paho/MQTTClient-C/src\MQTTClient.h ****     void        *arg;
  92:c:/Users/lenovo/Desktop/AIoT/first_day/firstday_afternoon/LiteOS_Lab_STM32_IoT/iot_link/network/mqtt/paho_mqtt/paho/MQTTClient-C/src\MQTTClient.h **** } MessageData;
  93:c:/Users/lenovo/Desktop/AIoT/first_day/firstday_afternoon/LiteOS_Lab_STM32_IoT/iot_link/network/mqtt/paho_mqtt/paho/MQTTClient-C/src\MQTTClient.h **** 
  94:c:/Users/lenovo/Desktop/AIoT/first_day/firstday_afternoon/LiteOS_Lab_STM32_IoT/iot_link/network/mqtt/paho_mqtt/paho/MQTTClient-C/src\MQTTClient.h **** typedef struct MQTTConnackData
  95:c:/Users/lenovo/Desktop/AIoT/first_day/firstday_afternoon/LiteOS_Lab_STM32_IoT/iot_link/network/mqtt/paho_mqtt/paho/MQTTClient-C/src\MQTTClient.h **** {
  96:c:/Users/lenovo/Desktop/AIoT/first_day/firstday_afternoon/LiteOS_Lab_STM32_IoT/iot_link/network/mqtt/paho_mqtt/paho/MQTTClient-C/src\MQTTClient.h ****     unsigned char rc;
  97:c:/Users/lenovo/Desktop/AIoT/first_day/firstday_afternoon/LiteOS_Lab_STM32_IoT/iot_link/network/mqtt/paho_mqtt/paho/MQTTClient-C/src\MQTTClient.h ****     unsigned char sessionPresent;
  98:c:/Users/lenovo/Desktop/AIoT/first_day/firstday_afternoon/LiteOS_Lab_STM32_IoT/iot_link/network/mqtt/paho_mqtt/paho/MQTTClient-C/src\MQTTClient.h **** } MQTTConnackData;
  99:c:/Users/lenovo/Desktop/AIoT/first_day/firstday_afternoon/LiteOS_Lab_STM32_IoT/iot_link/network/mqtt/paho_mqtt/paho/MQTTClient-C/src\MQTTClient.h **** 
 100:c:/Users/lenovo/Desktop/AIoT/first_day/firstday_afternoon/LiteOS_Lab_STM32_IoT/iot_link/network/mqtt/paho_mqtt/paho/MQTTClient-C/src\MQTTClient.h **** typedef struct MQTTSubackData
 101:c:/Users/lenovo/Desktop/AIoT/first_day/firstday_afternoon/LiteOS_Lab_STM32_IoT/iot_link/network/mqtt/paho_mqtt/paho/MQTTClient-C/src\MQTTClient.h **** {
 102:c:/Users/lenovo/Desktop/AIoT/first_day/firstday_afternoon/LiteOS_Lab_STM32_IoT/iot_link/network/mqtt/paho_mqtt/paho/MQTTClient-C/src\MQTTClient.h ****     enum QoS grantedQoS;
 103:c:/Users/lenovo/Desktop/AIoT/first_day/firstday_afternoon/LiteOS_Lab_STM32_IoT/iot_link/network/mqtt/paho_mqtt/paho/MQTTClient-C/src\MQTTClient.h **** } MQTTSubackData;
 104:c:/Users/lenovo/Desktop/AIoT/first_day/firstday_afternoon/LiteOS_Lab_STM32_IoT/iot_link/network/mqtt/paho_mqtt/paho/MQTTClient-C/src\MQTTClient.h **** 
 105:c:/Users/lenovo/Desktop/AIoT/first_day/firstday_afternoon/LiteOS_Lab_STM32_IoT/iot_link/network/mqtt/paho_mqtt/paho/MQTTClient-C/src\MQTTClient.h **** typedef void (*messageHandler)(MessageData*);
 106:c:/Users/lenovo/Desktop/AIoT/first_day/firstday_afternoon/LiteOS_Lab_STM32_IoT/iot_link/network/mqtt/paho_mqtt/paho/MQTTClient-C/src\MQTTClient.h **** 
 107:c:/Users/lenovo/Desktop/AIoT/first_day/firstday_afternoon/LiteOS_Lab_STM32_IoT/iot_link/network/mqtt/paho_mqtt/paho/MQTTClient-C/src\MQTTClient.h **** typedef struct MQTTClient
 108:c:/Users/lenovo/Desktop/AIoT/first_day/firstday_afternoon/LiteOS_Lab_STM32_IoT/iot_link/network/mqtt/paho_mqtt/paho/MQTTClient-C/src\MQTTClient.h **** {
 109:c:/Users/lenovo/Desktop/AIoT/first_day/firstday_afternoon/LiteOS_Lab_STM32_IoT/iot_link/network/mqtt/paho_mqtt/paho/MQTTClient-C/src\MQTTClient.h ****     unsigned int next_packetid,
 110:c:/Users/lenovo/Desktop/AIoT/first_day/firstday_afternoon/LiteOS_Lab_STM32_IoT/iot_link/network/mqtt/paho_mqtt/paho/MQTTClient-C/src\MQTTClient.h ****       command_timeout_ms;
 111:c:/Users/lenovo/Desktop/AIoT/first_day/firstday_afternoon/LiteOS_Lab_STM32_IoT/iot_link/network/mqtt/paho_mqtt/paho/MQTTClient-C/src\MQTTClient.h ****     size_t buf_size,
 112:c:/Users/lenovo/Desktop/AIoT/first_day/firstday_afternoon/LiteOS_Lab_STM32_IoT/iot_link/network/mqtt/paho_mqtt/paho/MQTTClient-C/src\MQTTClient.h ****       readbuf_size;
 113:c:/Users/lenovo/Desktop/AIoT/first_day/firstday_afternoon/LiteOS_Lab_STM32_IoT/iot_link/network/mqtt/paho_mqtt/paho/MQTTClient-C/src\MQTTClient.h ****     unsigned char *buf,
 114:c:/Users/lenovo/Desktop/AIoT/first_day/firstday_afternoon/LiteOS_Lab_STM32_IoT/iot_link/network/mqtt/paho_mqtt/paho/MQTTClient-C/src\MQTTClient.h ****       *readbuf;
 115:c:/Users/lenovo/Desktop/AIoT/first_day/firstday_afternoon/LiteOS_Lab_STM32_IoT/iot_link/network/mqtt/paho_mqtt/paho/MQTTClient-C/src\MQTTClient.h ****     unsigned int keepAliveInterval;
 116:c:/Users/lenovo/Desktop/AIoT/first_day/firstday_afternoon/LiteOS_Lab_STM32_IoT/iot_link/network/mqtt/paho_mqtt/paho/MQTTClient-C/src\MQTTClient.h ****     char ping_outstanding;
 117:c:/Users/lenovo/Desktop/AIoT/first_day/firstday_afternoon/LiteOS_Lab_STM32_IoT/iot_link/network/mqtt/paho_mqtt/paho/MQTTClient-C/src\MQTTClient.h ****     int isconnected;
 118:c:/Users/lenovo/Desktop/AIoT/first_day/firstday_afternoon/LiteOS_Lab_STM32_IoT/iot_link/network/mqtt/paho_mqtt/paho/MQTTClient-C/src\MQTTClient.h ****     int cleansession;
 119:c:/Users/lenovo/Desktop/AIoT/first_day/firstday_afternoon/LiteOS_Lab_STM32_IoT/iot_link/network/mqtt/paho_mqtt/paho/MQTTClient-C/src\MQTTClient.h **** 
 120:c:/Users/lenovo/Desktop/AIoT/first_day/firstday_afternoon/LiteOS_Lab_STM32_IoT/iot_link/network/mqtt/paho_mqtt/paho/MQTTClient-C/src\MQTTClient.h ****     struct MessageHandlers
 121:c:/Users/lenovo/Desktop/AIoT/first_day/firstday_afternoon/LiteOS_Lab_STM32_IoT/iot_link/network/mqtt/paho_mqtt/paho/MQTTClient-C/src\MQTTClient.h ****     {
 122:c:/Users/lenovo/Desktop/AIoT/first_day/firstday_afternoon/LiteOS_Lab_STM32_IoT/iot_link/network/mqtt/paho_mqtt/paho/MQTTClient-C/src\MQTTClient.h ****         const char* topicFilter;
 123:c:/Users/lenovo/Desktop/AIoT/first_day/firstday_afternoon/LiteOS_Lab_STM32_IoT/iot_link/network/mqtt/paho_mqtt/paho/MQTTClient-C/src\MQTTClient.h ****         void (*fp) (MessageData*);
 124:c:/Users/lenovo/Desktop/AIoT/first_day/firstday_afternoon/LiteOS_Lab_STM32_IoT/iot_link/network/mqtt/paho_mqtt/paho/MQTTClient-C/src\MQTTClient.h ****         void  *arg;
 125:c:/Users/lenovo/Desktop/AIoT/first_day/firstday_afternoon/LiteOS_Lab_STM32_IoT/iot_link/network/mqtt/paho_mqtt/paho/MQTTClient-C/src\MQTTClient.h ****     } messageHandlers[MAX_MESSAGE_HANDLERS];      /* Message handlers are indexed by subscription t
 126:c:/Users/lenovo/Desktop/AIoT/first_day/firstday_afternoon/LiteOS_Lab_STM32_IoT/iot_link/network/mqtt/paho_mqtt/paho/MQTTClient-C/src\MQTTClient.h **** 
 127:c:/Users/lenovo/Desktop/AIoT/first_day/firstday_afternoon/LiteOS_Lab_STM32_IoT/iot_link/network/mqtt/paho_mqtt/paho/MQTTClient-C/src\MQTTClient.h ****     void (*defaultMessageHandler) (MessageData*);
 128:c:/Users/lenovo/Desktop/AIoT/first_day/firstday_afternoon/LiteOS_Lab_STM32_IoT/iot_link/network/mqtt/paho_mqtt/paho/MQTTClient-C/src\MQTTClient.h **** 
 129:c:/Users/lenovo/Desktop/AIoT/first_day/firstday_afternoon/LiteOS_Lab_STM32_IoT/iot_link/network/mqtt/paho_mqtt/paho/MQTTClient-C/src\MQTTClient.h ****     Network* ipstack;
 130:c:/Users/lenovo/Desktop/AIoT/first_day/firstday_afternoon/LiteOS_Lab_STM32_IoT/iot_link/network/mqtt/paho_mqtt/paho/MQTTClient-C/src\MQTTClient.h ****     Timer last_sent, last_received;
 131:c:/Users/lenovo/Desktop/AIoT/first_day/firstday_afternoon/LiteOS_Lab_STM32_IoT/iot_link/network/mqtt/paho_mqtt/paho/MQTTClient-C/src\MQTTClient.h **** #if defined(MQTT_TASK)
 132:c:/Users/lenovo/Desktop/AIoT/first_day/firstday_afternoon/LiteOS_Lab_STM32_IoT/iot_link/network/mqtt/paho_mqtt/paho/MQTTClient-C/src\MQTTClient.h ****     Mutex mutex;
 133:c:/Users/lenovo/Desktop/AIoT/first_day/firstday_afternoon/LiteOS_Lab_STM32_IoT/iot_link/network/mqtt/paho_mqtt/paho/MQTTClient-C/src\MQTTClient.h ****     Thread thread;
 134:c:/Users/lenovo/Desktop/AIoT/first_day/firstday_afternoon/LiteOS_Lab_STM32_IoT/iot_link/network/mqtt/paho_mqtt/paho/MQTTClient-C/src\MQTTClient.h **** #endif
 135:c:/Users/lenovo/Desktop/AIoT/first_day/firstday_afternoon/LiteOS_Lab_STM32_IoT/iot_link/network/mqtt/paho_mqtt/paho/MQTTClient-C/src\MQTTClient.h **** } MQTTClient;
 136:c:/Users/lenovo/Desktop/AIoT/first_day/firstday_afternoon/LiteOS_Lab_STM32_IoT/iot_link/network/mqtt/paho_mqtt/paho/MQTTClient-C/src\MQTTClient.h **** 
 137:c:/Users/lenovo/Desktop/AIoT/first_day/firstday_afternoon/LiteOS_Lab_STM32_IoT/iot_link/network/mqtt/paho_mqtt/paho/MQTTClient-C/src\MQTTClient.h **** #define DefaultClient {0, 0, 0, 0, NULL, NULL, 0, 0, 0}
 138:c:/Users/lenovo/Desktop/AIoT/first_day/firstday_afternoon/LiteOS_Lab_STM32_IoT/iot_link/network/mqtt/paho_mqtt/paho/MQTTClient-C/src\MQTTClient.h **** 
 139:c:/Users/lenovo/Desktop/AIoT/first_day/firstday_afternoon/LiteOS_Lab_STM32_IoT/iot_link/network/mqtt/paho_mqtt/paho/MQTTClient-C/src\MQTTClient.h **** 
 140:c:/Users/lenovo/Desktop/AIoT/first_day/firstday_afternoon/LiteOS_Lab_STM32_IoT/iot_link/network/mqtt/paho_mqtt/paho/MQTTClient-C/src\MQTTClient.h **** /**
 141:c:/Users/lenovo/Desktop/AIoT/first_day/firstday_afternoon/LiteOS_Lab_STM32_IoT/iot_link/network/mqtt/paho_mqtt/paho/MQTTClient-C/src\MQTTClient.h ****  * Create an MQTT client object
 142:c:/Users/lenovo/Desktop/AIoT/first_day/firstday_afternoon/LiteOS_Lab_STM32_IoT/iot_link/network/mqtt/paho_mqtt/paho/MQTTClient-C/src\MQTTClient.h ****  * @param client
 143:c:/Users/lenovo/Desktop/AIoT/first_day/firstday_afternoon/LiteOS_Lab_STM32_IoT/iot_link/network/mqtt/paho_mqtt/paho/MQTTClient-C/src\MQTTClient.h ****  * @param network
 144:c:/Users/lenovo/Desktop/AIoT/first_day/firstday_afternoon/LiteOS_Lab_STM32_IoT/iot_link/network/mqtt/paho_mqtt/paho/MQTTClient-C/src\MQTTClient.h ****  * @param command_timeout_ms
 145:c:/Users/lenovo/Desktop/AIoT/first_day/firstday_afternoon/LiteOS_Lab_STM32_IoT/iot_link/network/mqtt/paho_mqtt/paho/MQTTClient-C/src\MQTTClient.h ****  * @param
ARM GAS  C:\Users\lenovo\AppData\Local\Temp\ccxMpoX7.s 			page 4


 146:c:/Users/lenovo/Desktop/AIoT/first_day/firstday_afternoon/LiteOS_Lab_STM32_IoT/iot_link/network/mqtt/paho_mqtt/paho/MQTTClient-C/src\MQTTClient.h ****  */
 147:c:/Users/lenovo/Desktop/AIoT/first_day/firstday_afternoon/LiteOS_Lab_STM32_IoT/iot_link/network/mqtt/paho_mqtt/paho/MQTTClient-C/src\MQTTClient.h **** DLLExport int MQTTClientInit(MQTTClient* client, Network* network, unsigned int command_timeout_ms,
 148:c:/Users/lenovo/Desktop/AIoT/first_day/firstday_afternoon/LiteOS_Lab_STM32_IoT/iot_link/network/mqtt/paho_mqtt/paho/MQTTClient-C/src\MQTTClient.h **** 		unsigned char* sendbuf, size_t sendbuf_size, unsigned char* readbuf, size_t readbuf_size);
 149:c:/Users/lenovo/Desktop/AIoT/first_day/firstday_afternoon/LiteOS_Lab_STM32_IoT/iot_link/network/mqtt/paho_mqtt/paho/MQTTClient-C/src\MQTTClient.h **** DLLExport void MQTTClientDeInit(MQTTClient* c);
 150:c:/Users/lenovo/Desktop/AIoT/first_day/firstday_afternoon/LiteOS_Lab_STM32_IoT/iot_link/network/mqtt/paho_mqtt/paho/MQTTClient-C/src\MQTTClient.h **** 
 151:c:/Users/lenovo/Desktop/AIoT/first_day/firstday_afternoon/LiteOS_Lab_STM32_IoT/iot_link/network/mqtt/paho_mqtt/paho/MQTTClient-C/src\MQTTClient.h **** /** MQTT Connect - send an MQTT connect packet down the network and wait for a Connack
 152:c:/Users/lenovo/Desktop/AIoT/first_day/firstday_afternoon/LiteOS_Lab_STM32_IoT/iot_link/network/mqtt/paho_mqtt/paho/MQTTClient-C/src\MQTTClient.h ****  *  The nework object must be connected to the network endpoint before calling this
 153:c:/Users/lenovo/Desktop/AIoT/first_day/firstday_afternoon/LiteOS_Lab_STM32_IoT/iot_link/network/mqtt/paho_mqtt/paho/MQTTClient-C/src\MQTTClient.h ****  *  @param options - connect options
 154:c:/Users/lenovo/Desktop/AIoT/first_day/firstday_afternoon/LiteOS_Lab_STM32_IoT/iot_link/network/mqtt/paho_mqtt/paho/MQTTClient-C/src\MQTTClient.h ****  *  @return success code
 155:c:/Users/lenovo/Desktop/AIoT/first_day/firstday_afternoon/LiteOS_Lab_STM32_IoT/iot_link/network/mqtt/paho_mqtt/paho/MQTTClient-C/src\MQTTClient.h ****  */
 156:c:/Users/lenovo/Desktop/AIoT/first_day/firstday_afternoon/LiteOS_Lab_STM32_IoT/iot_link/network/mqtt/paho_mqtt/paho/MQTTClient-C/src\MQTTClient.h **** DLLExport int MQTTConnectWithResults(MQTTClient* client, MQTTPacket_connectData* options,
 157:c:/Users/lenovo/Desktop/AIoT/first_day/firstday_afternoon/LiteOS_Lab_STM32_IoT/iot_link/network/mqtt/paho_mqtt/paho/MQTTClient-C/src\MQTTClient.h ****     MQTTConnackData* data);
 158:c:/Users/lenovo/Desktop/AIoT/first_day/firstday_afternoon/LiteOS_Lab_STM32_IoT/iot_link/network/mqtt/paho_mqtt/paho/MQTTClient-C/src\MQTTClient.h **** 
 159:c:/Users/lenovo/Desktop/AIoT/first_day/firstday_afternoon/LiteOS_Lab_STM32_IoT/iot_link/network/mqtt/paho_mqtt/paho/MQTTClient-C/src\MQTTClient.h **** /** MQTT Connect - send an MQTT connect packet down the network and wait for a Connack
 160:c:/Users/lenovo/Desktop/AIoT/first_day/firstday_afternoon/LiteOS_Lab_STM32_IoT/iot_link/network/mqtt/paho_mqtt/paho/MQTTClient-C/src\MQTTClient.h ****  *  The nework object must be connected to the network endpoint before calling this
 161:c:/Users/lenovo/Desktop/AIoT/first_day/firstday_afternoon/LiteOS_Lab_STM32_IoT/iot_link/network/mqtt/paho_mqtt/paho/MQTTClient-C/src\MQTTClient.h ****  *  @param options - connect options
 162:c:/Users/lenovo/Desktop/AIoT/first_day/firstday_afternoon/LiteOS_Lab_STM32_IoT/iot_link/network/mqtt/paho_mqtt/paho/MQTTClient-C/src\MQTTClient.h ****  *  @return success code
 163:c:/Users/lenovo/Desktop/AIoT/first_day/firstday_afternoon/LiteOS_Lab_STM32_IoT/iot_link/network/mqtt/paho_mqtt/paho/MQTTClient-C/src\MQTTClient.h ****  */
 164:c:/Users/lenovo/Desktop/AIoT/first_day/firstday_afternoon/LiteOS_Lab_STM32_IoT/iot_link/network/mqtt/paho_mqtt/paho/MQTTClient-C/src\MQTTClient.h **** DLLExport int MQTTConnect(MQTTClient* client, MQTTPacket_connectData* options);
 165:c:/Users/lenovo/Desktop/AIoT/first_day/firstday_afternoon/LiteOS_Lab_STM32_IoT/iot_link/network/mqtt/paho_mqtt/paho/MQTTClient-C/src\MQTTClient.h **** 
 166:c:/Users/lenovo/Desktop/AIoT/first_day/firstday_afternoon/LiteOS_Lab_STM32_IoT/iot_link/network/mqtt/paho_mqtt/paho/MQTTClient-C/src\MQTTClient.h **** /** MQTT Publish - send an MQTT publish packet and wait for all acks to complete for all QoSs
 167:c:/Users/lenovo/Desktop/AIoT/first_day/firstday_afternoon/LiteOS_Lab_STM32_IoT/iot_link/network/mqtt/paho_mqtt/paho/MQTTClient-C/src\MQTTClient.h ****  *  @param client - the client object to use
 168:c:/Users/lenovo/Desktop/AIoT/first_day/firstday_afternoon/LiteOS_Lab_STM32_IoT/iot_link/network/mqtt/paho_mqtt/paho/MQTTClient-C/src\MQTTClient.h ****  *  @param topic - the topic to publish to
 169:c:/Users/lenovo/Desktop/AIoT/first_day/firstday_afternoon/LiteOS_Lab_STM32_IoT/iot_link/network/mqtt/paho_mqtt/paho/MQTTClient-C/src\MQTTClient.h ****  *  @param message - the message to send
 170:c:/Users/lenovo/Desktop/AIoT/first_day/firstday_afternoon/LiteOS_Lab_STM32_IoT/iot_link/network/mqtt/paho_mqtt/paho/MQTTClient-C/src\MQTTClient.h ****  *  @return success code
 171:c:/Users/lenovo/Desktop/AIoT/first_day/firstday_afternoon/LiteOS_Lab_STM32_IoT/iot_link/network/mqtt/paho_mqtt/paho/MQTTClient-C/src\MQTTClient.h ****  */
 172:c:/Users/lenovo/Desktop/AIoT/first_day/firstday_afternoon/LiteOS_Lab_STM32_IoT/iot_link/network/mqtt/paho_mqtt/paho/MQTTClient-C/src\MQTTClient.h **** DLLExport int MQTTPublish(MQTTClient* client, const char*, MQTTMessage*);
 173:c:/Users/lenovo/Desktop/AIoT/first_day/firstday_afternoon/LiteOS_Lab_STM32_IoT/iot_link/network/mqtt/paho_mqtt/paho/MQTTClient-C/src\MQTTClient.h **** 
 174:c:/Users/lenovo/Desktop/AIoT/first_day/firstday_afternoon/LiteOS_Lab_STM32_IoT/iot_link/network/mqtt/paho_mqtt/paho/MQTTClient-C/src\MQTTClient.h **** /** MQTT SetMessageHandler - set or remove a per topic message handler
 175:c:/Users/lenovo/Desktop/AIoT/first_day/firstday_afternoon/LiteOS_Lab_STM32_IoT/iot_link/network/mqtt/paho_mqtt/paho/MQTTClient-C/src\MQTTClient.h ****  *  @param client - the client object to use
 176:c:/Users/lenovo/Desktop/AIoT/first_day/firstday_afternoon/LiteOS_Lab_STM32_IoT/iot_link/network/mqtt/paho_mqtt/paho/MQTTClient-C/src\MQTTClient.h ****  *  @param topicFilter - the topic filter set the message handler for
 177:c:/Users/lenovo/Desktop/AIoT/first_day/firstday_afternoon/LiteOS_Lab_STM32_IoT/iot_link/network/mqtt/paho_mqtt/paho/MQTTClient-C/src\MQTTClient.h ****  *  @param messageHandler - pointer to the message handler function or NULL to remove
 178:c:/Users/lenovo/Desktop/AIoT/first_day/firstday_afternoon/LiteOS_Lab_STM32_IoT/iot_link/network/mqtt/paho_mqtt/paho/MQTTClient-C/src\MQTTClient.h ****  *  @return success code
 179:c:/Users/lenovo/Desktop/AIoT/first_day/firstday_afternoon/LiteOS_Lab_STM32_IoT/iot_link/network/mqtt/paho_mqtt/paho/MQTTClient-C/src\MQTTClient.h ****  */
 180:c:/Users/lenovo/Desktop/AIoT/first_day/firstday_afternoon/LiteOS_Lab_STM32_IoT/iot_link/network/mqtt/paho_mqtt/paho/MQTTClient-C/src\MQTTClient.h **** DLLExport int MQTTSetMessageHandler(MQTTClient* c, const char* topicFilter, messageHandler messageH
 181:c:/Users/lenovo/Desktop/AIoT/first_day/firstday_afternoon/LiteOS_Lab_STM32_IoT/iot_link/network/mqtt/paho_mqtt/paho/MQTTClient-C/src\MQTTClient.h **** 
 182:c:/Users/lenovo/Desktop/AIoT/first_day/firstday_afternoon/LiteOS_Lab_STM32_IoT/iot_link/network/mqtt/paho_mqtt/paho/MQTTClient-C/src\MQTTClient.h **** /** MQTT Subscribe - send an MQTT subscribe packet and wait for suback before returning.
 183:c:/Users/lenovo/Desktop/AIoT/first_day/firstday_afternoon/LiteOS_Lab_STM32_IoT/iot_link/network/mqtt/paho_mqtt/paho/MQTTClient-C/src\MQTTClient.h ****  *  @param client - the client object to use
 184:c:/Users/lenovo/Desktop/AIoT/first_day/firstday_afternoon/LiteOS_Lab_STM32_IoT/iot_link/network/mqtt/paho_mqtt/paho/MQTTClient-C/src\MQTTClient.h ****  *  @param topicFilter - the topic filter to subscribe to
 185:c:/Users/lenovo/Desktop/AIoT/first_day/firstday_afternoon/LiteOS_Lab_STM32_IoT/iot_link/network/mqtt/paho_mqtt/paho/MQTTClient-C/src\MQTTClient.h ****  *  @param message - the message to send
 186:c:/Users/lenovo/Desktop/AIoT/first_day/firstday_afternoon/LiteOS_Lab_STM32_IoT/iot_link/network/mqtt/paho_mqtt/paho/MQTTClient-C/src\MQTTClient.h ****  *  @return success code
 187:c:/Users/lenovo/Desktop/AIoT/first_day/firstday_afternoon/LiteOS_Lab_STM32_IoT/iot_link/network/mqtt/paho_mqtt/paho/MQTTClient-C/src\MQTTClient.h ****  */
 188:c:/Users/lenovo/Desktop/AIoT/first_day/firstday_afternoon/LiteOS_Lab_STM32_IoT/iot_link/network/mqtt/paho_mqtt/paho/MQTTClient-C/src\MQTTClient.h **** DLLExport int MQTTSubscribe(MQTTClient* client, const char* topicFilter, enum QoS, messageHandler);
 189:c:/Users/lenovo/Desktop/AIoT/first_day/firstday_afternoon/LiteOS_Lab_STM32_IoT/iot_link/network/mqtt/paho_mqtt/paho/MQTTClient-C/src\MQTTClient.h **** 
 190:c:/Users/lenovo/Desktop/AIoT/first_day/firstday_afternoon/LiteOS_Lab_STM32_IoT/iot_link/network/mqtt/paho_mqtt/paho/MQTTClient-C/src\MQTTClient.h **** /** MQTT Subscribe - send an MQTT subscribe packet and wait for suback before returning.
 191:c:/Users/lenovo/Desktop/AIoT/first_day/firstday_afternoon/LiteOS_Lab_STM32_IoT/iot_link/network/mqtt/paho_mqtt/paho/MQTTClient-C/src\MQTTClient.h ****  *  @param client - the client object to use
 192:c:/Users/lenovo/Desktop/AIoT/first_day/firstday_afternoon/LiteOS_Lab_STM32_IoT/iot_link/network/mqtt/paho_mqtt/paho/MQTTClient-C/src\MQTTClient.h ****  *  @param topicFilter - the topic filter to subscribe to
 193:c:/Users/lenovo/Desktop/AIoT/first_day/firstday_afternoon/LiteOS_Lab_STM32_IoT/iot_link/network/mqtt/paho_mqtt/paho/MQTTClient-C/src\MQTTClient.h ****  *  @param message - the message to send
 194:c:/Users/lenovo/Desktop/AIoT/first_day/firstday_afternoon/LiteOS_Lab_STM32_IoT/iot_link/network/mqtt/paho_mqtt/paho/MQTTClient-C/src\MQTTClient.h ****  *  @param data - suback granted QoS returned
 195:c:/Users/lenovo/Desktop/AIoT/first_day/firstday_afternoon/LiteOS_Lab_STM32_IoT/iot_link/network/mqtt/paho_mqtt/paho/MQTTClient-C/src\MQTTClient.h ****  *  @return success code
 196:c:/Users/lenovo/Desktop/AIoT/first_day/firstday_afternoon/LiteOS_Lab_STM32_IoT/iot_link/network/mqtt/paho_mqtt/paho/MQTTClient-C/src\MQTTClient.h ****  */
 197:c:/Users/lenovo/Desktop/AIoT/first_day/firstday_afternoon/LiteOS_Lab_STM32_IoT/iot_link/network/mqtt/paho_mqtt/paho/MQTTClient-C/src\MQTTClient.h **** DLLExport int MQTTSubscribeWithResults(MQTTClient* client, const char* topicFilter, enum QoS, messa
 198:c:/Users/lenovo/Desktop/AIoT/first_day/firstday_afternoon/LiteOS_Lab_STM32_IoT/iot_link/network/mqtt/paho_mqtt/paho/MQTTClient-C/src\MQTTClient.h **** 
 199:c:/Users/lenovo/Desktop/AIoT/first_day/firstday_afternoon/LiteOS_Lab_STM32_IoT/iot_link/network/mqtt/paho_mqtt/paho/MQTTClient-C/src\MQTTClient.h **** /** MQTT Subscribe - send an MQTT subscribe packet and wait for suback before returning.
 200:c:/Users/lenovo/Desktop/AIoT/first_day/firstday_afternoon/LiteOS_Lab_STM32_IoT/iot_link/network/mqtt/paho_mqtt/paho/MQTTClient-C/src\MQTTClient.h ****  *  @param client - the client object to use
 201:c:/Users/lenovo/Desktop/AIoT/first_day/firstday_afternoon/LiteOS_Lab_STM32_IoT/iot_link/network/mqtt/paho_mqtt/paho/MQTTClient-C/src\MQTTClient.h ****  *  @param topicFilter - the topic filter to subscribe to
 202:c:/Users/lenovo/Desktop/AIoT/first_day/firstday_afternoon/LiteOS_Lab_STM32_IoT/iot_link/network/mqtt/paho_mqtt/paho/MQTTClient-C/src\MQTTClient.h ****  *  @param message - the message to send
ARM GAS  C:\Users\lenovo\AppData\Local\Temp\ccxMpoX7.s 			page 5


 203:c:/Users/lenovo/Desktop/AIoT/first_day/firstday_afternoon/LiteOS_Lab_STM32_IoT/iot_link/network/mqtt/paho_mqtt/paho/MQTTClient-C/src\MQTTClient.h ****  *  @param data - suback granted QoS returned
 204:c:/Users/lenovo/Desktop/AIoT/first_day/firstday_afternoon/LiteOS_Lab_STM32_IoT/iot_link/network/mqtt/paho_mqtt/paho/MQTTClient-C/src\MQTTClient.h ****  *  @param arg  - which used for the messageHandler
 205:c:/Users/lenovo/Desktop/AIoT/first_day/firstday_afternoon/LiteOS_Lab_STM32_IoT/iot_link/network/mqtt/paho_mqtt/paho/MQTTClient-C/src\MQTTClient.h ****  *  @return success code
 206:c:/Users/lenovo/Desktop/AIoT/first_day/firstday_afternoon/LiteOS_Lab_STM32_IoT/iot_link/network/mqtt/paho_mqtt/paho/MQTTClient-C/src\MQTTClient.h ****  */
 207:c:/Users/lenovo/Desktop/AIoT/first_day/firstday_afternoon/LiteOS_Lab_STM32_IoT/iot_link/network/mqtt/paho_mqtt/paho/MQTTClient-C/src\MQTTClient.h **** DLLExport int MQTTSubscribeWithResultsArgs(MQTTClient* client, const char* topicFilter, enum QoS, m
 208:c:/Users/lenovo/Desktop/AIoT/first_day/firstday_afternoon/LiteOS_Lab_STM32_IoT/iot_link/network/mqtt/paho_mqtt/paho/MQTTClient-C/src\MQTTClient.h **** 
 209:c:/Users/lenovo/Desktop/AIoT/first_day/firstday_afternoon/LiteOS_Lab_STM32_IoT/iot_link/network/mqtt/paho_mqtt/paho/MQTTClient-C/src\MQTTClient.h **** 
 210:c:/Users/lenovo/Desktop/AIoT/first_day/firstday_afternoon/LiteOS_Lab_STM32_IoT/iot_link/network/mqtt/paho_mqtt/paho/MQTTClient-C/src\MQTTClient.h **** /** MQTT Subscribe - send an MQTT unsubscribe packet and wait for unsuback before returning.
 211:c:/Users/lenovo/Desktop/AIoT/first_day/firstday_afternoon/LiteOS_Lab_STM32_IoT/iot_link/network/mqtt/paho_mqtt/paho/MQTTClient-C/src\MQTTClient.h ****  *  @param client - the client object to use
 212:c:/Users/lenovo/Desktop/AIoT/first_day/firstday_afternoon/LiteOS_Lab_STM32_IoT/iot_link/network/mqtt/paho_mqtt/paho/MQTTClient-C/src\MQTTClient.h ****  *  @param topicFilter - the topic filter to unsubscribe from
 213:c:/Users/lenovo/Desktop/AIoT/first_day/firstday_afternoon/LiteOS_Lab_STM32_IoT/iot_link/network/mqtt/paho_mqtt/paho/MQTTClient-C/src\MQTTClient.h ****  *  @return success code
 214:c:/Users/lenovo/Desktop/AIoT/first_day/firstday_afternoon/LiteOS_Lab_STM32_IoT/iot_link/network/mqtt/paho_mqtt/paho/MQTTClient-C/src\MQTTClient.h ****  */
 215:c:/Users/lenovo/Desktop/AIoT/first_day/firstday_afternoon/LiteOS_Lab_STM32_IoT/iot_link/network/mqtt/paho_mqtt/paho/MQTTClient-C/src\MQTTClient.h **** DLLExport int MQTTUnsubscribe(MQTTClient* client, const char* topicFilter);
 216:c:/Users/lenovo/Desktop/AIoT/first_day/firstday_afternoon/LiteOS_Lab_STM32_IoT/iot_link/network/mqtt/paho_mqtt/paho/MQTTClient-C/src\MQTTClient.h **** 
 217:c:/Users/lenovo/Desktop/AIoT/first_day/firstday_afternoon/LiteOS_Lab_STM32_IoT/iot_link/network/mqtt/paho_mqtt/paho/MQTTClient-C/src\MQTTClient.h **** /** MQTT Disconnect - send an MQTT disconnect packet and close the connection
 218:c:/Users/lenovo/Desktop/AIoT/first_day/firstday_afternoon/LiteOS_Lab_STM32_IoT/iot_link/network/mqtt/paho_mqtt/paho/MQTTClient-C/src\MQTTClient.h ****  *  @param client - the client object to use
 219:c:/Users/lenovo/Desktop/AIoT/first_day/firstday_afternoon/LiteOS_Lab_STM32_IoT/iot_link/network/mqtt/paho_mqtt/paho/MQTTClient-C/src\MQTTClient.h ****  *  @return success code
 220:c:/Users/lenovo/Desktop/AIoT/first_day/firstday_afternoon/LiteOS_Lab_STM32_IoT/iot_link/network/mqtt/paho_mqtt/paho/MQTTClient-C/src\MQTTClient.h ****  */
 221:c:/Users/lenovo/Desktop/AIoT/first_day/firstday_afternoon/LiteOS_Lab_STM32_IoT/iot_link/network/mqtt/paho_mqtt/paho/MQTTClient-C/src\MQTTClient.h **** DLLExport int MQTTDisconnect(MQTTClient* client);
 222:c:/Users/lenovo/Desktop/AIoT/first_day/firstday_afternoon/LiteOS_Lab_STM32_IoT/iot_link/network/mqtt/paho_mqtt/paho/MQTTClient-C/src\MQTTClient.h **** 
 223:c:/Users/lenovo/Desktop/AIoT/first_day/firstday_afternoon/LiteOS_Lab_STM32_IoT/iot_link/network/mqtt/paho_mqtt/paho/MQTTClient-C/src\MQTTClient.h **** /** MQTT Yield - MQTT background
 224:c:/Users/lenovo/Desktop/AIoT/first_day/firstday_afternoon/LiteOS_Lab_STM32_IoT/iot_link/network/mqtt/paho_mqtt/paho/MQTTClient-C/src\MQTTClient.h ****  *  @param client - the client object to use
 225:c:/Users/lenovo/Desktop/AIoT/first_day/firstday_afternoon/LiteOS_Lab_STM32_IoT/iot_link/network/mqtt/paho_mqtt/paho/MQTTClient-C/src\MQTTClient.h ****  *  @param time - the time, in milliseconds, to yield for
 226:c:/Users/lenovo/Desktop/AIoT/first_day/firstday_afternoon/LiteOS_Lab_STM32_IoT/iot_link/network/mqtt/paho_mqtt/paho/MQTTClient-C/src\MQTTClient.h ****  *  @return success code
 227:c:/Users/lenovo/Desktop/AIoT/first_day/firstday_afternoon/LiteOS_Lab_STM32_IoT/iot_link/network/mqtt/paho_mqtt/paho/MQTTClient-C/src\MQTTClient.h ****  */
 228:c:/Users/lenovo/Desktop/AIoT/first_day/firstday_afternoon/LiteOS_Lab_STM32_IoT/iot_link/network/mqtt/paho_mqtt/paho/MQTTClient-C/src\MQTTClient.h **** DLLExport int MQTTYield(MQTTClient* client, int time);
 229:c:/Users/lenovo/Desktop/AIoT/first_day/firstday_afternoon/LiteOS_Lab_STM32_IoT/iot_link/network/mqtt/paho_mqtt/paho/MQTTClient-C/src\MQTTClient.h **** 
 230:c:/Users/lenovo/Desktop/AIoT/first_day/firstday_afternoon/LiteOS_Lab_STM32_IoT/iot_link/network/mqtt/paho_mqtt/paho/MQTTClient-C/src\MQTTClient.h **** /** MQTT isConnected
 231:c:/Users/lenovo/Desktop/AIoT/first_day/firstday_afternoon/LiteOS_Lab_STM32_IoT/iot_link/network/mqtt/paho_mqtt/paho/MQTTClient-C/src\MQTTClient.h ****  *  @param client - the client object to use
 232:c:/Users/lenovo/Desktop/AIoT/first_day/firstday_afternoon/LiteOS_Lab_STM32_IoT/iot_link/network/mqtt/paho_mqtt/paho/MQTTClient-C/src\MQTTClient.h ****  *  @return truth value indicating whether the client is connected to the server
 233:c:/Users/lenovo/Desktop/AIoT/first_day/firstday_afternoon/LiteOS_Lab_STM32_IoT/iot_link/network/mqtt/paho_mqtt/paho/MQTTClient-C/src\MQTTClient.h ****  */
 234:c:/Users/lenovo/Desktop/AIoT/first_day/firstday_afternoon/LiteOS_Lab_STM32_IoT/iot_link/network/mqtt/paho_mqtt/paho/MQTTClient-C/src\MQTTClient.h **** static inline DLLExport int MQTTIsConnected(MQTTClient* client)
 235:c:/Users/lenovo/Desktop/AIoT/first_day/firstday_afternoon/LiteOS_Lab_STM32_IoT/iot_link/network/mqtt/paho_mqtt/paho/MQTTClient-C/src\MQTTClient.h **** {
  28              		.loc 1 235 1
  29              		.cfi_startproc
  30              		@ args = 0, pretend = 0, frame = 8
  31              		@ frame_needed = 1, uses_anonymous_args = 0
  32              		@ link register save eliminated.
  33 0000 80B4     		push	{r7}
  34              	.LCFI0:
  35              		.cfi_def_cfa_offset 4
  36              		.cfi_offset 7, -4
  37 0002 83B0     		sub	sp, sp, #12
  38              	.LCFI1:
  39              		.cfi_def_cfa_offset 16
  40 0004 00AF     		add	r7, sp, #0
  41              	.LCFI2:
  42              		.cfi_def_cfa_register 7
  43 0006 7860     		str	r0, [r7, #4]
 236:c:/Users/lenovo/Desktop/AIoT/first_day/firstday_afternoon/LiteOS_Lab_STM32_IoT/iot_link/network/mqtt/paho_mqtt/paho/MQTTClient-C/src\MQTTClient.h ****   return client->isconnected;
  44              		.loc 1 236 16
  45 0008 7B68     		ldr	r3, [r7, #4]
  46 000a 1B6A     		ldr	r3, [r3, #32]
 237:c:/Users/lenovo/Desktop/AIoT/first_day/firstday_afternoon/LiteOS_Lab_STM32_IoT/iot_link/network/mqtt/paho_mqtt/paho/MQTTClient-C/src\MQTTClient.h **** }
  47              		.loc 1 237 1
  48 000c 1846     		mov	r0, r3
  49 000e 0C37     		adds	r7, r7, #12
ARM GAS  C:\Users\lenovo\AppData\Local\Temp\ccxMpoX7.s 			page 6


  50              	.LCFI3:
  51              		.cfi_def_cfa_offset 4
  52 0010 BD46     		mov	sp, r7
  53              	.LCFI4:
  54              		.cfi_def_cfa_register 13
  55              		@ sp needed
  56 0012 5DF8047B 		ldr	r7, [sp], #4
  57              	.LCFI5:
  58              		.cfi_restore 7
  59              		.cfi_def_cfa_offset 0
  60 0016 7047     		bx	lr
  61              		.cfi_endproc
  62              	.LFE3:
  64              		.section	.text.__tls_read,"ax",%progbits
  65              		.align	1
  66              		.syntax unified
  67              		.thumb
  68              		.thumb_func
  69              		.fpu fpv4-sp-d16
  71              	__tls_read:
  72              	.LFB4:
  73              		.file 2 "c:/Users/lenovo/Desktop/AIoT/first_day/firstday_afternoon/LiteOS_Lab_STM32_IoT/iot_link/n
   1:c:/Users/lenovo/Desktop/AIoT/first_day/firstday_afternoon/LiteOS_Lab_STM32_IoT/iot_link/network/mqtt/paho_mqtt/port\paho_mqtt_port.c **** /*----------------------------------------------------------------------------
   2:c:/Users/lenovo/Desktop/AIoT/first_day/firstday_afternoon/LiteOS_Lab_STM32_IoT/iot_link/network/mqtt/paho_mqtt/port\paho_mqtt_port.c ****  * Copyright (c) <2016-2018>, <Huawei Technologies Co., Ltd>
   3:c:/Users/lenovo/Desktop/AIoT/first_day/firstday_afternoon/LiteOS_Lab_STM32_IoT/iot_link/network/mqtt/paho_mqtt/port\paho_mqtt_port.c ****  * All rights reserved.
   4:c:/Users/lenovo/Desktop/AIoT/first_day/firstday_afternoon/LiteOS_Lab_STM32_IoT/iot_link/network/mqtt/paho_mqtt/port\paho_mqtt_port.c ****  * Redistribution and use in source and binary forms, with or without modification,
   5:c:/Users/lenovo/Desktop/AIoT/first_day/firstday_afternoon/LiteOS_Lab_STM32_IoT/iot_link/network/mqtt/paho_mqtt/port\paho_mqtt_port.c ****  * are permitted provided that the following conditions are met:
   6:c:/Users/lenovo/Desktop/AIoT/first_day/firstday_afternoon/LiteOS_Lab_STM32_IoT/iot_link/network/mqtt/paho_mqtt/port\paho_mqtt_port.c ****  * 1. Redistributions of source code must retain the above copyright notice, this list of
   7:c:/Users/lenovo/Desktop/AIoT/first_day/firstday_afternoon/LiteOS_Lab_STM32_IoT/iot_link/network/mqtt/paho_mqtt/port\paho_mqtt_port.c ****  * conditions and the following disclaimer.
   8:c:/Users/lenovo/Desktop/AIoT/first_day/firstday_afternoon/LiteOS_Lab_STM32_IoT/iot_link/network/mqtt/paho_mqtt/port\paho_mqtt_port.c ****  * 2. Redistributions in binary form must reproduce the above copyright notice, this list
   9:c:/Users/lenovo/Desktop/AIoT/first_day/firstday_afternoon/LiteOS_Lab_STM32_IoT/iot_link/network/mqtt/paho_mqtt/port\paho_mqtt_port.c ****  * of conditions and the following disclaimer in the documentation and/or other materials
  10:c:/Users/lenovo/Desktop/AIoT/first_day/firstday_afternoon/LiteOS_Lab_STM32_IoT/iot_link/network/mqtt/paho_mqtt/port\paho_mqtt_port.c ****  * provided with the distribution.
  11:c:/Users/lenovo/Desktop/AIoT/first_day/firstday_afternoon/LiteOS_Lab_STM32_IoT/iot_link/network/mqtt/paho_mqtt/port\paho_mqtt_port.c ****  * 3. Neither the name of the copyright holder nor the names of its contributors may be used
  12:c:/Users/lenovo/Desktop/AIoT/first_day/firstday_afternoon/LiteOS_Lab_STM32_IoT/iot_link/network/mqtt/paho_mqtt/port\paho_mqtt_port.c ****  * to endorse or promote products derived from this software without specific prior written
  13:c:/Users/lenovo/Desktop/AIoT/first_day/firstday_afternoon/LiteOS_Lab_STM32_IoT/iot_link/network/mqtt/paho_mqtt/port\paho_mqtt_port.c ****  * permission.
  14:c:/Users/lenovo/Desktop/AIoT/first_day/firstday_afternoon/LiteOS_Lab_STM32_IoT/iot_link/network/mqtt/paho_mqtt/port\paho_mqtt_port.c ****  * THIS SOFTWARE IS PROVIDED BY THE COPYRIGHT HOLDERS AND CONTRIBUTORS
  15:c:/Users/lenovo/Desktop/AIoT/first_day/firstday_afternoon/LiteOS_Lab_STM32_IoT/iot_link/network/mqtt/paho_mqtt/port\paho_mqtt_port.c ****  * "AS IS" AND ANY EXPRESS OR IMPLIED WARRANTIES, INCLUDING, BUT NOT LIMITED TO,
  16:c:/Users/lenovo/Desktop/AIoT/first_day/firstday_afternoon/LiteOS_Lab_STM32_IoT/iot_link/network/mqtt/paho_mqtt/port\paho_mqtt_port.c ****  * THE IMPLIED WARRANTIES OF MERCHANTABILITY AND FITNESS FOR A PARTICULAR
  17:c:/Users/lenovo/Desktop/AIoT/first_day/firstday_afternoon/LiteOS_Lab_STM32_IoT/iot_link/network/mqtt/paho_mqtt/port\paho_mqtt_port.c ****  * PURPOSE ARE DISCLAIMED. IN NO EVENT SHALL THE COPYRIGHT HOLDER OR
  18:c:/Users/lenovo/Desktop/AIoT/first_day/firstday_afternoon/LiteOS_Lab_STM32_IoT/iot_link/network/mqtt/paho_mqtt/port\paho_mqtt_port.c ****  * CONTRIBUTORS BE LIABLE FOR ANY DIRECT, INDIRECT, INCIDENTAL, SPECIAL,
  19:c:/Users/lenovo/Desktop/AIoT/first_day/firstday_afternoon/LiteOS_Lab_STM32_IoT/iot_link/network/mqtt/paho_mqtt/port\paho_mqtt_port.c ****  * EXEMPLARY, OR CONSEQUENTIAL DAMAGES (INCLUDING, BUT NOT LIMITED TO,
  20:c:/Users/lenovo/Desktop/AIoT/first_day/firstday_afternoon/LiteOS_Lab_STM32_IoT/iot_link/network/mqtt/paho_mqtt/port\paho_mqtt_port.c ****  * PROCUREMENT OF SUBSTITUTE GOODS OR SERVICES; LOSS OF USE, DATA, OR PROFITS;
  21:c:/Users/lenovo/Desktop/AIoT/first_day/firstday_afternoon/LiteOS_Lab_STM32_IoT/iot_link/network/mqtt/paho_mqtt/port\paho_mqtt_port.c ****  * OR BUSINESS INTERRUPTION) HOWEVER CAUSED AND ON ANY THEORY OF LIABILITY,
  22:c:/Users/lenovo/Desktop/AIoT/first_day/firstday_afternoon/LiteOS_Lab_STM32_IoT/iot_link/network/mqtt/paho_mqtt/port\paho_mqtt_port.c ****  * WHETHER IN CONTRACT, STRICT LIABILITY, OR TORT (INCLUDING NEGLIGENCE OR
  23:c:/Users/lenovo/Desktop/AIoT/first_day/firstday_afternoon/LiteOS_Lab_STM32_IoT/iot_link/network/mqtt/paho_mqtt/port\paho_mqtt_port.c ****  * OTHERWISE) ARISING IN ANY WAY OUT OF THE USE OF THIS SOFTWARE, EVEN IF
  24:c:/Users/lenovo/Desktop/AIoT/first_day/firstday_afternoon/LiteOS_Lab_STM32_IoT/iot_link/network/mqtt/paho_mqtt/port\paho_mqtt_port.c ****  * ADVISED OF THE POSSIBILITY OF SUCH DAMAGE.
  25:c:/Users/lenovo/Desktop/AIoT/first_day/firstday_afternoon/LiteOS_Lab_STM32_IoT/iot_link/network/mqtt/paho_mqtt/port\paho_mqtt_port.c ****  *---------------------------------------------------------------------------*/
  26:c:/Users/lenovo/Desktop/AIoT/first_day/firstday_afternoon/LiteOS_Lab_STM32_IoT/iot_link/network/mqtt/paho_mqtt/port\paho_mqtt_port.c **** /*----------------------------------------------------------------------------
  27:c:/Users/lenovo/Desktop/AIoT/first_day/firstday_afternoon/LiteOS_Lab_STM32_IoT/iot_link/network/mqtt/paho_mqtt/port\paho_mqtt_port.c ****  * Notice of Export Control Law
  28:c:/Users/lenovo/Desktop/AIoT/first_day/firstday_afternoon/LiteOS_Lab_STM32_IoT/iot_link/network/mqtt/paho_mqtt/port\paho_mqtt_port.c ****  * ===============================================
  29:c:/Users/lenovo/Desktop/AIoT/first_day/firstday_afternoon/LiteOS_Lab_STM32_IoT/iot_link/network/mqtt/paho_mqtt/port\paho_mqtt_port.c ****  * Huawei LiteOS may be subject to applicable export control laws and regulations, which might
  30:c:/Users/lenovo/Desktop/AIoT/first_day/firstday_afternoon/LiteOS_Lab_STM32_IoT/iot_link/network/mqtt/paho_mqtt/port\paho_mqtt_port.c ****  * include those applicable to Huawei LiteOS of U.S. and the country in which you are located.
  31:c:/Users/lenovo/Desktop/AIoT/first_day/firstday_afternoon/LiteOS_Lab_STM32_IoT/iot_link/network/mqtt/paho_mqtt/port\paho_mqtt_port.c ****  * Import, export and usage of Huawei LiteOS in any manner by you shall be in compliance with such
  32:c:/Users/lenovo/Desktop/AIoT/first_day/firstday_afternoon/LiteOS_Lab_STM32_IoT/iot_link/network/mqtt/paho_mqtt/port\paho_mqtt_port.c ****  * applicable export control laws and regulations.
  33:c:/Users/lenovo/Desktop/AIoT/first_day/firstday_afternoon/LiteOS_Lab_STM32_IoT/iot_link/network/mqtt/paho_mqtt/port\paho_mqtt_port.c ****  *---------------------------------------------------------------------------*/
  34:c:/Users/lenovo/Desktop/AIoT/first_day/firstday_afternoon/LiteOS_Lab_STM32_IoT/iot_link/network/mqtt/paho_mqtt/port\paho_mqtt_port.c **** #include "MQTTClient.h"
  35:c:/Users/lenovo/Desktop/AIoT/first_day/firstday_afternoon/LiteOS_Lab_STM32_IoT/iot_link/network/mqtt/paho_mqtt/port\paho_mqtt_port.c **** 
ARM GAS  C:\Users\lenovo\AppData\Local\Temp\ccxMpoX7.s 			page 7


  36:c:/Users/lenovo/Desktop/AIoT/first_day/firstday_afternoon/LiteOS_Lab_STM32_IoT/iot_link/network/mqtt/paho_mqtt/port\paho_mqtt_port.c **** #include <time.h>
  37:c:/Users/lenovo/Desktop/AIoT/first_day/firstday_afternoon/LiteOS_Lab_STM32_IoT/iot_link/network/mqtt/paho_mqtt/port\paho_mqtt_port.c **** #include <sal.h>
  38:c:/Users/lenovo/Desktop/AIoT/first_day/firstday_afternoon/LiteOS_Lab_STM32_IoT/iot_link/network/mqtt/paho_mqtt/port\paho_mqtt_port.c **** #include <mqtt_al.h>
  39:c:/Users/lenovo/Desktop/AIoT/first_day/firstday_afternoon/LiteOS_Lab_STM32_IoT/iot_link/network/mqtt/paho_mqtt/port\paho_mqtt_port.c **** #include <paho_mqtt_port.h>
  40:c:/Users/lenovo/Desktop/AIoT/first_day/firstday_afternoon/LiteOS_Lab_STM32_IoT/iot_link/network/mqtt/paho_mqtt/port\paho_mqtt_port.c **** 
  41:c:/Users/lenovo/Desktop/AIoT/first_day/firstday_afternoon/LiteOS_Lab_STM32_IoT/iot_link/network/mqtt/paho_mqtt/port\paho_mqtt_port.c **** #define CN_MQTT_CONNECT_TIMEOUT_MS  (10 *1000)
  42:c:/Users/lenovo/Desktop/AIoT/first_day/firstday_afternoon/LiteOS_Lab_STM32_IoT/iot_link/network/mqtt/paho_mqtt/port\paho_mqtt_port.c **** #define cn_mqtt_cmd_timeout_ms (10 * 1000)
  43:c:/Users/lenovo/Desktop/AIoT/first_day/firstday_afternoon/LiteOS_Lab_STM32_IoT/iot_link/network/mqtt/paho_mqtt/port\paho_mqtt_port.c **** #define cn_mqtt_events_handle_period_ms (1*1000)
  44:c:/Users/lenovo/Desktop/AIoT/first_day/firstday_afternoon/LiteOS_Lab_STM32_IoT/iot_link/network/mqtt/paho_mqtt/port\paho_mqtt_port.c **** #define cn_mqtt_keepalive_interval_s (100)
  45:c:/Users/lenovo/Desktop/AIoT/first_day/firstday_afternoon/LiteOS_Lab_STM32_IoT/iot_link/network/mqtt/paho_mqtt/port\paho_mqtt_port.c **** #define cn_mqtt_sndbuf_size (1024 * 2)
  46:c:/Users/lenovo/Desktop/AIoT/first_day/firstday_afternoon/LiteOS_Lab_STM32_IoT/iot_link/network/mqtt/paho_mqtt/port\paho_mqtt_port.c **** #define cn_mqtt_rcvbuf_size (1024 * 2)
  47:c:/Users/lenovo/Desktop/AIoT/first_day/firstday_afternoon/LiteOS_Lab_STM32_IoT/iot_link/network/mqtt/paho_mqtt/port\paho_mqtt_port.c **** 
  48:c:/Users/lenovo/Desktop/AIoT/first_day/firstday_afternoon/LiteOS_Lab_STM32_IoT/iot_link/network/mqtt/paho_mqtt/port\paho_mqtt_port.c **** typedef struct
  49:c:/Users/lenovo/Desktop/AIoT/first_day/firstday_afternoon/LiteOS_Lab_STM32_IoT/iot_link/network/mqtt/paho_mqtt/port\paho_mqtt_port.c **** {
  50:c:/Users/lenovo/Desktop/AIoT/first_day/firstday_afternoon/LiteOS_Lab_STM32_IoT/iot_link/network/mqtt/paho_mqtt/port\paho_mqtt_port.c ****     Network        network;
  51:c:/Users/lenovo/Desktop/AIoT/first_day/firstday_afternoon/LiteOS_Lab_STM32_IoT/iot_link/network/mqtt/paho_mqtt/port\paho_mqtt_port.c ****     MQTTClient     client;
  52:c:/Users/lenovo/Desktop/AIoT/first_day/firstday_afternoon/LiteOS_Lab_STM32_IoT/iot_link/network/mqtt/paho_mqtt/port\paho_mqtt_port.c ****     void          *task;    //create a task for this client
  53:c:/Users/lenovo/Desktop/AIoT/first_day/firstday_afternoon/LiteOS_Lab_STM32_IoT/iot_link/network/mqtt/paho_mqtt/port\paho_mqtt_port.c ****     void          *rcvbuf;  //for the mqtt engine used
  54:c:/Users/lenovo/Desktop/AIoT/first_day/firstday_afternoon/LiteOS_Lab_STM32_IoT/iot_link/network/mqtt/paho_mqtt/port\paho_mqtt_port.c ****     void          *sndbuf;
  55:c:/Users/lenovo/Desktop/AIoT/first_day/firstday_afternoon/LiteOS_Lab_STM32_IoT/iot_link/network/mqtt/paho_mqtt/port\paho_mqtt_port.c **** }paho_mqtt_cb_t;
  56:c:/Users/lenovo/Desktop/AIoT/first_day/firstday_afternoon/LiteOS_Lab_STM32_IoT/iot_link/network/mqtt/paho_mqtt/port\paho_mqtt_port.c **** 
  57:c:/Users/lenovo/Desktop/AIoT/first_day/firstday_afternoon/LiteOS_Lab_STM32_IoT/iot_link/network/mqtt/paho_mqtt/port\paho_mqtt_port.c **** ///< waring: the paho mqtt has the opposite return code with normal socket read and write
  58:c:/Users/lenovo/Desktop/AIoT/first_day/firstday_afternoon/LiteOS_Lab_STM32_IoT/iot_link/network/mqtt/paho_mqtt/port\paho_mqtt_port.c **** #ifdef CONFIG_DTLS_ENABLE
  59:c:/Users/lenovo/Desktop/AIoT/first_day/firstday_afternoon/LiteOS_Lab_STM32_IoT/iot_link/network/mqtt/paho_mqtt/port\paho_mqtt_port.c **** 
  60:c:/Users/lenovo/Desktop/AIoT/first_day/firstday_afternoon/LiteOS_Lab_STM32_IoT/iot_link/network/mqtt/paho_mqtt/port\paho_mqtt_port.c **** static int __tls_read(void *ssl, unsigned char *buffer, int len, int timeout)
  61:c:/Users/lenovo/Desktop/AIoT/first_day/firstday_afternoon/LiteOS_Lab_STM32_IoT/iot_link/network/mqtt/paho_mqtt/port\paho_mqtt_port.c **** {
  74              		.loc 2 61 1
  75              		.cfi_startproc
  76              		@ args = 0, pretend = 0, frame = 24
  77              		@ frame_needed = 1, uses_anonymous_args = 0
  78 0000 80B5     		push	{r7, lr}
  79              	.LCFI6:
  80              		.cfi_def_cfa_offset 8
  81              		.cfi_offset 7, -8
  82              		.cfi_offset 14, -4
  83 0002 86B0     		sub	sp, sp, #24
  84              	.LCFI7:
  85              		.cfi_def_cfa_offset 32
  86 0004 00AF     		add	r7, sp, #0
  87              	.LCFI8:
  88              		.cfi_def_cfa_register 7
  89 0006 F860     		str	r0, [r7, #12]
  90 0008 B960     		str	r1, [r7, #8]
  91 000a 7A60     		str	r2, [r7, #4]
  92 000c 3B60     		str	r3, [r7]
  62:c:/Users/lenovo/Desktop/AIoT/first_day/firstday_afternoon/LiteOS_Lab_STM32_IoT/iot_link/network/mqtt/paho_mqtt/port\paho_mqtt_port.c ****     int ret= -1;
  93              		.loc 2 62 9
  94 000e 4FF0FF33 		mov	r3, #-1
  95 0012 7B61     		str	r3, [r7, #20]
  63:c:/Users/lenovo/Desktop/AIoT/first_day/firstday_afternoon/LiteOS_Lab_STM32_IoT/iot_link/network/mqtt/paho_mqtt/port\paho_mqtt_port.c ****     int rcvlen = -1;
  96              		.loc 2 63 9
  97 0014 4FF0FF33 		mov	r3, #-1
  98 0018 3B61     		str	r3, [r7, #16]
  64:c:/Users/lenovo/Desktop/AIoT/first_day/firstday_afternoon/LiteOS_Lab_STM32_IoT/iot_link/network/mqtt/paho_mqtt/port\paho_mqtt_port.c **** 
  65:c:/Users/lenovo/Desktop/AIoT/first_day/firstday_afternoon/LiteOS_Lab_STM32_IoT/iot_link/network/mqtt/paho_mqtt/port\paho_mqtt_port.c ****     if(NULL == ssl || NULL == buffer)
  99              		.loc 2 65 7
 100 001a FB68     		ldr	r3, [r7, #12]
ARM GAS  C:\Users\lenovo\AppData\Local\Temp\ccxMpoX7.s 			page 8


 101 001c 002B     		cmp	r3, #0
 102 001e 02D0     		beq	.L4
 103              		.loc 2 65 20 discriminator 1
 104 0020 BB68     		ldr	r3, [r7, #8]
 105 0022 002B     		cmp	r3, #0
 106 0024 02D1     		bne	.L5
 107              	.L4:
  66:c:/Users/lenovo/Desktop/AIoT/first_day/firstday_afternoon/LiteOS_Lab_STM32_IoT/iot_link/network/mqtt/paho_mqtt/port\paho_mqtt_port.c ****     {
  67:c:/Users/lenovo/Desktop/AIoT/first_day/firstday_afternoon/LiteOS_Lab_STM32_IoT/iot_link/network/mqtt/paho_mqtt/port\paho_mqtt_port.c ****         return -1;
 108              		.loc 2 67 16
 109 0026 4FF0FF33 		mov	r3, #-1
 110 002a 16E0     		b	.L6
 111              	.L5:
  68:c:/Users/lenovo/Desktop/AIoT/first_day/firstday_afternoon/LiteOS_Lab_STM32_IoT/iot_link/network/mqtt/paho_mqtt/port\paho_mqtt_port.c ****     }
  69:c:/Users/lenovo/Desktop/AIoT/first_day/firstday_afternoon/LiteOS_Lab_STM32_IoT/iot_link/network/mqtt/paho_mqtt/port\paho_mqtt_port.c **** 
  70:c:/Users/lenovo/Desktop/AIoT/first_day/firstday_afternoon/LiteOS_Lab_STM32_IoT/iot_link/network/mqtt/paho_mqtt/port\paho_mqtt_port.c ****     rcvlen = dtls_al_read(ssl,buffer,len, timeout);
 112              		.loc 2 70 14
 113 002c 7A68     		ldr	r2, [r7, #4]
 114 002e 3B68     		ldr	r3, [r7]
 115 0030 B968     		ldr	r1, [r7, #8]
 116 0032 F868     		ldr	r0, [r7, #12]
 117 0034 FFF7FEFF 		bl	dtls_al_read
 118 0038 3861     		str	r0, [r7, #16]
  71:c:/Users/lenovo/Desktop/AIoT/first_day/firstday_afternoon/LiteOS_Lab_STM32_IoT/iot_link/network/mqtt/paho_mqtt/port\paho_mqtt_port.c **** 
  72:c:/Users/lenovo/Desktop/AIoT/first_day/firstday_afternoon/LiteOS_Lab_STM32_IoT/iot_link/network/mqtt/paho_mqtt/port\paho_mqtt_port.c ****     if(rcvlen == 0)
 119              		.loc 2 72 7
 120 003a 3B69     		ldr	r3, [r7, #16]
 121 003c 002B     		cmp	r3, #0
 122 003e 03D1     		bne	.L7
  73:c:/Users/lenovo/Desktop/AIoT/first_day/firstday_afternoon/LiteOS_Lab_STM32_IoT/iot_link/network/mqtt/paho_mqtt/port\paho_mqtt_port.c ****     {
  74:c:/Users/lenovo/Desktop/AIoT/first_day/firstday_afternoon/LiteOS_Lab_STM32_IoT/iot_link/network/mqtt/paho_mqtt/port\paho_mqtt_port.c ****         ret = -1;
 123              		.loc 2 74 13
 124 0040 4FF0FF33 		mov	r3, #-1
 125 0044 7B61     		str	r3, [r7, #20]
 126 0046 07E0     		b	.L8
 127              	.L7:
  75:c:/Users/lenovo/Desktop/AIoT/first_day/firstday_afternoon/LiteOS_Lab_STM32_IoT/iot_link/network/mqtt/paho_mqtt/port\paho_mqtt_port.c ****     }
  76:c:/Users/lenovo/Desktop/AIoT/first_day/firstday_afternoon/LiteOS_Lab_STM32_IoT/iot_link/network/mqtt/paho_mqtt/port\paho_mqtt_port.c ****     else if(rcvlen < 0)
 128              		.loc 2 76 12
 129 0048 3B69     		ldr	r3, [r7, #16]
 130 004a 002B     		cmp	r3, #0
 131 004c 02DA     		bge	.L9
  77:c:/Users/lenovo/Desktop/AIoT/first_day/firstday_afternoon/LiteOS_Lab_STM32_IoT/iot_link/network/mqtt/paho_mqtt/port\paho_mqtt_port.c ****     {
  78:c:/Users/lenovo/Desktop/AIoT/first_day/firstday_afternoon/LiteOS_Lab_STM32_IoT/iot_link/network/mqtt/paho_mqtt/port\paho_mqtt_port.c ****         ret = 0;
 132              		.loc 2 78 13
 133 004e 0023     		movs	r3, #0
 134 0050 7B61     		str	r3, [r7, #20]
 135 0052 01E0     		b	.L8
 136              	.L9:
  79:c:/Users/lenovo/Desktop/AIoT/first_day/firstday_afternoon/LiteOS_Lab_STM32_IoT/iot_link/network/mqtt/paho_mqtt/port\paho_mqtt_port.c ****     }
  80:c:/Users/lenovo/Desktop/AIoT/first_day/firstday_afternoon/LiteOS_Lab_STM32_IoT/iot_link/network/mqtt/paho_mqtt/port\paho_mqtt_port.c ****     else
  81:c:/Users/lenovo/Desktop/AIoT/first_day/firstday_afternoon/LiteOS_Lab_STM32_IoT/iot_link/network/mqtt/paho_mqtt/port\paho_mqtt_port.c ****     {
  82:c:/Users/lenovo/Desktop/AIoT/first_day/firstday_afternoon/LiteOS_Lab_STM32_IoT/iot_link/network/mqtt/paho_mqtt/port\paho_mqtt_port.c ****         ret = rcvlen;
 137              		.loc 2 82 13
 138 0054 3B69     		ldr	r3, [r7, #16]
 139 0056 7B61     		str	r3, [r7, #20]
 140              	.L8:
ARM GAS  C:\Users\lenovo\AppData\Local\Temp\ccxMpoX7.s 			page 9


  83:c:/Users/lenovo/Desktop/AIoT/first_day/firstday_afternoon/LiteOS_Lab_STM32_IoT/iot_link/network/mqtt/paho_mqtt/port\paho_mqtt_port.c ****     }
  84:c:/Users/lenovo/Desktop/AIoT/first_day/firstday_afternoon/LiteOS_Lab_STM32_IoT/iot_link/network/mqtt/paho_mqtt/port\paho_mqtt_port.c **** 
  85:c:/Users/lenovo/Desktop/AIoT/first_day/firstday_afternoon/LiteOS_Lab_STM32_IoT/iot_link/network/mqtt/paho_mqtt/port\paho_mqtt_port.c ****     return ret;
 141              		.loc 2 85 12
 142 0058 7B69     		ldr	r3, [r7, #20]
 143              	.L6:
  86:c:/Users/lenovo/Desktop/AIoT/first_day/firstday_afternoon/LiteOS_Lab_STM32_IoT/iot_link/network/mqtt/paho_mqtt/port\paho_mqtt_port.c **** }
 144              		.loc 2 86 1
 145 005a 1846     		mov	r0, r3
 146 005c 1837     		adds	r7, r7, #24
 147              	.LCFI9:
 148              		.cfi_def_cfa_offset 8
 149 005e BD46     		mov	sp, r7
 150              	.LCFI10:
 151              		.cfi_def_cfa_register 13
 152              		@ sp needed
 153 0060 80BD     		pop	{r7, pc}
 154              		.cfi_endproc
 155              	.LFE4:
 157              		.section	.text.__tls_write,"ax",%progbits
 158              		.align	1
 159              		.syntax unified
 160              		.thumb
 161              		.thumb_func
 162              		.fpu fpv4-sp-d16
 164              	__tls_write:
 165              	.LFB5:
  87:c:/Users/lenovo/Desktop/AIoT/first_day/firstday_afternoon/LiteOS_Lab_STM32_IoT/iot_link/network/mqtt/paho_mqtt/port\paho_mqtt_port.c **** static int __tls_write(void *ssl, unsigned char *buffer, int len, int timeout)
  88:c:/Users/lenovo/Desktop/AIoT/first_day/firstday_afternoon/LiteOS_Lab_STM32_IoT/iot_link/network/mqtt/paho_mqtt/port\paho_mqtt_port.c **** {
 166              		.loc 2 88 1
 167              		.cfi_startproc
 168              		@ args = 0, pretend = 0, frame = 24
 169              		@ frame_needed = 1, uses_anonymous_args = 0
 170 0000 80B5     		push	{r7, lr}
 171              	.LCFI11:
 172              		.cfi_def_cfa_offset 8
 173              		.cfi_offset 7, -8
 174              		.cfi_offset 14, -4
 175 0002 86B0     		sub	sp, sp, #24
 176              	.LCFI12:
 177              		.cfi_def_cfa_offset 32
 178 0004 00AF     		add	r7, sp, #0
 179              	.LCFI13:
 180              		.cfi_def_cfa_register 7
 181 0006 F860     		str	r0, [r7, #12]
 182 0008 B960     		str	r1, [r7, #8]
 183 000a 7A60     		str	r2, [r7, #4]
 184 000c 3B60     		str	r3, [r7]
  89:c:/Users/lenovo/Desktop/AIoT/first_day/firstday_afternoon/LiteOS_Lab_STM32_IoT/iot_link/network/mqtt/paho_mqtt/port\paho_mqtt_port.c ****     int ret= -1;
 185              		.loc 2 89 9
 186 000e 4FF0FF33 		mov	r3, #-1
 187 0012 7B61     		str	r3, [r7, #20]
  90:c:/Users/lenovo/Desktop/AIoT/first_day/firstday_afternoon/LiteOS_Lab_STM32_IoT/iot_link/network/mqtt/paho_mqtt/port\paho_mqtt_port.c ****     int sndlen = -1;
 188              		.loc 2 90 9
 189 0014 4FF0FF33 		mov	r3, #-1
 190 0018 3B61     		str	r3, [r7, #16]
  91:c:/Users/lenovo/Desktop/AIoT/first_day/firstday_afternoon/LiteOS_Lab_STM32_IoT/iot_link/network/mqtt/paho_mqtt/port\paho_mqtt_port.c **** 
ARM GAS  C:\Users\lenovo\AppData\Local\Temp\ccxMpoX7.s 			page 10


  92:c:/Users/lenovo/Desktop/AIoT/first_day/firstday_afternoon/LiteOS_Lab_STM32_IoT/iot_link/network/mqtt/paho_mqtt/port\paho_mqtt_port.c ****     if(NULL == ssl || NULL == buffer)
 191              		.loc 2 92 7
 192 001a FB68     		ldr	r3, [r7, #12]
 193 001c 002B     		cmp	r3, #0
 194 001e 02D0     		beq	.L11
 195              		.loc 2 92 20 discriminator 1
 196 0020 BB68     		ldr	r3, [r7, #8]
 197 0022 002B     		cmp	r3, #0
 198 0024 02D1     		bne	.L12
 199              	.L11:
  93:c:/Users/lenovo/Desktop/AIoT/first_day/firstday_afternoon/LiteOS_Lab_STM32_IoT/iot_link/network/mqtt/paho_mqtt/port\paho_mqtt_port.c ****     {
  94:c:/Users/lenovo/Desktop/AIoT/first_day/firstday_afternoon/LiteOS_Lab_STM32_IoT/iot_link/network/mqtt/paho_mqtt/port\paho_mqtt_port.c ****         return -1;
 200              		.loc 2 94 16
 201 0026 4FF0FF33 		mov	r3, #-1
 202 002a 16E0     		b	.L13
 203              	.L12:
  95:c:/Users/lenovo/Desktop/AIoT/first_day/firstday_afternoon/LiteOS_Lab_STM32_IoT/iot_link/network/mqtt/paho_mqtt/port\paho_mqtt_port.c ****     }
  96:c:/Users/lenovo/Desktop/AIoT/first_day/firstday_afternoon/LiteOS_Lab_STM32_IoT/iot_link/network/mqtt/paho_mqtt/port\paho_mqtt_port.c **** 
  97:c:/Users/lenovo/Desktop/AIoT/first_day/firstday_afternoon/LiteOS_Lab_STM32_IoT/iot_link/network/mqtt/paho_mqtt/port\paho_mqtt_port.c ****     sndlen = dtls_al_write(ssl,buffer,len,timeout);
 204              		.loc 2 97 14
 205 002c 7A68     		ldr	r2, [r7, #4]
 206 002e 3B68     		ldr	r3, [r7]
 207 0030 B968     		ldr	r1, [r7, #8]
 208 0032 F868     		ldr	r0, [r7, #12]
 209 0034 FFF7FEFF 		bl	dtls_al_write
 210 0038 3861     		str	r0, [r7, #16]
  98:c:/Users/lenovo/Desktop/AIoT/first_day/firstday_afternoon/LiteOS_Lab_STM32_IoT/iot_link/network/mqtt/paho_mqtt/port\paho_mqtt_port.c **** 
  99:c:/Users/lenovo/Desktop/AIoT/first_day/firstday_afternoon/LiteOS_Lab_STM32_IoT/iot_link/network/mqtt/paho_mqtt/port\paho_mqtt_port.c ****     if(sndlen == 0)
 211              		.loc 2 99 7
 212 003a 3B69     		ldr	r3, [r7, #16]
 213 003c 002B     		cmp	r3, #0
 214 003e 03D1     		bne	.L14
 100:c:/Users/lenovo/Desktop/AIoT/first_day/firstday_afternoon/LiteOS_Lab_STM32_IoT/iot_link/network/mqtt/paho_mqtt/port\paho_mqtt_port.c ****     {
 101:c:/Users/lenovo/Desktop/AIoT/first_day/firstday_afternoon/LiteOS_Lab_STM32_IoT/iot_link/network/mqtt/paho_mqtt/port\paho_mqtt_port.c ****         ret = -1;
 215              		.loc 2 101 13
 216 0040 4FF0FF33 		mov	r3, #-1
 217 0044 7B61     		str	r3, [r7, #20]
 218 0046 07E0     		b	.L15
 219              	.L14:
 102:c:/Users/lenovo/Desktop/AIoT/first_day/firstday_afternoon/LiteOS_Lab_STM32_IoT/iot_link/network/mqtt/paho_mqtt/port\paho_mqtt_port.c ****     }
 103:c:/Users/lenovo/Desktop/AIoT/first_day/firstday_afternoon/LiteOS_Lab_STM32_IoT/iot_link/network/mqtt/paho_mqtt/port\paho_mqtt_port.c ****     else if(sndlen < 0)
 220              		.loc 2 103 12
 221 0048 3B69     		ldr	r3, [r7, #16]
 222 004a 002B     		cmp	r3, #0
 223 004c 02DA     		bge	.L16
 104:c:/Users/lenovo/Desktop/AIoT/first_day/firstday_afternoon/LiteOS_Lab_STM32_IoT/iot_link/network/mqtt/paho_mqtt/port\paho_mqtt_port.c ****     {
 105:c:/Users/lenovo/Desktop/AIoT/first_day/firstday_afternoon/LiteOS_Lab_STM32_IoT/iot_link/network/mqtt/paho_mqtt/port\paho_mqtt_port.c ****         ret = 0;
 224              		.loc 2 105 13
 225 004e 0023     		movs	r3, #0
 226 0050 7B61     		str	r3, [r7, #20]
 227 0052 01E0     		b	.L15
 228              	.L16:
 106:c:/Users/lenovo/Desktop/AIoT/first_day/firstday_afternoon/LiteOS_Lab_STM32_IoT/iot_link/network/mqtt/paho_mqtt/port\paho_mqtt_port.c ****     }
 107:c:/Users/lenovo/Desktop/AIoT/first_day/firstday_afternoon/LiteOS_Lab_STM32_IoT/iot_link/network/mqtt/paho_mqtt/port\paho_mqtt_port.c ****     else
 108:c:/Users/lenovo/Desktop/AIoT/first_day/firstday_afternoon/LiteOS_Lab_STM32_IoT/iot_link/network/mqtt/paho_mqtt/port\paho_mqtt_port.c ****     {
 109:c:/Users/lenovo/Desktop/AIoT/first_day/firstday_afternoon/LiteOS_Lab_STM32_IoT/iot_link/network/mqtt/paho_mqtt/port\paho_mqtt_port.c ****         ret = sndlen;
 229              		.loc 2 109 13
ARM GAS  C:\Users\lenovo\AppData\Local\Temp\ccxMpoX7.s 			page 11


 230 0054 3B69     		ldr	r3, [r7, #16]
 231 0056 7B61     		str	r3, [r7, #20]
 232              	.L15:
 110:c:/Users/lenovo/Desktop/AIoT/first_day/firstday_afternoon/LiteOS_Lab_STM32_IoT/iot_link/network/mqtt/paho_mqtt/port\paho_mqtt_port.c ****     }
 111:c:/Users/lenovo/Desktop/AIoT/first_day/firstday_afternoon/LiteOS_Lab_STM32_IoT/iot_link/network/mqtt/paho_mqtt/port\paho_mqtt_port.c **** 
 112:c:/Users/lenovo/Desktop/AIoT/first_day/firstday_afternoon/LiteOS_Lab_STM32_IoT/iot_link/network/mqtt/paho_mqtt/port\paho_mqtt_port.c ****     return ret;
 233              		.loc 2 112 12
 234 0058 7B69     		ldr	r3, [r7, #20]
 235              	.L13:
 113:c:/Users/lenovo/Desktop/AIoT/first_day/firstday_afternoon/LiteOS_Lab_STM32_IoT/iot_link/network/mqtt/paho_mqtt/port\paho_mqtt_port.c **** }
 236              		.loc 2 113 1
 237 005a 1846     		mov	r0, r3
 238 005c 1837     		adds	r7, r7, #24
 239              	.LCFI14:
 240              		.cfi_def_cfa_offset 8
 241 005e BD46     		mov	sp, r7
 242              	.LCFI15:
 243              		.cfi_def_cfa_register 13
 244              		@ sp needed
 245 0060 80BD     		pop	{r7, pc}
 246              		.cfi_endproc
 247              	.LFE5:
 249              		.section	.rodata
 250              		.align	2
 251              	.LC2:
 252 0000 256400   		.ascii	"%d\000"
 253              		.section	.text.__tls_connect,"ax",%progbits
 254              		.align	1
 255              		.syntax unified
 256              		.thumb
 257              		.thumb_func
 258              		.fpu fpv4-sp-d16
 260              	__tls_connect:
 261              	.LFB6:
 114:c:/Users/lenovo/Desktop/AIoT/first_day/firstday_afternoon/LiteOS_Lab_STM32_IoT/iot_link/network/mqtt/paho_mqtt/port\paho_mqtt_port.c **** 
 115:c:/Users/lenovo/Desktop/AIoT/first_day/firstday_afternoon/LiteOS_Lab_STM32_IoT/iot_link/network/mqtt/paho_mqtt/port\paho_mqtt_port.c **** #define PORT_BUF_LEN 16
 116:c:/Users/lenovo/Desktop/AIoT/first_day/firstday_afternoon/LiteOS_Lab_STM32_IoT/iot_link/network/mqtt/paho_mqtt/port\paho_mqtt_port.c **** static int __tls_connect(Network *n, char *addr, int port)
 117:c:/Users/lenovo/Desktop/AIoT/first_day/firstday_afternoon/LiteOS_Lab_STM32_IoT/iot_link/network/mqtt/paho_mqtt/port\paho_mqtt_port.c **** {    int ret = -1;
 262              		.loc 2 117 1
 263              		.cfi_startproc
 264              		@ args = 0, pretend = 0, frame = 88
 265              		@ frame_needed = 1, uses_anonymous_args = 0
 266 0000 B0B5     		push	{r4, r5, r7, lr}
 267              	.LCFI16:
 268              		.cfi_def_cfa_offset 16
 269              		.cfi_offset 4, -16
 270              		.cfi_offset 5, -12
 271              		.cfi_offset 7, -8
 272              		.cfi_offset 14, -4
 273 0002 96B0     		sub	sp, sp, #88
 274              	.LCFI17:
 275              		.cfi_def_cfa_offset 104
 276 0004 00AF     		add	r7, sp, #0
 277              	.LCFI18:
 278              		.cfi_def_cfa_register 7
 279 0006 F860     		str	r0, [r7, #12]
 280 0008 B960     		str	r1, [r7, #8]
ARM GAS  C:\Users\lenovo\AppData\Local\Temp\ccxMpoX7.s 			page 12


 281 000a 7A60     		str	r2, [r7, #4]
 282              		.loc 2 117 10
 283 000c 4FF0FF33 		mov	r3, #-1
 284 0010 7B65     		str	r3, [r7, #84]
 118:c:/Users/lenovo/Desktop/AIoT/first_day/firstday_afternoon/LiteOS_Lab_STM32_IoT/iot_link/network/mqtt/paho_mqtt/port\paho_mqtt_port.c **** 
 119:c:/Users/lenovo/Desktop/AIoT/first_day/firstday_afternoon/LiteOS_Lab_STM32_IoT/iot_link/network/mqtt/paho_mqtt/port\paho_mqtt_port.c ****     void *handle = NULL;
 285              		.loc 2 119 11
 286 0012 0023     		movs	r3, #0
 287 0014 3B65     		str	r3, [r7, #80]
 120:c:/Users/lenovo/Desktop/AIoT/first_day/firstday_afternoon/LiteOS_Lab_STM32_IoT/iot_link/network/mqtt/paho_mqtt/port\paho_mqtt_port.c **** 
 121:c:/Users/lenovo/Desktop/AIoT/first_day/firstday_afternoon/LiteOS_Lab_STM32_IoT/iot_link/network/mqtt/paho_mqtt/port\paho_mqtt_port.c ****     dtls_al_para_t para;
 122:c:/Users/lenovo/Desktop/AIoT/first_day/firstday_afternoon/LiteOS_Lab_STM32_IoT/iot_link/network/mqtt/paho_mqtt/port\paho_mqtt_port.c **** 
 123:c:/Users/lenovo/Desktop/AIoT/first_day/firstday_afternoon/LiteOS_Lab_STM32_IoT/iot_link/network/mqtt/paho_mqtt/port\paho_mqtt_port.c ****     char port_buf[PORT_BUF_LEN];
 124:c:/Users/lenovo/Desktop/AIoT/first_day/firstday_afternoon/LiteOS_Lab_STM32_IoT/iot_link/network/mqtt/paho_mqtt/port\paho_mqtt_port.c **** 
 125:c:/Users/lenovo/Desktop/AIoT/first_day/firstday_afternoon/LiteOS_Lab_STM32_IoT/iot_link/network/mqtt/paho_mqtt/port\paho_mqtt_port.c ****     memset( &para,0, sizeof(para));
 288              		.loc 2 125 5
 289 0016 07F12003 		add	r3, r7, #32
 290 001a 3022     		movs	r2, #48
 291 001c 0021     		movs	r1, #0
 292 001e 1846     		mov	r0, r3
 293 0020 FFF7FEFF 		bl	memset
 126:c:/Users/lenovo/Desktop/AIoT/first_day/firstday_afternoon/LiteOS_Lab_STM32_IoT/iot_link/network/mqtt/paho_mqtt/port\paho_mqtt_port.c **** 
 127:c:/Users/lenovo/Desktop/AIoT/first_day/firstday_afternoon/LiteOS_Lab_STM32_IoT/iot_link/network/mqtt/paho_mqtt/port\paho_mqtt_port.c ****     para.security.type = EN_DTLS_AL_SECURITY_TYPE_CERT;
 294              		.loc 2 127 24
 295 0024 0223     		movs	r3, #2
 296 0026 87F82830 		strb	r3, [r7, #40]
 128:c:/Users/lenovo/Desktop/AIoT/first_day/firstday_afternoon/LiteOS_Lab_STM32_IoT/iot_link/network/mqtt/paho_mqtt/port\paho_mqtt_port.c ****     para.istcp = 1;
 297              		.loc 2 128 16
 298 002a 0123     		movs	r3, #1
 299 002c 3B62     		str	r3, [r7, #32]
 129:c:/Users/lenovo/Desktop/AIoT/first_day/firstday_afternoon/LiteOS_Lab_STM32_IoT/iot_link/network/mqtt/paho_mqtt/port\paho_mqtt_port.c ****     para.isclient = 1;
 300              		.loc 2 129 19
 301 002e 0123     		movs	r3, #1
 302 0030 7B62     		str	r3, [r7, #36]
 130:c:/Users/lenovo/Desktop/AIoT/first_day/firstday_afternoon/LiteOS_Lab_STM32_IoT/iot_link/network/mqtt/paho_mqtt/port\paho_mqtt_port.c ****     para.security = n->arg;
 303              		.loc 2 130 19
 304 0032 FB68     		ldr	r3, [r7, #12]
 305 0034 07F12804 		add	r4, r7, #40
 306 0038 1D1D     		adds	r5, r3, #4
 307 003a 0FCD     		ldmia	r5!, {r0, r1, r2, r3}
 308 003c 0FC4     		stmia	r4!, {r0, r1, r2, r3}
 309 003e 0FCD     		ldmia	r5!, {r0, r1, r2, r3}
 310 0040 0FC4     		stmia	r4!, {r0, r1, r2, r3}
 311 0042 95E80300 		ldm	r5, {r0, r1}
 312 0046 84E80300 		stm	r4, {r0, r1}
 131:c:/Users/lenovo/Desktop/AIoT/first_day/firstday_afternoon/LiteOS_Lab_STM32_IoT/iot_link/network/mqtt/paho_mqtt/port\paho_mqtt_port.c **** 
 132:c:/Users/lenovo/Desktop/AIoT/first_day/firstday_afternoon/LiteOS_Lab_STM32_IoT/iot_link/network/mqtt/paho_mqtt/port\paho_mqtt_port.c ****     if(EN_DTLS_AL_ERR_OK != dtls_al_new(&para,&handle))
 313              		.loc 2 132 29
 314 004a 07F15002 		add	r2, r7, #80
 315 004e 07F12003 		add	r3, r7, #32
 316 0052 1146     		mov	r1, r2
 317 0054 1846     		mov	r0, r3
 318 0056 FFF7FEFF 		bl	dtls_al_new
 319 005a 0346     		mov	r3, r0
 320              		.loc 2 132 7
 321 005c 002B     		cmp	r3, #0
 322 005e 01D0     		beq	.L18
ARM GAS  C:\Users\lenovo\AppData\Local\Temp\ccxMpoX7.s 			page 13


 133:c:/Users/lenovo/Desktop/AIoT/first_day/firstday_afternoon/LiteOS_Lab_STM32_IoT/iot_link/network/mqtt/paho_mqtt/port\paho_mqtt_port.c ****     {
 134:c:/Users/lenovo/Desktop/AIoT/first_day/firstday_afternoon/LiteOS_Lab_STM32_IoT/iot_link/network/mqtt/paho_mqtt/port\paho_mqtt_port.c ****         return ret;
 323              		.loc 2 134 16
 324 0060 7B6D     		ldr	r3, [r7, #84]
 325 0062 21E0     		b	.L21
 326              	.L18:
 135:c:/Users/lenovo/Desktop/AIoT/first_day/firstday_afternoon/LiteOS_Lab_STM32_IoT/iot_link/network/mqtt/paho_mqtt/port\paho_mqtt_port.c ****     }
 136:c:/Users/lenovo/Desktop/AIoT/first_day/firstday_afternoon/LiteOS_Lab_STM32_IoT/iot_link/network/mqtt/paho_mqtt/port\paho_mqtt_port.c **** 
 137:c:/Users/lenovo/Desktop/AIoT/first_day/firstday_afternoon/LiteOS_Lab_STM32_IoT/iot_link/network/mqtt/paho_mqtt/port\paho_mqtt_port.c ****     snprintf(port_buf, PORT_BUF_LEN, "%d", port);
 327              		.loc 2 137 5
 328 0064 07F11000 		add	r0, r7, #16
 329 0068 7B68     		ldr	r3, [r7, #4]
 330 006a 114A     		ldr	r2, .L22
 331 006c 1021     		movs	r1, #16
 332 006e FFF7FEFF 		bl	snprintf
 138:c:/Users/lenovo/Desktop/AIoT/first_day/firstday_afternoon/LiteOS_Lab_STM32_IoT/iot_link/network/mqtt/paho_mqtt/port\paho_mqtt_port.c **** 
 139:c:/Users/lenovo/Desktop/AIoT/first_day/firstday_afternoon/LiteOS_Lab_STM32_IoT/iot_link/network/mqtt/paho_mqtt/port\paho_mqtt_port.c ****     ret = dtls_al_connect( handle, addr, port_buf, CN_MQTT_CONNECT_TIMEOUT_MS);
 333              		.loc 2 139 11
 334 0072 386D     		ldr	r0, [r7, #80]
 335 0074 07F11002 		add	r2, r7, #16
 336 0078 42F21073 		movw	r3, #10000
 337 007c B968     		ldr	r1, [r7, #8]
 338 007e FFF7FEFF 		bl	dtls_al_connect
 339 0082 7865     		str	r0, [r7, #84]
 140:c:/Users/lenovo/Desktop/AIoT/first_day/firstday_afternoon/LiteOS_Lab_STM32_IoT/iot_link/network/mqtt/paho_mqtt/port\paho_mqtt_port.c ****     if (ret != EN_DTLS_AL_ERR_OK)
 340              		.loc 2 140 8
 341 0084 7B6D     		ldr	r3, [r7, #84]
 342 0086 002B     		cmp	r3, #0
 343 0088 08D0     		beq	.L20
 141:c:/Users/lenovo/Desktop/AIoT/first_day/firstday_afternoon/LiteOS_Lab_STM32_IoT/iot_link/network/mqtt/paho_mqtt/port\paho_mqtt_port.c ****     {
 142:c:/Users/lenovo/Desktop/AIoT/first_day/firstday_afternoon/LiteOS_Lab_STM32_IoT/iot_link/network/mqtt/paho_mqtt/port\paho_mqtt_port.c ****         dtls_al_destroy(handle);
 344              		.loc 2 142 9
 345 008a 3B6D     		ldr	r3, [r7, #80]
 346 008c 1846     		mov	r0, r3
 347 008e FFF7FEFF 		bl	dtls_al_destroy
 143:c:/Users/lenovo/Desktop/AIoT/first_day/firstday_afternoon/LiteOS_Lab_STM32_IoT/iot_link/network/mqtt/paho_mqtt/port\paho_mqtt_port.c **** 
 144:c:/Users/lenovo/Desktop/AIoT/first_day/firstday_afternoon/LiteOS_Lab_STM32_IoT/iot_link/network/mqtt/paho_mqtt/port\paho_mqtt_port.c ****         ret = -1;
 348              		.loc 2 144 13
 349 0092 4FF0FF33 		mov	r3, #-1
 350 0096 7B65     		str	r3, [r7, #84]
 145:c:/Users/lenovo/Desktop/AIoT/first_day/firstday_afternoon/LiteOS_Lab_STM32_IoT/iot_link/network/mqtt/paho_mqtt/port\paho_mqtt_port.c ****         return ret;
 351              		.loc 2 145 16
 352 0098 7B6D     		ldr	r3, [r7, #84]
 353 009a 05E0     		b	.L21
 354              	.L20:
 146:c:/Users/lenovo/Desktop/AIoT/first_day/firstday_afternoon/LiteOS_Lab_STM32_IoT/iot_link/network/mqtt/paho_mqtt/port\paho_mqtt_port.c ****     }
 147:c:/Users/lenovo/Desktop/AIoT/first_day/firstday_afternoon/LiteOS_Lab_STM32_IoT/iot_link/network/mqtt/paho_mqtt/port\paho_mqtt_port.c ****     else
 148:c:/Users/lenovo/Desktop/AIoT/first_day/firstday_afternoon/LiteOS_Lab_STM32_IoT/iot_link/network/mqtt/paho_mqtt/port\paho_mqtt_port.c ****     {
 149:c:/Users/lenovo/Desktop/AIoT/first_day/firstday_afternoon/LiteOS_Lab_STM32_IoT/iot_link/network/mqtt/paho_mqtt/port\paho_mqtt_port.c ****         ret = 0;
 355              		.loc 2 149 13
 356 009c 0023     		movs	r3, #0
 357 009e 7B65     		str	r3, [r7, #84]
 150:c:/Users/lenovo/Desktop/AIoT/first_day/firstday_afternoon/LiteOS_Lab_STM32_IoT/iot_link/network/mqtt/paho_mqtt/port\paho_mqtt_port.c ****     }
 151:c:/Users/lenovo/Desktop/AIoT/first_day/firstday_afternoon/LiteOS_Lab_STM32_IoT/iot_link/network/mqtt/paho_mqtt/port\paho_mqtt_port.c **** 
 152:c:/Users/lenovo/Desktop/AIoT/first_day/firstday_afternoon/LiteOS_Lab_STM32_IoT/iot_link/network/mqtt/paho_mqtt/port\paho_mqtt_port.c ****     n->ctx = handle;
 358              		.loc 2 152 12
 359 00a0 3A6D     		ldr	r2, [r7, #80]
ARM GAS  C:\Users\lenovo\AppData\Local\Temp\ccxMpoX7.s 			page 14


 360 00a2 FB68     		ldr	r3, [r7, #12]
 361 00a4 1A60     		str	r2, [r3]
 153:c:/Users/lenovo/Desktop/AIoT/first_day/firstday_afternoon/LiteOS_Lab_STM32_IoT/iot_link/network/mqtt/paho_mqtt/port\paho_mqtt_port.c ****     return ret;
 362              		.loc 2 153 12
 363 00a6 7B6D     		ldr	r3, [r7, #84]
 364              	.L21:
 154:c:/Users/lenovo/Desktop/AIoT/first_day/firstday_afternoon/LiteOS_Lab_STM32_IoT/iot_link/network/mqtt/paho_mqtt/port\paho_mqtt_port.c **** 
 155:c:/Users/lenovo/Desktop/AIoT/first_day/firstday_afternoon/LiteOS_Lab_STM32_IoT/iot_link/network/mqtt/paho_mqtt/port\paho_mqtt_port.c **** }
 365              		.loc 2 155 1 discriminator 1
 366 00a8 1846     		mov	r0, r3
 367 00aa 5837     		adds	r7, r7, #88
 368              	.LCFI19:
 369              		.cfi_def_cfa_offset 16
 370 00ac BD46     		mov	sp, r7
 371              	.LCFI20:
 372              		.cfi_def_cfa_register 13
 373              		@ sp needed
 374 00ae B0BD     		pop	{r4, r5, r7, pc}
 375              	.L23:
 376              		.align	2
 377              	.L22:
 378 00b0 00000000 		.word	.LC2
 379              		.cfi_endproc
 380              	.LFE6:
 382              		.section	.text.__tls_disconnect,"ax",%progbits
 383              		.align	1
 384              		.syntax unified
 385              		.thumb
 386              		.thumb_func
 387              		.fpu fpv4-sp-d16
 389              	__tls_disconnect:
 390              	.LFB7:
 156:c:/Users/lenovo/Desktop/AIoT/first_day/firstday_afternoon/LiteOS_Lab_STM32_IoT/iot_link/network/mqtt/paho_mqtt/port\paho_mqtt_port.c **** 
 157:c:/Users/lenovo/Desktop/AIoT/first_day/firstday_afternoon/LiteOS_Lab_STM32_IoT/iot_link/network/mqtt/paho_mqtt/port\paho_mqtt_port.c **** static void __tls_disconnect(void *ctx)
 158:c:/Users/lenovo/Desktop/AIoT/first_day/firstday_afternoon/LiteOS_Lab_STM32_IoT/iot_link/network/mqtt/paho_mqtt/port\paho_mqtt_port.c **** {
 391              		.loc 2 158 1
 392              		.cfi_startproc
 393              		@ args = 0, pretend = 0, frame = 8
 394              		@ frame_needed = 1, uses_anonymous_args = 0
 395 0000 80B5     		push	{r7, lr}
 396              	.LCFI21:
 397              		.cfi_def_cfa_offset 8
 398              		.cfi_offset 7, -8
 399              		.cfi_offset 14, -4
 400 0002 82B0     		sub	sp, sp, #8
 401              	.LCFI22:
 402              		.cfi_def_cfa_offset 16
 403 0004 00AF     		add	r7, sp, #0
 404              	.LCFI23:
 405              		.cfi_def_cfa_register 7
 406 0006 7860     		str	r0, [r7, #4]
 159:c:/Users/lenovo/Desktop/AIoT/first_day/firstday_afternoon/LiteOS_Lab_STM32_IoT/iot_link/network/mqtt/paho_mqtt/port\paho_mqtt_port.c ****     if(NULL != ctx)
 407              		.loc 2 159 7
 408 0008 7B68     		ldr	r3, [r7, #4]
 409 000a 002B     		cmp	r3, #0
 410 000c 03D0     		beq	.L27
 160:c:/Users/lenovo/Desktop/AIoT/first_day/firstday_afternoon/LiteOS_Lab_STM32_IoT/iot_link/network/mqtt/paho_mqtt/port\paho_mqtt_port.c ****     {
ARM GAS  C:\Users\lenovo\AppData\Local\Temp\ccxMpoX7.s 			page 15


 161:c:/Users/lenovo/Desktop/AIoT/first_day/firstday_afternoon/LiteOS_Lab_STM32_IoT/iot_link/network/mqtt/paho_mqtt/port\paho_mqtt_port.c ****         dtls_al_destroy(ctx);
 411              		.loc 2 161 9
 412 000e 7868     		ldr	r0, [r7, #4]
 413 0010 FFF7FEFF 		bl	dtls_al_destroy
 162:c:/Users/lenovo/Desktop/AIoT/first_day/firstday_afternoon/LiteOS_Lab_STM32_IoT/iot_link/network/mqtt/paho_mqtt/port\paho_mqtt_port.c ****     }
 163:c:/Users/lenovo/Desktop/AIoT/first_day/firstday_afternoon/LiteOS_Lab_STM32_IoT/iot_link/network/mqtt/paho_mqtt/port\paho_mqtt_port.c **** 
 164:c:/Users/lenovo/Desktop/AIoT/first_day/firstday_afternoon/LiteOS_Lab_STM32_IoT/iot_link/network/mqtt/paho_mqtt/port\paho_mqtt_port.c ****     return;
 414              		.loc 2 164 5
 415 0014 00BF     		nop
 416              	.L27:
 417 0016 00BF     		nop
 165:c:/Users/lenovo/Desktop/AIoT/first_day/firstday_afternoon/LiteOS_Lab_STM32_IoT/iot_link/network/mqtt/paho_mqtt/port\paho_mqtt_port.c **** }
 418              		.loc 2 165 1
 419 0018 0837     		adds	r7, r7, #8
 420              	.LCFI24:
 421              		.cfi_def_cfa_offset 8
 422 001a BD46     		mov	sp, r7
 423              	.LCFI25:
 424              		.cfi_def_cfa_register 13
 425              		@ sp needed
 426 001c 80BD     		pop	{r7, pc}
 427              		.cfi_endproc
 428              	.LFE7:
 430              		.section	.text.__socket_read,"ax",%progbits
 431              		.align	1
 432              		.syntax unified
 433              		.thumb
 434              		.thumb_func
 435              		.fpu fpv4-sp-d16
 437              	__socket_read:
 438              	.LFB8:
 166:c:/Users/lenovo/Desktop/AIoT/first_day/firstday_afternoon/LiteOS_Lab_STM32_IoT/iot_link/network/mqtt/paho_mqtt/port\paho_mqtt_port.c **** 
 167:c:/Users/lenovo/Desktop/AIoT/first_day/firstday_afternoon/LiteOS_Lab_STM32_IoT/iot_link/network/mqtt/paho_mqtt/port\paho_mqtt_port.c **** 
 168:c:/Users/lenovo/Desktop/AIoT/first_day/firstday_afternoon/LiteOS_Lab_STM32_IoT/iot_link/network/mqtt/paho_mqtt/port\paho_mqtt_port.c **** #endif
 169:c:/Users/lenovo/Desktop/AIoT/first_day/firstday_afternoon/LiteOS_Lab_STM32_IoT/iot_link/network/mqtt/paho_mqtt/port\paho_mqtt_port.c **** 
 170:c:/Users/lenovo/Desktop/AIoT/first_day/firstday_afternoon/LiteOS_Lab_STM32_IoT/iot_link/network/mqtt/paho_mqtt/port\paho_mqtt_port.c **** ///< receve function: return code:0 means timeout -1:failed  > receive length
 171:c:/Users/lenovo/Desktop/AIoT/first_day/firstday_afternoon/LiteOS_Lab_STM32_IoT/iot_link/network/mqtt/paho_mqtt/port\paho_mqtt_port.c **** static int __socket_read(void *ctx, unsigned char *buf, int len, int timeout)
 172:c:/Users/lenovo/Desktop/AIoT/first_day/firstday_afternoon/LiteOS_Lab_STM32_IoT/iot_link/network/mqtt/paho_mqtt/port\paho_mqtt_port.c **** {
 439              		.loc 2 172 1
 440              		.cfi_startproc
 441              		@ args = 0, pretend = 0, frame = 48
 442              		@ frame_needed = 1, uses_anonymous_args = 0
 443 0000 80B5     		push	{r7, lr}
 444              	.LCFI26:
 445              		.cfi_def_cfa_offset 8
 446              		.cfi_offset 7, -8
 447              		.cfi_offset 14, -4
 448 0002 8EB0     		sub	sp, sp, #56
 449              	.LCFI27:
 450              		.cfi_def_cfa_offset 64
 451 0004 02AF     		add	r7, sp, #8
 452              	.LCFI28:
 453              		.cfi_def_cfa 7, 56
 454 0006 F860     		str	r0, [r7, #12]
 455 0008 B960     		str	r1, [r7, #8]
 456 000a 7A60     		str	r2, [r7, #4]
 457 000c 3B60     		str	r3, [r7]
ARM GAS  C:\Users\lenovo\AppData\Local\Temp\ccxMpoX7.s 			page 16


 173:c:/Users/lenovo/Desktop/AIoT/first_day/firstday_afternoon/LiteOS_Lab_STM32_IoT/iot_link/network/mqtt/paho_mqtt/port\paho_mqtt_port.c ****     int fd;
 174:c:/Users/lenovo/Desktop/AIoT/first_day/firstday_afternoon/LiteOS_Lab_STM32_IoT/iot_link/network/mqtt/paho_mqtt/port\paho_mqtt_port.c ****     int ret = 0;
 458              		.loc 2 174 9
 459 000e 0023     		movs	r3, #0
 460 0010 FB62     		str	r3, [r7, #44]
 175:c:/Users/lenovo/Desktop/AIoT/first_day/firstday_afternoon/LiteOS_Lab_STM32_IoT/iot_link/network/mqtt/paho_mqtt/port\paho_mqtt_port.c ****     int rcvlen = -1;
 461              		.loc 2 175 9
 462 0012 4FF0FF33 		mov	r3, #-1
 463 0016 BB62     		str	r3, [r7, #40]
 176:c:/Users/lenovo/Desktop/AIoT/first_day/firstday_afternoon/LiteOS_Lab_STM32_IoT/iot_link/network/mqtt/paho_mqtt/port\paho_mqtt_port.c **** 
 177:c:/Users/lenovo/Desktop/AIoT/first_day/firstday_afternoon/LiteOS_Lab_STM32_IoT/iot_link/network/mqtt/paho_mqtt/port\paho_mqtt_port.c ****     struct timeval timedelay;
 178:c:/Users/lenovo/Desktop/AIoT/first_day/firstday_afternoon/LiteOS_Lab_STM32_IoT/iot_link/network/mqtt/paho_mqtt/port\paho_mqtt_port.c **** 
 179:c:/Users/lenovo/Desktop/AIoT/first_day/firstday_afternoon/LiteOS_Lab_STM32_IoT/iot_link/network/mqtt/paho_mqtt/port\paho_mqtt_port.c ****     if(NULL== buf)
 464              		.loc 2 179 7
 465 0018 BB68     		ldr	r3, [r7, #8]
 466 001a 002B     		cmp	r3, #0
 467 001c 01D1     		bne	.L29
 180:c:/Users/lenovo/Desktop/AIoT/first_day/firstday_afternoon/LiteOS_Lab_STM32_IoT/iot_link/network/mqtt/paho_mqtt/port\paho_mqtt_port.c ****     {
 181:c:/Users/lenovo/Desktop/AIoT/first_day/firstday_afternoon/LiteOS_Lab_STM32_IoT/iot_link/network/mqtt/paho_mqtt/port\paho_mqtt_port.c ****         return ret;
 468              		.loc 2 181 16
 469 001e FB6A     		ldr	r3, [r7, #44]
 470 0020 45E0     		b	.L35
 471              	.L29:
 182:c:/Users/lenovo/Desktop/AIoT/first_day/firstday_afternoon/LiteOS_Lab_STM32_IoT/iot_link/network/mqtt/paho_mqtt/port\paho_mqtt_port.c ****     }
 183:c:/Users/lenovo/Desktop/AIoT/first_day/firstday_afternoon/LiteOS_Lab_STM32_IoT/iot_link/network/mqtt/paho_mqtt/port\paho_mqtt_port.c **** 
 184:c:/Users/lenovo/Desktop/AIoT/first_day/firstday_afternoon/LiteOS_Lab_STM32_IoT/iot_link/network/mqtt/paho_mqtt/port\paho_mqtt_port.c ****     fd = (int)ctx;  ///< socket could be zero
 472              		.loc 2 184 8
 473 0022 FB68     		ldr	r3, [r7, #12]
 474 0024 7B62     		str	r3, [r7, #36]
 185:c:/Users/lenovo/Desktop/AIoT/first_day/firstday_afternoon/LiteOS_Lab_STM32_IoT/iot_link/network/mqtt/paho_mqtt/port\paho_mqtt_port.c **** 
 186:c:/Users/lenovo/Desktop/AIoT/first_day/firstday_afternoon/LiteOS_Lab_STM32_IoT/iot_link/network/mqtt/paho_mqtt/port\paho_mqtt_port.c ****     timedelay.tv_sec = timeout/1000;
 475              		.loc 2 186 31
 476 0026 3B68     		ldr	r3, [r7]
 477 0028 234A     		ldr	r2, .L36
 478 002a 82FB0312 		smull	r1, r2, r2, r3
 479 002e 9211     		asrs	r2, r2, #6
 480 0030 DB17     		asrs	r3, r3, #31
 481 0032 D31A     		subs	r3, r2, r3
 482 0034 1A46     		mov	r2, r3
 483 0036 4FEAE273 		asr	r3, r2, #31
 484              		.loc 2 186 22
 485 003a C7E90423 		strd	r2, [r7, #16]
 187:c:/Users/lenovo/Desktop/AIoT/first_day/firstday_afternoon/LiteOS_Lab_STM32_IoT/iot_link/network/mqtt/paho_mqtt/port\paho_mqtt_port.c ****     timedelay.tv_usec = (timeout%1000)*1000;
 486              		.loc 2 187 33
 487 003e 3A68     		ldr	r2, [r7]
 488 0040 1D4B     		ldr	r3, .L36
 489 0042 83FB0213 		smull	r1, r3, r3, r2
 490 0046 9911     		asrs	r1, r3, #6
 491 0048 D317     		asrs	r3, r2, #31
 492 004a CB1A     		subs	r3, r1, r3
 493 004c 4FF47A71 		mov	r1, #1000
 494 0050 01FB03F3 		mul	r3, r1, r3
 495 0054 D31A     		subs	r3, r2, r3
 496              		.loc 2 187 39
 497 0056 4FF47A72 		mov	r2, #1000
 498 005a 02FB03F3 		mul	r3, r2, r3
 499              		.loc 2 187 23
ARM GAS  C:\Users\lenovo\AppData\Local\Temp\ccxMpoX7.s 			page 17


 500 005e BB61     		str	r3, [r7, #24]
 188:c:/Users/lenovo/Desktop/AIoT/first_day/firstday_afternoon/LiteOS_Lab_STM32_IoT/iot_link/network/mqtt/paho_mqtt/port\paho_mqtt_port.c **** 
 189:c:/Users/lenovo/Desktop/AIoT/first_day/firstday_afternoon/LiteOS_Lab_STM32_IoT/iot_link/network/mqtt/paho_mqtt/port\paho_mqtt_port.c ****     ///< set the recv timeout
 190:c:/Users/lenovo/Desktop/AIoT/first_day/firstday_afternoon/LiteOS_Lab_STM32_IoT/iot_link/network/mqtt/paho_mqtt/port\paho_mqtt_port.c ****     if(0 != sal_setsockopt(fd,SOL_SOCKET,SO_RCVTIMEO,&timedelay,sizeof(timedelay)))
 501              		.loc 2 190 13
 502 0060 07F11003 		add	r3, r7, #16
 503 0064 1022     		movs	r2, #16
 504 0066 0092     		str	r2, [sp]
 505 0068 41F20602 		movw	r2, #4102
 506 006c 4FF6FF71 		movw	r1, #65535
 507 0070 786A     		ldr	r0, [r7, #36]
 508 0072 FFF7FEFF 		bl	sal_setsockopt
 509 0076 0346     		mov	r3, r0
 510              		.loc 2 190 7
 511 0078 002B     		cmp	r3, #0
 512 007a 01D0     		beq	.L31
 191:c:/Users/lenovo/Desktop/AIoT/first_day/firstday_afternoon/LiteOS_Lab_STM32_IoT/iot_link/network/mqtt/paho_mqtt/port\paho_mqtt_port.c ****     {
 192:c:/Users/lenovo/Desktop/AIoT/first_day/firstday_afternoon/LiteOS_Lab_STM32_IoT/iot_link/network/mqtt/paho_mqtt/port\paho_mqtt_port.c ****         return ret;  //could not support the rcv timeout
 513              		.loc 2 192 16
 514 007c FB6A     		ldr	r3, [r7, #44]
 515 007e 16E0     		b	.L35
 516              	.L31:
 193:c:/Users/lenovo/Desktop/AIoT/first_day/firstday_afternoon/LiteOS_Lab_STM32_IoT/iot_link/network/mqtt/paho_mqtt/port\paho_mqtt_port.c ****     }
 194:c:/Users/lenovo/Desktop/AIoT/first_day/firstday_afternoon/LiteOS_Lab_STM32_IoT/iot_link/network/mqtt/paho_mqtt/port\paho_mqtt_port.c **** 
 195:c:/Users/lenovo/Desktop/AIoT/first_day/firstday_afternoon/LiteOS_Lab_STM32_IoT/iot_link/network/mqtt/paho_mqtt/port\paho_mqtt_port.c ****     rcvlen = sal_recv(fd,buf,len,0);
 517              		.loc 2 195 14
 518 0080 7A68     		ldr	r2, [r7, #4]
 519 0082 0023     		movs	r3, #0
 520 0084 B968     		ldr	r1, [r7, #8]
 521 0086 786A     		ldr	r0, [r7, #36]
 522 0088 FFF7FEFF 		bl	sal_recv
 523 008c B862     		str	r0, [r7, #40]
 196:c:/Users/lenovo/Desktop/AIoT/first_day/firstday_afternoon/LiteOS_Lab_STM32_IoT/iot_link/network/mqtt/paho_mqtt/port\paho_mqtt_port.c ****     if(rcvlen == 0)
 524              		.loc 2 196 7
 525 008e BB6A     		ldr	r3, [r7, #40]
 526 0090 002B     		cmp	r3, #0
 527 0092 03D1     		bne	.L32
 197:c:/Users/lenovo/Desktop/AIoT/first_day/firstday_afternoon/LiteOS_Lab_STM32_IoT/iot_link/network/mqtt/paho_mqtt/port\paho_mqtt_port.c ****     {
 198:c:/Users/lenovo/Desktop/AIoT/first_day/firstday_afternoon/LiteOS_Lab_STM32_IoT/iot_link/network/mqtt/paho_mqtt/port\paho_mqtt_port.c ****         ret = -1;
 528              		.loc 2 198 13
 529 0094 4FF0FF33 		mov	r3, #-1
 530 0098 FB62     		str	r3, [r7, #44]
 531 009a 07E0     		b	.L33
 532              	.L32:
 199:c:/Users/lenovo/Desktop/AIoT/first_day/firstday_afternoon/LiteOS_Lab_STM32_IoT/iot_link/network/mqtt/paho_mqtt/port\paho_mqtt_port.c ****     }
 200:c:/Users/lenovo/Desktop/AIoT/first_day/firstday_afternoon/LiteOS_Lab_STM32_IoT/iot_link/network/mqtt/paho_mqtt/port\paho_mqtt_port.c ****     else if(rcvlen < 0)
 533              		.loc 2 200 12
 534 009c BB6A     		ldr	r3, [r7, #40]
 535 009e 002B     		cmp	r3, #0
 536 00a0 02DA     		bge	.L34
 201:c:/Users/lenovo/Desktop/AIoT/first_day/firstday_afternoon/LiteOS_Lab_STM32_IoT/iot_link/network/mqtt/paho_mqtt/port\paho_mqtt_port.c ****     {
 202:c:/Users/lenovo/Desktop/AIoT/first_day/firstday_afternoon/LiteOS_Lab_STM32_IoT/iot_link/network/mqtt/paho_mqtt/port\paho_mqtt_port.c ****         ret = 0;
 537              		.loc 2 202 13
 538 00a2 0023     		movs	r3, #0
 539 00a4 FB62     		str	r3, [r7, #44]
 540 00a6 01E0     		b	.L33
 541              	.L34:
ARM GAS  C:\Users\lenovo\AppData\Local\Temp\ccxMpoX7.s 			page 18


 203:c:/Users/lenovo/Desktop/AIoT/first_day/firstday_afternoon/LiteOS_Lab_STM32_IoT/iot_link/network/mqtt/paho_mqtt/port\paho_mqtt_port.c ****     }
 204:c:/Users/lenovo/Desktop/AIoT/first_day/firstday_afternoon/LiteOS_Lab_STM32_IoT/iot_link/network/mqtt/paho_mqtt/port\paho_mqtt_port.c ****     else
 205:c:/Users/lenovo/Desktop/AIoT/first_day/firstday_afternoon/LiteOS_Lab_STM32_IoT/iot_link/network/mqtt/paho_mqtt/port\paho_mqtt_port.c ****     {
 206:c:/Users/lenovo/Desktop/AIoT/first_day/firstday_afternoon/LiteOS_Lab_STM32_IoT/iot_link/network/mqtt/paho_mqtt/port\paho_mqtt_port.c ****         ret = rcvlen;
 542              		.loc 2 206 13
 543 00a8 BB6A     		ldr	r3, [r7, #40]
 544 00aa FB62     		str	r3, [r7, #44]
 545              	.L33:
 207:c:/Users/lenovo/Desktop/AIoT/first_day/firstday_afternoon/LiteOS_Lab_STM32_IoT/iot_link/network/mqtt/paho_mqtt/port\paho_mqtt_port.c ****     }
 208:c:/Users/lenovo/Desktop/AIoT/first_day/firstday_afternoon/LiteOS_Lab_STM32_IoT/iot_link/network/mqtt/paho_mqtt/port\paho_mqtt_port.c ****     return ret;
 546              		.loc 2 208 12
 547 00ac FB6A     		ldr	r3, [r7, #44]
 548              	.L35:
 209:c:/Users/lenovo/Desktop/AIoT/first_day/firstday_afternoon/LiteOS_Lab_STM32_IoT/iot_link/network/mqtt/paho_mqtt/port\paho_mqtt_port.c **** }
 549              		.loc 2 209 1 discriminator 1
 550 00ae 1846     		mov	r0, r3
 551 00b0 3037     		adds	r7, r7, #48
 552              	.LCFI29:
 553              		.cfi_def_cfa_offset 8
 554 00b2 BD46     		mov	sp, r7
 555              	.LCFI30:
 556              		.cfi_def_cfa_register 13
 557              		@ sp needed
 558 00b4 80BD     		pop	{r7, pc}
 559              	.L37:
 560 00b6 00BF     		.align	2
 561              	.L36:
 562 00b8 D34D6210 		.word	274877907
 563              		.cfi_endproc
 564              	.LFE8:
 566              		.section	.text.__socket_write,"ax",%progbits
 567              		.align	1
 568              		.syntax unified
 569              		.thumb
 570              		.thumb_func
 571              		.fpu fpv4-sp-d16
 573              	__socket_write:
 574              	.LFB9:
 210:c:/Users/lenovo/Desktop/AIoT/first_day/firstday_afternoon/LiteOS_Lab_STM32_IoT/iot_link/network/mqtt/paho_mqtt/port\paho_mqtt_port.c **** 
 211:c:/Users/lenovo/Desktop/AIoT/first_day/firstday_afternoon/LiteOS_Lab_STM32_IoT/iot_link/network/mqtt/paho_mqtt/port\paho_mqtt_port.c **** 
 212:c:/Users/lenovo/Desktop/AIoT/first_day/firstday_afternoon/LiteOS_Lab_STM32_IoT/iot_link/network/mqtt/paho_mqtt/port\paho_mqtt_port.c **** ///< receve function: return code:0 means timeout -1:failed  > receive length
 213:c:/Users/lenovo/Desktop/AIoT/first_day/firstday_afternoon/LiteOS_Lab_STM32_IoT/iot_link/network/mqtt/paho_mqtt/port\paho_mqtt_port.c **** static int __socket_write(void *ctx, unsigned char *buf, int len, int timeout)
 214:c:/Users/lenovo/Desktop/AIoT/first_day/firstday_afternoon/LiteOS_Lab_STM32_IoT/iot_link/network/mqtt/paho_mqtt/port\paho_mqtt_port.c **** {
 575              		.loc 2 214 1
 576              		.cfi_startproc
 577              		@ args = 0, pretend = 0, frame = 48
 578              		@ frame_needed = 1, uses_anonymous_args = 0
 579 0000 80B5     		push	{r7, lr}
 580              	.LCFI31:
 581              		.cfi_def_cfa_offset 8
 582              		.cfi_offset 7, -8
 583              		.cfi_offset 14, -4
 584 0002 8EB0     		sub	sp, sp, #56
 585              	.LCFI32:
 586              		.cfi_def_cfa_offset 64
 587 0004 02AF     		add	r7, sp, #8
 588              	.LCFI33:
ARM GAS  C:\Users\lenovo\AppData\Local\Temp\ccxMpoX7.s 			page 19


 589              		.cfi_def_cfa 7, 56
 590 0006 F860     		str	r0, [r7, #12]
 591 0008 B960     		str	r1, [r7, #8]
 592 000a 7A60     		str	r2, [r7, #4]
 593 000c 3B60     		str	r3, [r7]
 215:c:/Users/lenovo/Desktop/AIoT/first_day/firstday_afternoon/LiteOS_Lab_STM32_IoT/iot_link/network/mqtt/paho_mqtt/port\paho_mqtt_port.c ****     int fd;
 216:c:/Users/lenovo/Desktop/AIoT/first_day/firstday_afternoon/LiteOS_Lab_STM32_IoT/iot_link/network/mqtt/paho_mqtt/port\paho_mqtt_port.c ****     int ret = 0;
 594              		.loc 2 216 9
 595 000e 0023     		movs	r3, #0
 596 0010 FB62     		str	r3, [r7, #44]
 217:c:/Users/lenovo/Desktop/AIoT/first_day/firstday_afternoon/LiteOS_Lab_STM32_IoT/iot_link/network/mqtt/paho_mqtt/port\paho_mqtt_port.c ****     int sndlen = -1;
 597              		.loc 2 217 9
 598 0012 4FF0FF33 		mov	r3, #-1
 599 0016 BB62     		str	r3, [r7, #40]
 218:c:/Users/lenovo/Desktop/AIoT/first_day/firstday_afternoon/LiteOS_Lab_STM32_IoT/iot_link/network/mqtt/paho_mqtt/port\paho_mqtt_port.c **** 
 219:c:/Users/lenovo/Desktop/AIoT/first_day/firstday_afternoon/LiteOS_Lab_STM32_IoT/iot_link/network/mqtt/paho_mqtt/port\paho_mqtt_port.c ****     struct timeval timedelay;
 220:c:/Users/lenovo/Desktop/AIoT/first_day/firstday_afternoon/LiteOS_Lab_STM32_IoT/iot_link/network/mqtt/paho_mqtt/port\paho_mqtt_port.c **** 
 221:c:/Users/lenovo/Desktop/AIoT/first_day/firstday_afternoon/LiteOS_Lab_STM32_IoT/iot_link/network/mqtt/paho_mqtt/port\paho_mqtt_port.c ****     if(NULL== buf)
 600              		.loc 2 221 7
 601 0018 BB68     		ldr	r3, [r7, #8]
 602 001a 002B     		cmp	r3, #0
 603 001c 01D1     		bne	.L39
 222:c:/Users/lenovo/Desktop/AIoT/first_day/firstday_afternoon/LiteOS_Lab_STM32_IoT/iot_link/network/mqtt/paho_mqtt/port\paho_mqtt_port.c ****     {
 223:c:/Users/lenovo/Desktop/AIoT/first_day/firstday_afternoon/LiteOS_Lab_STM32_IoT/iot_link/network/mqtt/paho_mqtt/port\paho_mqtt_port.c ****         return ret;
 604              		.loc 2 223 16
 605 001e FB6A     		ldr	r3, [r7, #44]
 606 0020 45E0     		b	.L45
 607              	.L39:
 224:c:/Users/lenovo/Desktop/AIoT/first_day/firstday_afternoon/LiteOS_Lab_STM32_IoT/iot_link/network/mqtt/paho_mqtt/port\paho_mqtt_port.c ****     }
 225:c:/Users/lenovo/Desktop/AIoT/first_day/firstday_afternoon/LiteOS_Lab_STM32_IoT/iot_link/network/mqtt/paho_mqtt/port\paho_mqtt_port.c **** 
 226:c:/Users/lenovo/Desktop/AIoT/first_day/firstday_afternoon/LiteOS_Lab_STM32_IoT/iot_link/network/mqtt/paho_mqtt/port\paho_mqtt_port.c ****     fd = (int)ctx;  ///< THE SOCKET COULD BE ZERO
 608              		.loc 2 226 8
 609 0022 FB68     		ldr	r3, [r7, #12]
 610 0024 7B62     		str	r3, [r7, #36]
 227:c:/Users/lenovo/Desktop/AIoT/first_day/firstday_afternoon/LiteOS_Lab_STM32_IoT/iot_link/network/mqtt/paho_mqtt/port\paho_mqtt_port.c **** 
 228:c:/Users/lenovo/Desktop/AIoT/first_day/firstday_afternoon/LiteOS_Lab_STM32_IoT/iot_link/network/mqtt/paho_mqtt/port\paho_mqtt_port.c ****     timedelay.tv_sec = timeout/1000;
 611              		.loc 2 228 31
 612 0026 3B68     		ldr	r3, [r7]
 613 0028 234A     		ldr	r2, .L46
 614 002a 82FB0312 		smull	r1, r2, r2, r3
 615 002e 9211     		asrs	r2, r2, #6
 616 0030 DB17     		asrs	r3, r3, #31
 617 0032 D31A     		subs	r3, r2, r3
 618 0034 1A46     		mov	r2, r3
 619 0036 4FEAE273 		asr	r3, r2, #31
 620              		.loc 2 228 22
 621 003a C7E90423 		strd	r2, [r7, #16]
 229:c:/Users/lenovo/Desktop/AIoT/first_day/firstday_afternoon/LiteOS_Lab_STM32_IoT/iot_link/network/mqtt/paho_mqtt/port\paho_mqtt_port.c ****     timedelay.tv_usec = (timeout%1000)*1000;
 622              		.loc 2 229 33
 623 003e 3A68     		ldr	r2, [r7]
 624 0040 1D4B     		ldr	r3, .L46
 625 0042 83FB0213 		smull	r1, r3, r3, r2
 626 0046 9911     		asrs	r1, r3, #6
 627 0048 D317     		asrs	r3, r2, #31
 628 004a CB1A     		subs	r3, r1, r3
 629 004c 4FF47A71 		mov	r1, #1000
 630 0050 01FB03F3 		mul	r3, r1, r3
ARM GAS  C:\Users\lenovo\AppData\Local\Temp\ccxMpoX7.s 			page 20


 631 0054 D31A     		subs	r3, r2, r3
 632              		.loc 2 229 39
 633 0056 4FF47A72 		mov	r2, #1000
 634 005a 02FB03F3 		mul	r3, r2, r3
 635              		.loc 2 229 23
 636 005e BB61     		str	r3, [r7, #24]
 230:c:/Users/lenovo/Desktop/AIoT/first_day/firstday_afternoon/LiteOS_Lab_STM32_IoT/iot_link/network/mqtt/paho_mqtt/port\paho_mqtt_port.c **** 
 231:c:/Users/lenovo/Desktop/AIoT/first_day/firstday_afternoon/LiteOS_Lab_STM32_IoT/iot_link/network/mqtt/paho_mqtt/port\paho_mqtt_port.c ****     ///< set the recv timeout
 232:c:/Users/lenovo/Desktop/AIoT/first_day/firstday_afternoon/LiteOS_Lab_STM32_IoT/iot_link/network/mqtt/paho_mqtt/port\paho_mqtt_port.c ****     if(0 != sal_setsockopt(fd,SOL_SOCKET,SO_SNDTIMEO,&timedelay,sizeof(timedelay)))
 637              		.loc 2 232 13
 638 0060 07F11003 		add	r3, r7, #16
 639 0064 1022     		movs	r2, #16
 640 0066 0092     		str	r2, [sp]
 641 0068 41F20502 		movw	r2, #4101
 642 006c 4FF6FF71 		movw	r1, #65535
 643 0070 786A     		ldr	r0, [r7, #36]
 644 0072 FFF7FEFF 		bl	sal_setsockopt
 645 0076 0346     		mov	r3, r0
 646              		.loc 2 232 7
 647 0078 002B     		cmp	r3, #0
 648 007a 01D0     		beq	.L41
 233:c:/Users/lenovo/Desktop/AIoT/first_day/firstday_afternoon/LiteOS_Lab_STM32_IoT/iot_link/network/mqtt/paho_mqtt/port\paho_mqtt_port.c ****     {
 234:c:/Users/lenovo/Desktop/AIoT/first_day/firstday_afternoon/LiteOS_Lab_STM32_IoT/iot_link/network/mqtt/paho_mqtt/port\paho_mqtt_port.c ****         return ret;  //could not support the rcv timeout
 649              		.loc 2 234 16
 650 007c FB6A     		ldr	r3, [r7, #44]
 651 007e 16E0     		b	.L45
 652              	.L41:
 235:c:/Users/lenovo/Desktop/AIoT/first_day/firstday_afternoon/LiteOS_Lab_STM32_IoT/iot_link/network/mqtt/paho_mqtt/port\paho_mqtt_port.c ****     }
 236:c:/Users/lenovo/Desktop/AIoT/first_day/firstday_afternoon/LiteOS_Lab_STM32_IoT/iot_link/network/mqtt/paho_mqtt/port\paho_mqtt_port.c **** 
 237:c:/Users/lenovo/Desktop/AIoT/first_day/firstday_afternoon/LiteOS_Lab_STM32_IoT/iot_link/network/mqtt/paho_mqtt/port\paho_mqtt_port.c ****     sndlen = sal_send(fd,buf,len,0);
 653              		.loc 2 237 14
 654 0080 7A68     		ldr	r2, [r7, #4]
 655 0082 0023     		movs	r3, #0
 656 0084 B968     		ldr	r1, [r7, #8]
 657 0086 786A     		ldr	r0, [r7, #36]
 658 0088 FFF7FEFF 		bl	sal_send
 659 008c B862     		str	r0, [r7, #40]
 238:c:/Users/lenovo/Desktop/AIoT/first_day/firstday_afternoon/LiteOS_Lab_STM32_IoT/iot_link/network/mqtt/paho_mqtt/port\paho_mqtt_port.c ****     if(sndlen == 0)
 660              		.loc 2 238 7
 661 008e BB6A     		ldr	r3, [r7, #40]
 662 0090 002B     		cmp	r3, #0
 663 0092 03D1     		bne	.L42
 239:c:/Users/lenovo/Desktop/AIoT/first_day/firstday_afternoon/LiteOS_Lab_STM32_IoT/iot_link/network/mqtt/paho_mqtt/port\paho_mqtt_port.c ****     {
 240:c:/Users/lenovo/Desktop/AIoT/first_day/firstday_afternoon/LiteOS_Lab_STM32_IoT/iot_link/network/mqtt/paho_mqtt/port\paho_mqtt_port.c ****         ret = -1;
 664              		.loc 2 240 13
 665 0094 4FF0FF33 		mov	r3, #-1
 666 0098 FB62     		str	r3, [r7, #44]
 667 009a 07E0     		b	.L43
 668              	.L42:
 241:c:/Users/lenovo/Desktop/AIoT/first_day/firstday_afternoon/LiteOS_Lab_STM32_IoT/iot_link/network/mqtt/paho_mqtt/port\paho_mqtt_port.c ****     }
 242:c:/Users/lenovo/Desktop/AIoT/first_day/firstday_afternoon/LiteOS_Lab_STM32_IoT/iot_link/network/mqtt/paho_mqtt/port\paho_mqtt_port.c ****     else if(sndlen < 0)
 669              		.loc 2 242 12
 670 009c BB6A     		ldr	r3, [r7, #40]
 671 009e 002B     		cmp	r3, #0
 672 00a0 02DA     		bge	.L44
 243:c:/Users/lenovo/Desktop/AIoT/first_day/firstday_afternoon/LiteOS_Lab_STM32_IoT/iot_link/network/mqtt/paho_mqtt/port\paho_mqtt_port.c ****     {
 244:c:/Users/lenovo/Desktop/AIoT/first_day/firstday_afternoon/LiteOS_Lab_STM32_IoT/iot_link/network/mqtt/paho_mqtt/port\paho_mqtt_port.c ****         ret = 0;
ARM GAS  C:\Users\lenovo\AppData\Local\Temp\ccxMpoX7.s 			page 21


 673              		.loc 2 244 13
 674 00a2 0023     		movs	r3, #0
 675 00a4 FB62     		str	r3, [r7, #44]
 676 00a6 01E0     		b	.L43
 677              	.L44:
 245:c:/Users/lenovo/Desktop/AIoT/first_day/firstday_afternoon/LiteOS_Lab_STM32_IoT/iot_link/network/mqtt/paho_mqtt/port\paho_mqtt_port.c ****     }
 246:c:/Users/lenovo/Desktop/AIoT/first_day/firstday_afternoon/LiteOS_Lab_STM32_IoT/iot_link/network/mqtt/paho_mqtt/port\paho_mqtt_port.c ****     else
 247:c:/Users/lenovo/Desktop/AIoT/first_day/firstday_afternoon/LiteOS_Lab_STM32_IoT/iot_link/network/mqtt/paho_mqtt/port\paho_mqtt_port.c ****     {
 248:c:/Users/lenovo/Desktop/AIoT/first_day/firstday_afternoon/LiteOS_Lab_STM32_IoT/iot_link/network/mqtt/paho_mqtt/port\paho_mqtt_port.c ****         ret = sndlen;
 678              		.loc 2 248 13
 679 00a8 BB6A     		ldr	r3, [r7, #40]
 680 00aa FB62     		str	r3, [r7, #44]
 681              	.L43:
 249:c:/Users/lenovo/Desktop/AIoT/first_day/firstday_afternoon/LiteOS_Lab_STM32_IoT/iot_link/network/mqtt/paho_mqtt/port\paho_mqtt_port.c ****     }
 250:c:/Users/lenovo/Desktop/AIoT/first_day/firstday_afternoon/LiteOS_Lab_STM32_IoT/iot_link/network/mqtt/paho_mqtt/port\paho_mqtt_port.c ****     return ret;
 682              		.loc 2 250 12
 683 00ac FB6A     		ldr	r3, [r7, #44]
 684              	.L45:
 251:c:/Users/lenovo/Desktop/AIoT/first_day/firstday_afternoon/LiteOS_Lab_STM32_IoT/iot_link/network/mqtt/paho_mqtt/port\paho_mqtt_port.c **** }
 685              		.loc 2 251 1 discriminator 1
 686 00ae 1846     		mov	r0, r3
 687 00b0 3037     		adds	r7, r7, #48
 688              	.LCFI34:
 689              		.cfi_def_cfa_offset 8
 690 00b2 BD46     		mov	sp, r7
 691              	.LCFI35:
 692              		.cfi_def_cfa_register 13
 693              		@ sp needed
 694 00b4 80BD     		pop	{r7, pc}
 695              	.L47:
 696 00b6 00BF     		.align	2
 697              	.L46:
 698 00b8 D34D6210 		.word	274877907
 699              		.cfi_endproc
 700              	.LFE9:
 702              		.section	.text.__socket_disconnect,"ax",%progbits
 703              		.align	1
 704              		.syntax unified
 705              		.thumb
 706              		.thumb_func
 707              		.fpu fpv4-sp-d16
 709              	__socket_disconnect:
 710              	.LFB10:
 252:c:/Users/lenovo/Desktop/AIoT/first_day/firstday_afternoon/LiteOS_Lab_STM32_IoT/iot_link/network/mqtt/paho_mqtt/port\paho_mqtt_port.c **** static void __socket_disconnect(void *ctx)
 253:c:/Users/lenovo/Desktop/AIoT/first_day/firstday_afternoon/LiteOS_Lab_STM32_IoT/iot_link/network/mqtt/paho_mqtt/port\paho_mqtt_port.c **** {
 711              		.loc 2 253 1
 712              		.cfi_startproc
 713              		@ args = 0, pretend = 0, frame = 8
 714              		@ frame_needed = 1, uses_anonymous_args = 0
 715 0000 80B5     		push	{r7, lr}
 716              	.LCFI36:
 717              		.cfi_def_cfa_offset 8
 718              		.cfi_offset 7, -8
 719              		.cfi_offset 14, -4
 720 0002 82B0     		sub	sp, sp, #8
 721              	.LCFI37:
 722              		.cfi_def_cfa_offset 16
ARM GAS  C:\Users\lenovo\AppData\Local\Temp\ccxMpoX7.s 			page 22


 723 0004 00AF     		add	r7, sp, #0
 724              	.LCFI38:
 725              		.cfi_def_cfa_register 7
 726 0006 7860     		str	r0, [r7, #4]
 254:c:/Users/lenovo/Desktop/AIoT/first_day/firstday_afternoon/LiteOS_Lab_STM32_IoT/iot_link/network/mqtt/paho_mqtt/port\paho_mqtt_port.c ****     sal_closesocket((int)ctx);
 727              		.loc 2 254 5
 728 0008 7B68     		ldr	r3, [r7, #4]
 729 000a 1846     		mov	r0, r3
 730 000c FFF7FEFF 		bl	sal_closesocket
 255:c:/Users/lenovo/Desktop/AIoT/first_day/firstday_afternoon/LiteOS_Lab_STM32_IoT/iot_link/network/mqtt/paho_mqtt/port\paho_mqtt_port.c ****     return;
 731              		.loc 2 255 5
 732 0010 00BF     		nop
 256:c:/Users/lenovo/Desktop/AIoT/first_day/firstday_afternoon/LiteOS_Lab_STM32_IoT/iot_link/network/mqtt/paho_mqtt/port\paho_mqtt_port.c **** }
 733              		.loc 2 256 1
 734 0012 0837     		adds	r7, r7, #8
 735              	.LCFI39:
 736              		.cfi_def_cfa_offset 8
 737 0014 BD46     		mov	sp, r7
 738              	.LCFI40:
 739              		.cfi_def_cfa_register 13
 740              		@ sp needed
 741 0016 80BD     		pop	{r7, pc}
 742              		.cfi_endproc
 743              	.LFE10:
 745              		.section	.text.__socket_connect,"ax",%progbits
 746              		.align	1
 747              		.syntax unified
 748              		.thumb
 749              		.thumb_func
 750              		.fpu fpv4-sp-d16
 752              	__socket_connect:
 753              	.LFB11:
 257:c:/Users/lenovo/Desktop/AIoT/first_day/firstday_afternoon/LiteOS_Lab_STM32_IoT/iot_link/network/mqtt/paho_mqtt/port\paho_mqtt_port.c **** static int __socket_connect(Network *n, const char *host, int port)
 258:c:/Users/lenovo/Desktop/AIoT/first_day/firstday_afternoon/LiteOS_Lab_STM32_IoT/iot_link/network/mqtt/paho_mqtt/port\paho_mqtt_port.c **** {
 754              		.loc 2 258 1
 755              		.cfi_startproc
 756              		@ args = 0, pretend = 0, frame = 48
 757              		@ frame_needed = 1, uses_anonymous_args = 0
 758 0000 80B5     		push	{r7, lr}
 759              	.LCFI41:
 760              		.cfi_def_cfa_offset 8
 761              		.cfi_offset 7, -8
 762              		.cfi_offset 14, -4
 763 0002 8CB0     		sub	sp, sp, #48
 764              	.LCFI42:
 765              		.cfi_def_cfa_offset 56
 766 0004 00AF     		add	r7, sp, #0
 767              	.LCFI43:
 768              		.cfi_def_cfa_register 7
 769 0006 F860     		str	r0, [r7, #12]
 770 0008 B960     		str	r1, [r7, #8]
 771 000a 7A60     		str	r2, [r7, #4]
 259:c:/Users/lenovo/Desktop/AIoT/first_day/firstday_afternoon/LiteOS_Lab_STM32_IoT/iot_link/network/mqtt/paho_mqtt/port\paho_mqtt_port.c ****     int ret = -1;
 772              		.loc 2 259 9
 773 000c 4FF0FF33 		mov	r3, #-1
 774 0010 FB62     		str	r3, [r7, #44]
 260:c:/Users/lenovo/Desktop/AIoT/first_day/firstday_afternoon/LiteOS_Lab_STM32_IoT/iot_link/network/mqtt/paho_mqtt/port\paho_mqtt_port.c ****     int fd = -1;
ARM GAS  C:\Users\lenovo\AppData\Local\Temp\ccxMpoX7.s 			page 23


 775              		.loc 2 260 9
 776 0012 4FF0FF33 		mov	r3, #-1
 777 0016 BB62     		str	r3, [r7, #40]
 261:c:/Users/lenovo/Desktop/AIoT/first_day/firstday_afternoon/LiteOS_Lab_STM32_IoT/iot_link/network/mqtt/paho_mqtt/port\paho_mqtt_port.c ****     struct sockaddr_in addr;
 262:c:/Users/lenovo/Desktop/AIoT/first_day/firstday_afternoon/LiteOS_Lab_STM32_IoT/iot_link/network/mqtt/paho_mqtt/port\paho_mqtt_port.c **** 
 263:c:/Users/lenovo/Desktop/AIoT/first_day/firstday_afternoon/LiteOS_Lab_STM32_IoT/iot_link/network/mqtt/paho_mqtt/port\paho_mqtt_port.c ****     ///< first we try use the gethostbyname to get the ip address, the host maybe a domain name
 264:c:/Users/lenovo/Desktop/AIoT/first_day/firstday_afternoon/LiteOS_Lab_STM32_IoT/iot_link/network/mqtt/paho_mqtt/port\paho_mqtt_port.c ****     struct hostent* entry = NULL;
 778              		.loc 2 264 21
 779 0018 0023     		movs	r3, #0
 780 001a 7B62     		str	r3, [r7, #36]
 265:c:/Users/lenovo/Desktop/AIoT/first_day/firstday_afternoon/LiteOS_Lab_STM32_IoT/iot_link/network/mqtt/paho_mqtt/port\paho_mqtt_port.c ****     entry = sal_gethostbyname(host);
 781              		.loc 2 265 13
 782 001c B868     		ldr	r0, [r7, #8]
 783 001e FFF7FEFF 		bl	sal_gethostbyname
 784 0022 7862     		str	r0, [r7, #36]
 266:c:/Users/lenovo/Desktop/AIoT/first_day/firstday_afternoon/LiteOS_Lab_STM32_IoT/iot_link/network/mqtt/paho_mqtt/port\paho_mqtt_port.c ****     if( !(entry && entry->h_addr_list[0] && (entry->h_addrtype == AF_INET)))
 785              		.loc 2 266 7
 786 0024 7B6A     		ldr	r3, [r7, #36]
 787 0026 002B     		cmp	r3, #0
 788 0028 08D0     		beq	.L51
 789              		.loc 2 266 25 discriminator 1
 790 002a 7B6A     		ldr	r3, [r7, #36]
 791 002c 1B69     		ldr	r3, [r3, #16]
 792              		.loc 2 266 38 discriminator 1
 793 002e 1B68     		ldr	r3, [r3]
 794              		.loc 2 266 17 discriminator 1
 795 0030 002B     		cmp	r3, #0
 796 0032 03D0     		beq	.L51
 797              		.loc 2 266 51 discriminator 2
 798 0034 7B6A     		ldr	r3, [r7, #36]
 799 0036 9B68     		ldr	r3, [r3, #8]
 800              		.loc 2 266 9 discriminator 2
 801 0038 022B     		cmp	r3, #2
 802 003a 01D0     		beq	.L52
 803              	.L51:
 267:c:/Users/lenovo/Desktop/AIoT/first_day/firstday_afternoon/LiteOS_Lab_STM32_IoT/iot_link/network/mqtt/paho_mqtt/port\paho_mqtt_port.c ****     {
 268:c:/Users/lenovo/Desktop/AIoT/first_day/firstday_afternoon/LiteOS_Lab_STM32_IoT/iot_link/network/mqtt/paho_mqtt/port\paho_mqtt_port.c ****        return ret;
 804              		.loc 2 268 15
 805 003c FB6A     		ldr	r3, [r7, #44]
 806 003e 3BE0     		b	.L57
 807              	.L52:
 269:c:/Users/lenovo/Desktop/AIoT/first_day/firstday_afternoon/LiteOS_Lab_STM32_IoT/iot_link/network/mqtt/paho_mqtt/port\paho_mqtt_port.c ****     }
 270:c:/Users/lenovo/Desktop/AIoT/first_day/firstday_afternoon/LiteOS_Lab_STM32_IoT/iot_link/network/mqtt/paho_mqtt/port\paho_mqtt_port.c **** 
 271:c:/Users/lenovo/Desktop/AIoT/first_day/firstday_afternoon/LiteOS_Lab_STM32_IoT/iot_link/network/mqtt/paho_mqtt/port\paho_mqtt_port.c ****     fd = sal_socket(AF_INET,SOCK_STREAM,0);
 808              		.loc 2 271 10
 809 0040 0022     		movs	r2, #0
 810 0042 0121     		movs	r1, #1
 811 0044 0220     		movs	r0, #2
 812 0046 FFF7FEFF 		bl	sal_socket
 813 004a B862     		str	r0, [r7, #40]
 272:c:/Users/lenovo/Desktop/AIoT/first_day/firstday_afternoon/LiteOS_Lab_STM32_IoT/iot_link/network/mqtt/paho_mqtt/port\paho_mqtt_port.c ****     if(fd == -1)
 814              		.loc 2 272 7
 815 004c BB6A     		ldr	r3, [r7, #40]
 816 004e B3F1FF3F 		cmp	r3, #-1
 817 0052 01D1     		bne	.L54
 273:c:/Users/lenovo/Desktop/AIoT/first_day/firstday_afternoon/LiteOS_Lab_STM32_IoT/iot_link/network/mqtt/paho_mqtt/port\paho_mqtt_port.c ****     {
 274:c:/Users/lenovo/Desktop/AIoT/first_day/firstday_afternoon/LiteOS_Lab_STM32_IoT/iot_link/network/mqtt/paho_mqtt/port\paho_mqtt_port.c ****         return ret;
ARM GAS  C:\Users\lenovo\AppData\Local\Temp\ccxMpoX7.s 			page 24


 818              		.loc 2 274 16
 819 0054 FB6A     		ldr	r3, [r7, #44]
 820 0056 2FE0     		b	.L57
 821              	.L54:
 275:c:/Users/lenovo/Desktop/AIoT/first_day/firstday_afternoon/LiteOS_Lab_STM32_IoT/iot_link/network/mqtt/paho_mqtt/port\paho_mqtt_port.c ****     }
 276:c:/Users/lenovo/Desktop/AIoT/first_day/firstday_afternoon/LiteOS_Lab_STM32_IoT/iot_link/network/mqtt/paho_mqtt/port\paho_mqtt_port.c **** 
 277:c:/Users/lenovo/Desktop/AIoT/first_day/firstday_afternoon/LiteOS_Lab_STM32_IoT/iot_link/network/mqtt/paho_mqtt/port\paho_mqtt_port.c **** 
 278:c:/Users/lenovo/Desktop/AIoT/first_day/firstday_afternoon/LiteOS_Lab_STM32_IoT/iot_link/network/mqtt/paho_mqtt/port\paho_mqtt_port.c ****     memset(&addr,0,sizeof(addr));
 822              		.loc 2 278 5
 823 0058 07F11403 		add	r3, r7, #20
 824 005c 1022     		movs	r2, #16
 825 005e 0021     		movs	r1, #0
 826 0060 1846     		mov	r0, r3
 827 0062 FFF7FEFF 		bl	memset
 279:c:/Users/lenovo/Desktop/AIoT/first_day/firstday_afternoon/LiteOS_Lab_STM32_IoT/iot_link/network/mqtt/paho_mqtt/port\paho_mqtt_port.c ****     addr.sin_family = AF_INET;
 828              		.loc 2 279 21
 829 0066 0223     		movs	r3, #2
 830 0068 BB82     		strh	r3, [r7, #20]	@ movhi
 280:c:/Users/lenovo/Desktop/AIoT/first_day/firstday_afternoon/LiteOS_Lab_STM32_IoT/iot_link/network/mqtt/paho_mqtt/port\paho_mqtt_port.c ****     memcpy(&addr.sin_addr.s_addr,entry->h_addr_list[0],sizeof(addr.sin_addr.s_addr));
 831              		.loc 2 280 39
 832 006a 7B6A     		ldr	r3, [r7, #36]
 833 006c 1B69     		ldr	r3, [r3, #16]
 834              		.loc 2 280 5
 835 006e 1B68     		ldr	r3, [r3]
 836 0070 1B68     		ldr	r3, [r3]	@ unaligned
 837 0072 BB61     		str	r3, [r7, #24]
 281:c:/Users/lenovo/Desktop/AIoT/first_day/firstday_afternoon/LiteOS_Lab_STM32_IoT/iot_link/network/mqtt/paho_mqtt/port\paho_mqtt_port.c ****     addr.sin_port = htons(((uint16_t)port));
 838              		.loc 2 281 21
 839 0074 7B68     		ldr	r3, [r7, #4]
 840 0076 9BB2     		uxth	r3, r3
 841 0078 1B0A     		lsrs	r3, r3, #8
 842 007a 9BB2     		uxth	r3, r3
 843 007c 1AB2     		sxth	r2, r3
 844 007e 7B68     		ldr	r3, [r7, #4]
 845 0080 9BB2     		uxth	r3, r3
 846 0082 1B02     		lsls	r3, r3, #8
 847 0084 1BB2     		sxth	r3, r3
 848 0086 1343     		orrs	r3, r3, r2
 849 0088 1BB2     		sxth	r3, r3
 850 008a 9BB2     		uxth	r3, r3
 851              		.loc 2 281 19
 852 008c FB82     		strh	r3, [r7, #22]	@ movhi
 282:c:/Users/lenovo/Desktop/AIoT/first_day/firstday_afternoon/LiteOS_Lab_STM32_IoT/iot_link/network/mqtt/paho_mqtt/port\paho_mqtt_port.c **** 
 283:c:/Users/lenovo/Desktop/AIoT/first_day/firstday_afternoon/LiteOS_Lab_STM32_IoT/iot_link/network/mqtt/paho_mqtt/port\paho_mqtt_port.c ****     if(-1 == sal_connect(fd,(struct sockaddr *)&addr,sizeof(addr)))
 853              		.loc 2 283 14
 854 008e 07F11403 		add	r3, r7, #20
 855 0092 1022     		movs	r2, #16
 856 0094 1946     		mov	r1, r3
 857 0096 B86A     		ldr	r0, [r7, #40]
 858 0098 FFF7FEFF 		bl	sal_connect
 859 009c 0346     		mov	r3, r0
 860              		.loc 2 283 7
 861 009e B3F1FF3F 		cmp	r3, #-1
 862 00a2 03D1     		bne	.L55
 284:c:/Users/lenovo/Desktop/AIoT/first_day/firstday_afternoon/LiteOS_Lab_STM32_IoT/iot_link/network/mqtt/paho_mqtt/port\paho_mqtt_port.c ****     {
 285:c:/Users/lenovo/Desktop/AIoT/first_day/firstday_afternoon/LiteOS_Lab_STM32_IoT/iot_link/network/mqtt/paho_mqtt/port\paho_mqtt_port.c ****         sal_closesocket(fd);
 863              		.loc 2 285 9
ARM GAS  C:\Users\lenovo\AppData\Local\Temp\ccxMpoX7.s 			page 25


 864 00a4 B86A     		ldr	r0, [r7, #40]
 865 00a6 FFF7FEFF 		bl	sal_closesocket
 866 00aa 04E0     		b	.L56
 867              	.L55:
 286:c:/Users/lenovo/Desktop/AIoT/first_day/firstday_afternoon/LiteOS_Lab_STM32_IoT/iot_link/network/mqtt/paho_mqtt/port\paho_mqtt_port.c ****     }
 287:c:/Users/lenovo/Desktop/AIoT/first_day/firstday_afternoon/LiteOS_Lab_STM32_IoT/iot_link/network/mqtt/paho_mqtt/port\paho_mqtt_port.c ****     else
 288:c:/Users/lenovo/Desktop/AIoT/first_day/firstday_afternoon/LiteOS_Lab_STM32_IoT/iot_link/network/mqtt/paho_mqtt/port\paho_mqtt_port.c ****     {
 289:c:/Users/lenovo/Desktop/AIoT/first_day/firstday_afternoon/LiteOS_Lab_STM32_IoT/iot_link/network/mqtt/paho_mqtt/port\paho_mqtt_port.c ****         ret = 0;
 868              		.loc 2 289 13
 869 00ac 0023     		movs	r3, #0
 870 00ae FB62     		str	r3, [r7, #44]
 290:c:/Users/lenovo/Desktop/AIoT/first_day/firstday_afternoon/LiteOS_Lab_STM32_IoT/iot_link/network/mqtt/paho_mqtt/port\paho_mqtt_port.c ****         n->ctx = (void *)fd;
 871              		.loc 2 290 18
 872 00b0 BA6A     		ldr	r2, [r7, #40]
 873              		.loc 2 290 16
 874 00b2 FB68     		ldr	r3, [r7, #12]
 875 00b4 1A60     		str	r2, [r3]
 876              	.L56:
 291:c:/Users/lenovo/Desktop/AIoT/first_day/firstday_afternoon/LiteOS_Lab_STM32_IoT/iot_link/network/mqtt/paho_mqtt/port\paho_mqtt_port.c ****     }
 292:c:/Users/lenovo/Desktop/AIoT/first_day/firstday_afternoon/LiteOS_Lab_STM32_IoT/iot_link/network/mqtt/paho_mqtt/port\paho_mqtt_port.c **** 
 293:c:/Users/lenovo/Desktop/AIoT/first_day/firstday_afternoon/LiteOS_Lab_STM32_IoT/iot_link/network/mqtt/paho_mqtt/port\paho_mqtt_port.c ****     return ret;
 877              		.loc 2 293 12
 878 00b6 FB6A     		ldr	r3, [r7, #44]
 879              	.L57:
 294:c:/Users/lenovo/Desktop/AIoT/first_day/firstday_afternoon/LiteOS_Lab_STM32_IoT/iot_link/network/mqtt/paho_mqtt/port\paho_mqtt_port.c **** }
 880              		.loc 2 294 1 discriminator 1
 881 00b8 1846     		mov	r0, r3
 882 00ba 3037     		adds	r7, r7, #48
 883              	.LCFI44:
 884              		.cfi_def_cfa_offset 8
 885 00bc BD46     		mov	sp, r7
 886              	.LCFI45:
 887              		.cfi_def_cfa_register 13
 888              		@ sp needed
 889 00be 80BD     		pop	{r7, pc}
 890              		.cfi_endproc
 891              	.LFE11:
 893              		.section	.text.__io_read,"ax",%progbits
 894              		.align	1
 895              		.syntax unified
 896              		.thumb
 897              		.thumb_func
 898              		.fpu fpv4-sp-d16
 900              	__io_read:
 901              	.LFB12:
 295:c:/Users/lenovo/Desktop/AIoT/first_day/firstday_afternoon/LiteOS_Lab_STM32_IoT/iot_link/network/mqtt/paho_mqtt/port\paho_mqtt_port.c **** 
 296:c:/Users/lenovo/Desktop/AIoT/first_day/firstday_afternoon/LiteOS_Lab_STM32_IoT/iot_link/network/mqtt/paho_mqtt/port\paho_mqtt_port.c **** 
 297:c:/Users/lenovo/Desktop/AIoT/first_day/firstday_afternoon/LiteOS_Lab_STM32_IoT/iot_link/network/mqtt/paho_mqtt/port\paho_mqtt_port.c **** 
 298:c:/Users/lenovo/Desktop/AIoT/first_day/firstday_afternoon/LiteOS_Lab_STM32_IoT/iot_link/network/mqtt/paho_mqtt/port\paho_mqtt_port.c **** 
 299:c:/Users/lenovo/Desktop/AIoT/first_day/firstday_afternoon/LiteOS_Lab_STM32_IoT/iot_link/network/mqtt/paho_mqtt/port\paho_mqtt_port.c **** static int __io_read(Network *n, unsigned char *buffer, int len, int timeout_ms)
 300:c:/Users/lenovo/Desktop/AIoT/first_day/firstday_afternoon/LiteOS_Lab_STM32_IoT/iot_link/network/mqtt/paho_mqtt/port\paho_mqtt_port.c **** {
 902              		.loc 2 300 1
 903              		.cfi_startproc
 904              		@ args = 0, pretend = 0, frame = 24
 905              		@ frame_needed = 1, uses_anonymous_args = 0
 906 0000 80B5     		push	{r7, lr}
 907              	.LCFI46:
ARM GAS  C:\Users\lenovo\AppData\Local\Temp\ccxMpoX7.s 			page 26


 908              		.cfi_def_cfa_offset 8
 909              		.cfi_offset 7, -8
 910              		.cfi_offset 14, -4
 911 0002 86B0     		sub	sp, sp, #24
 912              	.LCFI47:
 913              		.cfi_def_cfa_offset 32
 914 0004 00AF     		add	r7, sp, #0
 915              	.LCFI48:
 916              		.cfi_def_cfa_register 7
 917 0006 F860     		str	r0, [r7, #12]
 918 0008 B960     		str	r1, [r7, #8]
 919 000a 7A60     		str	r2, [r7, #4]
 920 000c 3B60     		str	r3, [r7]
 301:c:/Users/lenovo/Desktop/AIoT/first_day/firstday_afternoon/LiteOS_Lab_STM32_IoT/iot_link/network/mqtt/paho_mqtt/port\paho_mqtt_port.c ****     int ret = -1;
 921              		.loc 2 301 9
 922 000e 4FF0FF33 		mov	r3, #-1
 923 0012 7B61     		str	r3, [r7, #20]
 302:c:/Users/lenovo/Desktop/AIoT/first_day/firstday_afternoon/LiteOS_Lab_STM32_IoT/iot_link/network/mqtt/paho_mqtt/port\paho_mqtt_port.c **** 
 303:c:/Users/lenovo/Desktop/AIoT/first_day/firstday_afternoon/LiteOS_Lab_STM32_IoT/iot_link/network/mqtt/paho_mqtt/port\paho_mqtt_port.c ****     if((NULL == n) || (NULL == buffer ))
 924              		.loc 2 303 7
 925 0014 FB68     		ldr	r3, [r7, #12]
 926 0016 002B     		cmp	r3, #0
 927 0018 02D0     		beq	.L59
 928              		.loc 2 303 20 discriminator 1
 929 001a BB68     		ldr	r3, [r7, #8]
 930 001c 002B     		cmp	r3, #0
 931 001e 01D1     		bne	.L60
 932              	.L59:
 304:c:/Users/lenovo/Desktop/AIoT/first_day/firstday_afternoon/LiteOS_Lab_STM32_IoT/iot_link/network/mqtt/paho_mqtt/port\paho_mqtt_port.c ****     {
 305:c:/Users/lenovo/Desktop/AIoT/first_day/firstday_afternoon/LiteOS_Lab_STM32_IoT/iot_link/network/mqtt/paho_mqtt/port\paho_mqtt_port.c ****         return ret;
 933              		.loc 2 305 16
 934 0020 7B69     		ldr	r3, [r7, #20]
 935 0022 15E0     		b	.L61
 936              	.L60:
 306:c:/Users/lenovo/Desktop/AIoT/first_day/firstday_afternoon/LiteOS_Lab_STM32_IoT/iot_link/network/mqtt/paho_mqtt/port\paho_mqtt_port.c ****     }
 307:c:/Users/lenovo/Desktop/AIoT/first_day/firstday_afternoon/LiteOS_Lab_STM32_IoT/iot_link/network/mqtt/paho_mqtt/port\paho_mqtt_port.c **** 
 308:c:/Users/lenovo/Desktop/AIoT/first_day/firstday_afternoon/LiteOS_Lab_STM32_IoT/iot_link/network/mqtt/paho_mqtt/port\paho_mqtt_port.c ****     if(n->arg.type == EN_DTLS_AL_SECURITY_TYPE_NONE)
 937              		.loc 2 308 14
 938 0024 FB68     		ldr	r3, [r7, #12]
 939 0026 1B79     		ldrb	r3, [r3, #4]	@ zero_extendqisi2
 940              		.loc 2 308 7
 941 0028 002B     		cmp	r3, #0
 942 002a 08D1     		bne	.L62
 309:c:/Users/lenovo/Desktop/AIoT/first_day/firstday_afternoon/LiteOS_Lab_STM32_IoT/iot_link/network/mqtt/paho_mqtt/port\paho_mqtt_port.c ****     {
 310:c:/Users/lenovo/Desktop/AIoT/first_day/firstday_afternoon/LiteOS_Lab_STM32_IoT/iot_link/network/mqtt/paho_mqtt/port\paho_mqtt_port.c ****         ret = __socket_read(n->ctx, buffer, len, timeout_ms);
 943              		.loc 2 310 15
 944 002c FB68     		ldr	r3, [r7, #12]
 945 002e 1868     		ldr	r0, [r3]
 946 0030 3B68     		ldr	r3, [r7]
 947 0032 7A68     		ldr	r2, [r7, #4]
 948 0034 B968     		ldr	r1, [r7, #8]
 949 0036 FFF7FEFF 		bl	__socket_read
 950 003a 7861     		str	r0, [r7, #20]
 951 003c 07E0     		b	.L63
 952              	.L62:
 311:c:/Users/lenovo/Desktop/AIoT/first_day/firstday_afternoon/LiteOS_Lab_STM32_IoT/iot_link/network/mqtt/paho_mqtt/port\paho_mqtt_port.c ****     }
 312:c:/Users/lenovo/Desktop/AIoT/first_day/firstday_afternoon/LiteOS_Lab_STM32_IoT/iot_link/network/mqtt/paho_mqtt/port\paho_mqtt_port.c **** #if CONFIG_DTLS_ENABLE
ARM GAS  C:\Users\lenovo\AppData\Local\Temp\ccxMpoX7.s 			page 27


 313:c:/Users/lenovo/Desktop/AIoT/first_day/firstday_afternoon/LiteOS_Lab_STM32_IoT/iot_link/network/mqtt/paho_mqtt/port\paho_mqtt_port.c ****     else
 314:c:/Users/lenovo/Desktop/AIoT/first_day/firstday_afternoon/LiteOS_Lab_STM32_IoT/iot_link/network/mqtt/paho_mqtt/port\paho_mqtt_port.c ****     {
 315:c:/Users/lenovo/Desktop/AIoT/first_day/firstday_afternoon/LiteOS_Lab_STM32_IoT/iot_link/network/mqtt/paho_mqtt/port\paho_mqtt_port.c ****         ret = __tls_read(n->ctx, buffer, len, timeout_ms);
 953              		.loc 2 315 15
 954 003e FB68     		ldr	r3, [r7, #12]
 955 0040 1868     		ldr	r0, [r3]
 956 0042 3B68     		ldr	r3, [r7]
 957 0044 7A68     		ldr	r2, [r7, #4]
 958 0046 B968     		ldr	r1, [r7, #8]
 959 0048 FFF7FEFF 		bl	__tls_read
 960 004c 7861     		str	r0, [r7, #20]
 961              	.L63:
 316:c:/Users/lenovo/Desktop/AIoT/first_day/firstday_afternoon/LiteOS_Lab_STM32_IoT/iot_link/network/mqtt/paho_mqtt/port\paho_mqtt_port.c ****     }
 317:c:/Users/lenovo/Desktop/AIoT/first_day/firstday_afternoon/LiteOS_Lab_STM32_IoT/iot_link/network/mqtt/paho_mqtt/port\paho_mqtt_port.c **** #endif
 318:c:/Users/lenovo/Desktop/AIoT/first_day/firstday_afternoon/LiteOS_Lab_STM32_IoT/iot_link/network/mqtt/paho_mqtt/port\paho_mqtt_port.c **** 
 319:c:/Users/lenovo/Desktop/AIoT/first_day/firstday_afternoon/LiteOS_Lab_STM32_IoT/iot_link/network/mqtt/paho_mqtt/port\paho_mqtt_port.c ****     return ret;
 962              		.loc 2 319 12
 963 004e 7B69     		ldr	r3, [r7, #20]
 964              	.L61:
 320:c:/Users/lenovo/Desktop/AIoT/first_day/firstday_afternoon/LiteOS_Lab_STM32_IoT/iot_link/network/mqtt/paho_mqtt/port\paho_mqtt_port.c **** }
 965              		.loc 2 320 1
 966 0050 1846     		mov	r0, r3
 967 0052 1837     		adds	r7, r7, #24
 968              	.LCFI49:
 969              		.cfi_def_cfa_offset 8
 970 0054 BD46     		mov	sp, r7
 971              	.LCFI50:
 972              		.cfi_def_cfa_register 13
 973              		@ sp needed
 974 0056 80BD     		pop	{r7, pc}
 975              		.cfi_endproc
 976              	.LFE12:
 978              		.section	.text.__io_write,"ax",%progbits
 979              		.align	1
 980              		.syntax unified
 981              		.thumb
 982              		.thumb_func
 983              		.fpu fpv4-sp-d16
 985              	__io_write:
 986              	.LFB13:
 321:c:/Users/lenovo/Desktop/AIoT/first_day/firstday_afternoon/LiteOS_Lab_STM32_IoT/iot_link/network/mqtt/paho_mqtt/port\paho_mqtt_port.c **** 
 322:c:/Users/lenovo/Desktop/AIoT/first_day/firstday_afternoon/LiteOS_Lab_STM32_IoT/iot_link/network/mqtt/paho_mqtt/port\paho_mqtt_port.c **** static int __io_write(Network *n, unsigned char *buffer, int len, int timeout_ms)
 323:c:/Users/lenovo/Desktop/AIoT/first_day/firstday_afternoon/LiteOS_Lab_STM32_IoT/iot_link/network/mqtt/paho_mqtt/port\paho_mqtt_port.c **** {
 987              		.loc 2 323 1
 988              		.cfi_startproc
 989              		@ args = 0, pretend = 0, frame = 24
 990              		@ frame_needed = 1, uses_anonymous_args = 0
 991 0000 80B5     		push	{r7, lr}
 992              	.LCFI51:
 993              		.cfi_def_cfa_offset 8
 994              		.cfi_offset 7, -8
 995              		.cfi_offset 14, -4
 996 0002 86B0     		sub	sp, sp, #24
 997              	.LCFI52:
 998              		.cfi_def_cfa_offset 32
 999 0004 00AF     		add	r7, sp, #0
 1000              	.LCFI53:
ARM GAS  C:\Users\lenovo\AppData\Local\Temp\ccxMpoX7.s 			page 28


 1001              		.cfi_def_cfa_register 7
 1002 0006 F860     		str	r0, [r7, #12]
 1003 0008 B960     		str	r1, [r7, #8]
 1004 000a 7A60     		str	r2, [r7, #4]
 1005 000c 3B60     		str	r3, [r7]
 324:c:/Users/lenovo/Desktop/AIoT/first_day/firstday_afternoon/LiteOS_Lab_STM32_IoT/iot_link/network/mqtt/paho_mqtt/port\paho_mqtt_port.c ****     int ret = -1;
 1006              		.loc 2 324 9
 1007 000e 4FF0FF33 		mov	r3, #-1
 1008 0012 7B61     		str	r3, [r7, #20]
 325:c:/Users/lenovo/Desktop/AIoT/first_day/firstday_afternoon/LiteOS_Lab_STM32_IoT/iot_link/network/mqtt/paho_mqtt/port\paho_mqtt_port.c **** 
 326:c:/Users/lenovo/Desktop/AIoT/first_day/firstday_afternoon/LiteOS_Lab_STM32_IoT/iot_link/network/mqtt/paho_mqtt/port\paho_mqtt_port.c ****     if((NULL == n) || (NULL == buffer ))
 1009              		.loc 2 326 7
 1010 0014 FB68     		ldr	r3, [r7, #12]
 1011 0016 002B     		cmp	r3, #0
 1012 0018 02D0     		beq	.L65
 1013              		.loc 2 326 20 discriminator 1
 1014 001a BB68     		ldr	r3, [r7, #8]
 1015 001c 002B     		cmp	r3, #0
 1016 001e 02D1     		bne	.L66
 1017              	.L65:
 327:c:/Users/lenovo/Desktop/AIoT/first_day/firstday_afternoon/LiteOS_Lab_STM32_IoT/iot_link/network/mqtt/paho_mqtt/port\paho_mqtt_port.c ****     {
 328:c:/Users/lenovo/Desktop/AIoT/first_day/firstday_afternoon/LiteOS_Lab_STM32_IoT/iot_link/network/mqtt/paho_mqtt/port\paho_mqtt_port.c ****         return -1;
 1018              		.loc 2 328 16
 1019 0020 4FF0FF33 		mov	r3, #-1
 1020 0024 15E0     		b	.L67
 1021              	.L66:
 329:c:/Users/lenovo/Desktop/AIoT/first_day/firstday_afternoon/LiteOS_Lab_STM32_IoT/iot_link/network/mqtt/paho_mqtt/port\paho_mqtt_port.c ****     }
 330:c:/Users/lenovo/Desktop/AIoT/first_day/firstday_afternoon/LiteOS_Lab_STM32_IoT/iot_link/network/mqtt/paho_mqtt/port\paho_mqtt_port.c **** 
 331:c:/Users/lenovo/Desktop/AIoT/first_day/firstday_afternoon/LiteOS_Lab_STM32_IoT/iot_link/network/mqtt/paho_mqtt/port\paho_mqtt_port.c ****     if(n->arg.type == EN_DTLS_AL_SECURITY_TYPE_NONE)
 1022              		.loc 2 331 14
 1023 0026 FB68     		ldr	r3, [r7, #12]
 1024 0028 1B79     		ldrb	r3, [r3, #4]	@ zero_extendqisi2
 1025              		.loc 2 331 7
 1026 002a 002B     		cmp	r3, #0
 1027 002c 08D1     		bne	.L68
 332:c:/Users/lenovo/Desktop/AIoT/first_day/firstday_afternoon/LiteOS_Lab_STM32_IoT/iot_link/network/mqtt/paho_mqtt/port\paho_mqtt_port.c ****     {
 333:c:/Users/lenovo/Desktop/AIoT/first_day/firstday_afternoon/LiteOS_Lab_STM32_IoT/iot_link/network/mqtt/paho_mqtt/port\paho_mqtt_port.c ****         ret = __socket_write(n->ctx, buffer, len, timeout_ms);
 1028              		.loc 2 333 15
 1029 002e FB68     		ldr	r3, [r7, #12]
 1030 0030 1868     		ldr	r0, [r3]
 1031 0032 3B68     		ldr	r3, [r7]
 1032 0034 7A68     		ldr	r2, [r7, #4]
 1033 0036 B968     		ldr	r1, [r7, #8]
 1034 0038 FFF7FEFF 		bl	__socket_write
 1035 003c 7861     		str	r0, [r7, #20]
 1036 003e 07E0     		b	.L69
 1037              	.L68:
 334:c:/Users/lenovo/Desktop/AIoT/first_day/firstday_afternoon/LiteOS_Lab_STM32_IoT/iot_link/network/mqtt/paho_mqtt/port\paho_mqtt_port.c ****     }
 335:c:/Users/lenovo/Desktop/AIoT/first_day/firstday_afternoon/LiteOS_Lab_STM32_IoT/iot_link/network/mqtt/paho_mqtt/port\paho_mqtt_port.c **** #if CONFIG_DTLS_ENABLE
 336:c:/Users/lenovo/Desktop/AIoT/first_day/firstday_afternoon/LiteOS_Lab_STM32_IoT/iot_link/network/mqtt/paho_mqtt/port\paho_mqtt_port.c ****     else
 337:c:/Users/lenovo/Desktop/AIoT/first_day/firstday_afternoon/LiteOS_Lab_STM32_IoT/iot_link/network/mqtt/paho_mqtt/port\paho_mqtt_port.c ****     {
 338:c:/Users/lenovo/Desktop/AIoT/first_day/firstday_afternoon/LiteOS_Lab_STM32_IoT/iot_link/network/mqtt/paho_mqtt/port\paho_mqtt_port.c ****         ret = __tls_write(n->ctx, buffer, len,timeout_ms);
 1038              		.loc 2 338 15
 1039 0040 FB68     		ldr	r3, [r7, #12]
 1040 0042 1868     		ldr	r0, [r3]
 1041 0044 3B68     		ldr	r3, [r7]
 1042 0046 7A68     		ldr	r2, [r7, #4]
ARM GAS  C:\Users\lenovo\AppData\Local\Temp\ccxMpoX7.s 			page 29


 1043 0048 B968     		ldr	r1, [r7, #8]
 1044 004a FFF7FEFF 		bl	__tls_write
 1045 004e 7861     		str	r0, [r7, #20]
 1046              	.L69:
 339:c:/Users/lenovo/Desktop/AIoT/first_day/firstday_afternoon/LiteOS_Lab_STM32_IoT/iot_link/network/mqtt/paho_mqtt/port\paho_mqtt_port.c ****     }
 340:c:/Users/lenovo/Desktop/AIoT/first_day/firstday_afternoon/LiteOS_Lab_STM32_IoT/iot_link/network/mqtt/paho_mqtt/port\paho_mqtt_port.c **** #endif
 341:c:/Users/lenovo/Desktop/AIoT/first_day/firstday_afternoon/LiteOS_Lab_STM32_IoT/iot_link/network/mqtt/paho_mqtt/port\paho_mqtt_port.c ****     return ret;
 1047              		.loc 2 341 12
 1048 0050 7B69     		ldr	r3, [r7, #20]
 1049              	.L67:
 342:c:/Users/lenovo/Desktop/AIoT/first_day/firstday_afternoon/LiteOS_Lab_STM32_IoT/iot_link/network/mqtt/paho_mqtt/port\paho_mqtt_port.c **** }
 1050              		.loc 2 342 1
 1051 0052 1846     		mov	r0, r3
 1052 0054 1837     		adds	r7, r7, #24
 1053              	.LCFI54:
 1054              		.cfi_def_cfa_offset 8
 1055 0056 BD46     		mov	sp, r7
 1056              	.LCFI55:
 1057              		.cfi_def_cfa_register 13
 1058              		@ sp needed
 1059 0058 80BD     		pop	{r7, pc}
 1060              		.cfi_endproc
 1061              	.LFE13:
 1063              		.section	.text.__io_connect,"ax",%progbits
 1064              		.align	1
 1065              		.syntax unified
 1066              		.thumb
 1067              		.thumb_func
 1068              		.fpu fpv4-sp-d16
 1070              	__io_connect:
 1071              	.LFB14:
 343:c:/Users/lenovo/Desktop/AIoT/first_day/firstday_afternoon/LiteOS_Lab_STM32_IoT/iot_link/network/mqtt/paho_mqtt/port\paho_mqtt_port.c **** 
 344:c:/Users/lenovo/Desktop/AIoT/first_day/firstday_afternoon/LiteOS_Lab_STM32_IoT/iot_link/network/mqtt/paho_mqtt/port\paho_mqtt_port.c **** static int __io_connect(Network *n, char *addr, int port)
 345:c:/Users/lenovo/Desktop/AIoT/first_day/firstday_afternoon/LiteOS_Lab_STM32_IoT/iot_link/network/mqtt/paho_mqtt/port\paho_mqtt_port.c **** {
 1072              		.loc 2 345 1
 1073              		.cfi_startproc
 1074              		@ args = 0, pretend = 0, frame = 24
 1075              		@ frame_needed = 1, uses_anonymous_args = 0
 1076 0000 80B5     		push	{r7, lr}
 1077              	.LCFI56:
 1078              		.cfi_def_cfa_offset 8
 1079              		.cfi_offset 7, -8
 1080              		.cfi_offset 14, -4
 1081 0002 86B0     		sub	sp, sp, #24
 1082              	.LCFI57:
 1083              		.cfi_def_cfa_offset 32
 1084 0004 00AF     		add	r7, sp, #0
 1085              	.LCFI58:
 1086              		.cfi_def_cfa_register 7
 1087 0006 F860     		str	r0, [r7, #12]
 1088 0008 B960     		str	r1, [r7, #8]
 1089 000a 7A60     		str	r2, [r7, #4]
 346:c:/Users/lenovo/Desktop/AIoT/first_day/firstday_afternoon/LiteOS_Lab_STM32_IoT/iot_link/network/mqtt/paho_mqtt/port\paho_mqtt_port.c ****     int ret = -1;
 1090              		.loc 2 346 9
 1091 000c 4FF0FF33 		mov	r3, #-1
 1092 0010 7B61     		str	r3, [r7, #20]
 347:c:/Users/lenovo/Desktop/AIoT/first_day/firstday_afternoon/LiteOS_Lab_STM32_IoT/iot_link/network/mqtt/paho_mqtt/port\paho_mqtt_port.c **** 
ARM GAS  C:\Users\lenovo\AppData\Local\Temp\ccxMpoX7.s 			page 30


 348:c:/Users/lenovo/Desktop/AIoT/first_day/firstday_afternoon/LiteOS_Lab_STM32_IoT/iot_link/network/mqtt/paho_mqtt/port\paho_mqtt_port.c ****     if((NULL == n) || (NULL == addr ))
 1093              		.loc 2 348 7
 1094 0012 FB68     		ldr	r3, [r7, #12]
 1095 0014 002B     		cmp	r3, #0
 1096 0016 02D0     		beq	.L71
 1097              		.loc 2 348 20 discriminator 1
 1098 0018 BB68     		ldr	r3, [r7, #8]
 1099 001a 002B     		cmp	r3, #0
 1100 001c 02D1     		bne	.L72
 1101              	.L71:
 349:c:/Users/lenovo/Desktop/AIoT/first_day/firstday_afternoon/LiteOS_Lab_STM32_IoT/iot_link/network/mqtt/paho_mqtt/port\paho_mqtt_port.c ****     {
 350:c:/Users/lenovo/Desktop/AIoT/first_day/firstday_afternoon/LiteOS_Lab_STM32_IoT/iot_link/network/mqtt/paho_mqtt/port\paho_mqtt_port.c ****         return -1;
 1102              		.loc 2 350 16
 1103 001e 4FF0FF33 		mov	r3, #-1
 1104 0022 11E0     		b	.L73
 1105              	.L72:
 351:c:/Users/lenovo/Desktop/AIoT/first_day/firstday_afternoon/LiteOS_Lab_STM32_IoT/iot_link/network/mqtt/paho_mqtt/port\paho_mqtt_port.c ****     }
 352:c:/Users/lenovo/Desktop/AIoT/first_day/firstday_afternoon/LiteOS_Lab_STM32_IoT/iot_link/network/mqtt/paho_mqtt/port\paho_mqtt_port.c **** 
 353:c:/Users/lenovo/Desktop/AIoT/first_day/firstday_afternoon/LiteOS_Lab_STM32_IoT/iot_link/network/mqtt/paho_mqtt/port\paho_mqtt_port.c ****     if(n->arg.type == EN_DTLS_AL_SECURITY_TYPE_NONE)
 1106              		.loc 2 353 14
 1107 0024 FB68     		ldr	r3, [r7, #12]
 1108 0026 1B79     		ldrb	r3, [r3, #4]	@ zero_extendqisi2
 1109              		.loc 2 353 7
 1110 0028 002B     		cmp	r3, #0
 1111 002a 06D1     		bne	.L74
 354:c:/Users/lenovo/Desktop/AIoT/first_day/firstday_afternoon/LiteOS_Lab_STM32_IoT/iot_link/network/mqtt/paho_mqtt/port\paho_mqtt_port.c ****     {
 355:c:/Users/lenovo/Desktop/AIoT/first_day/firstday_afternoon/LiteOS_Lab_STM32_IoT/iot_link/network/mqtt/paho_mqtt/port\paho_mqtt_port.c ****         ret = __socket_connect(n, addr, port);
 1112              		.loc 2 355 15
 1113 002c 7A68     		ldr	r2, [r7, #4]
 1114 002e B968     		ldr	r1, [r7, #8]
 1115 0030 F868     		ldr	r0, [r7, #12]
 1116 0032 FFF7FEFF 		bl	__socket_connect
 1117 0036 7861     		str	r0, [r7, #20]
 1118 0038 05E0     		b	.L75
 1119              	.L74:
 356:c:/Users/lenovo/Desktop/AIoT/first_day/firstday_afternoon/LiteOS_Lab_STM32_IoT/iot_link/network/mqtt/paho_mqtt/port\paho_mqtt_port.c ****     }
 357:c:/Users/lenovo/Desktop/AIoT/first_day/firstday_afternoon/LiteOS_Lab_STM32_IoT/iot_link/network/mqtt/paho_mqtt/port\paho_mqtt_port.c **** #if CONFIG_DTLS_ENABLE
 358:c:/Users/lenovo/Desktop/AIoT/first_day/firstday_afternoon/LiteOS_Lab_STM32_IoT/iot_link/network/mqtt/paho_mqtt/port\paho_mqtt_port.c ****     else
 359:c:/Users/lenovo/Desktop/AIoT/first_day/firstday_afternoon/LiteOS_Lab_STM32_IoT/iot_link/network/mqtt/paho_mqtt/port\paho_mqtt_port.c ****     {
 360:c:/Users/lenovo/Desktop/AIoT/first_day/firstday_afternoon/LiteOS_Lab_STM32_IoT/iot_link/network/mqtt/paho_mqtt/port\paho_mqtt_port.c ****         ret = __tls_connect(n, addr, port);
 1120              		.loc 2 360 15
 1121 003a 7A68     		ldr	r2, [r7, #4]
 1122 003c B968     		ldr	r1, [r7, #8]
 1123 003e F868     		ldr	r0, [r7, #12]
 1124 0040 FFF7FEFF 		bl	__tls_connect
 1125 0044 7861     		str	r0, [r7, #20]
 1126              	.L75:
 361:c:/Users/lenovo/Desktop/AIoT/first_day/firstday_afternoon/LiteOS_Lab_STM32_IoT/iot_link/network/mqtt/paho_mqtt/port\paho_mqtt_port.c ****     }
 362:c:/Users/lenovo/Desktop/AIoT/first_day/firstday_afternoon/LiteOS_Lab_STM32_IoT/iot_link/network/mqtt/paho_mqtt/port\paho_mqtt_port.c **** #endif
 363:c:/Users/lenovo/Desktop/AIoT/first_day/firstday_afternoon/LiteOS_Lab_STM32_IoT/iot_link/network/mqtt/paho_mqtt/port\paho_mqtt_port.c ****     return ret;
 1127              		.loc 2 363 12
 1128 0046 7B69     		ldr	r3, [r7, #20]
 1129              	.L73:
 364:c:/Users/lenovo/Desktop/AIoT/first_day/firstday_afternoon/LiteOS_Lab_STM32_IoT/iot_link/network/mqtt/paho_mqtt/port\paho_mqtt_port.c **** }
 1130              		.loc 2 364 1
 1131 0048 1846     		mov	r0, r3
 1132 004a 1837     		adds	r7, r7, #24
ARM GAS  C:\Users\lenovo\AppData\Local\Temp\ccxMpoX7.s 			page 31


 1133              	.LCFI59:
 1134              		.cfi_def_cfa_offset 8
 1135 004c BD46     		mov	sp, r7
 1136              	.LCFI60:
 1137              		.cfi_def_cfa_register 13
 1138              		@ sp needed
 1139 004e 80BD     		pop	{r7, pc}
 1140              		.cfi_endproc
 1141              	.LFE14:
 1143              		.section	.text.__io_disconnect,"ax",%progbits
 1144              		.align	1
 1145              		.syntax unified
 1146              		.thumb
 1147              		.thumb_func
 1148              		.fpu fpv4-sp-d16
 1150              	__io_disconnect:
 1151              	.LFB15:
 365:c:/Users/lenovo/Desktop/AIoT/first_day/firstday_afternoon/LiteOS_Lab_STM32_IoT/iot_link/network/mqtt/paho_mqtt/port\paho_mqtt_port.c **** 
 366:c:/Users/lenovo/Desktop/AIoT/first_day/firstday_afternoon/LiteOS_Lab_STM32_IoT/iot_link/network/mqtt/paho_mqtt/port\paho_mqtt_port.c **** 
 367:c:/Users/lenovo/Desktop/AIoT/first_day/firstday_afternoon/LiteOS_Lab_STM32_IoT/iot_link/network/mqtt/paho_mqtt/port\paho_mqtt_port.c **** 
 368:c:/Users/lenovo/Desktop/AIoT/first_day/firstday_afternoon/LiteOS_Lab_STM32_IoT/iot_link/network/mqtt/paho_mqtt/port\paho_mqtt_port.c **** static void __io_disconnect(Network *n)
 369:c:/Users/lenovo/Desktop/AIoT/first_day/firstday_afternoon/LiteOS_Lab_STM32_IoT/iot_link/network/mqtt/paho_mqtt/port\paho_mqtt_port.c **** {
 1152              		.loc 2 369 1
 1153              		.cfi_startproc
 1154              		@ args = 0, pretend = 0, frame = 8
 1155              		@ frame_needed = 1, uses_anonymous_args = 0
 1156 0000 80B5     		push	{r7, lr}
 1157              	.LCFI61:
 1158              		.cfi_def_cfa_offset 8
 1159              		.cfi_offset 7, -8
 1160              		.cfi_offset 14, -4
 1161 0002 82B0     		sub	sp, sp, #8
 1162              	.LCFI62:
 1163              		.cfi_def_cfa_offset 16
 1164 0004 00AF     		add	r7, sp, #0
 1165              	.LCFI63:
 1166              		.cfi_def_cfa_register 7
 1167 0006 7860     		str	r0, [r7, #4]
 370:c:/Users/lenovo/Desktop/AIoT/first_day/firstday_afternoon/LiteOS_Lab_STM32_IoT/iot_link/network/mqtt/paho_mqtt/port\paho_mqtt_port.c **** 
 371:c:/Users/lenovo/Desktop/AIoT/first_day/firstday_afternoon/LiteOS_Lab_STM32_IoT/iot_link/network/mqtt/paho_mqtt/port\paho_mqtt_port.c ****     if(n->arg.type == EN_DTLS_AL_SECURITY_TYPE_NONE)
 1168              		.loc 2 371 14
 1169 0008 7B68     		ldr	r3, [r7, #4]
 1170 000a 1B79     		ldrb	r3, [r3, #4]	@ zero_extendqisi2
 1171              		.loc 2 371 7
 1172 000c 002B     		cmp	r3, #0
 1173 000e 05D1     		bne	.L77
 372:c:/Users/lenovo/Desktop/AIoT/first_day/firstday_afternoon/LiteOS_Lab_STM32_IoT/iot_link/network/mqtt/paho_mqtt/port\paho_mqtt_port.c ****     {
 373:c:/Users/lenovo/Desktop/AIoT/first_day/firstday_afternoon/LiteOS_Lab_STM32_IoT/iot_link/network/mqtt/paho_mqtt/port\paho_mqtt_port.c ****         __socket_disconnect(n->ctx);
 1174              		.loc 2 373 9
 1175 0010 7B68     		ldr	r3, [r7, #4]
 1176 0012 1B68     		ldr	r3, [r3]
 1177 0014 1846     		mov	r0, r3
 1178 0016 FFF7FEFF 		bl	__socket_disconnect
 1179 001a 04E0     		b	.L78
 1180              	.L77:
 374:c:/Users/lenovo/Desktop/AIoT/first_day/firstday_afternoon/LiteOS_Lab_STM32_IoT/iot_link/network/mqtt/paho_mqtt/port\paho_mqtt_port.c ****     }
 375:c:/Users/lenovo/Desktop/AIoT/first_day/firstday_afternoon/LiteOS_Lab_STM32_IoT/iot_link/network/mqtt/paho_mqtt/port\paho_mqtt_port.c **** #if CONFIG_DTLS_ENABLE
ARM GAS  C:\Users\lenovo\AppData\Local\Temp\ccxMpoX7.s 			page 32


 376:c:/Users/lenovo/Desktop/AIoT/first_day/firstday_afternoon/LiteOS_Lab_STM32_IoT/iot_link/network/mqtt/paho_mqtt/port\paho_mqtt_port.c ****     else
 377:c:/Users/lenovo/Desktop/AIoT/first_day/firstday_afternoon/LiteOS_Lab_STM32_IoT/iot_link/network/mqtt/paho_mqtt/port\paho_mqtt_port.c ****     {
 378:c:/Users/lenovo/Desktop/AIoT/first_day/firstday_afternoon/LiteOS_Lab_STM32_IoT/iot_link/network/mqtt/paho_mqtt/port\paho_mqtt_port.c ****         __tls_disconnect(n->ctx);
 1181              		.loc 2 378 9
 1182 001c 7B68     		ldr	r3, [r7, #4]
 1183 001e 1B68     		ldr	r3, [r3]
 1184 0020 1846     		mov	r0, r3
 1185 0022 FFF7FEFF 		bl	__tls_disconnect
 1186              	.L78:
 379:c:/Users/lenovo/Desktop/AIoT/first_day/firstday_afternoon/LiteOS_Lab_STM32_IoT/iot_link/network/mqtt/paho_mqtt/port\paho_mqtt_port.c ****     }
 380:c:/Users/lenovo/Desktop/AIoT/first_day/firstday_afternoon/LiteOS_Lab_STM32_IoT/iot_link/network/mqtt/paho_mqtt/port\paho_mqtt_port.c **** #endif
 381:c:/Users/lenovo/Desktop/AIoT/first_day/firstday_afternoon/LiteOS_Lab_STM32_IoT/iot_link/network/mqtt/paho_mqtt/port\paho_mqtt_port.c **** 
 382:c:/Users/lenovo/Desktop/AIoT/first_day/firstday_afternoon/LiteOS_Lab_STM32_IoT/iot_link/network/mqtt/paho_mqtt/port\paho_mqtt_port.c ****     n->ctx = NULL;
 1187              		.loc 2 382 12
 1188 0026 7B68     		ldr	r3, [r7, #4]
 1189 0028 0022     		movs	r2, #0
 1190 002a 1A60     		str	r2, [r3]
 383:c:/Users/lenovo/Desktop/AIoT/first_day/firstday_afternoon/LiteOS_Lab_STM32_IoT/iot_link/network/mqtt/paho_mqtt/port\paho_mqtt_port.c **** 
 384:c:/Users/lenovo/Desktop/AIoT/first_day/firstday_afternoon/LiteOS_Lab_STM32_IoT/iot_link/network/mqtt/paho_mqtt/port\paho_mqtt_port.c ****     return;
 1191              		.loc 2 384 5
 1192 002c 00BF     		nop
 385:c:/Users/lenovo/Desktop/AIoT/first_day/firstday_afternoon/LiteOS_Lab_STM32_IoT/iot_link/network/mqtt/paho_mqtt/port\paho_mqtt_port.c **** }
 1193              		.loc 2 385 1
 1194 002e 0837     		adds	r7, r7, #8
 1195              	.LCFI64:
 1196              		.cfi_def_cfa_offset 8
 1197 0030 BD46     		mov	sp, r7
 1198              	.LCFI65:
 1199              		.cfi_def_cfa_register 13
 1200              		@ sp needed
 1201 0032 80BD     		pop	{r7, pc}
 1202              		.cfi_endproc
 1203              	.LFE15:
 1205              		.section	.text.__loop_entry,"ax",%progbits
 1206              		.align	1
 1207              		.syntax unified
 1208              		.thumb
 1209              		.thumb_func
 1210              		.fpu fpv4-sp-d16
 1212              	__loop_entry:
 1213              	.LFB16:
 386:c:/Users/lenovo/Desktop/AIoT/first_day/firstday_afternoon/LiteOS_Lab_STM32_IoT/iot_link/network/mqtt/paho_mqtt/port\paho_mqtt_port.c **** 
 387:c:/Users/lenovo/Desktop/AIoT/first_day/firstday_afternoon/LiteOS_Lab_STM32_IoT/iot_link/network/mqtt/paho_mqtt/port\paho_mqtt_port.c **** ///////////////////////CREATE THE API FOR THE MQTT_AL///////////////////////////
 388:c:/Users/lenovo/Desktop/AIoT/first_day/firstday_afternoon/LiteOS_Lab_STM32_IoT/iot_link/network/mqtt/paho_mqtt/port\paho_mqtt_port.c **** static  int __loop_entry(void *arg)
 389:c:/Users/lenovo/Desktop/AIoT/first_day/firstday_afternoon/LiteOS_Lab_STM32_IoT/iot_link/network/mqtt/paho_mqtt/port\paho_mqtt_port.c **** {
 1214              		.loc 2 389 1
 1215              		.cfi_startproc
 1216              		@ args = 0, pretend = 0, frame = 16
 1217              		@ frame_needed = 1, uses_anonymous_args = 0
 1218 0000 80B5     		push	{r7, lr}
 1219              	.LCFI66:
 1220              		.cfi_def_cfa_offset 8
 1221              		.cfi_offset 7, -8
 1222              		.cfi_offset 14, -4
 1223 0002 84B0     		sub	sp, sp, #16
 1224              	.LCFI67:
 1225              		.cfi_def_cfa_offset 24
ARM GAS  C:\Users\lenovo\AppData\Local\Temp\ccxMpoX7.s 			page 33


 1226 0004 00AF     		add	r7, sp, #0
 1227              	.LCFI68:
 1228              		.cfi_def_cfa_register 7
 1229 0006 7860     		str	r0, [r7, #4]
 390:c:/Users/lenovo/Desktop/AIoT/first_day/firstday_afternoon/LiteOS_Lab_STM32_IoT/iot_link/network/mqtt/paho_mqtt/port\paho_mqtt_port.c ****     paho_mqtt_cb_t *cb;
 391:c:/Users/lenovo/Desktop/AIoT/first_day/firstday_afternoon/LiteOS_Lab_STM32_IoT/iot_link/network/mqtt/paho_mqtt/port\paho_mqtt_port.c ****     cb = arg;
 1230              		.loc 2 391 8
 1231 0008 7B68     		ldr	r3, [r7, #4]
 1232 000a FB60     		str	r3, [r7, #12]
 1233              	.L82:
 392:c:/Users/lenovo/Desktop/AIoT/first_day/firstday_afternoon/LiteOS_Lab_STM32_IoT/iot_link/network/mqtt/paho_mqtt/port\paho_mqtt_port.c ****     while(1)
 393:c:/Users/lenovo/Desktop/AIoT/first_day/firstday_afternoon/LiteOS_Lab_STM32_IoT/iot_link/network/mqtt/paho_mqtt/port\paho_mqtt_port.c ****     {
 394:c:/Users/lenovo/Desktop/AIoT/first_day/firstday_afternoon/LiteOS_Lab_STM32_IoT/iot_link/network/mqtt/paho_mqtt/port\paho_mqtt_port.c ****         if((NULL != cb) && MQTTIsConnected(&cb->client))
 1234              		.loc 2 394 11
 1235 000c FB68     		ldr	r3, [r7, #12]
 1236 000e 002B     		cmp	r3, #0
 1237 0010 0ED0     		beq	.L81
 1238              		.loc 2 394 28 discriminator 1
 1239 0012 FB68     		ldr	r3, [r7, #12]
 1240 0014 3833     		adds	r3, r3, #56
 1241 0016 1846     		mov	r0, r3
 1242 0018 FFF7FEFF 		bl	MQTTIsConnected
 1243 001c 0346     		mov	r3, r0
 1244              		.loc 2 394 25 discriminator 1
 1245 001e 002B     		cmp	r3, #0
 1246 0020 06D0     		beq	.L81
 395:c:/Users/lenovo/Desktop/AIoT/first_day/firstday_afternoon/LiteOS_Lab_STM32_IoT/iot_link/network/mqtt/paho_mqtt/port\paho_mqtt_port.c ****         {
 396:c:/Users/lenovo/Desktop/AIoT/first_day/firstday_afternoon/LiteOS_Lab_STM32_IoT/iot_link/network/mqtt/paho_mqtt/port\paho_mqtt_port.c ****             MQTTYield(&cb->client,1000);
 1247              		.loc 2 396 13
 1248 0022 FB68     		ldr	r3, [r7, #12]
 1249 0024 3833     		adds	r3, r3, #56
 1250 0026 4FF47A71 		mov	r1, #1000
 1251 002a 1846     		mov	r0, r3
 1252 002c FFF7FEFF 		bl	MQTTYield
 1253              	.L81:
 397:c:/Users/lenovo/Desktop/AIoT/first_day/firstday_afternoon/LiteOS_Lab_STM32_IoT/iot_link/network/mqtt/paho_mqtt/port\paho_mqtt_port.c ****         }
 398:c:/Users/lenovo/Desktop/AIoT/first_day/firstday_afternoon/LiteOS_Lab_STM32_IoT/iot_link/network/mqtt/paho_mqtt/port\paho_mqtt_port.c ****         ///< for some operation system ,the task could not be awake when release,so do some wait to
 399:c:/Users/lenovo/Desktop/AIoT/first_day/firstday_afternoon/LiteOS_Lab_STM32_IoT/iot_link/network/mqtt/paho_mqtt/port\paho_mqtt_port.c **** 
 400:c:/Users/lenovo/Desktop/AIoT/first_day/firstday_afternoon/LiteOS_Lab_STM32_IoT/iot_link/network/mqtt/paho_mqtt/port\paho_mqtt_port.c ****         osal_task_sleep(1);///< when disconnect, this has been killed
 1254              		.loc 2 400 9
 1255 0030 0120     		movs	r0, #1
 1256 0032 FFF7FEFF 		bl	osal_task_sleep
 394:c:/Users/lenovo/Desktop/AIoT/first_day/firstday_afternoon/LiteOS_Lab_STM32_IoT/iot_link/network/mqtt/paho_mqtt/port\paho_mqtt_port.c ****         {
 1257              		.loc 2 394 11
 1258 0036 E9E7     		b	.L82
 1259              		.cfi_endproc
 1260              	.LFE16:
 1262              		.section	.bss.s_static_client_debug,"aw",%nobits
 1263              		.align	2
 1266              	s_static_client_debug:
 1267 0000 00000000 		.space	4
 1268              		.section	.rodata
 1269 0003 00       		.align	2
 1270              	.LC3:
 1271 0004 7061686F 		.ascii	"paho\000"
 1271      00
 1272 0009 000000   		.align	2
ARM GAS  C:\Users\lenovo\AppData\Local\Temp\ccxMpoX7.s 			page 34


 1273              	.LC0:
 1274 000c 4D515443 		.ascii	"MQTC"
 1275 0010 00000000 		.word	0
 1276 0014 04       		.byte	4
 1277 0015 000000   		.space	3
 1278 0018 00000000 		.word	0
 1279 001c 00000000 		.word	0
 1280 0020 00000000 		.word	0
 1281 0024 3C00     		.short	60
 1282 0026 01       		.byte	1
 1283 0027 00       		.byte	0
 1284 0028 4D515457 		.ascii	"MQTW"
 1285 002c 00000000 		.word	0
 1286 0030 00000000 		.word	0
 1287 0034 00000000 		.word	0
 1288 0038 00000000 		.word	0
 1289 003c 00000000 		.word	0
 1290 0040 00000000 		.word	0
 1291 0044 00000000 		.word	0
 1292 0048 00       		.byte	0
 1293 0049 00       		.byte	0
 1294 004a 0000     		.space	2
 1295 004c 00000000 		.word	0
 1296 0050 00000000 		.word	0
 1297 0054 00000000 		.word	0
 1298 0058 00000000 		.word	0
 1299 005c 00000000 		.word	0
 1300 0060 00000000 		.word	0
 1301              		.section	.text.__connect,"ax",%progbits
 1302              		.align	1
 1303              		.syntax unified
 1304              		.thumb
 1305              		.thumb_func
 1306              		.fpu fpv4-sp-d16
 1308              	__connect:
 1309              	.LFB17:
 401:c:/Users/lenovo/Desktop/AIoT/first_day/firstday_afternoon/LiteOS_Lab_STM32_IoT/iot_link/network/mqtt/paho_mqtt/port\paho_mqtt_port.c **** 
 402:c:/Users/lenovo/Desktop/AIoT/first_day/firstday_afternoon/LiteOS_Lab_STM32_IoT/iot_link/network/mqtt/paho_mqtt/port\paho_mqtt_port.c ****     }
 403:c:/Users/lenovo/Desktop/AIoT/first_day/firstday_afternoon/LiteOS_Lab_STM32_IoT/iot_link/network/mqtt/paho_mqtt/port\paho_mqtt_port.c ****     return 0;
 404:c:/Users/lenovo/Desktop/AIoT/first_day/firstday_afternoon/LiteOS_Lab_STM32_IoT/iot_link/network/mqtt/paho_mqtt/port\paho_mqtt_port.c **** }
 405:c:/Users/lenovo/Desktop/AIoT/first_day/firstday_afternoon/LiteOS_Lab_STM32_IoT/iot_link/network/mqtt/paho_mqtt/port\paho_mqtt_port.c **** 
 406:c:/Users/lenovo/Desktop/AIoT/first_day/firstday_afternoon/LiteOS_Lab_STM32_IoT/iot_link/network/mqtt/paho_mqtt/port\paho_mqtt_port.c **** 
 407:c:/Users/lenovo/Desktop/AIoT/first_day/firstday_afternoon/LiteOS_Lab_STM32_IoT/iot_link/network/mqtt/paho_mqtt/port\paho_mqtt_port.c **** static     MQTTClient       *s_static_client_debug = NULL;
 408:c:/Users/lenovo/Desktop/AIoT/first_day/firstday_afternoon/LiteOS_Lab_STM32_IoT/iot_link/network/mqtt/paho_mqtt/port\paho_mqtt_port.c **** static void * __connect(mqtt_al_conpara_t *conparam)
 409:c:/Users/lenovo/Desktop/AIoT/first_day/firstday_afternoon/LiteOS_Lab_STM32_IoT/iot_link/network/mqtt/paho_mqtt/port\paho_mqtt_port.c **** {
 1310              		.loc 2 409 1
 1311              		.cfi_startproc
 1312              		@ args = 0, pretend = 0, frame = 120
 1313              		@ frame_needed = 1, uses_anonymous_args = 0
 1314 0000 B0B5     		push	{r4, r5, r7, lr}
 1315              	.LCFI69:
 1316              		.cfi_def_cfa_offset 16
 1317              		.cfi_offset 4, -16
 1318              		.cfi_offset 5, -12
 1319              		.cfi_offset 7, -8
 1320              		.cfi_offset 14, -4
 1321 0002 A2B0     		sub	sp, sp, #136
ARM GAS  C:\Users\lenovo\AppData\Local\Temp\ccxMpoX7.s 			page 35


 1322              	.LCFI70:
 1323              		.cfi_def_cfa_offset 152
 1324 0004 04AF     		add	r7, sp, #16
 1325              	.LCFI71:
 1326              		.cfi_def_cfa 7, 136
 1327 0006 7860     		str	r0, [r7, #4]
 410:c:/Users/lenovo/Desktop/AIoT/first_day/firstday_afternoon/LiteOS_Lab_STM32_IoT/iot_link/network/mqtt/paho_mqtt/port\paho_mqtt_port.c **** 
 411:c:/Users/lenovo/Desktop/AIoT/first_day/firstday_afternoon/LiteOS_Lab_STM32_IoT/iot_link/network/mqtt/paho_mqtt/port\paho_mqtt_port.c ****     void             *ret  = NULL;
 1328              		.loc 2 411 23
 1329 0008 0023     		movs	r3, #0
 1330 000a 7B67     		str	r3, [r7, #116]
 412:c:/Users/lenovo/Desktop/AIoT/first_day/firstday_afternoon/LiteOS_Lab_STM32_IoT/iot_link/network/mqtt/paho_mqtt/port\paho_mqtt_port.c ****     Network          *n = NULL;
 1331              		.loc 2 412 23
 1332 000c 0023     		movs	r3, #0
 1333 000e 3B67     		str	r3, [r7, #112]
 413:c:/Users/lenovo/Desktop/AIoT/first_day/firstday_afternoon/LiteOS_Lab_STM32_IoT/iot_link/network/mqtt/paho_mqtt/port\paho_mqtt_port.c ****     MQTTClient       *c = NULL;
 1334              		.loc 2 413 23
 1335 0010 0023     		movs	r3, #0
 1336 0012 FB66     		str	r3, [r7, #108]
 414:c:/Users/lenovo/Desktop/AIoT/first_day/firstday_afternoon/LiteOS_Lab_STM32_IoT/iot_link/network/mqtt/paho_mqtt/port\paho_mqtt_port.c ****     paho_mqtt_cb_t   *cb = NULL;
 1337              		.loc 2 414 23
 1338 0014 0023     		movs	r3, #0
 1339 0016 BB66     		str	r3, [r7, #104]
 415:c:/Users/lenovo/Desktop/AIoT/first_day/firstday_afternoon/LiteOS_Lab_STM32_IoT/iot_link/network/mqtt/paho_mqtt/port\paho_mqtt_port.c **** 
 416:c:/Users/lenovo/Desktop/AIoT/first_day/firstday_afternoon/LiteOS_Lab_STM32_IoT/iot_link/network/mqtt/paho_mqtt/port\paho_mqtt_port.c ****     MQTTPacket_connectData option = MQTTPacket_connectData_initializer;
 1340              		.loc 2 416 28
 1341 0018 914A     		ldr	r2, .L109
 1342 001a 07F11003 		add	r3, r7, #16
 1343 001e 1146     		mov	r1, r2
 1344 0020 5822     		movs	r2, #88
 1345 0022 1846     		mov	r0, r3
 1346 0024 FFF7FEFF 		bl	memcpy
 417:c:/Users/lenovo/Desktop/AIoT/first_day/firstday_afternoon/LiteOS_Lab_STM32_IoT/iot_link/network/mqtt/paho_mqtt/port\paho_mqtt_port.c ****     MQTTConnackData conack = {0};
 1347              		.loc 2 417 21
 1348 0028 0023     		movs	r3, #0
 1349 002a BB81     		strh	r3, [r7, #12]	@ movhi
 418:c:/Users/lenovo/Desktop/AIoT/first_day/firstday_afternoon/LiteOS_Lab_STM32_IoT/iot_link/network/mqtt/paho_mqtt/port\paho_mqtt_port.c ****     //malloc a handle
 419:c:/Users/lenovo/Desktop/AIoT/first_day/firstday_afternoon/LiteOS_Lab_STM32_IoT/iot_link/network/mqtt/paho_mqtt/port\paho_mqtt_port.c ****     cb = osal_malloc(sizeof(paho_mqtt_cb_t));
 1350              		.loc 2 419 10
 1351 002c 4FF48470 		mov	r0, #264
 1352 0030 FFF7FEFF 		bl	osal_malloc
 1353 0034 B866     		str	r0, [r7, #104]
 420:c:/Users/lenovo/Desktop/AIoT/first_day/firstday_afternoon/LiteOS_Lab_STM32_IoT/iot_link/network/mqtt/paho_mqtt/port\paho_mqtt_port.c ****     if(NULL == cb)
 1354              		.loc 2 420 7
 1355 0036 BB6E     		ldr	r3, [r7, #104]
 1356 0038 002B     		cmp	r3, #0
 1357 003a 04D1     		bne	.L84
 421:c:/Users/lenovo/Desktop/AIoT/first_day/firstday_afternoon/LiteOS_Lab_STM32_IoT/iot_link/network/mqtt/paho_mqtt/port\paho_mqtt_port.c ****     {
 422:c:/Users/lenovo/Desktop/AIoT/first_day/firstday_afternoon/LiteOS_Lab_STM32_IoT/iot_link/network/mqtt/paho_mqtt/port\paho_mqtt_port.c ****         conparam->conret = cn_mqtt_al_con_code_err_unkown;
 1358              		.loc 2 422 26
 1359 003c 7B68     		ldr	r3, [r7, #4]
 1360 003e FF22     		movs	r2, #255
 1361 0040 83F83620 		strb	r2, [r3, #54]
 423:c:/Users/lenovo/Desktop/AIoT/first_day/firstday_afternoon/LiteOS_Lab_STM32_IoT/iot_link/network/mqtt/paho_mqtt/port\paho_mqtt_port.c ****         goto EXIT_CB_MEM_ERR;
 1362              		.loc 2 423 9
 1363 0044 06E1     		b	.L85
 1364              	.L84:
ARM GAS  C:\Users\lenovo\AppData\Local\Temp\ccxMpoX7.s 			page 36


 424:c:/Users/lenovo/Desktop/AIoT/first_day/firstday_afternoon/LiteOS_Lab_STM32_IoT/iot_link/network/mqtt/paho_mqtt/port\paho_mqtt_port.c ****     }
 425:c:/Users/lenovo/Desktop/AIoT/first_day/firstday_afternoon/LiteOS_Lab_STM32_IoT/iot_link/network/mqtt/paho_mqtt/port\paho_mqtt_port.c **** 
 426:c:/Users/lenovo/Desktop/AIoT/first_day/firstday_afternoon/LiteOS_Lab_STM32_IoT/iot_link/network/mqtt/paho_mqtt/port\paho_mqtt_port.c ****     memset(cb,0,sizeof(paho_mqtt_cb_t));
 1365              		.loc 2 426 5
 1366 0046 4FF48472 		mov	r2, #264
 1367 004a 0021     		movs	r1, #0
 1368 004c B86E     		ldr	r0, [r7, #104]
 1369 004e FFF7FEFF 		bl	memset
 427:c:/Users/lenovo/Desktop/AIoT/first_day/firstday_afternoon/LiteOS_Lab_STM32_IoT/iot_link/network/mqtt/paho_mqtt/port\paho_mqtt_port.c ****     cb->task = NULL;
 1370              		.loc 2 427 14
 1371 0052 BB6E     		ldr	r3, [r7, #104]
 1372 0054 0022     		movs	r2, #0
 1373 0056 C3F8F820 		str	r2, [r3, #248]
 428:c:/Users/lenovo/Desktop/AIoT/first_day/firstday_afternoon/LiteOS_Lab_STM32_IoT/iot_link/network/mqtt/paho_mqtt/port\paho_mqtt_port.c ****     conparam->conret = cn_mqtt_al_con_code_err_unkown;
 1374              		.loc 2 428 22
 1375 005a 7B68     		ldr	r3, [r7, #4]
 1376 005c FF22     		movs	r2, #255
 1377 005e 83F83620 		strb	r2, [r3, #54]
 429:c:/Users/lenovo/Desktop/AIoT/first_day/firstday_afternoon/LiteOS_Lab_STM32_IoT/iot_link/network/mqtt/paho_mqtt/port\paho_mqtt_port.c **** 
 430:c:/Users/lenovo/Desktop/AIoT/first_day/firstday_afternoon/LiteOS_Lab_STM32_IoT/iot_link/network/mqtt/paho_mqtt/port\paho_mqtt_port.c ****     //do the net connect
 431:c:/Users/lenovo/Desktop/AIoT/first_day/firstday_afternoon/LiteOS_Lab_STM32_IoT/iot_link/network/mqtt/paho_mqtt/port\paho_mqtt_port.c ****     n = &cb->network;
 1378              		.loc 2 431 7
 1379 0062 BB6E     		ldr	r3, [r7, #104]
 1380 0064 3B67     		str	r3, [r7, #112]
 432:c:/Users/lenovo/Desktop/AIoT/first_day/firstday_afternoon/LiteOS_Lab_STM32_IoT/iot_link/network/mqtt/paho_mqtt/port\paho_mqtt_port.c ****     n->mqttread = __io_read;
 1381              		.loc 2 432 17
 1382 0066 3B6F     		ldr	r3, [r7, #112]
 1383 0068 7E4A     		ldr	r2, .L109+4
 1384 006a DA62     		str	r2, [r3, #44]
 433:c:/Users/lenovo/Desktop/AIoT/first_day/firstday_afternoon/LiteOS_Lab_STM32_IoT/iot_link/network/mqtt/paho_mqtt/port\paho_mqtt_port.c ****     n->mqttwrite = __io_write;
 1385              		.loc 2 433 18
 1386 006c 3B6F     		ldr	r3, [r7, #112]
 1387 006e 7E4A     		ldr	r2, .L109+8
 1388 0070 1A63     		str	r2, [r3, #48]
 434:c:/Users/lenovo/Desktop/AIoT/first_day/firstday_afternoon/LiteOS_Lab_STM32_IoT/iot_link/network/mqtt/paho_mqtt/port\paho_mqtt_port.c **** 
 435:c:/Users/lenovo/Desktop/AIoT/first_day/firstday_afternoon/LiteOS_Lab_STM32_IoT/iot_link/network/mqtt/paho_mqtt/port\paho_mqtt_port.c ****     if(NULL == conparam->security)
 1389              		.loc 2 435 24
 1390 0072 7B68     		ldr	r3, [r7, #4]
 1391 0074 DB68     		ldr	r3, [r3, #12]
 1392              		.loc 2 435 7
 1393 0076 002B     		cmp	r3, #0
 1394 0078 03D1     		bne	.L86
 436:c:/Users/lenovo/Desktop/AIoT/first_day/firstday_afternoon/LiteOS_Lab_STM32_IoT/iot_link/network/mqtt/paho_mqtt/port\paho_mqtt_port.c ****     {
 437:c:/Users/lenovo/Desktop/AIoT/first_day/firstday_afternoon/LiteOS_Lab_STM32_IoT/iot_link/network/mqtt/paho_mqtt/port\paho_mqtt_port.c ****         n->arg.type = EN_DTLS_AL_SECURITY_TYPE_NONE;
 1395              		.loc 2 437 21
 1396 007a 3B6F     		ldr	r3, [r7, #112]
 1397 007c 0022     		movs	r2, #0
 1398 007e 1A71     		strb	r2, [r3, #4]
 1399 0080 0CE0     		b	.L87
 1400              	.L86:
 438:c:/Users/lenovo/Desktop/AIoT/first_day/firstday_afternoon/LiteOS_Lab_STM32_IoT/iot_link/network/mqtt/paho_mqtt/port\paho_mqtt_port.c ****     }
 439:c:/Users/lenovo/Desktop/AIoT/first_day/firstday_afternoon/LiteOS_Lab_STM32_IoT/iot_link/network/mqtt/paho_mqtt/port\paho_mqtt_port.c ****     else
 440:c:/Users/lenovo/Desktop/AIoT/first_day/firstday_afternoon/LiteOS_Lab_STM32_IoT/iot_link/network/mqtt/paho_mqtt/port\paho_mqtt_port.c ****     {
 441:c:/Users/lenovo/Desktop/AIoT/first_day/firstday_afternoon/LiteOS_Lab_STM32_IoT/iot_link/network/mqtt/paho_mqtt/port\paho_mqtt_port.c ****         n->arg = *conparam->security;
 1401              		.loc 2 441 27
 1402 0082 7B68     		ldr	r3, [r7, #4]
 1403 0084 DA68     		ldr	r2, [r3, #12]
ARM GAS  C:\Users\lenovo\AppData\Local\Temp\ccxMpoX7.s 			page 37


 1404              		.loc 2 441 16
 1405 0086 3B6F     		ldr	r3, [r7, #112]
 1406 0088 1C1D     		adds	r4, r3, #4
 1407 008a 1546     		mov	r5, r2
 1408 008c 0FCD     		ldmia	r5!, {r0, r1, r2, r3}
 1409 008e 0FC4     		stmia	r4!, {r0, r1, r2, r3}
 1410 0090 0FCD     		ldmia	r5!, {r0, r1, r2, r3}
 1411 0092 0FC4     		stmia	r4!, {r0, r1, r2, r3}
 1412 0094 95E80300 		ldm	r5, {r0, r1}
 1413 0098 84E80300 		stm	r4, {r0, r1}
 1414              	.L87:
 442:c:/Users/lenovo/Desktop/AIoT/first_day/firstday_afternoon/LiteOS_Lab_STM32_IoT/iot_link/network/mqtt/paho_mqtt/port\paho_mqtt_port.c ****     }
 443:c:/Users/lenovo/Desktop/AIoT/first_day/firstday_afternoon/LiteOS_Lab_STM32_IoT/iot_link/network/mqtt/paho_mqtt/port\paho_mqtt_port.c ****     if(0 != __io_connect(n,conparam->serveraddr.data,conparam->serverport))
 1415              		.loc 2 443 13
 1416 009c 7B68     		ldr	r3, [r7, #4]
 1417 009e 1968     		ldr	r1, [r3]
 1418 00a0 7B68     		ldr	r3, [r7, #4]
 1419 00a2 9B68     		ldr	r3, [r3, #8]
 1420 00a4 1A46     		mov	r2, r3
 1421 00a6 386F     		ldr	r0, [r7, #112]
 1422 00a8 FFF7FEFF 		bl	__io_connect
 1423 00ac 0346     		mov	r3, r0
 1424              		.loc 2 443 7
 1425 00ae 002B     		cmp	r3, #0
 1426 00b0 04D0     		beq	.L88
 444:c:/Users/lenovo/Desktop/AIoT/first_day/firstday_afternoon/LiteOS_Lab_STM32_IoT/iot_link/network/mqtt/paho_mqtt/port\paho_mqtt_port.c ****     {
 445:c:/Users/lenovo/Desktop/AIoT/first_day/firstday_afternoon/LiteOS_Lab_STM32_IoT/iot_link/network/mqtt/paho_mqtt/port\paho_mqtt_port.c ****         conparam->conret = cn_mqtt_al_con_code_err_network;
 1427              		.loc 2 445 26
 1428 00b2 7B68     		ldr	r3, [r7, #4]
 1429 00b4 8022     		movs	r2, #128
 1430 00b6 83F83620 		strb	r2, [r3, #54]
 446:c:/Users/lenovo/Desktop/AIoT/first_day/firstday_afternoon/LiteOS_Lab_STM32_IoT/iot_link/network/mqtt/paho_mqtt/port\paho_mqtt_port.c **** 
 447:c:/Users/lenovo/Desktop/AIoT/first_day/firstday_afternoon/LiteOS_Lab_STM32_IoT/iot_link/network/mqtt/paho_mqtt/port\paho_mqtt_port.c ****         goto EXIT_NET_CONNECT_ERR;
 1431              		.loc 2 447 9
 1432 00ba C8E0     		b	.L89
 1433              	.L88:
 448:c:/Users/lenovo/Desktop/AIoT/first_day/firstday_afternoon/LiteOS_Lab_STM32_IoT/iot_link/network/mqtt/paho_mqtt/port\paho_mqtt_port.c ****     }
 449:c:/Users/lenovo/Desktop/AIoT/first_day/firstday_afternoon/LiteOS_Lab_STM32_IoT/iot_link/network/mqtt/paho_mqtt/port\paho_mqtt_port.c ****     //then do the mqtt config
 450:c:/Users/lenovo/Desktop/AIoT/first_day/firstday_afternoon/LiteOS_Lab_STM32_IoT/iot_link/network/mqtt/paho_mqtt/port\paho_mqtt_port.c ****     cb->rcvbuf = osal_malloc(cn_mqtt_rcvbuf_size) ;
 1434              		.loc 2 450 18
 1435 00bc 4FF40060 		mov	r0, #2048
 1436 00c0 FFF7FEFF 		bl	osal_malloc
 1437 00c4 0246     		mov	r2, r0
 1438              		.loc 2 450 16
 1439 00c6 BB6E     		ldr	r3, [r7, #104]
 1440 00c8 C3F8FC20 		str	r2, [r3, #252]
 451:c:/Users/lenovo/Desktop/AIoT/first_day/firstday_afternoon/LiteOS_Lab_STM32_IoT/iot_link/network/mqtt/paho_mqtt/port\paho_mqtt_port.c ****     cb->sndbuf = osal_malloc(cn_mqtt_sndbuf_size) ;
 1441              		.loc 2 451 18
 1442 00cc 4FF40060 		mov	r0, #2048
 1443 00d0 FFF7FEFF 		bl	osal_malloc
 1444 00d4 0246     		mov	r2, r0
 1445              		.loc 2 451 16
 1446 00d6 BB6E     		ldr	r3, [r7, #104]
 1447 00d8 C3F80021 		str	r2, [r3, #256]
 452:c:/Users/lenovo/Desktop/AIoT/first_day/firstday_afternoon/LiteOS_Lab_STM32_IoT/iot_link/network/mqtt/paho_mqtt/port\paho_mqtt_port.c ****     if((NULL == cb->rcvbuf) || (NULL == cb->sndbuf))
 1448              		.loc 2 452 19
 1449 00dc BB6E     		ldr	r3, [r7, #104]
ARM GAS  C:\Users\lenovo\AppData\Local\Temp\ccxMpoX7.s 			page 38


 1450 00de D3F8FC30 		ldr	r3, [r3, #252]
 1451              		.loc 2 452 7
 1452 00e2 002B     		cmp	r3, #0
 1453 00e4 04D0     		beq	.L90
 1454              		.loc 2 452 43 discriminator 1
 1455 00e6 BB6E     		ldr	r3, [r7, #104]
 1456 00e8 D3F80031 		ldr	r3, [r3, #256]
 1457              		.loc 2 452 29 discriminator 1
 1458 00ec 002B     		cmp	r3, #0
 1459 00ee 04D1     		bne	.L91
 1460              	.L90:
 453:c:/Users/lenovo/Desktop/AIoT/first_day/firstday_afternoon/LiteOS_Lab_STM32_IoT/iot_link/network/mqtt/paho_mqtt/port\paho_mqtt_port.c ****     {
 454:c:/Users/lenovo/Desktop/AIoT/first_day/firstday_afternoon/LiteOS_Lab_STM32_IoT/iot_link/network/mqtt/paho_mqtt/port\paho_mqtt_port.c ****         conparam->conret = cn_mqtt_al_con_code_err_unkown;
 1461              		.loc 2 454 26
 1462 00f0 7B68     		ldr	r3, [r7, #4]
 1463 00f2 FF22     		movs	r2, #255
 1464 00f4 83F83620 		strb	r2, [r3, #54]
 455:c:/Users/lenovo/Desktop/AIoT/first_day/firstday_afternoon/LiteOS_Lab_STM32_IoT/iot_link/network/mqtt/paho_mqtt/port\paho_mqtt_port.c ****         goto EIXT_BUF_MEM_ERR;
 1465              		.loc 2 455 9
 1466 00f8 9AE0     		b	.L104
 1467              	.L91:
 456:c:/Users/lenovo/Desktop/AIoT/first_day/firstday_afternoon/LiteOS_Lab_STM32_IoT/iot_link/network/mqtt/paho_mqtt/port\paho_mqtt_port.c ****     }
 457:c:/Users/lenovo/Desktop/AIoT/first_day/firstday_afternoon/LiteOS_Lab_STM32_IoT/iot_link/network/mqtt/paho_mqtt/port\paho_mqtt_port.c ****     c = &cb->client;
 1468              		.loc 2 457 7
 1469 00fa BB6E     		ldr	r3, [r7, #104]
 1470 00fc 3833     		adds	r3, r3, #56
 1471 00fe FB66     		str	r3, [r7, #108]
 458:c:/Users/lenovo/Desktop/AIoT/first_day/firstday_afternoon/LiteOS_Lab_STM32_IoT/iot_link/network/mqtt/paho_mqtt/port\paho_mqtt_port.c ****     if(MQTT_SUCCESS != MQTTClientInit(c, n, cn_mqtt_cmd_timeout_ms,\
 459:c:/Users/lenovo/Desktop/AIoT/first_day/firstday_afternoon/LiteOS_Lab_STM32_IoT/iot_link/network/mqtt/paho_mqtt/port\paho_mqtt_port.c ****             cb->sndbuf, cn_mqtt_sndbuf_size, cb->rcvbuf, cn_mqtt_rcvbuf_size))
 1472              		.loc 2 459 15
 1473 0100 BB6E     		ldr	r3, [r7, #104]
 1474 0102 D3F80021 		ldr	r2, [r3, #256]
 1475              		.loc 2 459 48
 1476 0106 BB6E     		ldr	r3, [r7, #104]
 1477 0108 D3F8FC30 		ldr	r3, [r3, #252]
 458:c:/Users/lenovo/Desktop/AIoT/first_day/firstday_afternoon/LiteOS_Lab_STM32_IoT/iot_link/network/mqtt/paho_mqtt/port\paho_mqtt_port.c ****     if(MQTT_SUCCESS != MQTTClientInit(c, n, cn_mqtt_cmd_timeout_ms,\
 1478              		.loc 2 458 24
 1479 010c 4FF40061 		mov	r1, #2048
 1480 0110 0291     		str	r1, [sp, #8]
 1481 0112 0193     		str	r3, [sp, #4]
 1482 0114 4FF40063 		mov	r3, #2048
 1483 0118 0093     		str	r3, [sp]
 1484 011a 1346     		mov	r3, r2
 1485 011c 42F21072 		movw	r2, #10000
 1486 0120 396F     		ldr	r1, [r7, #112]
 1487 0122 F86E     		ldr	r0, [r7, #108]
 1488 0124 FFF7FEFF 		bl	MQTTClientInit
 1489 0128 0346     		mov	r3, r0
 458:c:/Users/lenovo/Desktop/AIoT/first_day/firstday_afternoon/LiteOS_Lab_STM32_IoT/iot_link/network/mqtt/paho_mqtt/port\paho_mqtt_port.c ****     if(MQTT_SUCCESS != MQTTClientInit(c, n, cn_mqtt_cmd_timeout_ms,\
 1490              		.loc 2 458 7
 1491 012a 002B     		cmp	r3, #0
 1492 012c 7FD1     		bne	.L107
 460:c:/Users/lenovo/Desktop/AIoT/first_day/firstday_afternoon/LiteOS_Lab_STM32_IoT/iot_link/network/mqtt/paho_mqtt/port\paho_mqtt_port.c ****     {
 461:c:/Users/lenovo/Desktop/AIoT/first_day/firstday_afternoon/LiteOS_Lab_STM32_IoT/iot_link/network/mqtt/paho_mqtt/port\paho_mqtt_port.c ****         goto EXIT_MQTT_INIT;
 462:c:/Users/lenovo/Desktop/AIoT/first_day/firstday_afternoon/LiteOS_Lab_STM32_IoT/iot_link/network/mqtt/paho_mqtt/port\paho_mqtt_port.c ****     }
 463:c:/Users/lenovo/Desktop/AIoT/first_day/firstday_afternoon/LiteOS_Lab_STM32_IoT/iot_link/network/mqtt/paho_mqtt/port\paho_mqtt_port.c ****     //then do make the mqtt connect param
 464:c:/Users/lenovo/Desktop/AIoT/first_day/firstday_afternoon/LiteOS_Lab_STM32_IoT/iot_link/network/mqtt/paho_mqtt/port\paho_mqtt_port.c ****     if(conparam->version == en_mqtt_al_version_3_1_0)
ARM GAS  C:\Users\lenovo\AppData\Local\Temp\ccxMpoX7.s 			page 39


 1493              		.loc 2 464 16
 1494 012e 7B68     		ldr	r3, [r7, #4]
 1495 0130 1B7C     		ldrb	r3, [r3, #16]	@ zero_extendqisi2
 1496              		.loc 2 464 7
 1497 0132 002B     		cmp	r3, #0
 1498 0134 02D1     		bne	.L94
 465:c:/Users/lenovo/Desktop/AIoT/first_day/firstday_afternoon/LiteOS_Lab_STM32_IoT/iot_link/network/mqtt/paho_mqtt/port\paho_mqtt_port.c ****     {
 466:c:/Users/lenovo/Desktop/AIoT/first_day/firstday_afternoon/LiteOS_Lab_STM32_IoT/iot_link/network/mqtt/paho_mqtt/port\paho_mqtt_port.c ****         option.MQTTVersion = 3 ;
 1499              		.loc 2 466 28
 1500 0136 0323     		movs	r3, #3
 1501 0138 3B76     		strb	r3, [r7, #24]
 1502 013a 01E0     		b	.L95
 1503              	.L94:
 467:c:/Users/lenovo/Desktop/AIoT/first_day/firstday_afternoon/LiteOS_Lab_STM32_IoT/iot_link/network/mqtt/paho_mqtt/port\paho_mqtt_port.c ****     }
 468:c:/Users/lenovo/Desktop/AIoT/first_day/firstday_afternoon/LiteOS_Lab_STM32_IoT/iot_link/network/mqtt/paho_mqtt/port\paho_mqtt_port.c ****     else
 469:c:/Users/lenovo/Desktop/AIoT/first_day/firstday_afternoon/LiteOS_Lab_STM32_IoT/iot_link/network/mqtt/paho_mqtt/port\paho_mqtt_port.c ****     {
 470:c:/Users/lenovo/Desktop/AIoT/first_day/firstday_afternoon/LiteOS_Lab_STM32_IoT/iot_link/network/mqtt/paho_mqtt/port\paho_mqtt_port.c ****         option.MQTTVersion = 4 ;
 1504              		.loc 2 470 28
 1505 013c 0423     		movs	r3, #4
 1506 013e 3B76     		strb	r3, [r7, #24]
 1507              	.L95:
 471:c:/Users/lenovo/Desktop/AIoT/first_day/firstday_afternoon/LiteOS_Lab_STM32_IoT/iot_link/network/mqtt/paho_mqtt/port\paho_mqtt_port.c ****     }
 472:c:/Users/lenovo/Desktop/AIoT/first_day/firstday_afternoon/LiteOS_Lab_STM32_IoT/iot_link/network/mqtt/paho_mqtt/port\paho_mqtt_port.c **** 
 473:c:/Users/lenovo/Desktop/AIoT/first_day/firstday_afternoon/LiteOS_Lab_STM32_IoT/iot_link/network/mqtt/paho_mqtt/port\paho_mqtt_port.c ****     option.clientID.lenstring.len = conparam->clientid.len;
 1508              		.loc 2 473 55
 1509 0140 7B68     		ldr	r3, [r7, #4]
 1510 0142 9B69     		ldr	r3, [r3, #24]
 1511              		.loc 2 473 35
 1512 0144 3B62     		str	r3, [r7, #32]
 474:c:/Users/lenovo/Desktop/AIoT/first_day/firstday_afternoon/LiteOS_Lab_STM32_IoT/iot_link/network/mqtt/paho_mqtt/port\paho_mqtt_port.c ****     option.clientID.lenstring.data = conparam->clientid.data;
 1513              		.loc 2 474 56
 1514 0146 7B68     		ldr	r3, [r7, #4]
 1515 0148 5B69     		ldr	r3, [r3, #20]
 1516              		.loc 2 474 36
 1517 014a 7B62     		str	r3, [r7, #36]
 475:c:/Users/lenovo/Desktop/AIoT/first_day/firstday_afternoon/LiteOS_Lab_STM32_IoT/iot_link/network/mqtt/paho_mqtt/port\paho_mqtt_port.c **** 
 476:c:/Users/lenovo/Desktop/AIoT/first_day/firstday_afternoon/LiteOS_Lab_STM32_IoT/iot_link/network/mqtt/paho_mqtt/port\paho_mqtt_port.c ****     option.keepAliveInterval = conparam->keepalivetime;
 1518              		.loc 2 476 40
 1519 014c 7B68     		ldr	r3, [r7, #4]
 1520 014e 9B8E     		ldrh	r3, [r3, #52]
 1521              		.loc 2 476 30
 1522 0150 3B85     		strh	r3, [r7, #40]	@ movhi
 477:c:/Users/lenovo/Desktop/AIoT/first_day/firstday_afternoon/LiteOS_Lab_STM32_IoT/iot_link/network/mqtt/paho_mqtt/port\paho_mqtt_port.c **** 
 478:c:/Users/lenovo/Desktop/AIoT/first_day/firstday_afternoon/LiteOS_Lab_STM32_IoT/iot_link/network/mqtt/paho_mqtt/port\paho_mqtt_port.c ****     option.cleansession = (unsigned char)conparam->cleansession;
 1523              		.loc 2 478 50
 1524 0152 7B68     		ldr	r3, [r7, #4]
 1525 0154 DB6A     		ldr	r3, [r3, #44]
 1526              		.loc 2 478 27
 1527 0156 DBB2     		uxtb	r3, r3
 1528              		.loc 2 478 25
 1529 0158 87F82A30 		strb	r3, [r7, #42]
 479:c:/Users/lenovo/Desktop/AIoT/first_day/firstday_afternoon/LiteOS_Lab_STM32_IoT/iot_link/network/mqtt/paho_mqtt/port\paho_mqtt_port.c **** 
 480:c:/Users/lenovo/Desktop/AIoT/first_day/firstday_afternoon/LiteOS_Lab_STM32_IoT/iot_link/network/mqtt/paho_mqtt/port\paho_mqtt_port.c ****     if(NULL != conparam->willmsg)
 1530              		.loc 2 480 24
 1531 015c 7B68     		ldr	r3, [r7, #4]
 1532 015e 1B6B     		ldr	r3, [r3, #48]
 1533              		.loc 2 480 7
ARM GAS  C:\Users\lenovo\AppData\Local\Temp\ccxMpoX7.s 			page 40


 1534 0160 002B     		cmp	r3, #0
 1535 0162 1ED0     		beq	.L96
 481:c:/Users/lenovo/Desktop/AIoT/first_day/firstday_afternoon/LiteOS_Lab_STM32_IoT/iot_link/network/mqtt/paho_mqtt/port\paho_mqtt_port.c ****     {
 482:c:/Users/lenovo/Desktop/AIoT/first_day/firstday_afternoon/LiteOS_Lab_STM32_IoT/iot_link/network/mqtt/paho_mqtt/port\paho_mqtt_port.c **** 
 483:c:/Users/lenovo/Desktop/AIoT/first_day/firstday_afternoon/LiteOS_Lab_STM32_IoT/iot_link/network/mqtt/paho_mqtt/port\paho_mqtt_port.c ****         option.willFlag = 1;
 1536              		.loc 2 483 25
 1537 0164 0123     		movs	r3, #1
 1538 0166 87F82B30 		strb	r3, [r7, #43]
 484:c:/Users/lenovo/Desktop/AIoT/first_day/firstday_afternoon/LiteOS_Lab_STM32_IoT/iot_link/network/mqtt/paho_mqtt/port\paho_mqtt_port.c ****         option.will.qos = conparam->willmsg->qos;
 1539              		.loc 2 484 35
 1540 016a 7B68     		ldr	r3, [r7, #4]
 1541 016c 1B6B     		ldr	r3, [r3, #48]
 1542              		.loc 2 484 44
 1543 016e 1B7C     		ldrb	r3, [r3, #16]	@ zero_extendqisi2
 1544              		.loc 2 484 25
 1545 0170 87F84D30 		strb	r3, [r7, #77]
 485:c:/Users/lenovo/Desktop/AIoT/first_day/firstday_afternoon/LiteOS_Lab_STM32_IoT/iot_link/network/mqtt/paho_mqtt/port\paho_mqtt_port.c ****         option.will.retained = (unsigned char )conparam->willmsg->retain;
 1546              		.loc 2 485 56
 1547 0174 7B68     		ldr	r3, [r7, #4]
 1548 0176 1B6B     		ldr	r3, [r3, #48]
 1549              		.loc 2 485 65
 1550 0178 5B69     		ldr	r3, [r3, #20]
 1551              		.loc 2 485 32
 1552 017a DBB2     		uxtb	r3, r3
 1553              		.loc 2 485 30
 1554 017c 87F84C30 		strb	r3, [r7, #76]
 486:c:/Users/lenovo/Desktop/AIoT/first_day/firstday_afternoon/LiteOS_Lab_STM32_IoT/iot_link/network/mqtt/paho_mqtt/port\paho_mqtt_port.c **** 
 487:c:/Users/lenovo/Desktop/AIoT/first_day/firstday_afternoon/LiteOS_Lab_STM32_IoT/iot_link/network/mqtt/paho_mqtt/port\paho_mqtt_port.c ****         option.will.topicName.lenstring.len = conparam->willmsg->topic.len;
 1555              		.loc 2 487 55
 1556 0180 7B68     		ldr	r3, [r7, #4]
 1557 0182 1B6B     		ldr	r3, [r3, #48]
 1558              		.loc 2 487 71
 1559 0184 5B68     		ldr	r3, [r3, #4]
 1560              		.loc 2 487 45
 1561 0186 BB63     		str	r3, [r7, #56]
 488:c:/Users/lenovo/Desktop/AIoT/first_day/firstday_afternoon/LiteOS_Lab_STM32_IoT/iot_link/network/mqtt/paho_mqtt/port\paho_mqtt_port.c ****         option.will.topicName.lenstring.data = conparam->willmsg->topic.data;
 1562              		.loc 2 488 56
 1563 0188 7B68     		ldr	r3, [r7, #4]
 1564 018a 1B6B     		ldr	r3, [r3, #48]
 1565              		.loc 2 488 72
 1566 018c 1B68     		ldr	r3, [r3]
 1567              		.loc 2 488 46
 1568 018e FB63     		str	r3, [r7, #60]
 489:c:/Users/lenovo/Desktop/AIoT/first_day/firstday_afternoon/LiteOS_Lab_STM32_IoT/iot_link/network/mqtt/paho_mqtt/port\paho_mqtt_port.c **** 
 490:c:/Users/lenovo/Desktop/AIoT/first_day/firstday_afternoon/LiteOS_Lab_STM32_IoT/iot_link/network/mqtt/paho_mqtt/port\paho_mqtt_port.c ****         option.will.message.lenstring.len =conparam->willmsg->msg.len;
 1569              		.loc 2 490 52
 1570 0190 7B68     		ldr	r3, [r7, #4]
 1571 0192 1B6B     		ldr	r3, [r3, #48]
 1572              		.loc 2 490 66
 1573 0194 DB68     		ldr	r3, [r3, #12]
 1574              		.loc 2 490 43
 1575 0196 7B64     		str	r3, [r7, #68]
 491:c:/Users/lenovo/Desktop/AIoT/first_day/firstday_afternoon/LiteOS_Lab_STM32_IoT/iot_link/network/mqtt/paho_mqtt/port\paho_mqtt_port.c ****         option.will.message.lenstring.data =conparam->willmsg->msg.data;
 1576              		.loc 2 491 53
 1577 0198 7B68     		ldr	r3, [r7, #4]
 1578 019a 1B6B     		ldr	r3, [r3, #48]
 1579              		.loc 2 491 67
ARM GAS  C:\Users\lenovo\AppData\Local\Temp\ccxMpoX7.s 			page 41


 1580 019c 9B68     		ldr	r3, [r3, #8]
 1581              		.loc 2 491 44
 1582 019e BB64     		str	r3, [r7, #72]
 1583 01a0 02E0     		b	.L97
 1584              	.L96:
 492:c:/Users/lenovo/Desktop/AIoT/first_day/firstday_afternoon/LiteOS_Lab_STM32_IoT/iot_link/network/mqtt/paho_mqtt/port\paho_mqtt_port.c **** 
 493:c:/Users/lenovo/Desktop/AIoT/first_day/firstday_afternoon/LiteOS_Lab_STM32_IoT/iot_link/network/mqtt/paho_mqtt/port\paho_mqtt_port.c ****     }
 494:c:/Users/lenovo/Desktop/AIoT/first_day/firstday_afternoon/LiteOS_Lab_STM32_IoT/iot_link/network/mqtt/paho_mqtt/port\paho_mqtt_port.c ****     else
 495:c:/Users/lenovo/Desktop/AIoT/first_day/firstday_afternoon/LiteOS_Lab_STM32_IoT/iot_link/network/mqtt/paho_mqtt/port\paho_mqtt_port.c ****     {
 496:c:/Users/lenovo/Desktop/AIoT/first_day/firstday_afternoon/LiteOS_Lab_STM32_IoT/iot_link/network/mqtt/paho_mqtt/port\paho_mqtt_port.c ****         option.willFlag = 0;
 1585              		.loc 2 496 25
 1586 01a2 0023     		movs	r3, #0
 1587 01a4 87F82B30 		strb	r3, [r7, #43]
 1588              	.L97:
 497:c:/Users/lenovo/Desktop/AIoT/first_day/firstday_afternoon/LiteOS_Lab_STM32_IoT/iot_link/network/mqtt/paho_mqtt/port\paho_mqtt_port.c ****     }
 498:c:/Users/lenovo/Desktop/AIoT/first_day/firstday_afternoon/LiteOS_Lab_STM32_IoT/iot_link/network/mqtt/paho_mqtt/port\paho_mqtt_port.c **** 
 499:c:/Users/lenovo/Desktop/AIoT/first_day/firstday_afternoon/LiteOS_Lab_STM32_IoT/iot_link/network/mqtt/paho_mqtt/port\paho_mqtt_port.c ****     option.username.lenstring.len = conparam->user.len;
 1589              		.loc 2 499 51
 1590 01a8 7B68     		ldr	r3, [r7, #4]
 1591 01aa 1B6A     		ldr	r3, [r3, #32]
 1592              		.loc 2 499 35
 1593 01ac 7B65     		str	r3, [r7, #84]
 500:c:/Users/lenovo/Desktop/AIoT/first_day/firstday_afternoon/LiteOS_Lab_STM32_IoT/iot_link/network/mqtt/paho_mqtt/port\paho_mqtt_port.c ****     option.username.lenstring.data = conparam->user.data;
 1594              		.loc 2 500 52
 1595 01ae 7B68     		ldr	r3, [r7, #4]
 1596 01b0 DB69     		ldr	r3, [r3, #28]
 1597              		.loc 2 500 36
 1598 01b2 BB65     		str	r3, [r7, #88]
 501:c:/Users/lenovo/Desktop/AIoT/first_day/firstday_afternoon/LiteOS_Lab_STM32_IoT/iot_link/network/mqtt/paho_mqtt/port\paho_mqtt_port.c **** 
 502:c:/Users/lenovo/Desktop/AIoT/first_day/firstday_afternoon/LiteOS_Lab_STM32_IoT/iot_link/network/mqtt/paho_mqtt/port\paho_mqtt_port.c ****     option.password.lenstring.len = conparam->passwd.len;
 1599              		.loc 2 502 53
 1600 01b4 7B68     		ldr	r3, [r7, #4]
 1601 01b6 9B6A     		ldr	r3, [r3, #40]
 1602              		.loc 2 502 35
 1603 01b8 3B66     		str	r3, [r7, #96]
 503:c:/Users/lenovo/Desktop/AIoT/first_day/firstday_afternoon/LiteOS_Lab_STM32_IoT/iot_link/network/mqtt/paho_mqtt/port\paho_mqtt_port.c ****     option.password.lenstring.data = conparam->passwd.data;
 1604              		.loc 2 503 54
 1605 01ba 7B68     		ldr	r3, [r7, #4]
 1606 01bc 5B6A     		ldr	r3, [r3, #36]
 1607              		.loc 2 503 36
 1608 01be 7B66     		str	r3, [r7, #100]
 504:c:/Users/lenovo/Desktop/AIoT/first_day/firstday_afternoon/LiteOS_Lab_STM32_IoT/iot_link/network/mqtt/paho_mqtt/port\paho_mqtt_port.c **** 
 505:c:/Users/lenovo/Desktop/AIoT/first_day/firstday_afternoon/LiteOS_Lab_STM32_IoT/iot_link/network/mqtt/paho_mqtt/port\paho_mqtt_port.c ****     if((MQTT_SUCCESS != MQTTConnectWithResults(c, &option,&conack)) || \
 1609              		.loc 2 505 25
 1610 01c0 07F10C02 		add	r2, r7, #12
 1611 01c4 07F11003 		add	r3, r7, #16
 1612 01c8 1946     		mov	r1, r3
 1613 01ca F86E     		ldr	r0, [r7, #108]
 1614 01cc FFF7FEFF 		bl	MQTTConnectWithResults
 1615 01d0 0346     		mov	r3, r0
 1616              		.loc 2 505 7
 1617 01d2 002B     		cmp	r3, #0
 1618 01d4 02D1     		bne	.L98
 506:c:/Users/lenovo/Desktop/AIoT/first_day/firstday_afternoon/LiteOS_Lab_STM32_IoT/iot_link/network/mqtt/paho_mqtt/port\paho_mqtt_port.c ****          (conack.rc != cn_mqtt_al_con_code_ok))
 1619              		.loc 2 506 17 discriminator 1
 1620 01d6 3B7B     		ldrb	r3, [r7, #12]	@ zero_extendqisi2
 505:c:/Users/lenovo/Desktop/AIoT/first_day/firstday_afternoon/LiteOS_Lab_STM32_IoT/iot_link/network/mqtt/paho_mqtt/port\paho_mqtt_port.c ****          (conack.rc != cn_mqtt_al_con_code_ok))
ARM GAS  C:\Users\lenovo\AppData\Local\Temp\ccxMpoX7.s 			page 42


 1621              		.loc 2 505 69 discriminator 1
 1622 01d8 002B     		cmp	r3, #0
 1623 01da 04D0     		beq	.L99
 1624              	.L98:
 507:c:/Users/lenovo/Desktop/AIoT/first_day/firstday_afternoon/LiteOS_Lab_STM32_IoT/iot_link/network/mqtt/paho_mqtt/port\paho_mqtt_port.c ****     {
 508:c:/Users/lenovo/Desktop/AIoT/first_day/firstday_afternoon/LiteOS_Lab_STM32_IoT/iot_link/network/mqtt/paho_mqtt/port\paho_mqtt_port.c ****         conparam->conret = conack.rc;
 1625              		.loc 2 508 34
 1626 01dc 3A7B     		ldrb	r2, [r7, #12]	@ zero_extendqisi2
 1627              		.loc 2 508 26
 1628 01de 7B68     		ldr	r3, [r7, #4]
 1629 01e0 83F83620 		strb	r2, [r3, #54]
 509:c:/Users/lenovo/Desktop/AIoT/first_day/firstday_afternoon/LiteOS_Lab_STM32_IoT/iot_link/network/mqtt/paho_mqtt/port\paho_mqtt_port.c ****         goto EXIT_MQTT_CONNECT;
 1630              		.loc 2 509 9
 1631 01e4 24E0     		b	.L104
 1632              	.L99:
 510:c:/Users/lenovo/Desktop/AIoT/first_day/firstday_afternoon/LiteOS_Lab_STM32_IoT/iot_link/network/mqtt/paho_mqtt/port\paho_mqtt_port.c ****     }
 511:c:/Users/lenovo/Desktop/AIoT/first_day/firstday_afternoon/LiteOS_Lab_STM32_IoT/iot_link/network/mqtt/paho_mqtt/port\paho_mqtt_port.c ****     else
 512:c:/Users/lenovo/Desktop/AIoT/first_day/firstday_afternoon/LiteOS_Lab_STM32_IoT/iot_link/network/mqtt/paho_mqtt/port\paho_mqtt_port.c ****     {
 513:c:/Users/lenovo/Desktop/AIoT/first_day/firstday_afternoon/LiteOS_Lab_STM32_IoT/iot_link/network/mqtt/paho_mqtt/port\paho_mqtt_port.c ****         conparam->conret = conack.rc;
 1633              		.loc 2 513 34
 1634 01e6 3A7B     		ldrb	r2, [r7, #12]	@ zero_extendqisi2
 1635              		.loc 2 513 26
 1636 01e8 7B68     		ldr	r3, [r7, #4]
 1637 01ea 83F83620 		strb	r2, [r3, #54]
 514:c:/Users/lenovo/Desktop/AIoT/first_day/firstday_afternoon/LiteOS_Lab_STM32_IoT/iot_link/network/mqtt/paho_mqtt/port\paho_mqtt_port.c ****     }
 515:c:/Users/lenovo/Desktop/AIoT/first_day/firstday_afternoon/LiteOS_Lab_STM32_IoT/iot_link/network/mqtt/paho_mqtt/port\paho_mqtt_port.c ****     //create the loop task here
 516:c:/Users/lenovo/Desktop/AIoT/first_day/firstday_afternoon/LiteOS_Lab_STM32_IoT/iot_link/network/mqtt/paho_mqtt/port\paho_mqtt_port.c ****     cb->task = osal_task_create("paho",__loop_entry,cb,0x800,NULL,4);
 1638              		.loc 2 516 16
 1639 01ee 0423     		movs	r3, #4
 1640 01f0 0193     		str	r3, [sp, #4]
 1641 01f2 0023     		movs	r3, #0
 1642 01f4 0093     		str	r3, [sp]
 1643 01f6 4FF40063 		mov	r3, #2048
 1644 01fa BA6E     		ldr	r2, [r7, #104]
 1645 01fc 1B49     		ldr	r1, .L109+12
 1646 01fe 1C48     		ldr	r0, .L109+16
 1647 0200 FFF7FEFF 		bl	osal_task_create
 1648 0204 0246     		mov	r2, r0
 1649              		.loc 2 516 14
 1650 0206 BB6E     		ldr	r3, [r7, #104]
 1651 0208 C3F8F820 		str	r2, [r3, #248]
 517:c:/Users/lenovo/Desktop/AIoT/first_day/firstday_afternoon/LiteOS_Lab_STM32_IoT/iot_link/network/mqtt/paho_mqtt/port\paho_mqtt_port.c ****     if(NULL == cb->task)
 1652              		.loc 2 517 18
 1653 020c BB6E     		ldr	r3, [r7, #104]
 1654 020e D3F8F830 		ldr	r3, [r3, #248]
 1655              		.loc 2 517 7
 1656 0212 002B     		cmp	r3, #0
 1657 0214 06D0     		beq	.L108
 518:c:/Users/lenovo/Desktop/AIoT/first_day/firstday_afternoon/LiteOS_Lab_STM32_IoT/iot_link/network/mqtt/paho_mqtt/port\paho_mqtt_port.c ****     {
 519:c:/Users/lenovo/Desktop/AIoT/first_day/firstday_afternoon/LiteOS_Lab_STM32_IoT/iot_link/network/mqtt/paho_mqtt/port\paho_mqtt_port.c ****         goto EXIT_MQTT_MAINTASK;
 520:c:/Users/lenovo/Desktop/AIoT/first_day/firstday_afternoon/LiteOS_Lab_STM32_IoT/iot_link/network/mqtt/paho_mqtt/port\paho_mqtt_port.c ****     }
 521:c:/Users/lenovo/Desktop/AIoT/first_day/firstday_afternoon/LiteOS_Lab_STM32_IoT/iot_link/network/mqtt/paho_mqtt/port\paho_mqtt_port.c ****     s_static_client_debug = c;
 1658              		.loc 2 521 27
 1659 0216 174A     		ldr	r2, .L109+20
 1660 0218 FB6E     		ldr	r3, [r7, #108]
 1661 021a 1360     		str	r3, [r2]
 522:c:/Users/lenovo/Desktop/AIoT/first_day/firstday_afternoon/LiteOS_Lab_STM32_IoT/iot_link/network/mqtt/paho_mqtt/port\paho_mqtt_port.c **** 
ARM GAS  C:\Users\lenovo\AppData\Local\Temp\ccxMpoX7.s 			page 43


 523:c:/Users/lenovo/Desktop/AIoT/first_day/firstday_afternoon/LiteOS_Lab_STM32_IoT/iot_link/network/mqtt/paho_mqtt/port\paho_mqtt_port.c ****     ret = cb;
 1662              		.loc 2 523 9
 1663 021c BB6E     		ldr	r3, [r7, #104]
 1664 021e 7B67     		str	r3, [r7, #116]
 524:c:/Users/lenovo/Desktop/AIoT/first_day/firstday_afternoon/LiteOS_Lab_STM32_IoT/iot_link/network/mqtt/paho_mqtt/port\paho_mqtt_port.c ****     return ret;
 1665              		.loc 2 524 12
 1666 0220 7B6F     		ldr	r3, [r7, #116]
 1667 0222 18E0     		b	.L105
 1668              	.L108:
 519:c:/Users/lenovo/Desktop/AIoT/first_day/firstday_afternoon/LiteOS_Lab_STM32_IoT/iot_link/network/mqtt/paho_mqtt/port\paho_mqtt_port.c ****     }
 1669              		.loc 2 519 9
 1670 0224 00BF     		nop
 1671              	.L101:
 525:c:/Users/lenovo/Desktop/AIoT/first_day/firstday_afternoon/LiteOS_Lab_STM32_IoT/iot_link/network/mqtt/paho_mqtt/port\paho_mqtt_port.c **** 
 526:c:/Users/lenovo/Desktop/AIoT/first_day/firstday_afternoon/LiteOS_Lab_STM32_IoT/iot_link/network/mqtt/paho_mqtt/port\paho_mqtt_port.c **** EXIT_MQTT_MAINTASK:
 527:c:/Users/lenovo/Desktop/AIoT/first_day/firstday_afternoon/LiteOS_Lab_STM32_IoT/iot_link/network/mqtt/paho_mqtt/port\paho_mqtt_port.c ****     MQTTDisconnect(c);
 1672              		.loc 2 527 5
 1673 0226 F86E     		ldr	r0, [r7, #108]
 1674 0228 FFF7FEFF 		bl	MQTTDisconnect
 1675 022c 00E0     		b	.L104
 1676              	.L92:
 1677              	.L103:
 1678              	.L107:
 461:c:/Users/lenovo/Desktop/AIoT/first_day/firstday_afternoon/LiteOS_Lab_STM32_IoT/iot_link/network/mqtt/paho_mqtt/port\paho_mqtt_port.c ****     }
 1679              		.loc 2 461 9
 1680 022e 00BF     		nop
 1681              	.L104:
 528:c:/Users/lenovo/Desktop/AIoT/first_day/firstday_afternoon/LiteOS_Lab_STM32_IoT/iot_link/network/mqtt/paho_mqtt/port\paho_mqtt_port.c **** EXIT_MQTT_CONNECT:
 529:c:/Users/lenovo/Desktop/AIoT/first_day/firstday_afternoon/LiteOS_Lab_STM32_IoT/iot_link/network/mqtt/paho_mqtt/port\paho_mqtt_port.c **** EXIT_MQTT_INIT:
 530:c:/Users/lenovo/Desktop/AIoT/first_day/firstday_afternoon/LiteOS_Lab_STM32_IoT/iot_link/network/mqtt/paho_mqtt/port\paho_mqtt_port.c **** EIXT_BUF_MEM_ERR:
 531:c:/Users/lenovo/Desktop/AIoT/first_day/firstday_afternoon/LiteOS_Lab_STM32_IoT/iot_link/network/mqtt/paho_mqtt/port\paho_mqtt_port.c ****     __io_disconnect(n);
 1682              		.loc 2 531 5
 1683 0230 386F     		ldr	r0, [r7, #112]
 1684 0232 FFF7FEFF 		bl	__io_disconnect
 532:c:/Users/lenovo/Desktop/AIoT/first_day/firstday_afternoon/LiteOS_Lab_STM32_IoT/iot_link/network/mqtt/paho_mqtt/port\paho_mqtt_port.c ****     osal_free(cb->rcvbuf);
 1685              		.loc 2 532 5
 1686 0236 BB6E     		ldr	r3, [r7, #104]
 1687 0238 D3F8FC30 		ldr	r3, [r3, #252]
 1688 023c 1846     		mov	r0, r3
 1689 023e FFF7FEFF 		bl	osal_free
 533:c:/Users/lenovo/Desktop/AIoT/first_day/firstday_afternoon/LiteOS_Lab_STM32_IoT/iot_link/network/mqtt/paho_mqtt/port\paho_mqtt_port.c ****     osal_free(cb->sndbuf);
 1690              		.loc 2 533 5
 1691 0242 BB6E     		ldr	r3, [r7, #104]
 1692 0244 D3F80031 		ldr	r3, [r3, #256]
 1693 0248 1846     		mov	r0, r3
 1694 024a FFF7FEFF 		bl	osal_free
 1695              	.L89:
 534:c:/Users/lenovo/Desktop/AIoT/first_day/firstday_afternoon/LiteOS_Lab_STM32_IoT/iot_link/network/mqtt/paho_mqtt/port\paho_mqtt_port.c **** 
 535:c:/Users/lenovo/Desktop/AIoT/first_day/firstday_afternoon/LiteOS_Lab_STM32_IoT/iot_link/network/mqtt/paho_mqtt/port\paho_mqtt_port.c **** EXIT_NET_CONNECT_ERR:
 536:c:/Users/lenovo/Desktop/AIoT/first_day/firstday_afternoon/LiteOS_Lab_STM32_IoT/iot_link/network/mqtt/paho_mqtt/port\paho_mqtt_port.c ****     osal_free(cb);
 1696              		.loc 2 536 5
 1697 024e B86E     		ldr	r0, [r7, #104]
 1698 0250 FFF7FEFF 		bl	osal_free
 1699              	.L85:
 537:c:/Users/lenovo/Desktop/AIoT/first_day/firstday_afternoon/LiteOS_Lab_STM32_IoT/iot_link/network/mqtt/paho_mqtt/port\paho_mqtt_port.c **** EXIT_CB_MEM_ERR:
 538:c:/Users/lenovo/Desktop/AIoT/first_day/firstday_afternoon/LiteOS_Lab_STM32_IoT/iot_link/network/mqtt/paho_mqtt/port\paho_mqtt_port.c ****     return NULL;
 1700              		.loc 2 538 12
ARM GAS  C:\Users\lenovo\AppData\Local\Temp\ccxMpoX7.s 			page 44


 1701 0254 0023     		movs	r3, #0
 1702              	.L105:
 539:c:/Users/lenovo/Desktop/AIoT/first_day/firstday_afternoon/LiteOS_Lab_STM32_IoT/iot_link/network/mqtt/paho_mqtt/port\paho_mqtt_port.c **** }
 1703              		.loc 2 539 1 discriminator 1
 1704 0256 1846     		mov	r0, r3
 1705 0258 7837     		adds	r7, r7, #120
 1706              	.LCFI72:
 1707              		.cfi_def_cfa_offset 16
 1708 025a BD46     		mov	sp, r7
 1709              	.LCFI73:
 1710              		.cfi_def_cfa_register 13
 1711              		@ sp needed
 1712 025c B0BD     		pop	{r4, r5, r7, pc}
 1713              	.L110:
 1714 025e 00BF     		.align	2
 1715              	.L109:
 1716 0260 0C000000 		.word	.LC0
 1717 0264 00000000 		.word	__io_read
 1718 0268 00000000 		.word	__io_write
 1719 026c 00000000 		.word	__loop_entry
 1720 0270 04000000 		.word	.LC3
 1721 0274 00000000 		.word	s_static_client_debug
 1722              		.cfi_endproc
 1723              	.LFE17:
 1725              		.section	.text.__disconnect,"ax",%progbits
 1726              		.align	1
 1727              		.syntax unified
 1728              		.thumb
 1729              		.thumb_func
 1730              		.fpu fpv4-sp-d16
 1732              	__disconnect:
 1733              	.LFB18:
 540:c:/Users/lenovo/Desktop/AIoT/first_day/firstday_afternoon/LiteOS_Lab_STM32_IoT/iot_link/network/mqtt/paho_mqtt/port\paho_mqtt_port.c **** 
 541:c:/Users/lenovo/Desktop/AIoT/first_day/firstday_afternoon/LiteOS_Lab_STM32_IoT/iot_link/network/mqtt/paho_mqtt/port\paho_mqtt_port.c **** static int __disconnect(void *handle)
 542:c:/Users/lenovo/Desktop/AIoT/first_day/firstday_afternoon/LiteOS_Lab_STM32_IoT/iot_link/network/mqtt/paho_mqtt/port\paho_mqtt_port.c **** {
 1734              		.loc 2 542 1
 1735              		.cfi_startproc
 1736              		@ args = 0, pretend = 0, frame = 24
 1737              		@ frame_needed = 1, uses_anonymous_args = 0
 1738 0000 80B5     		push	{r7, lr}
 1739              	.LCFI74:
 1740              		.cfi_def_cfa_offset 8
 1741              		.cfi_offset 7, -8
 1742              		.cfi_offset 14, -4
 1743 0002 86B0     		sub	sp, sp, #24
 1744              	.LCFI75:
 1745              		.cfi_def_cfa_offset 32
 1746 0004 00AF     		add	r7, sp, #0
 1747              	.LCFI76:
 1748              		.cfi_def_cfa_register 7
 1749 0006 7860     		str	r0, [r7, #4]
 543:c:/Users/lenovo/Desktop/AIoT/first_day/firstday_afternoon/LiteOS_Lab_STM32_IoT/iot_link/network/mqtt/paho_mqtt/port\paho_mqtt_port.c ****     int ret = -1;
 1750              		.loc 2 543 9
 1751 0008 4FF0FF33 		mov	r3, #-1
 1752 000c 7B61     		str	r3, [r7, #20]
 544:c:/Users/lenovo/Desktop/AIoT/first_day/firstday_afternoon/LiteOS_Lab_STM32_IoT/iot_link/network/mqtt/paho_mqtt/port\paho_mqtt_port.c **** 
 545:c:/Users/lenovo/Desktop/AIoT/first_day/firstday_afternoon/LiteOS_Lab_STM32_IoT/iot_link/network/mqtt/paho_mqtt/port\paho_mqtt_port.c ****     Network          *n = NULL;
ARM GAS  C:\Users\lenovo\AppData\Local\Temp\ccxMpoX7.s 			page 45


 1753              		.loc 2 545 23
 1754 000e 0023     		movs	r3, #0
 1755 0010 3B61     		str	r3, [r7, #16]
 546:c:/Users/lenovo/Desktop/AIoT/first_day/firstday_afternoon/LiteOS_Lab_STM32_IoT/iot_link/network/mqtt/paho_mqtt/port\paho_mqtt_port.c ****     MQTTClient       *c = NULL;
 1756              		.loc 2 546 23
 1757 0012 0023     		movs	r3, #0
 1758 0014 FB60     		str	r3, [r7, #12]
 547:c:/Users/lenovo/Desktop/AIoT/first_day/firstday_afternoon/LiteOS_Lab_STM32_IoT/iot_link/network/mqtt/paho_mqtt/port\paho_mqtt_port.c ****     paho_mqtt_cb_t   *cb = NULL;
 1759              		.loc 2 547 23
 1760 0016 0023     		movs	r3, #0
 1761 0018 BB60     		str	r3, [r7, #8]
 548:c:/Users/lenovo/Desktop/AIoT/first_day/firstday_afternoon/LiteOS_Lab_STM32_IoT/iot_link/network/mqtt/paho_mqtt/port\paho_mqtt_port.c **** 
 549:c:/Users/lenovo/Desktop/AIoT/first_day/firstday_afternoon/LiteOS_Lab_STM32_IoT/iot_link/network/mqtt/paho_mqtt/port\paho_mqtt_port.c **** 
 550:c:/Users/lenovo/Desktop/AIoT/first_day/firstday_afternoon/LiteOS_Lab_STM32_IoT/iot_link/network/mqtt/paho_mqtt/port\paho_mqtt_port.c ****     if (NULL == handle)
 1762              		.loc 2 550 8
 1763 001a 7B68     		ldr	r3, [r7, #4]
 1764 001c 002B     		cmp	r3, #0
 1765 001e 01D1     		bne	.L112
 551:c:/Users/lenovo/Desktop/AIoT/first_day/firstday_afternoon/LiteOS_Lab_STM32_IoT/iot_link/network/mqtt/paho_mqtt/port\paho_mqtt_port.c ****     {
 552:c:/Users/lenovo/Desktop/AIoT/first_day/firstday_afternoon/LiteOS_Lab_STM32_IoT/iot_link/network/mqtt/paho_mqtt/port\paho_mqtt_port.c ****         return ret;
 1766              		.loc 2 552 16
 1767 0020 7B69     		ldr	r3, [r7, #20]
 1768 0022 25E0     		b	.L113
 1769              	.L112:
 553:c:/Users/lenovo/Desktop/AIoT/first_day/firstday_afternoon/LiteOS_Lab_STM32_IoT/iot_link/network/mqtt/paho_mqtt/port\paho_mqtt_port.c ****     }
 554:c:/Users/lenovo/Desktop/AIoT/first_day/firstday_afternoon/LiteOS_Lab_STM32_IoT/iot_link/network/mqtt/paho_mqtt/port\paho_mqtt_port.c **** 
 555:c:/Users/lenovo/Desktop/AIoT/first_day/firstday_afternoon/LiteOS_Lab_STM32_IoT/iot_link/network/mqtt/paho_mqtt/port\paho_mqtt_port.c ****     cb = handle;
 1770              		.loc 2 555 8
 1771 0024 7B68     		ldr	r3, [r7, #4]
 1772 0026 BB60     		str	r3, [r7, #8]
 556:c:/Users/lenovo/Desktop/AIoT/first_day/firstday_afternoon/LiteOS_Lab_STM32_IoT/iot_link/network/mqtt/paho_mqtt/port\paho_mqtt_port.c **** 
 557:c:/Users/lenovo/Desktop/AIoT/first_day/firstday_afternoon/LiteOS_Lab_STM32_IoT/iot_link/network/mqtt/paho_mqtt/port\paho_mqtt_port.c ****     c = &cb->client;
 1773              		.loc 2 557 7
 1774 0028 BB68     		ldr	r3, [r7, #8]
 1775 002a 3833     		adds	r3, r3, #56
 1776 002c FB60     		str	r3, [r7, #12]
 558:c:/Users/lenovo/Desktop/AIoT/first_day/firstday_afternoon/LiteOS_Lab_STM32_IoT/iot_link/network/mqtt/paho_mqtt/port\paho_mqtt_port.c ****     n = &cb->network;
 1777              		.loc 2 558 7
 1778 002e BB68     		ldr	r3, [r7, #8]
 1779 0030 3B61     		str	r3, [r7, #16]
 559:c:/Users/lenovo/Desktop/AIoT/first_day/firstday_afternoon/LiteOS_Lab_STM32_IoT/iot_link/network/mqtt/paho_mqtt/port\paho_mqtt_port.c ****     //mqtt disconnect
 560:c:/Users/lenovo/Desktop/AIoT/first_day/firstday_afternoon/LiteOS_Lab_STM32_IoT/iot_link/network/mqtt/paho_mqtt/port\paho_mqtt_port.c ****     MQTTDisconnect(c);
 1780              		.loc 2 560 5
 1781 0032 F868     		ldr	r0, [r7, #12]
 1782 0034 FFF7FEFF 		bl	MQTTDisconnect
 561:c:/Users/lenovo/Desktop/AIoT/first_day/firstday_afternoon/LiteOS_Lab_STM32_IoT/iot_link/network/mqtt/paho_mqtt/port\paho_mqtt_port.c ****     //net disconnect
 562:c:/Users/lenovo/Desktop/AIoT/first_day/firstday_afternoon/LiteOS_Lab_STM32_IoT/iot_link/network/mqtt/paho_mqtt/port\paho_mqtt_port.c ****     __io_disconnect(n);
 1783              		.loc 2 562 5
 1784 0038 3869     		ldr	r0, [r7, #16]
 1785 003a FFF7FEFF 		bl	__io_disconnect
 563:c:/Users/lenovo/Desktop/AIoT/first_day/firstday_afternoon/LiteOS_Lab_STM32_IoT/iot_link/network/mqtt/paho_mqtt/port\paho_mqtt_port.c ****     //kill the thread
 564:c:/Users/lenovo/Desktop/AIoT/first_day/firstday_afternoon/LiteOS_Lab_STM32_IoT/iot_link/network/mqtt/paho_mqtt/port\paho_mqtt_port.c ****     osal_task_kill(cb->task);
 1786              		.loc 2 564 5
 1787 003e BB68     		ldr	r3, [r7, #8]
 1788 0040 D3F8F830 		ldr	r3, [r3, #248]
 1789 0044 1846     		mov	r0, r3
 1790 0046 FFF7FEFF 		bl	osal_task_kill
ARM GAS  C:\Users\lenovo\AppData\Local\Temp\ccxMpoX7.s 			page 46


 565:c:/Users/lenovo/Desktop/AIoT/first_day/firstday_afternoon/LiteOS_Lab_STM32_IoT/iot_link/network/mqtt/paho_mqtt/port\paho_mqtt_port.c ****     //deinit the mqtt
 566:c:/Users/lenovo/Desktop/AIoT/first_day/firstday_afternoon/LiteOS_Lab_STM32_IoT/iot_link/network/mqtt/paho_mqtt/port\paho_mqtt_port.c ****     MQTTClientDeInit(c);
 1791              		.loc 2 566 5
 1792 004a F868     		ldr	r0, [r7, #12]
 1793 004c FFF7FEFF 		bl	MQTTClientDeInit
 567:c:/Users/lenovo/Desktop/AIoT/first_day/firstday_afternoon/LiteOS_Lab_STM32_IoT/iot_link/network/mqtt/paho_mqtt/port\paho_mqtt_port.c ****     //free the memory
 568:c:/Users/lenovo/Desktop/AIoT/first_day/firstday_afternoon/LiteOS_Lab_STM32_IoT/iot_link/network/mqtt/paho_mqtt/port\paho_mqtt_port.c ****     osal_free(cb->rcvbuf);
 1794              		.loc 2 568 5
 1795 0050 BB68     		ldr	r3, [r7, #8]
 1796 0052 D3F8FC30 		ldr	r3, [r3, #252]
 1797 0056 1846     		mov	r0, r3
 1798 0058 FFF7FEFF 		bl	osal_free
 569:c:/Users/lenovo/Desktop/AIoT/first_day/firstday_afternoon/LiteOS_Lab_STM32_IoT/iot_link/network/mqtt/paho_mqtt/port\paho_mqtt_port.c ****     osal_free(cb->sndbuf);
 1799              		.loc 2 569 5
 1800 005c BB68     		ldr	r3, [r7, #8]
 1801 005e D3F80031 		ldr	r3, [r3, #256]
 1802 0062 1846     		mov	r0, r3
 1803 0064 FFF7FEFF 		bl	osal_free
 570:c:/Users/lenovo/Desktop/AIoT/first_day/firstday_afternoon/LiteOS_Lab_STM32_IoT/iot_link/network/mqtt/paho_mqtt/port\paho_mqtt_port.c ****     osal_free(cb);
 1804              		.loc 2 570 5
 1805 0068 B868     		ldr	r0, [r7, #8]
 1806 006a FFF7FEFF 		bl	osal_free
 571:c:/Users/lenovo/Desktop/AIoT/first_day/firstday_afternoon/LiteOS_Lab_STM32_IoT/iot_link/network/mqtt/paho_mqtt/port\paho_mqtt_port.c **** 
 572:c:/Users/lenovo/Desktop/AIoT/first_day/firstday_afternoon/LiteOS_Lab_STM32_IoT/iot_link/network/mqtt/paho_mqtt/port\paho_mqtt_port.c ****     return 0;
 1807              		.loc 2 572 12
 1808 006e 0023     		movs	r3, #0
 1809              	.L113:
 573:c:/Users/lenovo/Desktop/AIoT/first_day/firstday_afternoon/LiteOS_Lab_STM32_IoT/iot_link/network/mqtt/paho_mqtt/port\paho_mqtt_port.c **** }
 1810              		.loc 2 573 1
 1811 0070 1846     		mov	r0, r3
 1812 0072 1837     		adds	r7, r7, #24
 1813              	.LCFI77:
 1814              		.cfi_def_cfa_offset 8
 1815 0074 BD46     		mov	sp, r7
 1816              	.LCFI78:
 1817              		.cfi_def_cfa_register 13
 1818              		@ sp needed
 1819 0076 80BD     		pop	{r7, pc}
 1820              		.cfi_endproc
 1821              	.LFE18:
 1823              		.section	.text.general_dealer,"ax",%progbits
 1824              		.align	1
 1825              		.syntax unified
 1826              		.thumb
 1827              		.thumb_func
 1828              		.fpu fpv4-sp-d16
 1830              	general_dealer:
 1831              	.LFB19:
 574:c:/Users/lenovo/Desktop/AIoT/first_day/firstday_afternoon/LiteOS_Lab_STM32_IoT/iot_link/network/mqtt/paho_mqtt/port\paho_mqtt_port.c **** 
 575:c:/Users/lenovo/Desktop/AIoT/first_day/firstday_afternoon/LiteOS_Lab_STM32_IoT/iot_link/network/mqtt/paho_mqtt/port\paho_mqtt_port.c **** /**
 576:c:/Users/lenovo/Desktop/AIoT/first_day/firstday_afternoon/LiteOS_Lab_STM32_IoT/iot_link/network/mqtt/paho_mqtt/port\paho_mqtt_port.c ****  * Copyright (c) 2009-2018 Roger Light <roger@atchoo.org>
 577:c:/Users/lenovo/Desktop/AIoT/first_day/firstday_afternoon/LiteOS_Lab_STM32_IoT/iot_link/network/mqtt/paho_mqtt/port\paho_mqtt_port.c ****  * licensed under the Eclipse Public License 1.0 and the Eclipse Distribution License 1.0
 578:c:/Users/lenovo/Desktop/AIoT/first_day/firstday_afternoon/LiteOS_Lab_STM32_IoT/iot_link/network/mqtt/paho_mqtt/port\paho_mqtt_port.c ****  */
 579:c:/Users/lenovo/Desktop/AIoT/first_day/firstday_afternoon/LiteOS_Lab_STM32_IoT/iot_link/network/mqtt/paho_mqtt/port\paho_mqtt_port.c **** ///< we changge the lib to support the args
 580:c:/Users/lenovo/Desktop/AIoT/first_day/firstday_afternoon/LiteOS_Lab_STM32_IoT/iot_link/network/mqtt/paho_mqtt/port\paho_mqtt_port.c **** static void general_dealer(MessageData *data)
 581:c:/Users/lenovo/Desktop/AIoT/first_day/firstday_afternoon/LiteOS_Lab_STM32_IoT/iot_link/network/mqtt/paho_mqtt/port\paho_mqtt_port.c **** {
 1832              		.loc 2 581 1
ARM GAS  C:\Users\lenovo\AppData\Local\Temp\ccxMpoX7.s 			page 47


 1833              		.cfi_startproc
 1834              		@ args = 0, pretend = 0, frame = 40
 1835              		@ frame_needed = 1, uses_anonymous_args = 0
 1836 0000 80B5     		push	{r7, lr}
 1837              	.LCFI79:
 1838              		.cfi_def_cfa_offset 8
 1839              		.cfi_offset 7, -8
 1840              		.cfi_offset 14, -4
 1841 0002 8AB0     		sub	sp, sp, #40
 1842              	.LCFI80:
 1843              		.cfi_def_cfa_offset 48
 1844 0004 00AF     		add	r7, sp, #0
 1845              	.LCFI81:
 1846              		.cfi_def_cfa_register 7
 1847 0006 7860     		str	r0, [r7, #4]
 582:c:/Users/lenovo/Desktop/AIoT/first_day/firstday_afternoon/LiteOS_Lab_STM32_IoT/iot_link/network/mqtt/paho_mqtt/port\paho_mqtt_port.c ****     mqtt_al_msgrcv_t   msg;
 583:c:/Users/lenovo/Desktop/AIoT/first_day/firstday_afternoon/LiteOS_Lab_STM32_IoT/iot_link/network/mqtt/paho_mqtt/port\paho_mqtt_port.c ****     fn_mqtt_al_msg_dealer  dealer;
 584:c:/Users/lenovo/Desktop/AIoT/first_day/firstday_afternoon/LiteOS_Lab_STM32_IoT/iot_link/network/mqtt/paho_mqtt/port\paho_mqtt_port.c ****     msg.dup = data->message->dup;
 1848              		.loc 2 584 19
 1849 0008 7B68     		ldr	r3, [r7, #4]
 1850 000a 1B68     		ldr	r3, [r3]
 1851              		.loc 2 584 28
 1852 000c 9B78     		ldrb	r3, [r3, #2]	@ zero_extendqisi2
 1853              		.loc 2 584 13
 1854 000e FB61     		str	r3, [r7, #28]
 585:c:/Users/lenovo/Desktop/AIoT/first_day/firstday_afternoon/LiteOS_Lab_STM32_IoT/iot_link/network/mqtt/paho_mqtt/port\paho_mqtt_port.c ****     msg.qos = data->message->qos;
 1855              		.loc 2 585 19
 1856 0010 7B68     		ldr	r3, [r7, #4]
 1857 0012 1B68     		ldr	r3, [r3]
 1858              		.loc 2 585 28
 1859 0014 1B78     		ldrb	r3, [r3]	@ zero_extendqisi2
 1860              		.loc 2 585 13
 1861 0016 3B76     		strb	r3, [r7, #24]
 586:c:/Users/lenovo/Desktop/AIoT/first_day/firstday_afternoon/LiteOS_Lab_STM32_IoT/iot_link/network/mqtt/paho_mqtt/port\paho_mqtt_port.c ****     msg.retain = data->message->retained;
 1862              		.loc 2 586 22
 1863 0018 7B68     		ldr	r3, [r7, #4]
 1864 001a 1B68     		ldr	r3, [r3]
 1865              		.loc 2 586 31
 1866 001c 5B78     		ldrb	r3, [r3, #1]	@ zero_extendqisi2
 1867              		.loc 2 586 16
 1868 001e 3B62     		str	r3, [r7, #32]
 587:c:/Users/lenovo/Desktop/AIoT/first_day/firstday_afternoon/LiteOS_Lab_STM32_IoT/iot_link/network/mqtt/paho_mqtt/port\paho_mqtt_port.c ****     msg.msg.len = data->message->payloadlen;
 1869              		.loc 2 587 23
 1870 0020 7B68     		ldr	r3, [r7, #4]
 1871 0022 1B68     		ldr	r3, [r3]
 1872              		.loc 2 587 32
 1873 0024 DB68     		ldr	r3, [r3, #12]
 1874              		.loc 2 587 17
 1875 0026 7B61     		str	r3, [r7, #20]
 588:c:/Users/lenovo/Desktop/AIoT/first_day/firstday_afternoon/LiteOS_Lab_STM32_IoT/iot_link/network/mqtt/paho_mqtt/port\paho_mqtt_port.c ****     msg.msg.data = data->message->payload;
 1876              		.loc 2 588 24
 1877 0028 7B68     		ldr	r3, [r7, #4]
 1878 002a 1B68     		ldr	r3, [r3]
 1879              		.loc 2 588 33
 1880 002c 9B68     		ldr	r3, [r3, #8]
 1881              		.loc 2 588 18
 1882 002e 3B61     		str	r3, [r7, #16]
ARM GAS  C:\Users\lenovo\AppData\Local\Temp\ccxMpoX7.s 			page 48


 589:c:/Users/lenovo/Desktop/AIoT/first_day/firstday_afternoon/LiteOS_Lab_STM32_IoT/iot_link/network/mqtt/paho_mqtt/port\paho_mqtt_port.c **** 
 590:c:/Users/lenovo/Desktop/AIoT/first_day/firstday_afternoon/LiteOS_Lab_STM32_IoT/iot_link/network/mqtt/paho_mqtt/port\paho_mqtt_port.c ****     if(data->topicName->lenstring.len)
 1883              		.loc 2 590 12
 1884 0030 7B68     		ldr	r3, [r7, #4]
 1885 0032 5B68     		ldr	r3, [r3, #4]
 1886              		.loc 2 590 34
 1887 0034 5B68     		ldr	r3, [r3, #4]
 1888              		.loc 2 590 7
 1889 0036 002B     		cmp	r3, #0
 1890 0038 08D0     		beq	.L115
 591:c:/Users/lenovo/Desktop/AIoT/first_day/firstday_afternoon/LiteOS_Lab_STM32_IoT/iot_link/network/mqtt/paho_mqtt/port\paho_mqtt_port.c ****     {
 592:c:/Users/lenovo/Desktop/AIoT/first_day/firstday_afternoon/LiteOS_Lab_STM32_IoT/iot_link/network/mqtt/paho_mqtt/port\paho_mqtt_port.c ****         msg.topic.data = data->topicName->lenstring.data;
 1891              		.loc 2 592 30
 1892 003a 7B68     		ldr	r3, [r7, #4]
 1893 003c 5B68     		ldr	r3, [r3, #4]
 1894              		.loc 2 592 52
 1895 003e 9B68     		ldr	r3, [r3, #8]
 1896              		.loc 2 592 24
 1897 0040 BB60     		str	r3, [r7, #8]
 593:c:/Users/lenovo/Desktop/AIoT/first_day/firstday_afternoon/LiteOS_Lab_STM32_IoT/iot_link/network/mqtt/paho_mqtt/port\paho_mqtt_port.c ****         msg.topic.len = data->topicName->lenstring.len;
 1898              		.loc 2 593 29
 1899 0042 7B68     		ldr	r3, [r7, #4]
 1900 0044 5B68     		ldr	r3, [r3, #4]
 1901              		.loc 2 593 51
 1902 0046 5B68     		ldr	r3, [r3, #4]
 1903              		.loc 2 593 23
 1904 0048 FB60     		str	r3, [r7, #12]
 1905 004a 0BE0     		b	.L116
 1906              	.L115:
 594:c:/Users/lenovo/Desktop/AIoT/first_day/firstday_afternoon/LiteOS_Lab_STM32_IoT/iot_link/network/mqtt/paho_mqtt/port\paho_mqtt_port.c ****     }
 595:c:/Users/lenovo/Desktop/AIoT/first_day/firstday_afternoon/LiteOS_Lab_STM32_IoT/iot_link/network/mqtt/paho_mqtt/port\paho_mqtt_port.c ****     else
 596:c:/Users/lenovo/Desktop/AIoT/first_day/firstday_afternoon/LiteOS_Lab_STM32_IoT/iot_link/network/mqtt/paho_mqtt/port\paho_mqtt_port.c ****     {
 597:c:/Users/lenovo/Desktop/AIoT/first_day/firstday_afternoon/LiteOS_Lab_STM32_IoT/iot_link/network/mqtt/paho_mqtt/port\paho_mqtt_port.c ****         msg.topic.data = data->topicName->cstring;
 1907              		.loc 2 597 30
 1908 004c 7B68     		ldr	r3, [r7, #4]
 1909 004e 5B68     		ldr	r3, [r3, #4]
 1910              		.loc 2 597 41
 1911 0050 1B68     		ldr	r3, [r3]
 1912              		.loc 2 597 24
 1913 0052 BB60     		str	r3, [r7, #8]
 598:c:/Users/lenovo/Desktop/AIoT/first_day/firstday_afternoon/LiteOS_Lab_STM32_IoT/iot_link/network/mqtt/paho_mqtt/port\paho_mqtt_port.c ****         msg.topic.len = strlen(data->topicName->cstring);
 1914              		.loc 2 598 36
 1915 0054 7B68     		ldr	r3, [r7, #4]
 1916 0056 5B68     		ldr	r3, [r3, #4]
 1917              		.loc 2 598 47
 1918 0058 1B68     		ldr	r3, [r3]
 1919              		.loc 2 598 25
 1920 005a 1846     		mov	r0, r3
 1921 005c FFF7FEFF 		bl	strlen
 1922 0060 0346     		mov	r3, r0
 1923              		.loc 2 598 23
 1924 0062 FB60     		str	r3, [r7, #12]
 1925              	.L116:
 599:c:/Users/lenovo/Desktop/AIoT/first_day/firstday_afternoon/LiteOS_Lab_STM32_IoT/iot_link/network/mqtt/paho_mqtt/port\paho_mqtt_port.c ****     }
 600:c:/Users/lenovo/Desktop/AIoT/first_day/firstday_afternoon/LiteOS_Lab_STM32_IoT/iot_link/network/mqtt/paho_mqtt/port\paho_mqtt_port.c **** 
 601:c:/Users/lenovo/Desktop/AIoT/first_day/firstday_afternoon/LiteOS_Lab_STM32_IoT/iot_link/network/mqtt/paho_mqtt/port\paho_mqtt_port.c ****     if(NULL != data->arg)
 1926              		.loc 2 601 20
ARM GAS  C:\Users\lenovo\AppData\Local\Temp\ccxMpoX7.s 			page 49


 1927 0064 7B68     		ldr	r3, [r7, #4]
 1928 0066 9B68     		ldr	r3, [r3, #8]
 1929              		.loc 2 601 7
 1930 0068 002B     		cmp	r3, #0
 1931 006a 08D0     		beq	.L118
 602:c:/Users/lenovo/Desktop/AIoT/first_day/firstday_afternoon/LiteOS_Lab_STM32_IoT/iot_link/network/mqtt/paho_mqtt/port\paho_mqtt_port.c ****     {
 603:c:/Users/lenovo/Desktop/AIoT/first_day/firstday_afternoon/LiteOS_Lab_STM32_IoT/iot_link/network/mqtt/paho_mqtt/port\paho_mqtt_port.c ****         dealer = data->arg;
 1932              		.loc 2 603 22
 1933 006c 7B68     		ldr	r3, [r7, #4]
 1934 006e 9B68     		ldr	r3, [r3, #8]
 1935              		.loc 2 603 16
 1936 0070 7B62     		str	r3, [r7, #36]
 604:c:/Users/lenovo/Desktop/AIoT/first_day/firstday_afternoon/LiteOS_Lab_STM32_IoT/iot_link/network/mqtt/paho_mqtt/port\paho_mqtt_port.c ****         dealer(NULL,&msg);  ///<   the args not implement yet
 1937              		.loc 2 604 9
 1938 0072 07F10802 		add	r2, r7, #8
 1939 0076 7B6A     		ldr	r3, [r7, #36]
 1940 0078 1146     		mov	r1, r2
 1941 007a 0020     		movs	r0, #0
 1942 007c 9847     		blx	r3
 1943              	.LVL0:
 1944              	.L118:
 605:c:/Users/lenovo/Desktop/AIoT/first_day/firstday_afternoon/LiteOS_Lab_STM32_IoT/iot_link/network/mqtt/paho_mqtt/port\paho_mqtt_port.c ****     }
 606:c:/Users/lenovo/Desktop/AIoT/first_day/firstday_afternoon/LiteOS_Lab_STM32_IoT/iot_link/network/mqtt/paho_mqtt/port\paho_mqtt_port.c **** }
 1945              		.loc 2 606 1
 1946 007e 00BF     		nop
 1947 0080 2837     		adds	r7, r7, #40
 1948              	.LCFI82:
 1949              		.cfi_def_cfa_offset 8
 1950 0082 BD46     		mov	sp, r7
 1951              	.LCFI83:
 1952              		.cfi_def_cfa_register 13
 1953              		@ sp needed
 1954 0084 80BD     		pop	{r7, pc}
 1955              		.cfi_endproc
 1956              	.LFE19:
 1958              		.section	.text.__subscribe,"ax",%progbits
 1959              		.align	1
 1960              		.syntax unified
 1961              		.thumb
 1962              		.thumb_func
 1963              		.fpu fpv4-sp-d16
 1965              	__subscribe:
 1966              	.LFB20:
 607:c:/Users/lenovo/Desktop/AIoT/first_day/firstday_afternoon/LiteOS_Lab_STM32_IoT/iot_link/network/mqtt/paho_mqtt/port\paho_mqtt_port.c **** 
 608:c:/Users/lenovo/Desktop/AIoT/first_day/firstday_afternoon/LiteOS_Lab_STM32_IoT/iot_link/network/mqtt/paho_mqtt/port\paho_mqtt_port.c **** 
 609:c:/Users/lenovo/Desktop/AIoT/first_day/firstday_afternoon/LiteOS_Lab_STM32_IoT/iot_link/network/mqtt/paho_mqtt/port\paho_mqtt_port.c **** //////////////////////END --PATCH FOR PAHO MQTT/////////////////////////////////
 610:c:/Users/lenovo/Desktop/AIoT/first_day/firstday_afternoon/LiteOS_Lab_STM32_IoT/iot_link/network/mqtt/paho_mqtt/port\paho_mqtt_port.c **** static int __subscribe(void *handle,mqtt_al_subpara_t *para)
 611:c:/Users/lenovo/Desktop/AIoT/first_day/firstday_afternoon/LiteOS_Lab_STM32_IoT/iot_link/network/mqtt/paho_mqtt/port\paho_mqtt_port.c **** {
 1967              		.loc 2 611 1
 1968              		.cfi_startproc
 1969              		@ args = 0, pretend = 0, frame = 24
 1970              		@ frame_needed = 1, uses_anonymous_args = 0
 1971 0000 80B5     		push	{r7, lr}
 1972              	.LCFI84:
 1973              		.cfi_def_cfa_offset 8
 1974              		.cfi_offset 7, -8
 1975              		.cfi_offset 14, -4
ARM GAS  C:\Users\lenovo\AppData\Local\Temp\ccxMpoX7.s 			page 50


 1976 0002 88B0     		sub	sp, sp, #32
 1977              	.LCFI85:
 1978              		.cfi_def_cfa_offset 40
 1979 0004 02AF     		add	r7, sp, #8
 1980              	.LCFI86:
 1981              		.cfi_def_cfa 7, 32
 1982 0006 7860     		str	r0, [r7, #4]
 1983 0008 3960     		str	r1, [r7]
 612:c:/Users/lenovo/Desktop/AIoT/first_day/firstday_afternoon/LiteOS_Lab_STM32_IoT/iot_link/network/mqtt/paho_mqtt/port\paho_mqtt_port.c ****     int ret = -1;
 1984              		.loc 2 612 9
 1985 000a 4FF0FF33 		mov	r3, #-1
 1986 000e 7B61     		str	r3, [r7, #20]
 613:c:/Users/lenovo/Desktop/AIoT/first_day/firstday_afternoon/LiteOS_Lab_STM32_IoT/iot_link/network/mqtt/paho_mqtt/port\paho_mqtt_port.c ****     MQTTClient       *c = NULL;
 1987              		.loc 2 613 23
 1988 0010 0023     		movs	r3, #0
 1989 0012 3B61     		str	r3, [r7, #16]
 614:c:/Users/lenovo/Desktop/AIoT/first_day/firstday_afternoon/LiteOS_Lab_STM32_IoT/iot_link/network/mqtt/paho_mqtt/port\paho_mqtt_port.c ****     paho_mqtt_cb_t   *cb = NULL;
 1990              		.loc 2 614 23
 1991 0014 0023     		movs	r3, #0
 1992 0016 FB60     		str	r3, [r7, #12]
 615:c:/Users/lenovo/Desktop/AIoT/first_day/firstday_afternoon/LiteOS_Lab_STM32_IoT/iot_link/network/mqtt/paho_mqtt/port\paho_mqtt_port.c **** 
 616:c:/Users/lenovo/Desktop/AIoT/first_day/firstday_afternoon/LiteOS_Lab_STM32_IoT/iot_link/network/mqtt/paho_mqtt/port\paho_mqtt_port.c ****     MQTTSubackData   ack;
 617:c:/Users/lenovo/Desktop/AIoT/first_day/firstday_afternoon/LiteOS_Lab_STM32_IoT/iot_link/network/mqtt/paho_mqtt/port\paho_mqtt_port.c **** 
 618:c:/Users/lenovo/Desktop/AIoT/first_day/firstday_afternoon/LiteOS_Lab_STM32_IoT/iot_link/network/mqtt/paho_mqtt/port\paho_mqtt_port.c ****     if((NULL == handle) ||(NULL == para))
 1993              		.loc 2 618 7
 1994 0018 7B68     		ldr	r3, [r7, #4]
 1995 001a 002B     		cmp	r3, #0
 1996 001c 02D0     		beq	.L120
 1997              		.loc 2 618 25 discriminator 1
 1998 001e 3B68     		ldr	r3, [r7]
 1999 0020 002B     		cmp	r3, #0
 2000 0022 01D1     		bne	.L121
 2001              	.L120:
 619:c:/Users/lenovo/Desktop/AIoT/first_day/firstday_afternoon/LiteOS_Lab_STM32_IoT/iot_link/network/mqtt/paho_mqtt/port\paho_mqtt_port.c ****     {
 620:c:/Users/lenovo/Desktop/AIoT/first_day/firstday_afternoon/LiteOS_Lab_STM32_IoT/iot_link/network/mqtt/paho_mqtt/port\paho_mqtt_port.c ****         return ret;
 2002              		.loc 2 620 16
 2003 0024 7B69     		ldr	r3, [r7, #20]
 2004 0026 24E0     		b	.L125
 2005              	.L121:
 621:c:/Users/lenovo/Desktop/AIoT/first_day/firstday_afternoon/LiteOS_Lab_STM32_IoT/iot_link/network/mqtt/paho_mqtt/port\paho_mqtt_port.c ****     }
 622:c:/Users/lenovo/Desktop/AIoT/first_day/firstday_afternoon/LiteOS_Lab_STM32_IoT/iot_link/network/mqtt/paho_mqtt/port\paho_mqtt_port.c **** 
 623:c:/Users/lenovo/Desktop/AIoT/first_day/firstday_afternoon/LiteOS_Lab_STM32_IoT/iot_link/network/mqtt/paho_mqtt/port\paho_mqtt_port.c ****     cb = handle;
 2006              		.loc 2 623 8
 2007 0028 7B68     		ldr	r3, [r7, #4]
 2008 002a FB60     		str	r3, [r7, #12]
 624:c:/Users/lenovo/Desktop/AIoT/first_day/firstday_afternoon/LiteOS_Lab_STM32_IoT/iot_link/network/mqtt/paho_mqtt/port\paho_mqtt_port.c ****     c = &cb->client;
 2009              		.loc 2 624 7
 2010 002c FB68     		ldr	r3, [r7, #12]
 2011 002e 3833     		adds	r3, r3, #56
 2012 0030 3B61     		str	r3, [r7, #16]
 625:c:/Users/lenovo/Desktop/AIoT/first_day/firstday_afternoon/LiteOS_Lab_STM32_IoT/iot_link/network/mqtt/paho_mqtt/port\paho_mqtt_port.c **** 
 626:c:/Users/lenovo/Desktop/AIoT/first_day/firstday_afternoon/LiteOS_Lab_STM32_IoT/iot_link/network/mqtt/paho_mqtt/port\paho_mqtt_port.c ****     if(MQTT_SUCCESS == MQTTSubscribeWithResultsArgs(c,para->topic.data,para->qos,\
 2013              		.loc 2 626 66
 2014 0032 3B68     		ldr	r3, [r7]
 2015 0034 1968     		ldr	r1, [r3]
 2016              		.loc 2 626 76
 2017 0036 3B68     		ldr	r3, [r7]
ARM GAS  C:\Users\lenovo\AppData\Local\Temp\ccxMpoX7.s 			page 51


 2018 0038 1A7A     		ldrb	r2, [r3, #8]	@ zero_extendqisi2
 627:c:/Users/lenovo/Desktop/AIoT/first_day/firstday_afternoon/LiteOS_Lab_STM32_IoT/iot_link/network/mqtt/paho_mqtt/port\paho_mqtt_port.c ****             general_dealer,&ack,para->dealer))
 2019              		.loc 2 627 37
 2020 003a 3B68     		ldr	r3, [r7]
 2021 003c DB68     		ldr	r3, [r3, #12]
 626:c:/Users/lenovo/Desktop/AIoT/first_day/firstday_afternoon/LiteOS_Lab_STM32_IoT/iot_link/network/mqtt/paho_mqtt/port\paho_mqtt_port.c ****             general_dealer,&ack,para->dealer))
 2022              		.loc 2 626 24
 2023 003e 0193     		str	r3, [sp, #4]
 2024 0040 07F10803 		add	r3, r7, #8
 2025 0044 0093     		str	r3, [sp]
 2026 0046 0D4B     		ldr	r3, .L126
 2027 0048 3869     		ldr	r0, [r7, #16]
 2028 004a FFF7FEFF 		bl	MQTTSubscribeWithResultsArgs
 2029 004e 0346     		mov	r3, r0
 626:c:/Users/lenovo/Desktop/AIoT/first_day/firstday_afternoon/LiteOS_Lab_STM32_IoT/iot_link/network/mqtt/paho_mqtt/port\paho_mqtt_port.c ****             general_dealer,&ack,para->dealer))
 2030              		.loc 2 626 7
 2031 0050 002B     		cmp	r3, #0
 2032 0052 0DD1     		bne	.L123
 628:c:/Users/lenovo/Desktop/AIoT/first_day/firstday_afternoon/LiteOS_Lab_STM32_IoT/iot_link/network/mqtt/paho_mqtt/port\paho_mqtt_port.c ****     {
 629:c:/Users/lenovo/Desktop/AIoT/first_day/firstday_afternoon/LiteOS_Lab_STM32_IoT/iot_link/network/mqtt/paho_mqtt/port\paho_mqtt_port.c ****         para->subret = ack.grantedQoS;
 2033              		.loc 2 629 27
 2034 0054 3A7A     		ldrb	r2, [r7, #8]	@ zero_extendqisi2
 2035              		.loc 2 629 22
 2036 0056 3B68     		ldr	r3, [r7]
 2037 0058 1A75     		strb	r2, [r3, #20]
 630:c:/Users/lenovo/Desktop/AIoT/first_day/firstday_afternoon/LiteOS_Lab_STM32_IoT/iot_link/network/mqtt/paho_mqtt/port\paho_mqtt_port.c ****         if((ack.grantedQoS == QOS0)|| (ack.grantedQoS == QOS1 ) || (ack.grantedQoS == QOS2 ) )
 2038              		.loc 2 630 16
 2039 005a 3B7A     		ldrb	r3, [r7, #8]	@ zero_extendqisi2
 2040              		.loc 2 630 11
 2041 005c 002B     		cmp	r3, #0
 2042 005e 05D0     		beq	.L124
 2043              		.loc 2 630 43 discriminator 1
 2044 0060 3B7A     		ldrb	r3, [r7, #8]	@ zero_extendqisi2
 2045              		.loc 2 630 36 discriminator 1
 2046 0062 012B     		cmp	r3, #1
 2047 0064 02D0     		beq	.L124
 2048              		.loc 2 630 72 discriminator 2
 2049 0066 3B7A     		ldrb	r3, [r7, #8]	@ zero_extendqisi2
 2050              		.loc 2 630 65 discriminator 2
 2051 0068 022B     		cmp	r3, #2
 2052 006a 01D1     		bne	.L123
 2053              	.L124:
 631:c:/Users/lenovo/Desktop/AIoT/first_day/firstday_afternoon/LiteOS_Lab_STM32_IoT/iot_link/network/mqtt/paho_mqtt/port\paho_mqtt_port.c ****         {
 632:c:/Users/lenovo/Desktop/AIoT/first_day/firstday_afternoon/LiteOS_Lab_STM32_IoT/iot_link/network/mqtt/paho_mqtt/port\paho_mqtt_port.c ****             ret = 0;
 2054              		.loc 2 632 17
 2055 006c 0023     		movs	r3, #0
 2056 006e 7B61     		str	r3, [r7, #20]
 2057              	.L123:
 633:c:/Users/lenovo/Desktop/AIoT/first_day/firstday_afternoon/LiteOS_Lab_STM32_IoT/iot_link/network/mqtt/paho_mqtt/port\paho_mqtt_port.c ****         }
 634:c:/Users/lenovo/Desktop/AIoT/first_day/firstday_afternoon/LiteOS_Lab_STM32_IoT/iot_link/network/mqtt/paho_mqtt/port\paho_mqtt_port.c ****     }
 635:c:/Users/lenovo/Desktop/AIoT/first_day/firstday_afternoon/LiteOS_Lab_STM32_IoT/iot_link/network/mqtt/paho_mqtt/port\paho_mqtt_port.c **** 
 636:c:/Users/lenovo/Desktop/AIoT/first_day/firstday_afternoon/LiteOS_Lab_STM32_IoT/iot_link/network/mqtt/paho_mqtt/port\paho_mqtt_port.c ****     return ret;
 2058              		.loc 2 636 12
 2059 0070 7B69     		ldr	r3, [r7, #20]
 2060              	.L125:
 637:c:/Users/lenovo/Desktop/AIoT/first_day/firstday_afternoon/LiteOS_Lab_STM32_IoT/iot_link/network/mqtt/paho_mqtt/port\paho_mqtt_port.c **** }
 2061              		.loc 2 637 1 discriminator 1
ARM GAS  C:\Users\lenovo\AppData\Local\Temp\ccxMpoX7.s 			page 52


 2062 0072 1846     		mov	r0, r3
 2063 0074 1837     		adds	r7, r7, #24
 2064              	.LCFI87:
 2065              		.cfi_def_cfa_offset 8
 2066 0076 BD46     		mov	sp, r7
 2067              	.LCFI88:
 2068              		.cfi_def_cfa_register 13
 2069              		@ sp needed
 2070 0078 80BD     		pop	{r7, pc}
 2071              	.L127:
 2072 007a 00BF     		.align	2
 2073              	.L126:
 2074 007c 00000000 		.word	general_dealer
 2075              		.cfi_endproc
 2076              	.LFE20:
 2078              		.section	.text.__unsubscribe,"ax",%progbits
 2079              		.align	1
 2080              		.syntax unified
 2081              		.thumb
 2082              		.thumb_func
 2083              		.fpu fpv4-sp-d16
 2085              	__unsubscribe:
 2086              	.LFB21:
 638:c:/Users/lenovo/Desktop/AIoT/first_day/firstday_afternoon/LiteOS_Lab_STM32_IoT/iot_link/network/mqtt/paho_mqtt/port\paho_mqtt_port.c **** 
 639:c:/Users/lenovo/Desktop/AIoT/first_day/firstday_afternoon/LiteOS_Lab_STM32_IoT/iot_link/network/mqtt/paho_mqtt/port\paho_mqtt_port.c **** static int __unsubscribe(void *handle,mqtt_al_unsubpara_t *para)
 640:c:/Users/lenovo/Desktop/AIoT/first_day/firstday_afternoon/LiteOS_Lab_STM32_IoT/iot_link/network/mqtt/paho_mqtt/port\paho_mqtt_port.c **** {
 2087              		.loc 2 640 1
 2088              		.cfi_startproc
 2089              		@ args = 0, pretend = 0, frame = 24
 2090              		@ frame_needed = 1, uses_anonymous_args = 0
 2091 0000 80B5     		push	{r7, lr}
 2092              	.LCFI89:
 2093              		.cfi_def_cfa_offset 8
 2094              		.cfi_offset 7, -8
 2095              		.cfi_offset 14, -4
 2096 0002 86B0     		sub	sp, sp, #24
 2097              	.LCFI90:
 2098              		.cfi_def_cfa_offset 32
 2099 0004 00AF     		add	r7, sp, #0
 2100              	.LCFI91:
 2101              		.cfi_def_cfa_register 7
 2102 0006 7860     		str	r0, [r7, #4]
 2103 0008 3960     		str	r1, [r7]
 641:c:/Users/lenovo/Desktop/AIoT/first_day/firstday_afternoon/LiteOS_Lab_STM32_IoT/iot_link/network/mqtt/paho_mqtt/port\paho_mqtt_port.c ****     int ret = -1;
 2104              		.loc 2 641 9
 2105 000a 4FF0FF33 		mov	r3, #-1
 2106 000e 7B61     		str	r3, [r7, #20]
 642:c:/Users/lenovo/Desktop/AIoT/first_day/firstday_afternoon/LiteOS_Lab_STM32_IoT/iot_link/network/mqtt/paho_mqtt/port\paho_mqtt_port.c ****     MQTTClient       *c = NULL;
 2107              		.loc 2 642 23
 2108 0010 0023     		movs	r3, #0
 2109 0012 3B61     		str	r3, [r7, #16]
 643:c:/Users/lenovo/Desktop/AIoT/first_day/firstday_afternoon/LiteOS_Lab_STM32_IoT/iot_link/network/mqtt/paho_mqtt/port\paho_mqtt_port.c ****     paho_mqtt_cb_t   *cb = NULL;
 2110              		.loc 2 643 23
 2111 0014 0023     		movs	r3, #0
 2112 0016 FB60     		str	r3, [r7, #12]
 644:c:/Users/lenovo/Desktop/AIoT/first_day/firstday_afternoon/LiteOS_Lab_STM32_IoT/iot_link/network/mqtt/paho_mqtt/port\paho_mqtt_port.c **** 
 645:c:/Users/lenovo/Desktop/AIoT/first_day/firstday_afternoon/LiteOS_Lab_STM32_IoT/iot_link/network/mqtt/paho_mqtt/port\paho_mqtt_port.c ****     if((NULL == handle) ||(NULL == para))
ARM GAS  C:\Users\lenovo\AppData\Local\Temp\ccxMpoX7.s 			page 53


 2113              		.loc 2 645 7
 2114 0018 7B68     		ldr	r3, [r7, #4]
 2115 001a 002B     		cmp	r3, #0
 2116 001c 02D0     		beq	.L129
 2117              		.loc 2 645 25 discriminator 1
 2118 001e 3B68     		ldr	r3, [r7]
 2119 0020 002B     		cmp	r3, #0
 2120 0022 01D1     		bne	.L130
 2121              	.L129:
 646:c:/Users/lenovo/Desktop/AIoT/first_day/firstday_afternoon/LiteOS_Lab_STM32_IoT/iot_link/network/mqtt/paho_mqtt/port\paho_mqtt_port.c ****     {
 647:c:/Users/lenovo/Desktop/AIoT/first_day/firstday_afternoon/LiteOS_Lab_STM32_IoT/iot_link/network/mqtt/paho_mqtt/port\paho_mqtt_port.c ****         return ret;
 2122              		.loc 2 647 16
 2123 0024 7B69     		ldr	r3, [r7, #20]
 2124 0026 10E0     		b	.L131
 2125              	.L130:
 648:c:/Users/lenovo/Desktop/AIoT/first_day/firstday_afternoon/LiteOS_Lab_STM32_IoT/iot_link/network/mqtt/paho_mqtt/port\paho_mqtt_port.c ****     }
 649:c:/Users/lenovo/Desktop/AIoT/first_day/firstday_afternoon/LiteOS_Lab_STM32_IoT/iot_link/network/mqtt/paho_mqtt/port\paho_mqtt_port.c **** 
 650:c:/Users/lenovo/Desktop/AIoT/first_day/firstday_afternoon/LiteOS_Lab_STM32_IoT/iot_link/network/mqtt/paho_mqtt/port\paho_mqtt_port.c ****     cb = handle;
 2126              		.loc 2 650 8
 2127 0028 7B68     		ldr	r3, [r7, #4]
 2128 002a FB60     		str	r3, [r7, #12]
 651:c:/Users/lenovo/Desktop/AIoT/first_day/firstday_afternoon/LiteOS_Lab_STM32_IoT/iot_link/network/mqtt/paho_mqtt/port\paho_mqtt_port.c ****     c = &cb->client;
 2129              		.loc 2 651 7
 2130 002c FB68     		ldr	r3, [r7, #12]
 2131 002e 3833     		adds	r3, r3, #56
 2132 0030 3B61     		str	r3, [r7, #16]
 652:c:/Users/lenovo/Desktop/AIoT/first_day/firstday_afternoon/LiteOS_Lab_STM32_IoT/iot_link/network/mqtt/paho_mqtt/port\paho_mqtt_port.c **** 
 653:c:/Users/lenovo/Desktop/AIoT/first_day/firstday_afternoon/LiteOS_Lab_STM32_IoT/iot_link/network/mqtt/paho_mqtt/port\paho_mqtt_port.c ****     if(MQTT_SUCCESS == MQTTUnsubscribe(c,para->topic.data))
 2133              		.loc 2 653 53
 2134 0032 3B68     		ldr	r3, [r7]
 2135 0034 1B68     		ldr	r3, [r3]
 2136              		.loc 2 653 24
 2137 0036 1946     		mov	r1, r3
 2138 0038 3869     		ldr	r0, [r7, #16]
 2139 003a FFF7FEFF 		bl	MQTTUnsubscribe
 2140 003e 0346     		mov	r3, r0
 2141              		.loc 2 653 7
 2142 0040 002B     		cmp	r3, #0
 2143 0042 01D1     		bne	.L132
 654:c:/Users/lenovo/Desktop/AIoT/first_day/firstday_afternoon/LiteOS_Lab_STM32_IoT/iot_link/network/mqtt/paho_mqtt/port\paho_mqtt_port.c ****     {
 655:c:/Users/lenovo/Desktop/AIoT/first_day/firstday_afternoon/LiteOS_Lab_STM32_IoT/iot_link/network/mqtt/paho_mqtt/port\paho_mqtt_port.c ****         ret = 0;
 2144              		.loc 2 655 13
 2145 0044 0023     		movs	r3, #0
 2146 0046 7B61     		str	r3, [r7, #20]
 2147              	.L132:
 656:c:/Users/lenovo/Desktop/AIoT/first_day/firstday_afternoon/LiteOS_Lab_STM32_IoT/iot_link/network/mqtt/paho_mqtt/port\paho_mqtt_port.c ****     }
 657:c:/Users/lenovo/Desktop/AIoT/first_day/firstday_afternoon/LiteOS_Lab_STM32_IoT/iot_link/network/mqtt/paho_mqtt/port\paho_mqtt_port.c **** 
 658:c:/Users/lenovo/Desktop/AIoT/first_day/firstday_afternoon/LiteOS_Lab_STM32_IoT/iot_link/network/mqtt/paho_mqtt/port\paho_mqtt_port.c ****     return ret;
 2148              		.loc 2 658 12
 2149 0048 7B69     		ldr	r3, [r7, #20]
 2150              	.L131:
 659:c:/Users/lenovo/Desktop/AIoT/first_day/firstday_afternoon/LiteOS_Lab_STM32_IoT/iot_link/network/mqtt/paho_mqtt/port\paho_mqtt_port.c **** 
 660:c:/Users/lenovo/Desktop/AIoT/first_day/firstday_afternoon/LiteOS_Lab_STM32_IoT/iot_link/network/mqtt/paho_mqtt/port\paho_mqtt_port.c **** }
 2151              		.loc 2 660 1
 2152 004a 1846     		mov	r0, r3
 2153 004c 1837     		adds	r7, r7, #24
 2154              	.LCFI92:
ARM GAS  C:\Users\lenovo\AppData\Local\Temp\ccxMpoX7.s 			page 54


 2155              		.cfi_def_cfa_offset 8
 2156 004e BD46     		mov	sp, r7
 2157              	.LCFI93:
 2158              		.cfi_def_cfa_register 13
 2159              		@ sp needed
 2160 0050 80BD     		pop	{r7, pc}
 2161              		.cfi_endproc
 2162              	.LFE21:
 2164              		.section	.text.__publish,"ax",%progbits
 2165              		.align	1
 2166              		.syntax unified
 2167              		.thumb
 2168              		.thumb_func
 2169              		.fpu fpv4-sp-d16
 2171              	__publish:
 2172              	.LFB22:
 661:c:/Users/lenovo/Desktop/AIoT/first_day/firstday_afternoon/LiteOS_Lab_STM32_IoT/iot_link/network/mqtt/paho_mqtt/port\paho_mqtt_port.c **** 
 662:c:/Users/lenovo/Desktop/AIoT/first_day/firstday_afternoon/LiteOS_Lab_STM32_IoT/iot_link/network/mqtt/paho_mqtt/port\paho_mqtt_port.c **** static int __publish(void *handle, mqtt_al_pubpara_t *para)
 663:c:/Users/lenovo/Desktop/AIoT/first_day/firstday_afternoon/LiteOS_Lab_STM32_IoT/iot_link/network/mqtt/paho_mqtt/port\paho_mqtt_port.c **** {
 2173              		.loc 2 663 1
 2174              		.cfi_startproc
 2175              		@ args = 0, pretend = 0, frame = 40
 2176              		@ frame_needed = 1, uses_anonymous_args = 0
 2177 0000 80B5     		push	{r7, lr}
 2178              	.LCFI94:
 2179              		.cfi_def_cfa_offset 8
 2180              		.cfi_offset 7, -8
 2181              		.cfi_offset 14, -4
 2182 0002 8AB0     		sub	sp, sp, #40
 2183              	.LCFI95:
 2184              		.cfi_def_cfa_offset 48
 2185 0004 00AF     		add	r7, sp, #0
 2186              	.LCFI96:
 2187              		.cfi_def_cfa_register 7
 2188 0006 7860     		str	r0, [r7, #4]
 2189 0008 3960     		str	r1, [r7]
 664:c:/Users/lenovo/Desktop/AIoT/first_day/firstday_afternoon/LiteOS_Lab_STM32_IoT/iot_link/network/mqtt/paho_mqtt/port\paho_mqtt_port.c ****     MQTTMessage  msg;
 665:c:/Users/lenovo/Desktop/AIoT/first_day/firstday_afternoon/LiteOS_Lab_STM32_IoT/iot_link/network/mqtt/paho_mqtt/port\paho_mqtt_port.c ****     int ret = -1;
 2190              		.loc 2 665 9
 2191 000a 4FF0FF33 		mov	r3, #-1
 2192 000e 7B62     		str	r3, [r7, #36]
 666:c:/Users/lenovo/Desktop/AIoT/first_day/firstday_afternoon/LiteOS_Lab_STM32_IoT/iot_link/network/mqtt/paho_mqtt/port\paho_mqtt_port.c ****     MQTTClient       *c = NULL;
 2193              		.loc 2 666 23
 2194 0010 0023     		movs	r3, #0
 2195 0012 3B62     		str	r3, [r7, #32]
 667:c:/Users/lenovo/Desktop/AIoT/first_day/firstday_afternoon/LiteOS_Lab_STM32_IoT/iot_link/network/mqtt/paho_mqtt/port\paho_mqtt_port.c ****     paho_mqtt_cb_t   *cb = NULL;
 2196              		.loc 2 667 23
 2197 0014 0023     		movs	r3, #0
 2198 0016 FB61     		str	r3, [r7, #28]
 668:c:/Users/lenovo/Desktop/AIoT/first_day/firstday_afternoon/LiteOS_Lab_STM32_IoT/iot_link/network/mqtt/paho_mqtt/port\paho_mqtt_port.c **** 
 669:c:/Users/lenovo/Desktop/AIoT/first_day/firstday_afternoon/LiteOS_Lab_STM32_IoT/iot_link/network/mqtt/paho_mqtt/port\paho_mqtt_port.c ****     if((NULL == handle) ||(NULL == para))
 2199              		.loc 2 669 7
 2200 0018 7B68     		ldr	r3, [r7, #4]
 2201 001a 002B     		cmp	r3, #0
 2202 001c 02D0     		beq	.L134
 2203              		.loc 2 669 25 discriminator 1
 2204 001e 3B68     		ldr	r3, [r7]
ARM GAS  C:\Users\lenovo\AppData\Local\Temp\ccxMpoX7.s 			page 55


 2205 0020 002B     		cmp	r3, #0
 2206 0022 01D1     		bne	.L135
 2207              	.L134:
 670:c:/Users/lenovo/Desktop/AIoT/first_day/firstday_afternoon/LiteOS_Lab_STM32_IoT/iot_link/network/mqtt/paho_mqtt/port\paho_mqtt_port.c ****     {
 671:c:/Users/lenovo/Desktop/AIoT/first_day/firstday_afternoon/LiteOS_Lab_STM32_IoT/iot_link/network/mqtt/paho_mqtt/port\paho_mqtt_port.c ****         return ret;
 2208              		.loc 2 671 16
 2209 0024 7B6A     		ldr	r3, [r7, #36]
 2210 0026 26E0     		b	.L138
 2211              	.L135:
 672:c:/Users/lenovo/Desktop/AIoT/first_day/firstday_afternoon/LiteOS_Lab_STM32_IoT/iot_link/network/mqtt/paho_mqtt/port\paho_mqtt_port.c ****     }
 673:c:/Users/lenovo/Desktop/AIoT/first_day/firstday_afternoon/LiteOS_Lab_STM32_IoT/iot_link/network/mqtt/paho_mqtt/port\paho_mqtt_port.c **** 
 674:c:/Users/lenovo/Desktop/AIoT/first_day/firstday_afternoon/LiteOS_Lab_STM32_IoT/iot_link/network/mqtt/paho_mqtt/port\paho_mqtt_port.c ****     cb = handle;
 2212              		.loc 2 674 8
 2213 0028 7B68     		ldr	r3, [r7, #4]
 2214 002a FB61     		str	r3, [r7, #28]
 675:c:/Users/lenovo/Desktop/AIoT/first_day/firstday_afternoon/LiteOS_Lab_STM32_IoT/iot_link/network/mqtt/paho_mqtt/port\paho_mqtt_port.c ****     c = &cb->client;
 2215              		.loc 2 675 7
 2216 002c FB69     		ldr	r3, [r7, #28]
 2217 002e 3833     		adds	r3, r3, #56
 2218 0030 3B62     		str	r3, [r7, #32]
 676:c:/Users/lenovo/Desktop/AIoT/first_day/firstday_afternoon/LiteOS_Lab_STM32_IoT/iot_link/network/mqtt/paho_mqtt/port\paho_mqtt_port.c **** 
 677:c:/Users/lenovo/Desktop/AIoT/first_day/firstday_afternoon/LiteOS_Lab_STM32_IoT/iot_link/network/mqtt/paho_mqtt/port\paho_mqtt_port.c ****     memset(&msg,0,sizeof(msg));
 2219              		.loc 2 677 5
 2220 0032 07F10C03 		add	r3, r7, #12
 2221 0036 1022     		movs	r2, #16
 2222 0038 0021     		movs	r1, #0
 2223 003a 1846     		mov	r0, r3
 2224 003c FFF7FEFF 		bl	memset
 678:c:/Users/lenovo/Desktop/AIoT/first_day/firstday_afternoon/LiteOS_Lab_STM32_IoT/iot_link/network/mqtt/paho_mqtt/port\paho_mqtt_port.c ****     msg.retained = (unsigned char )para->retain;
 2225              		.loc 2 678 40
 2226 0040 3B68     		ldr	r3, [r7]
 2227 0042 5B69     		ldr	r3, [r3, #20]
 2228              		.loc 2 678 20
 2229 0044 DBB2     		uxtb	r3, r3
 2230              		.loc 2 678 18
 2231 0046 7B73     		strb	r3, [r7, #13]
 679:c:/Users/lenovo/Desktop/AIoT/first_day/firstday_afternoon/LiteOS_Lab_STM32_IoT/iot_link/network/mqtt/paho_mqtt/port\paho_mqtt_port.c ****     msg.qos = QOS0 + para->qos;
 2232              		.loc 2 679 26
 2233 0048 3B68     		ldr	r3, [r7]
 2234 004a 1B7C     		ldrb	r3, [r3, #16]	@ zero_extendqisi2
 2235              		.loc 2 679 13
 2236 004c 3B73     		strb	r3, [r7, #12]
 680:c:/Users/lenovo/Desktop/AIoT/first_day/firstday_afternoon/LiteOS_Lab_STM32_IoT/iot_link/network/mqtt/paho_mqtt/port\paho_mqtt_port.c ****     msg.payload = para->msg.data;
 2237              		.loc 2 680 28
 2238 004e 3B68     		ldr	r3, [r7]
 2239 0050 9B68     		ldr	r3, [r3, #8]
 2240              		.loc 2 680 17
 2241 0052 7B61     		str	r3, [r7, #20]
 681:c:/Users/lenovo/Desktop/AIoT/first_day/firstday_afternoon/LiteOS_Lab_STM32_IoT/iot_link/network/mqtt/paho_mqtt/port\paho_mqtt_port.c ****     msg.payloadlen = para->msg.len;
 2242              		.loc 2 681 31
 2243 0054 3B68     		ldr	r3, [r7]
 2244 0056 DB68     		ldr	r3, [r3, #12]
 2245              		.loc 2 681 20
 2246 0058 BB61     		str	r3, [r7, #24]
 682:c:/Users/lenovo/Desktop/AIoT/first_day/firstday_afternoon/LiteOS_Lab_STM32_IoT/iot_link/network/mqtt/paho_mqtt/port\paho_mqtt_port.c ****     if(MQTT_SUCCESS ==  MQTTPublish(c, para->topic.data, &msg))
 2247              		.loc 2 682 51
 2248 005a 3B68     		ldr	r3, [r7]
ARM GAS  C:\Users\lenovo\AppData\Local\Temp\ccxMpoX7.s 			page 56


 2249 005c 1B68     		ldr	r3, [r3]
 2250              		.loc 2 682 25
 2251 005e 07F10C02 		add	r2, r7, #12
 2252 0062 1946     		mov	r1, r3
 2253 0064 386A     		ldr	r0, [r7, #32]
 2254 0066 FFF7FEFF 		bl	MQTTPublish
 2255 006a 0346     		mov	r3, r0
 2256              		.loc 2 682 7
 2257 006c 002B     		cmp	r3, #0
 2258 006e 01D1     		bne	.L137
 683:c:/Users/lenovo/Desktop/AIoT/first_day/firstday_afternoon/LiteOS_Lab_STM32_IoT/iot_link/network/mqtt/paho_mqtt/port\paho_mqtt_port.c ****     {
 684:c:/Users/lenovo/Desktop/AIoT/first_day/firstday_afternoon/LiteOS_Lab_STM32_IoT/iot_link/network/mqtt/paho_mqtt/port\paho_mqtt_port.c ****         ret = 0;
 2259              		.loc 2 684 13
 2260 0070 0023     		movs	r3, #0
 2261 0072 7B62     		str	r3, [r7, #36]
 2262              	.L137:
 685:c:/Users/lenovo/Desktop/AIoT/first_day/firstday_afternoon/LiteOS_Lab_STM32_IoT/iot_link/network/mqtt/paho_mqtt/port\paho_mqtt_port.c ****     }
 686:c:/Users/lenovo/Desktop/AIoT/first_day/firstday_afternoon/LiteOS_Lab_STM32_IoT/iot_link/network/mqtt/paho_mqtt/port\paho_mqtt_port.c **** 
 687:c:/Users/lenovo/Desktop/AIoT/first_day/firstday_afternoon/LiteOS_Lab_STM32_IoT/iot_link/network/mqtt/paho_mqtt/port\paho_mqtt_port.c ****     return ret;
 2263              		.loc 2 687 12
 2264 0074 7B6A     		ldr	r3, [r7, #36]
 2265              	.L138:
 688:c:/Users/lenovo/Desktop/AIoT/first_day/firstday_afternoon/LiteOS_Lab_STM32_IoT/iot_link/network/mqtt/paho_mqtt/port\paho_mqtt_port.c **** }
 2266              		.loc 2 688 1 discriminator 1
 2267 0076 1846     		mov	r0, r3
 2268 0078 2837     		adds	r7, r7, #40
 2269              	.LCFI97:
 2270              		.cfi_def_cfa_offset 8
 2271 007a BD46     		mov	sp, r7
 2272              	.LCFI98:
 2273              		.cfi_def_cfa_register 13
 2274              		@ sp needed
 2275 007c 80BD     		pop	{r7, pc}
 2276              		.cfi_endproc
 2277              	.LFE22:
 2279              		.section	.text.__check_status,"ax",%progbits
 2280              		.align	1
 2281              		.syntax unified
 2282              		.thumb
 2283              		.thumb_func
 2284              		.fpu fpv4-sp-d16
 2286              	__check_status:
 2287              	.LFB23:
 689:c:/Users/lenovo/Desktop/AIoT/first_day/firstday_afternoon/LiteOS_Lab_STM32_IoT/iot_link/network/mqtt/paho_mqtt/port\paho_mqtt_port.c **** 
 690:c:/Users/lenovo/Desktop/AIoT/first_day/firstday_afternoon/LiteOS_Lab_STM32_IoT/iot_link/network/mqtt/paho_mqtt/port\paho_mqtt_port.c **** static en_mqtt_al_connect_state __check_status(void *handle)
 691:c:/Users/lenovo/Desktop/AIoT/first_day/firstday_afternoon/LiteOS_Lab_STM32_IoT/iot_link/network/mqtt/paho_mqtt/port\paho_mqtt_port.c **** {
 2288              		.loc 2 691 1
 2289              		.cfi_startproc
 2290              		@ args = 0, pretend = 0, frame = 24
 2291              		@ frame_needed = 1, uses_anonymous_args = 0
 2292 0000 80B5     		push	{r7, lr}
 2293              	.LCFI99:
 2294              		.cfi_def_cfa_offset 8
 2295              		.cfi_offset 7, -8
 2296              		.cfi_offset 14, -4
 2297 0002 86B0     		sub	sp, sp, #24
 2298              	.LCFI100:
ARM GAS  C:\Users\lenovo\AppData\Local\Temp\ccxMpoX7.s 			page 57


 2299              		.cfi_def_cfa_offset 32
 2300 0004 00AF     		add	r7, sp, #0
 2301              	.LCFI101:
 2302              		.cfi_def_cfa_register 7
 2303 0006 7860     		str	r0, [r7, #4]
 692:c:/Users/lenovo/Desktop/AIoT/first_day/firstday_afternoon/LiteOS_Lab_STM32_IoT/iot_link/network/mqtt/paho_mqtt/port\paho_mqtt_port.c ****     en_mqtt_al_connect_state ret = en_mqtt_al_connect_err;
 2304              		.loc 2 692 30
 2305 0008 0123     		movs	r3, #1
 2306 000a FB75     		strb	r3, [r7, #23]
 693:c:/Users/lenovo/Desktop/AIoT/first_day/firstday_afternoon/LiteOS_Lab_STM32_IoT/iot_link/network/mqtt/paho_mqtt/port\paho_mqtt_port.c ****     MQTTClient       *c = NULL;
 2307              		.loc 2 693 23
 2308 000c 0023     		movs	r3, #0
 2309 000e 3B61     		str	r3, [r7, #16]
 694:c:/Users/lenovo/Desktop/AIoT/first_day/firstday_afternoon/LiteOS_Lab_STM32_IoT/iot_link/network/mqtt/paho_mqtt/port\paho_mqtt_port.c ****     paho_mqtt_cb_t   *cb = NULL;
 2310              		.loc 2 694 23
 2311 0010 0023     		movs	r3, #0
 2312 0012 FB60     		str	r3, [r7, #12]
 695:c:/Users/lenovo/Desktop/AIoT/first_day/firstday_afternoon/LiteOS_Lab_STM32_IoT/iot_link/network/mqtt/paho_mqtt/port\paho_mqtt_port.c **** 
 696:c:/Users/lenovo/Desktop/AIoT/first_day/firstday_afternoon/LiteOS_Lab_STM32_IoT/iot_link/network/mqtt/paho_mqtt/port\paho_mqtt_port.c ****     if(NULL == handle)
 2313              		.loc 2 696 7
 2314 0014 7B68     		ldr	r3, [r7, #4]
 2315 0016 002B     		cmp	r3, #0
 2316 0018 01D1     		bne	.L140
 697:c:/Users/lenovo/Desktop/AIoT/first_day/firstday_afternoon/LiteOS_Lab_STM32_IoT/iot_link/network/mqtt/paho_mqtt/port\paho_mqtt_port.c ****     {
 698:c:/Users/lenovo/Desktop/AIoT/first_day/firstday_afternoon/LiteOS_Lab_STM32_IoT/iot_link/network/mqtt/paho_mqtt/port\paho_mqtt_port.c ****         return ret;
 2317              		.loc 2 698 16
 2318 001a FB7D     		ldrb	r3, [r7, #23]	@ zero_extendqisi2
 2319 001c 0DE0     		b	.L141
 2320              	.L140:
 699:c:/Users/lenovo/Desktop/AIoT/first_day/firstday_afternoon/LiteOS_Lab_STM32_IoT/iot_link/network/mqtt/paho_mqtt/port\paho_mqtt_port.c ****     }
 700:c:/Users/lenovo/Desktop/AIoT/first_day/firstday_afternoon/LiteOS_Lab_STM32_IoT/iot_link/network/mqtt/paho_mqtt/port\paho_mqtt_port.c **** 
 701:c:/Users/lenovo/Desktop/AIoT/first_day/firstday_afternoon/LiteOS_Lab_STM32_IoT/iot_link/network/mqtt/paho_mqtt/port\paho_mqtt_port.c ****     cb = handle;
 2321              		.loc 2 701 8
 2322 001e 7B68     		ldr	r3, [r7, #4]
 2323 0020 FB60     		str	r3, [r7, #12]
 702:c:/Users/lenovo/Desktop/AIoT/first_day/firstday_afternoon/LiteOS_Lab_STM32_IoT/iot_link/network/mqtt/paho_mqtt/port\paho_mqtt_port.c ****     c = &cb->client;
 2324              		.loc 2 702 7
 2325 0022 FB68     		ldr	r3, [r7, #12]
 2326 0024 3833     		adds	r3, r3, #56
 2327 0026 3B61     		str	r3, [r7, #16]
 703:c:/Users/lenovo/Desktop/AIoT/first_day/firstday_afternoon/LiteOS_Lab_STM32_IoT/iot_link/network/mqtt/paho_mqtt/port\paho_mqtt_port.c **** 
