ARM GAS  C:\Users\lenovo\AppData\Local\Temp\ccds4vwo.s 			page 1


   1              		.cpu cortex-m4
   2              		.eabi_attribute 27, 1
   3              		.eabi_attribute 28, 1
   4              		.eabi_attribute 20, 1
   5              		.eabi_attribute 21, 1
   6              		.eabi_attribute 23, 3
   7              		.eabi_attribute 24, 1
   8              		.eabi_attribute 25, 1
   9              		.eabi_attribute 26, 1
  10              		.eabi_attribute 30, 6
  11              		.eabi_attribute 34, 1
  12              		.eabi_attribute 18, 4
  13              		.file	"sha256.c"
  14              		.text
  15              	.Ltext0:
  16              		.cfi_sections	.debug_frame
  17              		.section	.text.mbedtls_sha256_init,"ax",%progbits
  18              		.align	1
  19              		.global	mbedtls_sha256_init
  20              		.arch armv7e-m
  21              		.syntax unified
  22              		.thumb
  23              		.thumb_func
  24              		.fpu fpv4-sp-d16
  26              	mbedtls_sha256_init:
  27              	.LFB0:
  28              		.file 1 "c:/Users/lenovo/Desktop/AIoT/first_day/firstday_afternoon/LiteOS_Lab_STM32_IoT/iot_link/n
   1:c:/Users/lenovo/Desktop/AIoT/first_day/firstday_afternoon/LiteOS_Lab_STM32_IoT/iot_link/network/dtls/mbedtls/mbedtls-2.16.2/library\sha256.c **** /*
   2:c:/Users/lenovo/Desktop/AIoT/first_day/firstday_afternoon/LiteOS_Lab_STM32_IoT/iot_link/network/dtls/mbedtls/mbedtls-2.16.2/library\sha256.c ****  *  FIPS-180-2 compliant SHA-256 implementation
   3:c:/Users/lenovo/Desktop/AIoT/first_day/firstday_afternoon/LiteOS_Lab_STM32_IoT/iot_link/network/dtls/mbedtls/mbedtls-2.16.2/library\sha256.c ****  *
   4:c:/Users/lenovo/Desktop/AIoT/first_day/firstday_afternoon/LiteOS_Lab_STM32_IoT/iot_link/network/dtls/mbedtls/mbedtls-2.16.2/library\sha256.c ****  *  Copyright (C) 2006-2015, ARM Limited, All Rights Reserved
   5:c:/Users/lenovo/Desktop/AIoT/first_day/firstday_afternoon/LiteOS_Lab_STM32_IoT/iot_link/network/dtls/mbedtls/mbedtls-2.16.2/library\sha256.c ****  *  SPDX-License-Identifier: Apache-2.0
   6:c:/Users/lenovo/Desktop/AIoT/first_day/firstday_afternoon/LiteOS_Lab_STM32_IoT/iot_link/network/dtls/mbedtls/mbedtls-2.16.2/library\sha256.c ****  *
   7:c:/Users/lenovo/Desktop/AIoT/first_day/firstday_afternoon/LiteOS_Lab_STM32_IoT/iot_link/network/dtls/mbedtls/mbedtls-2.16.2/library\sha256.c ****  *  Licensed under the Apache License, Version 2.0 (the "License"); you may
   8:c:/Users/lenovo/Desktop/AIoT/first_day/firstday_afternoon/LiteOS_Lab_STM32_IoT/iot_link/network/dtls/mbedtls/mbedtls-2.16.2/library\sha256.c ****  *  not use this file except in compliance with the License.
   9:c:/Users/lenovo/Desktop/AIoT/first_day/firstday_afternoon/LiteOS_Lab_STM32_IoT/iot_link/network/dtls/mbedtls/mbedtls-2.16.2/library\sha256.c ****  *  You may obtain a copy of the License at
  10:c:/Users/lenovo/Desktop/AIoT/first_day/firstday_afternoon/LiteOS_Lab_STM32_IoT/iot_link/network/dtls/mbedtls/mbedtls-2.16.2/library\sha256.c ****  *
  11:c:/Users/lenovo/Desktop/AIoT/first_day/firstday_afternoon/LiteOS_Lab_STM32_IoT/iot_link/network/dtls/mbedtls/mbedtls-2.16.2/library\sha256.c ****  *  http://www.apache.org/licenses/LICENSE-2.0
  12:c:/Users/lenovo/Desktop/AIoT/first_day/firstday_afternoon/LiteOS_Lab_STM32_IoT/iot_link/network/dtls/mbedtls/mbedtls-2.16.2/library\sha256.c ****  *
  13:c:/Users/lenovo/Desktop/AIoT/first_day/firstday_afternoon/LiteOS_Lab_STM32_IoT/iot_link/network/dtls/mbedtls/mbedtls-2.16.2/library\sha256.c ****  *  Unless required by applicable law or agreed to in writing, software
  14:c:/Users/lenovo/Desktop/AIoT/first_day/firstday_afternoon/LiteOS_Lab_STM32_IoT/iot_link/network/dtls/mbedtls/mbedtls-2.16.2/library\sha256.c ****  *  distributed under the License is distributed on an "AS IS" BASIS, WITHOUT
  15:c:/Users/lenovo/Desktop/AIoT/first_day/firstday_afternoon/LiteOS_Lab_STM32_IoT/iot_link/network/dtls/mbedtls/mbedtls-2.16.2/library\sha256.c ****  *  WARRANTIES OR CONDITIONS OF ANY KIND, either express or implied.
  16:c:/Users/lenovo/Desktop/AIoT/first_day/firstday_afternoon/LiteOS_Lab_STM32_IoT/iot_link/network/dtls/mbedtls/mbedtls-2.16.2/library\sha256.c ****  *  See the License for the specific language governing permissions and
  17:c:/Users/lenovo/Desktop/AIoT/first_day/firstday_afternoon/LiteOS_Lab_STM32_IoT/iot_link/network/dtls/mbedtls/mbedtls-2.16.2/library\sha256.c ****  *  limitations under the License.
  18:c:/Users/lenovo/Desktop/AIoT/first_day/firstday_afternoon/LiteOS_Lab_STM32_IoT/iot_link/network/dtls/mbedtls/mbedtls-2.16.2/library\sha256.c ****  *
  19:c:/Users/lenovo/Desktop/AIoT/first_day/firstday_afternoon/LiteOS_Lab_STM32_IoT/iot_link/network/dtls/mbedtls/mbedtls-2.16.2/library\sha256.c ****  *  This file is part of mbed TLS (https://tls.mbed.org)
  20:c:/Users/lenovo/Desktop/AIoT/first_day/firstday_afternoon/LiteOS_Lab_STM32_IoT/iot_link/network/dtls/mbedtls/mbedtls-2.16.2/library\sha256.c ****  */
  21:c:/Users/lenovo/Desktop/AIoT/first_day/firstday_afternoon/LiteOS_Lab_STM32_IoT/iot_link/network/dtls/mbedtls/mbedtls-2.16.2/library\sha256.c **** /*
  22:c:/Users/lenovo/Desktop/AIoT/first_day/firstday_afternoon/LiteOS_Lab_STM32_IoT/iot_link/network/dtls/mbedtls/mbedtls-2.16.2/library\sha256.c ****  *  The SHA-256 Secure Hash Standard was published by NIST in 2002.
  23:c:/Users/lenovo/Desktop/AIoT/first_day/firstday_afternoon/LiteOS_Lab_STM32_IoT/iot_link/network/dtls/mbedtls/mbedtls-2.16.2/library\sha256.c ****  *
  24:c:/Users/lenovo/Desktop/AIoT/first_day/firstday_afternoon/LiteOS_Lab_STM32_IoT/iot_link/network/dtls/mbedtls/mbedtls-2.16.2/library\sha256.c ****  *  http://csrc.nist.gov/publications/fips/fips180-2/fips180-2.pdf
  25:c:/Users/lenovo/Desktop/AIoT/first_day/firstday_afternoon/LiteOS_Lab_STM32_IoT/iot_link/network/dtls/mbedtls/mbedtls-2.16.2/library\sha256.c ****  */
  26:c:/Users/lenovo/Desktop/AIoT/first_day/firstday_afternoon/LiteOS_Lab_STM32_IoT/iot_link/network/dtls/mbedtls/mbedtls-2.16.2/library\sha256.c **** 
  27:c:/Users/lenovo/Desktop/AIoT/first_day/firstday_afternoon/LiteOS_Lab_STM32_IoT/iot_link/network/dtls/mbedtls/mbedtls-2.16.2/library\sha256.c **** #if !defined(MBEDTLS_CONFIG_FILE)
  28:c:/Users/lenovo/Desktop/AIoT/first_day/firstday_afternoon/LiteOS_Lab_STM32_IoT/iot_link/network/dtls/mbedtls/mbedtls-2.16.2/library\sha256.c **** #include "mbedtls/config.h"
  29:c:/Users/lenovo/Desktop/AIoT/first_day/firstday_afternoon/LiteOS_Lab_STM32_IoT/iot_link/network/dtls/mbedtls/mbedtls-2.16.2/library\sha256.c **** #else
  30:c:/Users/lenovo/Desktop/AIoT/first_day/firstday_afternoon/LiteOS_Lab_STM32_IoT/iot_link/network/dtls/mbedtls/mbedtls-2.16.2/library\sha256.c **** #include MBEDTLS_CONFIG_FILE
ARM GAS  C:\Users\lenovo\AppData\Local\Temp\ccds4vwo.s 			page 2


  31:c:/Users/lenovo/Desktop/AIoT/first_day/firstday_afternoon/LiteOS_Lab_STM32_IoT/iot_link/network/dtls/mbedtls/mbedtls-2.16.2/library\sha256.c **** #endif
  32:c:/Users/lenovo/Desktop/AIoT/first_day/firstday_afternoon/LiteOS_Lab_STM32_IoT/iot_link/network/dtls/mbedtls/mbedtls-2.16.2/library\sha256.c **** 
  33:c:/Users/lenovo/Desktop/AIoT/first_day/firstday_afternoon/LiteOS_Lab_STM32_IoT/iot_link/network/dtls/mbedtls/mbedtls-2.16.2/library\sha256.c **** #if defined(MBEDTLS_SHA256_C)
  34:c:/Users/lenovo/Desktop/AIoT/first_day/firstday_afternoon/LiteOS_Lab_STM32_IoT/iot_link/network/dtls/mbedtls/mbedtls-2.16.2/library\sha256.c **** 
  35:c:/Users/lenovo/Desktop/AIoT/first_day/firstday_afternoon/LiteOS_Lab_STM32_IoT/iot_link/network/dtls/mbedtls/mbedtls-2.16.2/library\sha256.c **** #include "mbedtls/sha256.h"
  36:c:/Users/lenovo/Desktop/AIoT/first_day/firstday_afternoon/LiteOS_Lab_STM32_IoT/iot_link/network/dtls/mbedtls/mbedtls-2.16.2/library\sha256.c **** #include "mbedtls/platform_util.h"
  37:c:/Users/lenovo/Desktop/AIoT/first_day/firstday_afternoon/LiteOS_Lab_STM32_IoT/iot_link/network/dtls/mbedtls/mbedtls-2.16.2/library\sha256.c **** 
  38:c:/Users/lenovo/Desktop/AIoT/first_day/firstday_afternoon/LiteOS_Lab_STM32_IoT/iot_link/network/dtls/mbedtls/mbedtls-2.16.2/library\sha256.c **** #include <string.h>
  39:c:/Users/lenovo/Desktop/AIoT/first_day/firstday_afternoon/LiteOS_Lab_STM32_IoT/iot_link/network/dtls/mbedtls/mbedtls-2.16.2/library\sha256.c **** 
  40:c:/Users/lenovo/Desktop/AIoT/first_day/firstday_afternoon/LiteOS_Lab_STM32_IoT/iot_link/network/dtls/mbedtls/mbedtls-2.16.2/library\sha256.c **** #if defined(MBEDTLS_SELF_TEST)
  41:c:/Users/lenovo/Desktop/AIoT/first_day/firstday_afternoon/LiteOS_Lab_STM32_IoT/iot_link/network/dtls/mbedtls/mbedtls-2.16.2/library\sha256.c **** #if defined(MBEDTLS_PLATFORM_C)
  42:c:/Users/lenovo/Desktop/AIoT/first_day/firstday_afternoon/LiteOS_Lab_STM32_IoT/iot_link/network/dtls/mbedtls/mbedtls-2.16.2/library\sha256.c **** #include "mbedtls/platform.h"
  43:c:/Users/lenovo/Desktop/AIoT/first_day/firstday_afternoon/LiteOS_Lab_STM32_IoT/iot_link/network/dtls/mbedtls/mbedtls-2.16.2/library\sha256.c **** #else
  44:c:/Users/lenovo/Desktop/AIoT/first_day/firstday_afternoon/LiteOS_Lab_STM32_IoT/iot_link/network/dtls/mbedtls/mbedtls-2.16.2/library\sha256.c **** #include <stdio.h>
  45:c:/Users/lenovo/Desktop/AIoT/first_day/firstday_afternoon/LiteOS_Lab_STM32_IoT/iot_link/network/dtls/mbedtls/mbedtls-2.16.2/library\sha256.c **** #include <stdlib.h>
  46:c:/Users/lenovo/Desktop/AIoT/first_day/firstday_afternoon/LiteOS_Lab_STM32_IoT/iot_link/network/dtls/mbedtls/mbedtls-2.16.2/library\sha256.c **** #define mbedtls_printf printf
  47:c:/Users/lenovo/Desktop/AIoT/first_day/firstday_afternoon/LiteOS_Lab_STM32_IoT/iot_link/network/dtls/mbedtls/mbedtls-2.16.2/library\sha256.c **** #define mbedtls_calloc    calloc
  48:c:/Users/lenovo/Desktop/AIoT/first_day/firstday_afternoon/LiteOS_Lab_STM32_IoT/iot_link/network/dtls/mbedtls/mbedtls-2.16.2/library\sha256.c **** #define mbedtls_free       free
  49:c:/Users/lenovo/Desktop/AIoT/first_day/firstday_afternoon/LiteOS_Lab_STM32_IoT/iot_link/network/dtls/mbedtls/mbedtls-2.16.2/library\sha256.c **** #endif /* MBEDTLS_PLATFORM_C */
  50:c:/Users/lenovo/Desktop/AIoT/first_day/firstday_afternoon/LiteOS_Lab_STM32_IoT/iot_link/network/dtls/mbedtls/mbedtls-2.16.2/library\sha256.c **** #endif /* MBEDTLS_SELF_TEST */
  51:c:/Users/lenovo/Desktop/AIoT/first_day/firstday_afternoon/LiteOS_Lab_STM32_IoT/iot_link/network/dtls/mbedtls/mbedtls-2.16.2/library\sha256.c **** 
  52:c:/Users/lenovo/Desktop/AIoT/first_day/firstday_afternoon/LiteOS_Lab_STM32_IoT/iot_link/network/dtls/mbedtls/mbedtls-2.16.2/library\sha256.c **** #define SHA256_VALIDATE_RET(cond)                           \
  53:c:/Users/lenovo/Desktop/AIoT/first_day/firstday_afternoon/LiteOS_Lab_STM32_IoT/iot_link/network/dtls/mbedtls/mbedtls-2.16.2/library\sha256.c ****     MBEDTLS_INTERNAL_VALIDATE_RET( cond, MBEDTLS_ERR_SHA256_BAD_INPUT_DATA )
  54:c:/Users/lenovo/Desktop/AIoT/first_day/firstday_afternoon/LiteOS_Lab_STM32_IoT/iot_link/network/dtls/mbedtls/mbedtls-2.16.2/library\sha256.c **** #define SHA256_VALIDATE(cond)  MBEDTLS_INTERNAL_VALIDATE( cond )
  55:c:/Users/lenovo/Desktop/AIoT/first_day/firstday_afternoon/LiteOS_Lab_STM32_IoT/iot_link/network/dtls/mbedtls/mbedtls-2.16.2/library\sha256.c **** 
  56:c:/Users/lenovo/Desktop/AIoT/first_day/firstday_afternoon/LiteOS_Lab_STM32_IoT/iot_link/network/dtls/mbedtls/mbedtls-2.16.2/library\sha256.c **** #if !defined(MBEDTLS_SHA256_ALT)
  57:c:/Users/lenovo/Desktop/AIoT/first_day/firstday_afternoon/LiteOS_Lab_STM32_IoT/iot_link/network/dtls/mbedtls/mbedtls-2.16.2/library\sha256.c **** 
  58:c:/Users/lenovo/Desktop/AIoT/first_day/firstday_afternoon/LiteOS_Lab_STM32_IoT/iot_link/network/dtls/mbedtls/mbedtls-2.16.2/library\sha256.c **** /*
  59:c:/Users/lenovo/Desktop/AIoT/first_day/firstday_afternoon/LiteOS_Lab_STM32_IoT/iot_link/network/dtls/mbedtls/mbedtls-2.16.2/library\sha256.c ****  * 32-bit integer manipulation macros (big endian)
  60:c:/Users/lenovo/Desktop/AIoT/first_day/firstday_afternoon/LiteOS_Lab_STM32_IoT/iot_link/network/dtls/mbedtls/mbedtls-2.16.2/library\sha256.c ****  */
  61:c:/Users/lenovo/Desktop/AIoT/first_day/firstday_afternoon/LiteOS_Lab_STM32_IoT/iot_link/network/dtls/mbedtls/mbedtls-2.16.2/library\sha256.c **** #ifndef GET_UINT32_BE
  62:c:/Users/lenovo/Desktop/AIoT/first_day/firstday_afternoon/LiteOS_Lab_STM32_IoT/iot_link/network/dtls/mbedtls/mbedtls-2.16.2/library\sha256.c **** #define GET_UINT32_BE(n,b,i)                            \
  63:c:/Users/lenovo/Desktop/AIoT/first_day/firstday_afternoon/LiteOS_Lab_STM32_IoT/iot_link/network/dtls/mbedtls/mbedtls-2.16.2/library\sha256.c **** do {                                                    \
  64:c:/Users/lenovo/Desktop/AIoT/first_day/firstday_afternoon/LiteOS_Lab_STM32_IoT/iot_link/network/dtls/mbedtls/mbedtls-2.16.2/library\sha256.c ****     (n) = ( (uint32_t) (b)[(i)    ] << 24 )             \
  65:c:/Users/lenovo/Desktop/AIoT/first_day/firstday_afternoon/LiteOS_Lab_STM32_IoT/iot_link/network/dtls/mbedtls/mbedtls-2.16.2/library\sha256.c ****         | ( (uint32_t) (b)[(i) + 1] << 16 )             \
  66:c:/Users/lenovo/Desktop/AIoT/first_day/firstday_afternoon/LiteOS_Lab_STM32_IoT/iot_link/network/dtls/mbedtls/mbedtls-2.16.2/library\sha256.c ****         | ( (uint32_t) (b)[(i) + 2] <<  8 )             \
  67:c:/Users/lenovo/Desktop/AIoT/first_day/firstday_afternoon/LiteOS_Lab_STM32_IoT/iot_link/network/dtls/mbedtls/mbedtls-2.16.2/library\sha256.c ****         | ( (uint32_t) (b)[(i) + 3]       );            \
  68:c:/Users/lenovo/Desktop/AIoT/first_day/firstday_afternoon/LiteOS_Lab_STM32_IoT/iot_link/network/dtls/mbedtls/mbedtls-2.16.2/library\sha256.c **** } while( 0 )
  69:c:/Users/lenovo/Desktop/AIoT/first_day/firstday_afternoon/LiteOS_Lab_STM32_IoT/iot_link/network/dtls/mbedtls/mbedtls-2.16.2/library\sha256.c **** #endif
  70:c:/Users/lenovo/Desktop/AIoT/first_day/firstday_afternoon/LiteOS_Lab_STM32_IoT/iot_link/network/dtls/mbedtls/mbedtls-2.16.2/library\sha256.c **** 
  71:c:/Users/lenovo/Desktop/AIoT/first_day/firstday_afternoon/LiteOS_Lab_STM32_IoT/iot_link/network/dtls/mbedtls/mbedtls-2.16.2/library\sha256.c **** #ifndef PUT_UINT32_BE
  72:c:/Users/lenovo/Desktop/AIoT/first_day/firstday_afternoon/LiteOS_Lab_STM32_IoT/iot_link/network/dtls/mbedtls/mbedtls-2.16.2/library\sha256.c **** #define PUT_UINT32_BE(n,b,i)                            \
  73:c:/Users/lenovo/Desktop/AIoT/first_day/firstday_afternoon/LiteOS_Lab_STM32_IoT/iot_link/network/dtls/mbedtls/mbedtls-2.16.2/library\sha256.c **** do {                                                    \
  74:c:/Users/lenovo/Desktop/AIoT/first_day/firstday_afternoon/LiteOS_Lab_STM32_IoT/iot_link/network/dtls/mbedtls/mbedtls-2.16.2/library\sha256.c ****     (b)[(i)    ] = (unsigned char) ( (n) >> 24 );       \
  75:c:/Users/lenovo/Desktop/AIoT/first_day/firstday_afternoon/LiteOS_Lab_STM32_IoT/iot_link/network/dtls/mbedtls/mbedtls-2.16.2/library\sha256.c ****     (b)[(i) + 1] = (unsigned char) ( (n) >> 16 );       \
  76:c:/Users/lenovo/Desktop/AIoT/first_day/firstday_afternoon/LiteOS_Lab_STM32_IoT/iot_link/network/dtls/mbedtls/mbedtls-2.16.2/library\sha256.c ****     (b)[(i) + 2] = (unsigned char) ( (n) >>  8 );       \
  77:c:/Users/lenovo/Desktop/AIoT/first_day/firstday_afternoon/LiteOS_Lab_STM32_IoT/iot_link/network/dtls/mbedtls/mbedtls-2.16.2/library\sha256.c ****     (b)[(i) + 3] = (unsigned char) ( (n)       );       \
  78:c:/Users/lenovo/Desktop/AIoT/first_day/firstday_afternoon/LiteOS_Lab_STM32_IoT/iot_link/network/dtls/mbedtls/mbedtls-2.16.2/library\sha256.c **** } while( 0 )
  79:c:/Users/lenovo/Desktop/AIoT/first_day/firstday_afternoon/LiteOS_Lab_STM32_IoT/iot_link/network/dtls/mbedtls/mbedtls-2.16.2/library\sha256.c **** #endif
  80:c:/Users/lenovo/Desktop/AIoT/first_day/firstday_afternoon/LiteOS_Lab_STM32_IoT/iot_link/network/dtls/mbedtls/mbedtls-2.16.2/library\sha256.c **** 
  81:c:/Users/lenovo/Desktop/AIoT/first_day/firstday_afternoon/LiteOS_Lab_STM32_IoT/iot_link/network/dtls/mbedtls/mbedtls-2.16.2/library\sha256.c **** void mbedtls_sha256_init( mbedtls_sha256_context *ctx )
  82:c:/Users/lenovo/Desktop/AIoT/first_day/firstday_afternoon/LiteOS_Lab_STM32_IoT/iot_link/network/dtls/mbedtls/mbedtls-2.16.2/library\sha256.c **** {
  29              		.loc 1 82 1
  30              		.cfi_startproc
  31              		@ args = 0, pretend = 0, frame = 8
  32              		@ frame_needed = 1, uses_anonymous_args = 0
  33 0000 80B5     		push	{r7, lr}
ARM GAS  C:\Users\lenovo\AppData\Local\Temp\ccds4vwo.s 			page 3


  34              	.LCFI0:
  35              		.cfi_def_cfa_offset 8
  36              		.cfi_offset 7, -8
  37              		.cfi_offset 14, -4
  38 0002 82B0     		sub	sp, sp, #8
  39              	.LCFI1:
  40              		.cfi_def_cfa_offset 16
  41 0004 00AF     		add	r7, sp, #0
  42              	.LCFI2:
  43              		.cfi_def_cfa_register 7
  44 0006 7860     		str	r0, [r7, #4]
  83:c:/Users/lenovo/Desktop/AIoT/first_day/firstday_afternoon/LiteOS_Lab_STM32_IoT/iot_link/network/dtls/mbedtls/mbedtls-2.16.2/library\sha256.c ****     SHA256_VALIDATE( ctx != NULL );
  84:c:/Users/lenovo/Desktop/AIoT/first_day/firstday_afternoon/LiteOS_Lab_STM32_IoT/iot_link/network/dtls/mbedtls/mbedtls-2.16.2/library\sha256.c **** 
  85:c:/Users/lenovo/Desktop/AIoT/first_day/firstday_afternoon/LiteOS_Lab_STM32_IoT/iot_link/network/dtls/mbedtls/mbedtls-2.16.2/library\sha256.c ****     memset( ctx, 0, sizeof( mbedtls_sha256_context ) );
  45              		.loc 1 85 5
  46 0008 6C22     		movs	r2, #108
  47 000a 0021     		movs	r1, #0
  48 000c 7868     		ldr	r0, [r7, #4]
  49 000e FFF7FEFF 		bl	memset
  86:c:/Users/lenovo/Desktop/AIoT/first_day/firstday_afternoon/LiteOS_Lab_STM32_IoT/iot_link/network/dtls/mbedtls/mbedtls-2.16.2/library\sha256.c **** }
  50              		.loc 1 86 1
  51 0012 00BF     		nop
  52 0014 0837     		adds	r7, r7, #8
  53              	.LCFI3:
  54              		.cfi_def_cfa_offset 8
  55 0016 BD46     		mov	sp, r7
  56              	.LCFI4:
  57              		.cfi_def_cfa_register 13
  58              		@ sp needed
  59 0018 80BD     		pop	{r7, pc}
  60              		.cfi_endproc
  61              	.LFE0:
  63              		.section	.text.mbedtls_sha256_free,"ax",%progbits
  64              		.align	1
  65              		.global	mbedtls_sha256_free
  66              		.syntax unified
  67              		.thumb
  68              		.thumb_func
  69              		.fpu fpv4-sp-d16
  71              	mbedtls_sha256_free:
  72              	.LFB1:
  87:c:/Users/lenovo/Desktop/AIoT/first_day/firstday_afternoon/LiteOS_Lab_STM32_IoT/iot_link/network/dtls/mbedtls/mbedtls-2.16.2/library\sha256.c **** 
  88:c:/Users/lenovo/Desktop/AIoT/first_day/firstday_afternoon/LiteOS_Lab_STM32_IoT/iot_link/network/dtls/mbedtls/mbedtls-2.16.2/library\sha256.c **** void mbedtls_sha256_free( mbedtls_sha256_context *ctx )
  89:c:/Users/lenovo/Desktop/AIoT/first_day/firstday_afternoon/LiteOS_Lab_STM32_IoT/iot_link/network/dtls/mbedtls/mbedtls-2.16.2/library\sha256.c **** {
  73              		.loc 1 89 1
  74              		.cfi_startproc
  75              		@ args = 0, pretend = 0, frame = 8
  76              		@ frame_needed = 1, uses_anonymous_args = 0
  77 0000 80B5     		push	{r7, lr}
  78              	.LCFI5:
  79              		.cfi_def_cfa_offset 8
  80              		.cfi_offset 7, -8
  81              		.cfi_offset 14, -4
  82 0002 82B0     		sub	sp, sp, #8
  83              	.LCFI6:
  84              		.cfi_def_cfa_offset 16
  85 0004 00AF     		add	r7, sp, #0
ARM GAS  C:\Users\lenovo\AppData\Local\Temp\ccds4vwo.s 			page 4


  86              	.LCFI7:
  87              		.cfi_def_cfa_register 7
  88 0006 7860     		str	r0, [r7, #4]
  90:c:/Users/lenovo/Desktop/AIoT/first_day/firstday_afternoon/LiteOS_Lab_STM32_IoT/iot_link/network/dtls/mbedtls/mbedtls-2.16.2/library\sha256.c ****     if( ctx == NULL )
  89              		.loc 1 90 7
  90 0008 7B68     		ldr	r3, [r7, #4]
  91 000a 002B     		cmp	r3, #0
  92 000c 04D0     		beq	.L5
  91:c:/Users/lenovo/Desktop/AIoT/first_day/firstday_afternoon/LiteOS_Lab_STM32_IoT/iot_link/network/dtls/mbedtls/mbedtls-2.16.2/library\sha256.c ****         return;
  92:c:/Users/lenovo/Desktop/AIoT/first_day/firstday_afternoon/LiteOS_Lab_STM32_IoT/iot_link/network/dtls/mbedtls/mbedtls-2.16.2/library\sha256.c **** 
  93:c:/Users/lenovo/Desktop/AIoT/first_day/firstday_afternoon/LiteOS_Lab_STM32_IoT/iot_link/network/dtls/mbedtls/mbedtls-2.16.2/library\sha256.c ****     mbedtls_platform_zeroize( ctx, sizeof( mbedtls_sha256_context ) );
  93              		.loc 1 93 5
  94 000e 6C21     		movs	r1, #108
  95 0010 7868     		ldr	r0, [r7, #4]
  96 0012 FFF7FEFF 		bl	mbedtls_platform_zeroize
  97 0016 00E0     		b	.L2
  98              	.L5:
  91:c:/Users/lenovo/Desktop/AIoT/first_day/firstday_afternoon/LiteOS_Lab_STM32_IoT/iot_link/network/dtls/mbedtls/mbedtls-2.16.2/library\sha256.c ****         return;
  99              		.loc 1 91 9
 100 0018 00BF     		nop
 101              	.L2:
  94:c:/Users/lenovo/Desktop/AIoT/first_day/firstday_afternoon/LiteOS_Lab_STM32_IoT/iot_link/network/dtls/mbedtls/mbedtls-2.16.2/library\sha256.c **** }
 102              		.loc 1 94 1
 103 001a 0837     		adds	r7, r7, #8
 104              	.LCFI8:
 105              		.cfi_def_cfa_offset 8
 106 001c BD46     		mov	sp, r7
 107              	.LCFI9:
 108              		.cfi_def_cfa_register 13
 109              		@ sp needed
 110 001e 80BD     		pop	{r7, pc}
 111              		.cfi_endproc
 112              	.LFE1:
 114              		.section	.text.mbedtls_sha256_clone,"ax",%progbits
 115              		.align	1
 116              		.global	mbedtls_sha256_clone
 117              		.syntax unified
 118              		.thumb
 119              		.thumb_func
 120              		.fpu fpv4-sp-d16
 122              	mbedtls_sha256_clone:
 123              	.LFB2:
  95:c:/Users/lenovo/Desktop/AIoT/first_day/firstday_afternoon/LiteOS_Lab_STM32_IoT/iot_link/network/dtls/mbedtls/mbedtls-2.16.2/library\sha256.c **** 
  96:c:/Users/lenovo/Desktop/AIoT/first_day/firstday_afternoon/LiteOS_Lab_STM32_IoT/iot_link/network/dtls/mbedtls/mbedtls-2.16.2/library\sha256.c **** void mbedtls_sha256_clone( mbedtls_sha256_context *dst,
  97:c:/Users/lenovo/Desktop/AIoT/first_day/firstday_afternoon/LiteOS_Lab_STM32_IoT/iot_link/network/dtls/mbedtls/mbedtls-2.16.2/library\sha256.c ****                            const mbedtls_sha256_context *src )
  98:c:/Users/lenovo/Desktop/AIoT/first_day/firstday_afternoon/LiteOS_Lab_STM32_IoT/iot_link/network/dtls/mbedtls/mbedtls-2.16.2/library\sha256.c **** {
 124              		.loc 1 98 1
 125              		.cfi_startproc
 126              		@ args = 0, pretend = 0, frame = 8
 127              		@ frame_needed = 1, uses_anonymous_args = 0
 128 0000 80B5     		push	{r7, lr}
 129              	.LCFI10:
 130              		.cfi_def_cfa_offset 8
 131              		.cfi_offset 7, -8
 132              		.cfi_offset 14, -4
 133 0002 82B0     		sub	sp, sp, #8
 134              	.LCFI11:
ARM GAS  C:\Users\lenovo\AppData\Local\Temp\ccds4vwo.s 			page 5


 135              		.cfi_def_cfa_offset 16
 136 0004 00AF     		add	r7, sp, #0
 137              	.LCFI12:
 138              		.cfi_def_cfa_register 7
 139 0006 7860     		str	r0, [r7, #4]
 140 0008 3960     		str	r1, [r7]
  99:c:/Users/lenovo/Desktop/AIoT/first_day/firstday_afternoon/LiteOS_Lab_STM32_IoT/iot_link/network/dtls/mbedtls/mbedtls-2.16.2/library\sha256.c ****     SHA256_VALIDATE( dst != NULL );
 100:c:/Users/lenovo/Desktop/AIoT/first_day/firstday_afternoon/LiteOS_Lab_STM32_IoT/iot_link/network/dtls/mbedtls/mbedtls-2.16.2/library\sha256.c ****     SHA256_VALIDATE( src != NULL );
 101:c:/Users/lenovo/Desktop/AIoT/first_day/firstday_afternoon/LiteOS_Lab_STM32_IoT/iot_link/network/dtls/mbedtls/mbedtls-2.16.2/library\sha256.c **** 
 102:c:/Users/lenovo/Desktop/AIoT/first_day/firstday_afternoon/LiteOS_Lab_STM32_IoT/iot_link/network/dtls/mbedtls/mbedtls-2.16.2/library\sha256.c ****     *dst = *src;
 141              		.loc 1 102 10
 142 000a 7A68     		ldr	r2, [r7, #4]
 143 000c 3B68     		ldr	r3, [r7]
 144 000e 1046     		mov	r0, r2
 145 0010 1946     		mov	r1, r3
 146 0012 6C23     		movs	r3, #108
 147 0014 1A46     		mov	r2, r3
 148 0016 FFF7FEFF 		bl	memcpy
 103:c:/Users/lenovo/Desktop/AIoT/first_day/firstday_afternoon/LiteOS_Lab_STM32_IoT/iot_link/network/dtls/mbedtls/mbedtls-2.16.2/library\sha256.c **** }
 149              		.loc 1 103 1
 150 001a 00BF     		nop
 151 001c 0837     		adds	r7, r7, #8
 152              	.LCFI13:
 153              		.cfi_def_cfa_offset 8
 154 001e BD46     		mov	sp, r7
 155              	.LCFI14:
 156              		.cfi_def_cfa_register 13
 157              		@ sp needed
 158 0020 80BD     		pop	{r7, pc}
 159              		.cfi_endproc
 160              	.LFE2:
 162              		.section	.text.mbedtls_sha256_starts_ret,"ax",%progbits
 163              		.align	1
 164              		.global	mbedtls_sha256_starts_ret
 165              		.syntax unified
 166              		.thumb
 167              		.thumb_func
 168              		.fpu fpv4-sp-d16
 170              	mbedtls_sha256_starts_ret:
 171              	.LFB3:
 104:c:/Users/lenovo/Desktop/AIoT/first_day/firstday_afternoon/LiteOS_Lab_STM32_IoT/iot_link/network/dtls/mbedtls/mbedtls-2.16.2/library\sha256.c **** 
 105:c:/Users/lenovo/Desktop/AIoT/first_day/firstday_afternoon/LiteOS_Lab_STM32_IoT/iot_link/network/dtls/mbedtls/mbedtls-2.16.2/library\sha256.c **** /*
 106:c:/Users/lenovo/Desktop/AIoT/first_day/firstday_afternoon/LiteOS_Lab_STM32_IoT/iot_link/network/dtls/mbedtls/mbedtls-2.16.2/library\sha256.c ****  * SHA-256 context setup
 107:c:/Users/lenovo/Desktop/AIoT/first_day/firstday_afternoon/LiteOS_Lab_STM32_IoT/iot_link/network/dtls/mbedtls/mbedtls-2.16.2/library\sha256.c ****  */
 108:c:/Users/lenovo/Desktop/AIoT/first_day/firstday_afternoon/LiteOS_Lab_STM32_IoT/iot_link/network/dtls/mbedtls/mbedtls-2.16.2/library\sha256.c **** int mbedtls_sha256_starts_ret( mbedtls_sha256_context *ctx, int is224 )
 109:c:/Users/lenovo/Desktop/AIoT/first_day/firstday_afternoon/LiteOS_Lab_STM32_IoT/iot_link/network/dtls/mbedtls/mbedtls-2.16.2/library\sha256.c **** {
 172              		.loc 1 109 1
 173              		.cfi_startproc
 174              		@ args = 0, pretend = 0, frame = 8
 175              		@ frame_needed = 1, uses_anonymous_args = 0
 176              		@ link register save eliminated.
 177 0000 80B4     		push	{r7}
 178              	.LCFI15:
 179              		.cfi_def_cfa_offset 4
 180              		.cfi_offset 7, -4
 181 0002 83B0     		sub	sp, sp, #12
 182              	.LCFI16:
ARM GAS  C:\Users\lenovo\AppData\Local\Temp\ccds4vwo.s 			page 6


 183              		.cfi_def_cfa_offset 16
 184 0004 00AF     		add	r7, sp, #0
 185              	.LCFI17:
 186              		.cfi_def_cfa_register 7
 187 0006 7860     		str	r0, [r7, #4]
 188 0008 3960     		str	r1, [r7]
 110:c:/Users/lenovo/Desktop/AIoT/first_day/firstday_afternoon/LiteOS_Lab_STM32_IoT/iot_link/network/dtls/mbedtls/mbedtls-2.16.2/library\sha256.c ****     SHA256_VALIDATE_RET( ctx != NULL );
 111:c:/Users/lenovo/Desktop/AIoT/first_day/firstday_afternoon/LiteOS_Lab_STM32_IoT/iot_link/network/dtls/mbedtls/mbedtls-2.16.2/library\sha256.c ****     SHA256_VALIDATE_RET( is224 == 0 || is224 == 1 );
 112:c:/Users/lenovo/Desktop/AIoT/first_day/firstday_afternoon/LiteOS_Lab_STM32_IoT/iot_link/network/dtls/mbedtls/mbedtls-2.16.2/library\sha256.c **** 
 113:c:/Users/lenovo/Desktop/AIoT/first_day/firstday_afternoon/LiteOS_Lab_STM32_IoT/iot_link/network/dtls/mbedtls/mbedtls-2.16.2/library\sha256.c ****     ctx->total[0] = 0;
 189              		.loc 1 113 19
 190 000a 7B68     		ldr	r3, [r7, #4]
 191 000c 0022     		movs	r2, #0
 192 000e 1A60     		str	r2, [r3]
 114:c:/Users/lenovo/Desktop/AIoT/first_day/firstday_afternoon/LiteOS_Lab_STM32_IoT/iot_link/network/dtls/mbedtls/mbedtls-2.16.2/library\sha256.c ****     ctx->total[1] = 0;
 193              		.loc 1 114 19
 194 0010 7B68     		ldr	r3, [r7, #4]
 195 0012 0022     		movs	r2, #0
 196 0014 5A60     		str	r2, [r3, #4]
 115:c:/Users/lenovo/Desktop/AIoT/first_day/firstday_afternoon/LiteOS_Lab_STM32_IoT/iot_link/network/dtls/mbedtls/mbedtls-2.16.2/library\sha256.c **** 
 116:c:/Users/lenovo/Desktop/AIoT/first_day/firstday_afternoon/LiteOS_Lab_STM32_IoT/iot_link/network/dtls/mbedtls/mbedtls-2.16.2/library\sha256.c ****     if( is224 == 0 )
 197              		.loc 1 116 7
 198 0016 3B68     		ldr	r3, [r7]
 199 0018 002B     		cmp	r3, #0
 200 001a 18D1     		bne	.L8
 117:c:/Users/lenovo/Desktop/AIoT/first_day/firstday_afternoon/LiteOS_Lab_STM32_IoT/iot_link/network/dtls/mbedtls/mbedtls-2.16.2/library\sha256.c ****     {
 118:c:/Users/lenovo/Desktop/AIoT/first_day/firstday_afternoon/LiteOS_Lab_STM32_IoT/iot_link/network/dtls/mbedtls/mbedtls-2.16.2/library\sha256.c ****         /* SHA-256 */
 119:c:/Users/lenovo/Desktop/AIoT/first_day/firstday_afternoon/LiteOS_Lab_STM32_IoT/iot_link/network/dtls/mbedtls/mbedtls-2.16.2/library\sha256.c ****         ctx->state[0] = 0x6A09E667;
 201              		.loc 1 119 23
 202 001c 7B68     		ldr	r3, [r7, #4]
 203 001e 1D4A     		ldr	r2, .L11
 204 0020 9A60     		str	r2, [r3, #8]
 120:c:/Users/lenovo/Desktop/AIoT/first_day/firstday_afternoon/LiteOS_Lab_STM32_IoT/iot_link/network/dtls/mbedtls/mbedtls-2.16.2/library\sha256.c ****         ctx->state[1] = 0xBB67AE85;
 205              		.loc 1 120 23
 206 0022 7B68     		ldr	r3, [r7, #4]
 207 0024 1C4A     		ldr	r2, .L11+4
 208 0026 DA60     		str	r2, [r3, #12]
 121:c:/Users/lenovo/Desktop/AIoT/first_day/firstday_afternoon/LiteOS_Lab_STM32_IoT/iot_link/network/dtls/mbedtls/mbedtls-2.16.2/library\sha256.c ****         ctx->state[2] = 0x3C6EF372;
 209              		.loc 1 121 23
 210 0028 7B68     		ldr	r3, [r7, #4]
 211 002a 1C4A     		ldr	r2, .L11+8
 212 002c 1A61     		str	r2, [r3, #16]
 122:c:/Users/lenovo/Desktop/AIoT/first_day/firstday_afternoon/LiteOS_Lab_STM32_IoT/iot_link/network/dtls/mbedtls/mbedtls-2.16.2/library\sha256.c ****         ctx->state[3] = 0xA54FF53A;
 213              		.loc 1 122 23
 214 002e 7B68     		ldr	r3, [r7, #4]
 215 0030 1B4A     		ldr	r2, .L11+12
 216 0032 5A61     		str	r2, [r3, #20]
 123:c:/Users/lenovo/Desktop/AIoT/first_day/firstday_afternoon/LiteOS_Lab_STM32_IoT/iot_link/network/dtls/mbedtls/mbedtls-2.16.2/library\sha256.c ****         ctx->state[4] = 0x510E527F;
 217              		.loc 1 123 23
 218 0034 7B68     		ldr	r3, [r7, #4]
 219 0036 1B4A     		ldr	r2, .L11+16
 220 0038 9A61     		str	r2, [r3, #24]
 124:c:/Users/lenovo/Desktop/AIoT/first_day/firstday_afternoon/LiteOS_Lab_STM32_IoT/iot_link/network/dtls/mbedtls/mbedtls-2.16.2/library\sha256.c ****         ctx->state[5] = 0x9B05688C;
 221              		.loc 1 124 23
 222 003a 7B68     		ldr	r3, [r7, #4]
 223 003c 1A4A     		ldr	r2, .L11+20
 224 003e DA61     		str	r2, [r3, #28]
ARM GAS  C:\Users\lenovo\AppData\Local\Temp\ccds4vwo.s 			page 7


 125:c:/Users/lenovo/Desktop/AIoT/first_day/firstday_afternoon/LiteOS_Lab_STM32_IoT/iot_link/network/dtls/mbedtls/mbedtls-2.16.2/library\sha256.c ****         ctx->state[6] = 0x1F83D9AB;
 225              		.loc 1 125 23
 226 0040 7B68     		ldr	r3, [r7, #4]
 227 0042 1A4A     		ldr	r2, .L11+24
 228 0044 1A62     		str	r2, [r3, #32]
 126:c:/Users/lenovo/Desktop/AIoT/first_day/firstday_afternoon/LiteOS_Lab_STM32_IoT/iot_link/network/dtls/mbedtls/mbedtls-2.16.2/library\sha256.c ****         ctx->state[7] = 0x5BE0CD19;
 229              		.loc 1 126 23
 230 0046 7B68     		ldr	r3, [r7, #4]
 231 0048 194A     		ldr	r2, .L11+28
 232 004a 5A62     		str	r2, [r3, #36]
 233 004c 17E0     		b	.L9
 234              	.L8:
 127:c:/Users/lenovo/Desktop/AIoT/first_day/firstday_afternoon/LiteOS_Lab_STM32_IoT/iot_link/network/dtls/mbedtls/mbedtls-2.16.2/library\sha256.c ****     }
 128:c:/Users/lenovo/Desktop/AIoT/first_day/firstday_afternoon/LiteOS_Lab_STM32_IoT/iot_link/network/dtls/mbedtls/mbedtls-2.16.2/library\sha256.c ****     else
 129:c:/Users/lenovo/Desktop/AIoT/first_day/firstday_afternoon/LiteOS_Lab_STM32_IoT/iot_link/network/dtls/mbedtls/mbedtls-2.16.2/library\sha256.c ****     {
 130:c:/Users/lenovo/Desktop/AIoT/first_day/firstday_afternoon/LiteOS_Lab_STM32_IoT/iot_link/network/dtls/mbedtls/mbedtls-2.16.2/library\sha256.c ****         /* SHA-224 */
 131:c:/Users/lenovo/Desktop/AIoT/first_day/firstday_afternoon/LiteOS_Lab_STM32_IoT/iot_link/network/dtls/mbedtls/mbedtls-2.16.2/library\sha256.c ****         ctx->state[0] = 0xC1059ED8;
 235              		.loc 1 131 23
 236 004e 7B68     		ldr	r3, [r7, #4]
 237 0050 184A     		ldr	r2, .L11+32
 238 0052 9A60     		str	r2, [r3, #8]
 132:c:/Users/lenovo/Desktop/AIoT/first_day/firstday_afternoon/LiteOS_Lab_STM32_IoT/iot_link/network/dtls/mbedtls/mbedtls-2.16.2/library\sha256.c ****         ctx->state[1] = 0x367CD507;
 239              		.loc 1 132 23
 240 0054 7B68     		ldr	r3, [r7, #4]
 241 0056 184A     		ldr	r2, .L11+36
 242 0058 DA60     		str	r2, [r3, #12]
 133:c:/Users/lenovo/Desktop/AIoT/first_day/firstday_afternoon/LiteOS_Lab_STM32_IoT/iot_link/network/dtls/mbedtls/mbedtls-2.16.2/library\sha256.c ****         ctx->state[2] = 0x3070DD17;
 243              		.loc 1 133 23
 244 005a 7B68     		ldr	r3, [r7, #4]
 245 005c 174A     		ldr	r2, .L11+40
 246 005e 1A61     		str	r2, [r3, #16]
 134:c:/Users/lenovo/Desktop/AIoT/first_day/firstday_afternoon/LiteOS_Lab_STM32_IoT/iot_link/network/dtls/mbedtls/mbedtls-2.16.2/library\sha256.c ****         ctx->state[3] = 0xF70E5939;
 247              		.loc 1 134 23
 248 0060 7B68     		ldr	r3, [r7, #4]
 249 0062 174A     		ldr	r2, .L11+44
 250 0064 5A61     		str	r2, [r3, #20]
 135:c:/Users/lenovo/Desktop/AIoT/first_day/firstday_afternoon/LiteOS_Lab_STM32_IoT/iot_link/network/dtls/mbedtls/mbedtls-2.16.2/library\sha256.c ****         ctx->state[4] = 0xFFC00B31;
 251              		.loc 1 135 23
 252 0066 7B68     		ldr	r3, [r7, #4]
 253 0068 164A     		ldr	r2, .L11+48
 254 006a 9A61     		str	r2, [r3, #24]
 136:c:/Users/lenovo/Desktop/AIoT/first_day/firstday_afternoon/LiteOS_Lab_STM32_IoT/iot_link/network/dtls/mbedtls/mbedtls-2.16.2/library\sha256.c ****         ctx->state[5] = 0x68581511;
 255              		.loc 1 136 23
 256 006c 7B68     		ldr	r3, [r7, #4]
 257 006e 164A     		ldr	r2, .L11+52
 258 0070 DA61     		str	r2, [r3, #28]
 137:c:/Users/lenovo/Desktop/AIoT/first_day/firstday_afternoon/LiteOS_Lab_STM32_IoT/iot_link/network/dtls/mbedtls/mbedtls-2.16.2/library\sha256.c ****         ctx->state[6] = 0x64F98FA7;
 259              		.loc 1 137 23
 260 0072 7B68     		ldr	r3, [r7, #4]
 261 0074 154A     		ldr	r2, .L11+56
 262 0076 1A62     		str	r2, [r3, #32]
 138:c:/Users/lenovo/Desktop/AIoT/first_day/firstday_afternoon/LiteOS_Lab_STM32_IoT/iot_link/network/dtls/mbedtls/mbedtls-2.16.2/library\sha256.c ****         ctx->state[7] = 0xBEFA4FA4;
 263              		.loc 1 138 23
 264 0078 7B68     		ldr	r3, [r7, #4]
 265 007a 154A     		ldr	r2, .L11+60
 266 007c 5A62     		str	r2, [r3, #36]
 267              	.L9:
ARM GAS  C:\Users\lenovo\AppData\Local\Temp\ccds4vwo.s 			page 8


 139:c:/Users/lenovo/Desktop/AIoT/first_day/firstday_afternoon/LiteOS_Lab_STM32_IoT/iot_link/network/dtls/mbedtls/mbedtls-2.16.2/library\sha256.c ****     }
 140:c:/Users/lenovo/Desktop/AIoT/first_day/firstday_afternoon/LiteOS_Lab_STM32_IoT/iot_link/network/dtls/mbedtls/mbedtls-2.16.2/library\sha256.c **** 
 141:c:/Users/lenovo/Desktop/AIoT/first_day/firstday_afternoon/LiteOS_Lab_STM32_IoT/iot_link/network/dtls/mbedtls/mbedtls-2.16.2/library\sha256.c ****     ctx->is224 = is224;
 268              		.loc 1 141 16
 269 007e 7B68     		ldr	r3, [r7, #4]
 270 0080 3A68     		ldr	r2, [r7]
 271 0082 9A66     		str	r2, [r3, #104]
 142:c:/Users/lenovo/Desktop/AIoT/first_day/firstday_afternoon/LiteOS_Lab_STM32_IoT/iot_link/network/dtls/mbedtls/mbedtls-2.16.2/library\sha256.c **** 
 143:c:/Users/lenovo/Desktop/AIoT/first_day/firstday_afternoon/LiteOS_Lab_STM32_IoT/iot_link/network/dtls/mbedtls/mbedtls-2.16.2/library\sha256.c ****     return( 0 );
 272              		.loc 1 143 11
 273 0084 0023     		movs	r3, #0
 144:c:/Users/lenovo/Desktop/AIoT/first_day/firstday_afternoon/LiteOS_Lab_STM32_IoT/iot_link/network/dtls/mbedtls/mbedtls-2.16.2/library\sha256.c **** }
 274              		.loc 1 144 1
 275 0086 1846     		mov	r0, r3
 276 0088 0C37     		adds	r7, r7, #12
 277              	.LCFI18:
 278              		.cfi_def_cfa_offset 4
 279 008a BD46     		mov	sp, r7
 280              	.LCFI19:
 281              		.cfi_def_cfa_register 13
 282              		@ sp needed
 283 008c 5DF8047B 		ldr	r7, [sp], #4
 284              	.LCFI20:
 285              		.cfi_restore 7
 286              		.cfi_def_cfa_offset 0
 287 0090 7047     		bx	lr
 288              	.L12:
 289 0092 00BF     		.align	2
 290              	.L11:
 291 0094 67E6096A 		.word	1779033703
 292 0098 85AE67BB 		.word	-1150833019
 293 009c 72F36E3C 		.word	1013904242
 294 00a0 3AF54FA5 		.word	-1521486534
 295 00a4 7F520E51 		.word	1359893119
 296 00a8 8C68059B 		.word	-1694144372
 297 00ac ABD9831F 		.word	528734635
 298 00b0 19CDE05B 		.word	1541459225
 299 00b4 D89E05C1 		.word	-1056596264
 300 00b8 07D57C36 		.word	914150663
 301 00bc 17DD7030 		.word	812702999
 302 00c0 39590EF7 		.word	-150054599
 303 00c4 310BC0FF 		.word	-4191439
 304 00c8 11155868 		.word	1750603025
 305 00cc A78FF964 		.word	1694076839
 306 00d0 A44FFABE 		.word	-1090891868
 307              		.cfi_endproc
 308              	.LFE3:
 310              		.section	.text.mbedtls_sha256_starts,"ax",%progbits
 311              		.align	1
 312              		.global	mbedtls_sha256_starts
 313              		.syntax unified
 314              		.thumb
 315              		.thumb_func
 316              		.fpu fpv4-sp-d16
 318              	mbedtls_sha256_starts:
 319              	.LFB4:
 145:c:/Users/lenovo/Desktop/AIoT/first_day/firstday_afternoon/LiteOS_Lab_STM32_IoT/iot_link/network/dtls/mbedtls/mbedtls-2.16.2/library\sha256.c **** 
ARM GAS  C:\Users\lenovo\AppData\Local\Temp\ccds4vwo.s 			page 9


 146:c:/Users/lenovo/Desktop/AIoT/first_day/firstday_afternoon/LiteOS_Lab_STM32_IoT/iot_link/network/dtls/mbedtls/mbedtls-2.16.2/library\sha256.c **** #if !defined(MBEDTLS_DEPRECATED_REMOVED)
 147:c:/Users/lenovo/Desktop/AIoT/first_day/firstday_afternoon/LiteOS_Lab_STM32_IoT/iot_link/network/dtls/mbedtls/mbedtls-2.16.2/library\sha256.c **** void mbedtls_sha256_starts( mbedtls_sha256_context *ctx,
 148:c:/Users/lenovo/Desktop/AIoT/first_day/firstday_afternoon/LiteOS_Lab_STM32_IoT/iot_link/network/dtls/mbedtls/mbedtls-2.16.2/library\sha256.c ****                             int is224 )
 149:c:/Users/lenovo/Desktop/AIoT/first_day/firstday_afternoon/LiteOS_Lab_STM32_IoT/iot_link/network/dtls/mbedtls/mbedtls-2.16.2/library\sha256.c **** {
 320              		.loc 1 149 1
 321              		.cfi_startproc
 322              		@ args = 0, pretend = 0, frame = 8
 323              		@ frame_needed = 1, uses_anonymous_args = 0
 324 0000 80B5     		push	{r7, lr}
 325              	.LCFI21:
 326              		.cfi_def_cfa_offset 8
 327              		.cfi_offset 7, -8
 328              		.cfi_offset 14, -4
 329 0002 82B0     		sub	sp, sp, #8
 330              	.LCFI22:
 331              		.cfi_def_cfa_offset 16
 332 0004 00AF     		add	r7, sp, #0
 333              	.LCFI23:
 334              		.cfi_def_cfa_register 7
 335 0006 7860     		str	r0, [r7, #4]
 336 0008 3960     		str	r1, [r7]
 150:c:/Users/lenovo/Desktop/AIoT/first_day/firstday_afternoon/LiteOS_Lab_STM32_IoT/iot_link/network/dtls/mbedtls/mbedtls-2.16.2/library\sha256.c ****     mbedtls_sha256_starts_ret( ctx, is224 );
 337              		.loc 1 150 5
 338 000a 3968     		ldr	r1, [r7]
 339 000c 7868     		ldr	r0, [r7, #4]
 340 000e FFF7FEFF 		bl	mbedtls_sha256_starts_ret
 151:c:/Users/lenovo/Desktop/AIoT/first_day/firstday_afternoon/LiteOS_Lab_STM32_IoT/iot_link/network/dtls/mbedtls/mbedtls-2.16.2/library\sha256.c **** }
 341              		.loc 1 151 1
 342 0012 00BF     		nop
 343 0014 0837     		adds	r7, r7, #8
 344              	.LCFI24:
 345              		.cfi_def_cfa_offset 8
 346 0016 BD46     		mov	sp, r7
 347              	.LCFI25:
 348              		.cfi_def_cfa_register 13
 349              		@ sp needed
 350 0018 80BD     		pop	{r7, pc}
 351              		.cfi_endproc
 352              	.LFE4:
 354              		.section	.rodata.K,"a"
 355              		.align	2
 358              	K:
 359 0000 982F8A42 		.word	1116352408
 360 0004 91443771 		.word	1899447441
 361 0008 CFFBC0B5 		.word	-1245643825
 362 000c A5DBB5E9 		.word	-373957723
 363 0010 5BC25639 		.word	961987163
 364 0014 F111F159 		.word	1508970993
 365 0018 A4823F92 		.word	-1841331548
 366 001c D55E1CAB 		.word	-1424204075
 367 0020 98AA07D8 		.word	-670586216
 368 0024 015B8312 		.word	310598401
 369 0028 BE853124 		.word	607225278
 370 002c C37D0C55 		.word	1426881987
 371 0030 745DBE72 		.word	1925078388
 372 0034 FEB1DE80 		.word	-2132889090
 373 0038 A706DC9B 		.word	-1680079193
ARM GAS  C:\Users\lenovo\AppData\Local\Temp\ccds4vwo.s 			page 10


 374 003c 74F19BC1 		.word	-1046744716
 375 0040 C1699BE4 		.word	-459576895
 376 0044 8647BEEF 		.word	-272742522
 377 0048 C69DC10F 		.word	264347078
 378 004c CCA10C24 		.word	604807628
 379 0050 6F2CE92D 		.word	770255983
 380 0054 AA84744A 		.word	1249150122
 381 0058 DCA9B05C 		.word	1555081692
 382 005c DA88F976 		.word	1996064986
 383 0060 52513E98 		.word	-1740746414
 384 0064 6DC631A8 		.word	-1473132947
 385 0068 C82703B0 		.word	-1341970488
 386 006c C77F59BF 		.word	-1084653625
 387 0070 F30BE0C6 		.word	-958395405
 388 0074 4791A7D5 		.word	-710438585
 389 0078 5163CA06 		.word	113926993
 390 007c 67292914 		.word	338241895
 391 0080 850AB727 		.word	666307205
 392 0084 38211B2E 		.word	773529912
 393 0088 FC6D2C4D 		.word	1294757372
 394 008c 130D3853 		.word	1396182291
 395 0090 54730A65 		.word	1695183700
 396 0094 BB0A6A76 		.word	1986661051
 397 0098 2EC9C281 		.word	-2117940946
 398 009c 852C7292 		.word	-1838011259
 399 00a0 A1E8BFA2 		.word	-1564481375
 400 00a4 4B661AA8 		.word	-1474664885
 401 00a8 708B4BC2 		.word	-1035236496
 402 00ac A3516CC7 		.word	-949202525
 403 00b0 19E892D1 		.word	-778901479
 404 00b4 240699D6 		.word	-694614492
 405 00b8 85350EF4 		.word	-200395387
 406 00bc 70A06A10 		.word	275423344
 407 00c0 16C1A419 		.word	430227734
 408 00c4 086C371E 		.word	506948616
 409 00c8 4C774827 		.word	659060556
 410 00cc B5BCB034 		.word	883997877
 411 00d0 B30C1C39 		.word	958139571
 412 00d4 4AAAD84E 		.word	1322822218
 413 00d8 4FCA9C5B 		.word	1537002063
 414 00dc F36F2E68 		.word	1747873779
 415 00e0 EE828F74 		.word	1955562222
 416 00e4 6F63A578 		.word	2024104815
 417 00e8 1478C884 		.word	-2067236844
 418 00ec 0802C78C 		.word	-1933114872
 419 00f0 FAFFBE90 		.word	-1866530822
 420 00f4 EB6C50A4 		.word	-1538233109
 421 00f8 F7A3F9BE 		.word	-1090935817
 422 00fc F27871C6 		.word	-965641998
 423              		.section	.text.mbedtls_internal_sha256_process,"ax",%progbits
 424              		.align	1
 425              		.global	mbedtls_internal_sha256_process
 426              		.syntax unified
 427              		.thumb
 428              		.thumb_func
 429              		.fpu fpv4-sp-d16
 431              	mbedtls_internal_sha256_process:
ARM GAS  C:\Users\lenovo\AppData\Local\Temp\ccds4vwo.s 			page 11


 432              	.LFB5:
 152:c:/Users/lenovo/Desktop/AIoT/first_day/firstday_afternoon/LiteOS_Lab_STM32_IoT/iot_link/network/dtls/mbedtls/mbedtls-2.16.2/library\sha256.c **** #endif
 153:c:/Users/lenovo/Desktop/AIoT/first_day/firstday_afternoon/LiteOS_Lab_STM32_IoT/iot_link/network/dtls/mbedtls/mbedtls-2.16.2/library\sha256.c **** 
 154:c:/Users/lenovo/Desktop/AIoT/first_day/firstday_afternoon/LiteOS_Lab_STM32_IoT/iot_link/network/dtls/mbedtls/mbedtls-2.16.2/library\sha256.c **** #if !defined(MBEDTLS_SHA256_PROCESS_ALT)
 155:c:/Users/lenovo/Desktop/AIoT/first_day/firstday_afternoon/LiteOS_Lab_STM32_IoT/iot_link/network/dtls/mbedtls/mbedtls-2.16.2/library\sha256.c **** static const uint32_t K[] =
 156:c:/Users/lenovo/Desktop/AIoT/first_day/firstday_afternoon/LiteOS_Lab_STM32_IoT/iot_link/network/dtls/mbedtls/mbedtls-2.16.2/library\sha256.c **** {
 157:c:/Users/lenovo/Desktop/AIoT/first_day/firstday_afternoon/LiteOS_Lab_STM32_IoT/iot_link/network/dtls/mbedtls/mbedtls-2.16.2/library\sha256.c ****     0x428A2F98, 0x71374491, 0xB5C0FBCF, 0xE9B5DBA5,
 158:c:/Users/lenovo/Desktop/AIoT/first_day/firstday_afternoon/LiteOS_Lab_STM32_IoT/iot_link/network/dtls/mbedtls/mbedtls-2.16.2/library\sha256.c ****     0x3956C25B, 0x59F111F1, 0x923F82A4, 0xAB1C5ED5,
 159:c:/Users/lenovo/Desktop/AIoT/first_day/firstday_afternoon/LiteOS_Lab_STM32_IoT/iot_link/network/dtls/mbedtls/mbedtls-2.16.2/library\sha256.c ****     0xD807AA98, 0x12835B01, 0x243185BE, 0x550C7DC3,
 160:c:/Users/lenovo/Desktop/AIoT/first_day/firstday_afternoon/LiteOS_Lab_STM32_IoT/iot_link/network/dtls/mbedtls/mbedtls-2.16.2/library\sha256.c ****     0x72BE5D74, 0x80DEB1FE, 0x9BDC06A7, 0xC19BF174,
 161:c:/Users/lenovo/Desktop/AIoT/first_day/firstday_afternoon/LiteOS_Lab_STM32_IoT/iot_link/network/dtls/mbedtls/mbedtls-2.16.2/library\sha256.c ****     0xE49B69C1, 0xEFBE4786, 0x0FC19DC6, 0x240CA1CC,
 162:c:/Users/lenovo/Desktop/AIoT/first_day/firstday_afternoon/LiteOS_Lab_STM32_IoT/iot_link/network/dtls/mbedtls/mbedtls-2.16.2/library\sha256.c ****     0x2DE92C6F, 0x4A7484AA, 0x5CB0A9DC, 0x76F988DA,
 163:c:/Users/lenovo/Desktop/AIoT/first_day/firstday_afternoon/LiteOS_Lab_STM32_IoT/iot_link/network/dtls/mbedtls/mbedtls-2.16.2/library\sha256.c ****     0x983E5152, 0xA831C66D, 0xB00327C8, 0xBF597FC7,
 164:c:/Users/lenovo/Desktop/AIoT/first_day/firstday_afternoon/LiteOS_Lab_STM32_IoT/iot_link/network/dtls/mbedtls/mbedtls-2.16.2/library\sha256.c ****     0xC6E00BF3, 0xD5A79147, 0x06CA6351, 0x14292967,
 165:c:/Users/lenovo/Desktop/AIoT/first_day/firstday_afternoon/LiteOS_Lab_STM32_IoT/iot_link/network/dtls/mbedtls/mbedtls-2.16.2/library\sha256.c ****     0x27B70A85, 0x2E1B2138, 0x4D2C6DFC, 0x53380D13,
 166:c:/Users/lenovo/Desktop/AIoT/first_day/firstday_afternoon/LiteOS_Lab_STM32_IoT/iot_link/network/dtls/mbedtls/mbedtls-2.16.2/library\sha256.c ****     0x650A7354, 0x766A0ABB, 0x81C2C92E, 0x92722C85,
 167:c:/Users/lenovo/Desktop/AIoT/first_day/firstday_afternoon/LiteOS_Lab_STM32_IoT/iot_link/network/dtls/mbedtls/mbedtls-2.16.2/library\sha256.c ****     0xA2BFE8A1, 0xA81A664B, 0xC24B8B70, 0xC76C51A3,
 168:c:/Users/lenovo/Desktop/AIoT/first_day/firstday_afternoon/LiteOS_Lab_STM32_IoT/iot_link/network/dtls/mbedtls/mbedtls-2.16.2/library\sha256.c ****     0xD192E819, 0xD6990624, 0xF40E3585, 0x106AA070,
 169:c:/Users/lenovo/Desktop/AIoT/first_day/firstday_afternoon/LiteOS_Lab_STM32_IoT/iot_link/network/dtls/mbedtls/mbedtls-2.16.2/library\sha256.c ****     0x19A4C116, 0x1E376C08, 0x2748774C, 0x34B0BCB5,
 170:c:/Users/lenovo/Desktop/AIoT/first_day/firstday_afternoon/LiteOS_Lab_STM32_IoT/iot_link/network/dtls/mbedtls/mbedtls-2.16.2/library\sha256.c ****     0x391C0CB3, 0x4ED8AA4A, 0x5B9CCA4F, 0x682E6FF3,
 171:c:/Users/lenovo/Desktop/AIoT/first_day/firstday_afternoon/LiteOS_Lab_STM32_IoT/iot_link/network/dtls/mbedtls/mbedtls-2.16.2/library\sha256.c ****     0x748F82EE, 0x78A5636F, 0x84C87814, 0x8CC70208,
 172:c:/Users/lenovo/Desktop/AIoT/first_day/firstday_afternoon/LiteOS_Lab_STM32_IoT/iot_link/network/dtls/mbedtls/mbedtls-2.16.2/library\sha256.c ****     0x90BEFFFA, 0xA4506CEB, 0xBEF9A3F7, 0xC67178F2,
 173:c:/Users/lenovo/Desktop/AIoT/first_day/firstday_afternoon/LiteOS_Lab_STM32_IoT/iot_link/network/dtls/mbedtls/mbedtls-2.16.2/library\sha256.c **** };
 174:c:/Users/lenovo/Desktop/AIoT/first_day/firstday_afternoon/LiteOS_Lab_STM32_IoT/iot_link/network/dtls/mbedtls/mbedtls-2.16.2/library\sha256.c **** 
 175:c:/Users/lenovo/Desktop/AIoT/first_day/firstday_afternoon/LiteOS_Lab_STM32_IoT/iot_link/network/dtls/mbedtls/mbedtls-2.16.2/library\sha256.c **** #define  SHR(x,n) (((x) & 0xFFFFFFFF) >> (n))
 176:c:/Users/lenovo/Desktop/AIoT/first_day/firstday_afternoon/LiteOS_Lab_STM32_IoT/iot_link/network/dtls/mbedtls/mbedtls-2.16.2/library\sha256.c **** #define ROTR(x,n) (SHR(x,n) | ((x) << (32 - (n))))
 177:c:/Users/lenovo/Desktop/AIoT/first_day/firstday_afternoon/LiteOS_Lab_STM32_IoT/iot_link/network/dtls/mbedtls/mbedtls-2.16.2/library\sha256.c **** 
 178:c:/Users/lenovo/Desktop/AIoT/first_day/firstday_afternoon/LiteOS_Lab_STM32_IoT/iot_link/network/dtls/mbedtls/mbedtls-2.16.2/library\sha256.c **** #define S0(x) (ROTR(x, 7) ^ ROTR(x,18) ^  SHR(x, 3))
 179:c:/Users/lenovo/Desktop/AIoT/first_day/firstday_afternoon/LiteOS_Lab_STM32_IoT/iot_link/network/dtls/mbedtls/mbedtls-2.16.2/library\sha256.c **** #define S1(x) (ROTR(x,17) ^ ROTR(x,19) ^  SHR(x,10))
 180:c:/Users/lenovo/Desktop/AIoT/first_day/firstday_afternoon/LiteOS_Lab_STM32_IoT/iot_link/network/dtls/mbedtls/mbedtls-2.16.2/library\sha256.c **** 
 181:c:/Users/lenovo/Desktop/AIoT/first_day/firstday_afternoon/LiteOS_Lab_STM32_IoT/iot_link/network/dtls/mbedtls/mbedtls-2.16.2/library\sha256.c **** #define S2(x) (ROTR(x, 2) ^ ROTR(x,13) ^ ROTR(x,22))
 182:c:/Users/lenovo/Desktop/AIoT/first_day/firstday_afternoon/LiteOS_Lab_STM32_IoT/iot_link/network/dtls/mbedtls/mbedtls-2.16.2/library\sha256.c **** #define S3(x) (ROTR(x, 6) ^ ROTR(x,11) ^ ROTR(x,25))
 183:c:/Users/lenovo/Desktop/AIoT/first_day/firstday_afternoon/LiteOS_Lab_STM32_IoT/iot_link/network/dtls/mbedtls/mbedtls-2.16.2/library\sha256.c **** 
 184:c:/Users/lenovo/Desktop/AIoT/first_day/firstday_afternoon/LiteOS_Lab_STM32_IoT/iot_link/network/dtls/mbedtls/mbedtls-2.16.2/library\sha256.c **** #define F0(x,y,z) (((x) & (y)) | ((z) & ((x) | (y))))
 185:c:/Users/lenovo/Desktop/AIoT/first_day/firstday_afternoon/LiteOS_Lab_STM32_IoT/iot_link/network/dtls/mbedtls/mbedtls-2.16.2/library\sha256.c **** #define F1(x,y,z) ((z) ^ ((x) & ((y) ^ (z))))
 186:c:/Users/lenovo/Desktop/AIoT/first_day/firstday_afternoon/LiteOS_Lab_STM32_IoT/iot_link/network/dtls/mbedtls/mbedtls-2.16.2/library\sha256.c **** 
 187:c:/Users/lenovo/Desktop/AIoT/first_day/firstday_afternoon/LiteOS_Lab_STM32_IoT/iot_link/network/dtls/mbedtls/mbedtls-2.16.2/library\sha256.c **** #define R(t)                                    \
 188:c:/Users/lenovo/Desktop/AIoT/first_day/firstday_afternoon/LiteOS_Lab_STM32_IoT/iot_link/network/dtls/mbedtls/mbedtls-2.16.2/library\sha256.c ****     (                                           \
 189:c:/Users/lenovo/Desktop/AIoT/first_day/firstday_afternoon/LiteOS_Lab_STM32_IoT/iot_link/network/dtls/mbedtls/mbedtls-2.16.2/library\sha256.c ****         W[t] = S1(W[(t) -  2]) + W[(t) -  7] +  \
 190:c:/Users/lenovo/Desktop/AIoT/first_day/firstday_afternoon/LiteOS_Lab_STM32_IoT/iot_link/network/dtls/mbedtls/mbedtls-2.16.2/library\sha256.c ****                S0(W[(t) - 15]) + W[(t) - 16]    \
 191:c:/Users/lenovo/Desktop/AIoT/first_day/firstday_afternoon/LiteOS_Lab_STM32_IoT/iot_link/network/dtls/mbedtls/mbedtls-2.16.2/library\sha256.c ****     )
 192:c:/Users/lenovo/Desktop/AIoT/first_day/firstday_afternoon/LiteOS_Lab_STM32_IoT/iot_link/network/dtls/mbedtls/mbedtls-2.16.2/library\sha256.c **** 
 193:c:/Users/lenovo/Desktop/AIoT/first_day/firstday_afternoon/LiteOS_Lab_STM32_IoT/iot_link/network/dtls/mbedtls/mbedtls-2.16.2/library\sha256.c **** #define P(a,b,c,d,e,f,g,h,x,K)                          \
 194:c:/Users/lenovo/Desktop/AIoT/first_day/firstday_afternoon/LiteOS_Lab_STM32_IoT/iot_link/network/dtls/mbedtls/mbedtls-2.16.2/library\sha256.c ****     do                                                  \
 195:c:/Users/lenovo/Desktop/AIoT/first_day/firstday_afternoon/LiteOS_Lab_STM32_IoT/iot_link/network/dtls/mbedtls/mbedtls-2.16.2/library\sha256.c ****     {                                                   \
 196:c:/Users/lenovo/Desktop/AIoT/first_day/firstday_afternoon/LiteOS_Lab_STM32_IoT/iot_link/network/dtls/mbedtls/mbedtls-2.16.2/library\sha256.c ****         temp1 = (h) + S3(e) + F1((e),(f),(g)) + (K) + (x);      \
 197:c:/Users/lenovo/Desktop/AIoT/first_day/firstday_afternoon/LiteOS_Lab_STM32_IoT/iot_link/network/dtls/mbedtls/mbedtls-2.16.2/library\sha256.c ****         temp2 = S2(a) + F0((a),(b),(c));                        \
 198:c:/Users/lenovo/Desktop/AIoT/first_day/firstday_afternoon/LiteOS_Lab_STM32_IoT/iot_link/network/dtls/mbedtls/mbedtls-2.16.2/library\sha256.c ****         (d) += temp1; (h) = temp1 + temp2;              \
 199:c:/Users/lenovo/Desktop/AIoT/first_day/firstday_afternoon/LiteOS_Lab_STM32_IoT/iot_link/network/dtls/mbedtls/mbedtls-2.16.2/library\sha256.c ****     } while( 0 )
 200:c:/Users/lenovo/Desktop/AIoT/first_day/firstday_afternoon/LiteOS_Lab_STM32_IoT/iot_link/network/dtls/mbedtls/mbedtls-2.16.2/library\sha256.c **** 
 201:c:/Users/lenovo/Desktop/AIoT/first_day/firstday_afternoon/LiteOS_Lab_STM32_IoT/iot_link/network/dtls/mbedtls/mbedtls-2.16.2/library\sha256.c **** int mbedtls_internal_sha256_process( mbedtls_sha256_context *ctx,
 202:c:/Users/lenovo/Desktop/AIoT/first_day/firstday_afternoon/LiteOS_Lab_STM32_IoT/iot_link/network/dtls/mbedtls/mbedtls-2.16.2/library\sha256.c ****                                 const unsigned char data[64] )
 203:c:/Users/lenovo/Desktop/AIoT/first_day/firstday_afternoon/LiteOS_Lab_STM32_IoT/iot_link/network/dtls/mbedtls/mbedtls-2.16.2/library\sha256.c **** {
 433              		.loc 1 203 1
 434              		.cfi_startproc
 435              		@ args = 0, pretend = 0, frame = 312
 436              		@ frame_needed = 1, uses_anonymous_args = 0
ARM GAS  C:\Users\lenovo\AppData\Local\Temp\ccds4vwo.s 			page 12


 437              		@ link register save eliminated.
 438 0000 90B4     		push	{r4, r7}
 439              	.LCFI26:
 440              		.cfi_def_cfa_offset 8
 441              		.cfi_offset 4, -8
 442              		.cfi_offset 7, -4
 443 0002 CEB0     		sub	sp, sp, #312
 444              	.LCFI27:
 445              		.cfi_def_cfa_offset 320
 446 0004 00AF     		add	r7, sp, #0
 447              	.LCFI28:
 448              		.cfi_def_cfa_register 7
 449 0006 3B1D     		adds	r3, r7, #4
 450 0008 1860     		str	r0, [r3]
 451 000a 3B46     		mov	r3, r7
 452 000c 1960     		str	r1, [r3]
 204:c:/Users/lenovo/Desktop/AIoT/first_day/firstday_afternoon/LiteOS_Lab_STM32_IoT/iot_link/network/dtls/mbedtls/mbedtls-2.16.2/library\sha256.c ****     uint32_t temp1, temp2, W[64];
 205:c:/Users/lenovo/Desktop/AIoT/first_day/firstday_afternoon/LiteOS_Lab_STM32_IoT/iot_link/network/dtls/mbedtls/mbedtls-2.16.2/library\sha256.c ****     uint32_t A[8];
 206:c:/Users/lenovo/Desktop/AIoT/first_day/firstday_afternoon/LiteOS_Lab_STM32_IoT/iot_link/network/dtls/mbedtls/mbedtls-2.16.2/library\sha256.c ****     unsigned int i;
 207:c:/Users/lenovo/Desktop/AIoT/first_day/firstday_afternoon/LiteOS_Lab_STM32_IoT/iot_link/network/dtls/mbedtls/mbedtls-2.16.2/library\sha256.c **** 
 208:c:/Users/lenovo/Desktop/AIoT/first_day/firstday_afternoon/LiteOS_Lab_STM32_IoT/iot_link/network/dtls/mbedtls/mbedtls-2.16.2/library\sha256.c ****     SHA256_VALIDATE_RET( ctx != NULL );
 209:c:/Users/lenovo/Desktop/AIoT/first_day/firstday_afternoon/LiteOS_Lab_STM32_IoT/iot_link/network/dtls/mbedtls/mbedtls-2.16.2/library\sha256.c ****     SHA256_VALIDATE_RET( (const unsigned char *)data != NULL );
 210:c:/Users/lenovo/Desktop/AIoT/first_day/firstday_afternoon/LiteOS_Lab_STM32_IoT/iot_link/network/dtls/mbedtls/mbedtls-2.16.2/library\sha256.c **** 
 211:c:/Users/lenovo/Desktop/AIoT/first_day/firstday_afternoon/LiteOS_Lab_STM32_IoT/iot_link/network/dtls/mbedtls/mbedtls-2.16.2/library\sha256.c ****     for( i = 0; i < 8; i++ )
 453              		.loc 1 211 12
 454 000e 0023     		movs	r3, #0
 455 0010 C7F83431 		str	r3, [r7, #308]
 456              		.loc 1 211 5
 457 0014 11E0     		b	.L15
 458              	.L16:
 212:c:/Users/lenovo/Desktop/AIoT/first_day/firstday_afternoon/LiteOS_Lab_STM32_IoT/iot_link/network/dtls/mbedtls/mbedtls-2.16.2/library\sha256.c ****         A[i] = ctx->state[i];
 459              		.loc 1 212 26 discriminator 3
 460 0016 3B1D     		adds	r3, r7, #4
 461 0018 1B68     		ldr	r3, [r3]
 462 001a D7F83421 		ldr	r2, [r7, #308]
 463 001e 0232     		adds	r2, r2, #2
 464 0020 53F82210 		ldr	r1, [r3, r2, lsl #2]
 465              		.loc 1 212 14 discriminator 3
 466 0024 07F10C03 		add	r3, r7, #12
 467 0028 D7F83421 		ldr	r2, [r7, #308]
 468 002c 43F82210 		str	r1, [r3, r2, lsl #2]
 211:c:/Users/lenovo/Desktop/AIoT/first_day/firstday_afternoon/LiteOS_Lab_STM32_IoT/iot_link/network/dtls/mbedtls/mbedtls-2.16.2/library\sha256.c ****         A[i] = ctx->state[i];
 469              		.loc 1 211 25 discriminator 3
 470 0030 D7F83431 		ldr	r3, [r7, #308]
 471 0034 0133     		adds	r3, r3, #1
 472 0036 C7F83431 		str	r3, [r7, #308]
 473              	.L15:
 211:c:/Users/lenovo/Desktop/AIoT/first_day/firstday_afternoon/LiteOS_Lab_STM32_IoT/iot_link/network/dtls/mbedtls/mbedtls-2.16.2/library\sha256.c ****         A[i] = ctx->state[i];
 474              		.loc 1 211 5 discriminator 1
 475 003a D7F83431 		ldr	r3, [r7, #308]
 476 003e 072B     		cmp	r3, #7
 477 0040 E9D9     		bls	.L16
 213:c:/Users/lenovo/Desktop/AIoT/first_day/firstday_afternoon/LiteOS_Lab_STM32_IoT/iot_link/network/dtls/mbedtls/mbedtls-2.16.2/library\sha256.c **** 
 214:c:/Users/lenovo/Desktop/AIoT/first_day/firstday_afternoon/LiteOS_Lab_STM32_IoT/iot_link/network/dtls/mbedtls/mbedtls-2.16.2/library\sha256.c **** #if defined(MBEDTLS_SHA256_SMALLER)
 215:c:/Users/lenovo/Desktop/AIoT/first_day/firstday_afternoon/LiteOS_Lab_STM32_IoT/iot_link/network/dtls/mbedtls/mbedtls-2.16.2/library\sha256.c ****     for( i = 0; i < 64; i++ )
 216:c:/Users/lenovo/Desktop/AIoT/first_day/firstday_afternoon/LiteOS_Lab_STM32_IoT/iot_link/network/dtls/mbedtls/mbedtls-2.16.2/library\sha256.c ****     {
 217:c:/Users/lenovo/Desktop/AIoT/first_day/firstday_afternoon/LiteOS_Lab_STM32_IoT/iot_link/network/dtls/mbedtls/mbedtls-2.16.2/library\sha256.c ****         if( i < 16 )
ARM GAS  C:\Users\lenovo\AppData\Local\Temp\ccds4vwo.s 			page 13


 218:c:/Users/lenovo/Desktop/AIoT/first_day/firstday_afternoon/LiteOS_Lab_STM32_IoT/iot_link/network/dtls/mbedtls/mbedtls-2.16.2/library\sha256.c ****             GET_UINT32_BE( W[i], data, 4 * i );
 219:c:/Users/lenovo/Desktop/AIoT/first_day/firstday_afternoon/LiteOS_Lab_STM32_IoT/iot_link/network/dtls/mbedtls/mbedtls-2.16.2/library\sha256.c ****         else
 220:c:/Users/lenovo/Desktop/AIoT/first_day/firstday_afternoon/LiteOS_Lab_STM32_IoT/iot_link/network/dtls/mbedtls/mbedtls-2.16.2/library\sha256.c ****             R( i );
 221:c:/Users/lenovo/Desktop/AIoT/first_day/firstday_afternoon/LiteOS_Lab_STM32_IoT/iot_link/network/dtls/mbedtls/mbedtls-2.16.2/library\sha256.c **** 
 222:c:/Users/lenovo/Desktop/AIoT/first_day/firstday_afternoon/LiteOS_Lab_STM32_IoT/iot_link/network/dtls/mbedtls/mbedtls-2.16.2/library\sha256.c ****         P( A[0], A[1], A[2], A[3], A[4], A[5], A[6], A[7], W[i], K[i] );
 223:c:/Users/lenovo/Desktop/AIoT/first_day/firstday_afternoon/LiteOS_Lab_STM32_IoT/iot_link/network/dtls/mbedtls/mbedtls-2.16.2/library\sha256.c **** 
 224:c:/Users/lenovo/Desktop/AIoT/first_day/firstday_afternoon/LiteOS_Lab_STM32_IoT/iot_link/network/dtls/mbedtls/mbedtls-2.16.2/library\sha256.c ****         temp1 = A[7]; A[7] = A[6]; A[6] = A[5]; A[5] = A[4]; A[4] = A[3];
 225:c:/Users/lenovo/Desktop/AIoT/first_day/firstday_afternoon/LiteOS_Lab_STM32_IoT/iot_link/network/dtls/mbedtls/mbedtls-2.16.2/library\sha256.c ****         A[3] = A[2]; A[2] = A[1]; A[1] = A[0]; A[0] = temp1;
 226:c:/Users/lenovo/Desktop/AIoT/first_day/firstday_afternoon/LiteOS_Lab_STM32_IoT/iot_link/network/dtls/mbedtls/mbedtls-2.16.2/library\sha256.c ****     }
 227:c:/Users/lenovo/Desktop/AIoT/first_day/firstday_afternoon/LiteOS_Lab_STM32_IoT/iot_link/network/dtls/mbedtls/mbedtls-2.16.2/library\sha256.c **** #else /* MBEDTLS_SHA256_SMALLER */
 228:c:/Users/lenovo/Desktop/AIoT/first_day/firstday_afternoon/LiteOS_Lab_STM32_IoT/iot_link/network/dtls/mbedtls/mbedtls-2.16.2/library\sha256.c ****     for( i = 0; i < 16; i++ )
 478              		.loc 1 228 12
 479 0042 0023     		movs	r3, #0
 480 0044 C7F83431 		str	r3, [r7, #308]
 481              		.loc 1 228 5
 482 0048 30E0     		b	.L17
 483              	.L18:
 229:c:/Users/lenovo/Desktop/AIoT/first_day/firstday_afternoon/LiteOS_Lab_STM32_IoT/iot_link/network/dtls/mbedtls/mbedtls-2.16.2/library\sha256.c ****         GET_UINT32_BE( W[i], data, 4 * i );
 484              		.loc 1 229 9 discriminator 3
 485 004a D7F83431 		ldr	r3, [r7, #308]
 486 004e 9B00     		lsls	r3, r3, #2
 487 0050 3A46     		mov	r2, r7
 488 0052 1268     		ldr	r2, [r2]
 489 0054 1344     		add	r3, r3, r2
 490 0056 1B78     		ldrb	r3, [r3]	@ zero_extendqisi2
 491 0058 1A06     		lsls	r2, r3, #24
 492 005a D7F83431 		ldr	r3, [r7, #308]
 493 005e 9B00     		lsls	r3, r3, #2
 494 0060 0133     		adds	r3, r3, #1
 495 0062 3946     		mov	r1, r7
 496 0064 0968     		ldr	r1, [r1]
 497 0066 0B44     		add	r3, r3, r1
 498 0068 1B78     		ldrb	r3, [r3]	@ zero_extendqisi2
 499 006a 1B04     		lsls	r3, r3, #16
 500 006c 1A43     		orrs	r2, r2, r3
 501 006e D7F83431 		ldr	r3, [r7, #308]
 502 0072 9B00     		lsls	r3, r3, #2
 503 0074 0233     		adds	r3, r3, #2
 504 0076 3946     		mov	r1, r7
 505 0078 0968     		ldr	r1, [r1]
 506 007a 0B44     		add	r3, r3, r1
 507 007c 1B78     		ldrb	r3, [r3]	@ zero_extendqisi2
 508 007e 1B02     		lsls	r3, r3, #8
 509 0080 1343     		orrs	r3, r3, r2
 510 0082 D7F83421 		ldr	r2, [r7, #308]
 511 0086 9200     		lsls	r2, r2, #2
 512 0088 0332     		adds	r2, r2, #3
 513 008a 3946     		mov	r1, r7
 514 008c 0968     		ldr	r1, [r1]
 515 008e 0A44     		add	r2, r2, r1
 516 0090 1278     		ldrb	r2, [r2]	@ zero_extendqisi2
 517 0092 43EA0201 		orr	r1, r3, r2
 518 0096 07F12C03 		add	r3, r7, #44
 519 009a D7F83421 		ldr	r2, [r7, #308]
 520 009e 43F82210 		str	r1, [r3, r2, lsl #2]
 228:c:/Users/lenovo/Desktop/AIoT/first_day/firstday_afternoon/LiteOS_Lab_STM32_IoT/iot_link/network/dtls/mbedtls/mbedtls-2.16.2/library\sha256.c ****         GET_UINT32_BE( W[i], data, 4 * i );
 521              		.loc 1 228 26 discriminator 3
ARM GAS  C:\Users\lenovo\AppData\Local\Temp\ccds4vwo.s 			page 14


 522 00a2 D7F83431 		ldr	r3, [r7, #308]
 523 00a6 0133     		adds	r3, r3, #1
 524 00a8 C7F83431 		str	r3, [r7, #308]
 525              	.L17:
 228:c:/Users/lenovo/Desktop/AIoT/first_day/firstday_afternoon/LiteOS_Lab_STM32_IoT/iot_link/network/dtls/mbedtls/mbedtls-2.16.2/library\sha256.c ****         GET_UINT32_BE( W[i], data, 4 * i );
 526              		.loc 1 228 5 discriminator 1
 527 00ac D7F83431 		ldr	r3, [r7, #308]
 528 00b0 0F2B     		cmp	r3, #15
 529 00b2 CAD9     		bls	.L18
 230:c:/Users/lenovo/Desktop/AIoT/first_day/firstday_afternoon/LiteOS_Lab_STM32_IoT/iot_link/network/dtls/mbedtls/mbedtls-2.16.2/library\sha256.c **** 
 231:c:/Users/lenovo/Desktop/AIoT/first_day/firstday_afternoon/LiteOS_Lab_STM32_IoT/iot_link/network/dtls/mbedtls/mbedtls-2.16.2/library\sha256.c ****     for( i = 0; i < 16; i += 8 )
 530              		.loc 1 231 12
 531 00b4 0023     		movs	r3, #0
 532 00b6 C7F83431 		str	r3, [r7, #308]
 533              		.loc 1 231 5
 534 00ba 75E3     		b	.L19
 535              	.L20:
 232:c:/Users/lenovo/Desktop/AIoT/first_day/firstday_afternoon/LiteOS_Lab_STM32_IoT/iot_link/network/dtls/mbedtls/mbedtls-2.16.2/library\sha256.c ****     {
 233:c:/Users/lenovo/Desktop/AIoT/first_day/firstday_afternoon/LiteOS_Lab_STM32_IoT/iot_link/network/dtls/mbedtls/mbedtls-2.16.2/library\sha256.c ****         P( A[0], A[1], A[2], A[3], A[4], A[5], A[6], A[7], W[i+0], K[i+0] );
 536              		.loc 1 233 9 discriminator 3
 537 00bc 07F10C03 		add	r3, r7, #12
 538 00c0 DA69     		ldr	r2, [r3, #28]
 539 00c2 07F10C03 		add	r3, r7, #12
 540 00c6 1B69     		ldr	r3, [r3, #16]
 541 00c8 4FEAB311 		ror	r1, r3, #6
 542 00cc 07F10C03 		add	r3, r7, #12
 543 00d0 1B69     		ldr	r3, [r3, #16]
 544 00d2 4FEAF323 		ror	r3, r3, #11
 545 00d6 5940     		eors	r1, r1, r3
 546 00d8 07F10C03 		add	r3, r7, #12
 547 00dc 1B69     		ldr	r3, [r3, #16]
 548 00de 4FEA7363 		ror	r3, r3, #25
 549 00e2 4B40     		eors	r3, r3, r1
 550 00e4 1A44     		add	r2, r2, r3
 551 00e6 07F10C03 		add	r3, r7, #12
 552 00ea 9969     		ldr	r1, [r3, #24]
 553 00ec 07F10C03 		add	r3, r7, #12
 554 00f0 1869     		ldr	r0, [r3, #16]
 555 00f2 07F10C03 		add	r3, r7, #12
 556 00f6 5C69     		ldr	r4, [r3, #20]
 557 00f8 07F10C03 		add	r3, r7, #12
 558 00fc 9B69     		ldr	r3, [r3, #24]
 559 00fe 6340     		eors	r3, r3, r4
 560 0100 0340     		ands	r3, r3, r0
 561 0102 4B40     		eors	r3, r3, r1
 562 0104 1A44     		add	r2, r2, r3
 563 0106 D749     		ldr	r1, .L26
 564 0108 D7F83431 		ldr	r3, [r7, #308]
 565 010c 51F82330 		ldr	r3, [r1, r3, lsl #2]
 566 0110 1A44     		add	r2, r2, r3
 567 0112 07F12C03 		add	r3, r7, #44
 568 0116 D7F83411 		ldr	r1, [r7, #308]
 569 011a 53F82130 		ldr	r3, [r3, r1, lsl #2]
 570 011e 1344     		add	r3, r3, r2
 571 0120 C7F83031 		str	r3, [r7, #304]
 572 0124 07F10C03 		add	r3, r7, #12
 573 0128 1B68     		ldr	r3, [r3]
ARM GAS  C:\Users\lenovo\AppData\Local\Temp\ccds4vwo.s 			page 15


 574 012a 4FEAB302 		ror	r2, r3, #2
 575 012e 07F10C03 		add	r3, r7, #12
 576 0132 1B68     		ldr	r3, [r3]
 577 0134 4FEA7333 		ror	r3, r3, #13
 578 0138 5A40     		eors	r2, r2, r3
 579 013a 07F10C03 		add	r3, r7, #12
 580 013e 1B68     		ldr	r3, [r3]
 581 0140 4FEAB353 		ror	r3, r3, #22
 582 0144 5A40     		eors	r2, r2, r3
 583 0146 07F10C03 		add	r3, r7, #12
 584 014a 1968     		ldr	r1, [r3]
 585 014c 07F10C03 		add	r3, r7, #12
 586 0150 5B68     		ldr	r3, [r3, #4]
 587 0152 1940     		ands	r1, r1, r3
 588 0154 07F10C03 		add	r3, r7, #12
 589 0158 9868     		ldr	r0, [r3, #8]
 590 015a 07F10C03 		add	r3, r7, #12
 591 015e 1C68     		ldr	r4, [r3]
 592 0160 07F10C03 		add	r3, r7, #12
 593 0164 5B68     		ldr	r3, [r3, #4]
 594 0166 2343     		orrs	r3, r3, r4
 595 0168 0340     		ands	r3, r3, r0
 596 016a 0B43     		orrs	r3, r3, r1
 597 016c 1344     		add	r3, r3, r2
 598 016e C7F82C31 		str	r3, [r7, #300]
 599 0172 07F10C03 		add	r3, r7, #12
 600 0176 DA68     		ldr	r2, [r3, #12]
 601 0178 D7F83031 		ldr	r3, [r7, #304]
 602 017c 1A44     		add	r2, r2, r3
 603 017e 07F10C03 		add	r3, r7, #12
 604 0182 DA60     		str	r2, [r3, #12]
 605 0184 D7F83021 		ldr	r2, [r7, #304]
 606 0188 D7F82C31 		ldr	r3, [r7, #300]
 607 018c 1A44     		add	r2, r2, r3
 608 018e 07F10C03 		add	r3, r7, #12
 609 0192 DA61     		str	r2, [r3, #28]
 234:c:/Users/lenovo/Desktop/AIoT/first_day/firstday_afternoon/LiteOS_Lab_STM32_IoT/iot_link/network/dtls/mbedtls/mbedtls-2.16.2/library\sha256.c ****         P( A[7], A[0], A[1], A[2], A[3], A[4], A[5], A[6], W[i+1], K[i+1] );
 610              		.loc 1 234 9 discriminator 3
 611 0194 07F10C03 		add	r3, r7, #12
 612 0198 9A69     		ldr	r2, [r3, #24]
 613 019a 07F10C03 		add	r3, r7, #12
 614 019e DB68     		ldr	r3, [r3, #12]
 615 01a0 4FEAB311 		ror	r1, r3, #6
 616 01a4 07F10C03 		add	r3, r7, #12
 617 01a8 DB68     		ldr	r3, [r3, #12]
 618 01aa 4FEAF323 		ror	r3, r3, #11
 619 01ae 5940     		eors	r1, r1, r3
 620 01b0 07F10C03 		add	r3, r7, #12
 621 01b4 DB68     		ldr	r3, [r3, #12]
 622 01b6 4FEA7363 		ror	r3, r3, #25
 623 01ba 4B40     		eors	r3, r3, r1
 624 01bc 1A44     		add	r2, r2, r3
 625 01be 07F10C03 		add	r3, r7, #12
 626 01c2 5969     		ldr	r1, [r3, #20]
 627 01c4 07F10C03 		add	r3, r7, #12
 628 01c8 D868     		ldr	r0, [r3, #12]
 629 01ca 07F10C03 		add	r3, r7, #12
ARM GAS  C:\Users\lenovo\AppData\Local\Temp\ccds4vwo.s 			page 16


 630 01ce 1C69     		ldr	r4, [r3, #16]
 631 01d0 07F10C03 		add	r3, r7, #12
 632 01d4 5B69     		ldr	r3, [r3, #20]
 633 01d6 6340     		eors	r3, r3, r4
 634 01d8 0340     		ands	r3, r3, r0
 635 01da 4B40     		eors	r3, r3, r1
 636 01dc 1A44     		add	r2, r2, r3
 637 01de D7F83431 		ldr	r3, [r7, #308]
 638 01e2 0133     		adds	r3, r3, #1
 639 01e4 9F49     		ldr	r1, .L26
 640 01e6 51F82330 		ldr	r3, [r1, r3, lsl #2]
 641 01ea 1A44     		add	r2, r2, r3
 642 01ec D7F83431 		ldr	r3, [r7, #308]
 643 01f0 591C     		adds	r1, r3, #1
 644 01f2 07F12C03 		add	r3, r7, #44
 645 01f6 53F82130 		ldr	r3, [r3, r1, lsl #2]
 646 01fa 1344     		add	r3, r3, r2
 647 01fc C7F83031 		str	r3, [r7, #304]
 648 0200 07F10C03 		add	r3, r7, #12
 649 0204 DB69     		ldr	r3, [r3, #28]
 650 0206 4FEAB302 		ror	r2, r3, #2
 651 020a 07F10C03 		add	r3, r7, #12
 652 020e DB69     		ldr	r3, [r3, #28]
 653 0210 4FEA7333 		ror	r3, r3, #13
 654 0214 5A40     		eors	r2, r2, r3
 655 0216 07F10C03 		add	r3, r7, #12
 656 021a DB69     		ldr	r3, [r3, #28]
 657 021c 4FEAB353 		ror	r3, r3, #22
 658 0220 5A40     		eors	r2, r2, r3
 659 0222 07F10C03 		add	r3, r7, #12
 660 0226 D969     		ldr	r1, [r3, #28]
 661 0228 07F10C03 		add	r3, r7, #12
 662 022c 1B68     		ldr	r3, [r3]
 663 022e 1940     		ands	r1, r1, r3
 664 0230 07F10C03 		add	r3, r7, #12
 665 0234 5868     		ldr	r0, [r3, #4]
 666 0236 07F10C03 		add	r3, r7, #12
 667 023a DC69     		ldr	r4, [r3, #28]
 668 023c 07F10C03 		add	r3, r7, #12
 669 0240 1B68     		ldr	r3, [r3]
 670 0242 2343     		orrs	r3, r3, r4
 671 0244 0340     		ands	r3, r3, r0
 672 0246 0B43     		orrs	r3, r3, r1
 673 0248 1344     		add	r3, r3, r2
 674 024a C7F82C31 		str	r3, [r7, #300]
 675 024e 07F10C03 		add	r3, r7, #12
 676 0252 9A68     		ldr	r2, [r3, #8]
 677 0254 D7F83031 		ldr	r3, [r7, #304]
 678 0258 1A44     		add	r2, r2, r3
 679 025a 07F10C03 		add	r3, r7, #12
 680 025e 9A60     		str	r2, [r3, #8]
 681 0260 D7F83021 		ldr	r2, [r7, #304]
 682 0264 D7F82C31 		ldr	r3, [r7, #300]
 683 0268 1A44     		add	r2, r2, r3
 684 026a 07F10C03 		add	r3, r7, #12
 685 026e 9A61     		str	r2, [r3, #24]
 235:c:/Users/lenovo/Desktop/AIoT/first_day/firstday_afternoon/LiteOS_Lab_STM32_IoT/iot_link/network/dtls/mbedtls/mbedtls-2.16.2/library\sha256.c ****         P( A[6], A[7], A[0], A[1], A[2], A[3], A[4], A[5], W[i+2], K[i+2] );
ARM GAS  C:\Users\lenovo\AppData\Local\Temp\ccds4vwo.s 			page 17


 686              		.loc 1 235 9 discriminator 3
 687 0270 07F10C03 		add	r3, r7, #12
 688 0274 5A69     		ldr	r2, [r3, #20]
 689 0276 07F10C03 		add	r3, r7, #12
 690 027a 9B68     		ldr	r3, [r3, #8]
 691 027c 4FEAB311 		ror	r1, r3, #6
 692 0280 07F10C03 		add	r3, r7, #12
 693 0284 9B68     		ldr	r3, [r3, #8]
 694 0286 4FEAF323 		ror	r3, r3, #11
 695 028a 5940     		eors	r1, r1, r3
 696 028c 07F10C03 		add	r3, r7, #12
 697 0290 9B68     		ldr	r3, [r3, #8]
 698 0292 4FEA7363 		ror	r3, r3, #25
 699 0296 4B40     		eors	r3, r3, r1
 700 0298 1A44     		add	r2, r2, r3
 701 029a 07F10C03 		add	r3, r7, #12
 702 029e 1969     		ldr	r1, [r3, #16]
 703 02a0 07F10C03 		add	r3, r7, #12
 704 02a4 9868     		ldr	r0, [r3, #8]
 705 02a6 07F10C03 		add	r3, r7, #12
 706 02aa DC68     		ldr	r4, [r3, #12]
 707 02ac 07F10C03 		add	r3, r7, #12
 708 02b0 1B69     		ldr	r3, [r3, #16]
 709 02b2 6340     		eors	r3, r3, r4
 710 02b4 0340     		ands	r3, r3, r0
 711 02b6 4B40     		eors	r3, r3, r1
 712 02b8 1A44     		add	r2, r2, r3
 713 02ba D7F83431 		ldr	r3, [r7, #308]
 714 02be 0233     		adds	r3, r3, #2
 715 02c0 6849     		ldr	r1, .L26
 716 02c2 51F82330 		ldr	r3, [r1, r3, lsl #2]
 717 02c6 1A44     		add	r2, r2, r3
 718 02c8 D7F83431 		ldr	r3, [r7, #308]
 719 02cc 991C     		adds	r1, r3, #2
 720 02ce 07F12C03 		add	r3, r7, #44
 721 02d2 53F82130 		ldr	r3, [r3, r1, lsl #2]
 722 02d6 1344     		add	r3, r3, r2
 723 02d8 C7F83031 		str	r3, [r7, #304]
 724 02dc 07F10C03 		add	r3, r7, #12
 725 02e0 9B69     		ldr	r3, [r3, #24]
 726 02e2 4FEAB302 		ror	r2, r3, #2
 727 02e6 07F10C03 		add	r3, r7, #12
 728 02ea 9B69     		ldr	r3, [r3, #24]
 729 02ec 4FEA7333 		ror	r3, r3, #13
 730 02f0 5A40     		eors	r2, r2, r3
 731 02f2 07F10C03 		add	r3, r7, #12
 732 02f6 9B69     		ldr	r3, [r3, #24]
 733 02f8 4FEAB353 		ror	r3, r3, #22
 734 02fc 5A40     		eors	r2, r2, r3
 735 02fe 07F10C03 		add	r3, r7, #12
 736 0302 9969     		ldr	r1, [r3, #24]
 737 0304 07F10C03 		add	r3, r7, #12
 738 0308 DB69     		ldr	r3, [r3, #28]
 739 030a 1940     		ands	r1, r1, r3
 740 030c 07F10C03 		add	r3, r7, #12
 741 0310 1868     		ldr	r0, [r3]
 742 0312 07F10C03 		add	r3, r7, #12
ARM GAS  C:\Users\lenovo\AppData\Local\Temp\ccds4vwo.s 			page 18


 743 0316 9C69     		ldr	r4, [r3, #24]
 744 0318 07F10C03 		add	r3, r7, #12
 745 031c DB69     		ldr	r3, [r3, #28]
 746 031e 2343     		orrs	r3, r3, r4
 747 0320 0340     		ands	r3, r3, r0
 748 0322 0B43     		orrs	r3, r3, r1
 749 0324 1344     		add	r3, r3, r2
 750 0326 C7F82C31 		str	r3, [r7, #300]
 751 032a 07F10C03 		add	r3, r7, #12
 752 032e 5A68     		ldr	r2, [r3, #4]
 753 0330 D7F83031 		ldr	r3, [r7, #304]
 754 0334 1A44     		add	r2, r2, r3
 755 0336 07F10C03 		add	r3, r7, #12
 756 033a 5A60     		str	r2, [r3, #4]
 757 033c D7F83021 		ldr	r2, [r7, #304]
 758 0340 D7F82C31 		ldr	r3, [r7, #300]
 759 0344 1A44     		add	r2, r2, r3
 760 0346 07F10C03 		add	r3, r7, #12
 761 034a 5A61     		str	r2, [r3, #20]
 236:c:/Users/lenovo/Desktop/AIoT/first_day/firstday_afternoon/LiteOS_Lab_STM32_IoT/iot_link/network/dtls/mbedtls/mbedtls-2.16.2/library\sha256.c ****         P( A[5], A[6], A[7], A[0], A[1], A[2], A[3], A[4], W[i+3], K[i+3] );
 762              		.loc 1 236 9 discriminator 3
 763 034c 07F10C03 		add	r3, r7, #12
 764 0350 1A69     		ldr	r2, [r3, #16]
 765 0352 07F10C03 		add	r3, r7, #12
 766 0356 5B68     		ldr	r3, [r3, #4]
 767 0358 4FEAB311 		ror	r1, r3, #6
 768 035c 07F10C03 		add	r3, r7, #12
 769 0360 5B68     		ldr	r3, [r3, #4]
 770 0362 4FEAF323 		ror	r3, r3, #11
 771 0366 5940     		eors	r1, r1, r3
 772 0368 07F10C03 		add	r3, r7, #12
 773 036c 5B68     		ldr	r3, [r3, #4]
 774 036e 4FEA7363 		ror	r3, r3, #25
 775 0372 4B40     		eors	r3, r3, r1
 776 0374 1A44     		add	r2, r2, r3
 777 0376 07F10C03 		add	r3, r7, #12
 778 037a D968     		ldr	r1, [r3, #12]
 779 037c 07F10C03 		add	r3, r7, #12
 780 0380 5868     		ldr	r0, [r3, #4]
 781 0382 07F10C03 		add	r3, r7, #12
 782 0386 9C68     		ldr	r4, [r3, #8]
 783 0388 07F10C03 		add	r3, r7, #12
 784 038c DB68     		ldr	r3, [r3, #12]
 785 038e 6340     		eors	r3, r3, r4
 786 0390 0340     		ands	r3, r3, r0
 787 0392 4B40     		eors	r3, r3, r1
 788 0394 1A44     		add	r2, r2, r3
 789 0396 D7F83431 		ldr	r3, [r7, #308]
 790 039a 0333     		adds	r3, r3, #3
 791 039c 3149     		ldr	r1, .L26
 792 039e 51F82330 		ldr	r3, [r1, r3, lsl #2]
 793 03a2 1A44     		add	r2, r2, r3
 794 03a4 D7F83431 		ldr	r3, [r7, #308]
 795 03a8 D91C     		adds	r1, r3, #3
 796 03aa 07F12C03 		add	r3, r7, #44
 797 03ae 53F82130 		ldr	r3, [r3, r1, lsl #2]
 798 03b2 1344     		add	r3, r3, r2
ARM GAS  C:\Users\lenovo\AppData\Local\Temp\ccds4vwo.s 			page 19


 799 03b4 C7F83031 		str	r3, [r7, #304]
 800 03b8 07F10C03 		add	r3, r7, #12
 801 03bc 5B69     		ldr	r3, [r3, #20]
 802 03be 4FEAB302 		ror	r2, r3, #2
 803 03c2 07F10C03 		add	r3, r7, #12
 804 03c6 5B69     		ldr	r3, [r3, #20]
 805 03c8 4FEA7333 		ror	r3, r3, #13
 806 03cc 5A40     		eors	r2, r2, r3
 807 03ce 07F10C03 		add	r3, r7, #12
 808 03d2 5B69     		ldr	r3, [r3, #20]
 809 03d4 4FEAB353 		ror	r3, r3, #22
 810 03d8 5A40     		eors	r2, r2, r3
 811 03da 07F10C03 		add	r3, r7, #12
 812 03de 5969     		ldr	r1, [r3, #20]
 813 03e0 07F10C03 		add	r3, r7, #12
 814 03e4 9B69     		ldr	r3, [r3, #24]
 815 03e6 1940     		ands	r1, r1, r3
 816 03e8 07F10C03 		add	r3, r7, #12
 817 03ec D869     		ldr	r0, [r3, #28]
 818 03ee 07F10C03 		add	r3, r7, #12
 819 03f2 5C69     		ldr	r4, [r3, #20]
 820 03f4 07F10C03 		add	r3, r7, #12
 821 03f8 9B69     		ldr	r3, [r3, #24]
 822 03fa 2343     		orrs	r3, r3, r4
 823 03fc 0340     		ands	r3, r3, r0
 824 03fe 0B43     		orrs	r3, r3, r1
 825 0400 1344     		add	r3, r3, r2
 826 0402 C7F82C31 		str	r3, [r7, #300]
 827 0406 07F10C03 		add	r3, r7, #12
 828 040a 1A68     		ldr	r2, [r3]
 829 040c D7F83031 		ldr	r3, [r7, #304]
 830 0410 1A44     		add	r2, r2, r3
 831 0412 07F10C03 		add	r3, r7, #12
 832 0416 1A60     		str	r2, [r3]
 833 0418 D7F83021 		ldr	r2, [r7, #304]
 834 041c D7F82C31 		ldr	r3, [r7, #300]
 835 0420 1A44     		add	r2, r2, r3
 836 0422 07F10C03 		add	r3, r7, #12
 837 0426 1A61     		str	r2, [r3, #16]
 237:c:/Users/lenovo/Desktop/AIoT/first_day/firstday_afternoon/LiteOS_Lab_STM32_IoT/iot_link/network/dtls/mbedtls/mbedtls-2.16.2/library\sha256.c ****         P( A[4], A[5], A[6], A[7], A[0], A[1], A[2], A[3], W[i+4], K[i+4] );
 838              		.loc 1 237 9 discriminator 3
 839 0428 07F10C03 		add	r3, r7, #12
 840 042c DA68     		ldr	r2, [r3, #12]
 841 042e 07F10C03 		add	r3, r7, #12
 842 0432 1B68     		ldr	r3, [r3]
 843 0434 4FEAB311 		ror	r1, r3, #6
 844 0438 07F10C03 		add	r3, r7, #12
 845 043c 1B68     		ldr	r3, [r3]
 846 043e 4FEAF323 		ror	r3, r3, #11
 847 0442 5940     		eors	r1, r1, r3
 848 0444 07F10C03 		add	r3, r7, #12
 849 0448 1B68     		ldr	r3, [r3]
 850 044a 4FEA7363 		ror	r3, r3, #25
 851 044e 4B40     		eors	r3, r3, r1
 852 0450 1A44     		add	r2, r2, r3
 853 0452 07F10C03 		add	r3, r7, #12
 854 0456 9968     		ldr	r1, [r3, #8]
ARM GAS  C:\Users\lenovo\AppData\Local\Temp\ccds4vwo.s 			page 20


 855 0458 07F10C03 		add	r3, r7, #12
 856 045c 1868     		ldr	r0, [r3]
 857 045e 07F10C03 		add	r3, r7, #12
 858 0462 01E0     		b	.L27
 859              	.L28:
 860              		.align	2
 861              	.L26:
 862 0464 00000000 		.word	K
 863              	.L27:
 864 0468 5C68     		ldr	r4, [r3, #4]
 865 046a 07F10C03 		add	r3, r7, #12
 866 046e 9B68     		ldr	r3, [r3, #8]
 867 0470 6340     		eors	r3, r3, r4
 868 0472 0340     		ands	r3, r3, r0
 869 0474 4B40     		eors	r3, r3, r1
 870 0476 1A44     		add	r2, r2, r3
 871 0478 D7F83431 		ldr	r3, [r7, #308]
 872 047c 0433     		adds	r3, r3, #4
 873 047e CF49     		ldr	r1, .L29
 874 0480 51F82330 		ldr	r3, [r1, r3, lsl #2]
 875 0484 1A44     		add	r2, r2, r3
 876 0486 D7F83431 		ldr	r3, [r7, #308]
 877 048a 191D     		adds	r1, r3, #4
 878 048c 07F12C03 		add	r3, r7, #44
 879 0490 53F82130 		ldr	r3, [r3, r1, lsl #2]
 880 0494 1344     		add	r3, r3, r2
 881 0496 C7F83031 		str	r3, [r7, #304]
 882 049a 07F10C03 		add	r3, r7, #12
 883 049e 1B69     		ldr	r3, [r3, #16]
 884 04a0 4FEAB302 		ror	r2, r3, #2
 885 04a4 07F10C03 		add	r3, r7, #12
 886 04a8 1B69     		ldr	r3, [r3, #16]
 887 04aa 4FEA7333 		ror	r3, r3, #13
 888 04ae 5A40     		eors	r2, r2, r3
 889 04b0 07F10C03 		add	r3, r7, #12
 890 04b4 1B69     		ldr	r3, [r3, #16]
 891 04b6 4FEAB353 		ror	r3, r3, #22
 892 04ba 5A40     		eors	r2, r2, r3
 893 04bc 07F10C03 		add	r3, r7, #12
 894 04c0 1969     		ldr	r1, [r3, #16]
 895 04c2 07F10C03 		add	r3, r7, #12
 896 04c6 5B69     		ldr	r3, [r3, #20]
 897 04c8 1940     		ands	r1, r1, r3
 898 04ca 07F10C03 		add	r3, r7, #12
 899 04ce 9869     		ldr	r0, [r3, #24]
 900 04d0 07F10C03 		add	r3, r7, #12
 901 04d4 1C69     		ldr	r4, [r3, #16]
 902 04d6 07F10C03 		add	r3, r7, #12
 903 04da 5B69     		ldr	r3, [r3, #20]
 904 04dc 2343     		orrs	r3, r3, r4
 905 04de 0340     		ands	r3, r3, r0
 906 04e0 0B43     		orrs	r3, r3, r1
 907 04e2 1344     		add	r3, r3, r2
 908 04e4 C7F82C31 		str	r3, [r7, #300]
 909 04e8 07F10C03 		add	r3, r7, #12
 910 04ec DA69     		ldr	r2, [r3, #28]
 911 04ee D7F83031 		ldr	r3, [r7, #304]
ARM GAS  C:\Users\lenovo\AppData\Local\Temp\ccds4vwo.s 			page 21


 912 04f2 1A44     		add	r2, r2, r3
 913 04f4 07F10C03 		add	r3, r7, #12
 914 04f8 DA61     		str	r2, [r3, #28]
 915 04fa D7F83021 		ldr	r2, [r7, #304]
 916 04fe D7F82C31 		ldr	r3, [r7, #300]
 917 0502 1A44     		add	r2, r2, r3
 918 0504 07F10C03 		add	r3, r7, #12
 919 0508 DA60     		str	r2, [r3, #12]
 238:c:/Users/lenovo/Desktop/AIoT/first_day/firstday_afternoon/LiteOS_Lab_STM32_IoT/iot_link/network/dtls/mbedtls/mbedtls-2.16.2/library\sha256.c ****         P( A[3], A[4], A[5], A[6], A[7], A[0], A[1], A[2], W[i+5], K[i+5] );
 920              		.loc 1 238 9 discriminator 3
 921 050a 07F10C03 		add	r3, r7, #12
 922 050e 9A68     		ldr	r2, [r3, #8]
 923 0510 07F10C03 		add	r3, r7, #12
 924 0514 DB69     		ldr	r3, [r3, #28]
 925 0516 4FEAB311 		ror	r1, r3, #6
 926 051a 07F10C03 		add	r3, r7, #12
 927 051e DB69     		ldr	r3, [r3, #28]
 928 0520 4FEAF323 		ror	r3, r3, #11
 929 0524 5940     		eors	r1, r1, r3
 930 0526 07F10C03 		add	r3, r7, #12
 931 052a DB69     		ldr	r3, [r3, #28]
 932 052c 4FEA7363 		ror	r3, r3, #25
 933 0530 4B40     		eors	r3, r3, r1
 934 0532 1A44     		add	r2, r2, r3
 935 0534 07F10C03 		add	r3, r7, #12
 936 0538 5968     		ldr	r1, [r3, #4]
 937 053a 07F10C03 		add	r3, r7, #12
 938 053e D869     		ldr	r0, [r3, #28]
 939 0540 07F10C03 		add	r3, r7, #12
 940 0544 1C68     		ldr	r4, [r3]
 941 0546 07F10C03 		add	r3, r7, #12
 942 054a 5B68     		ldr	r3, [r3, #4]
 943 054c 6340     		eors	r3, r3, r4
 944 054e 0340     		ands	r3, r3, r0
 945 0550 4B40     		eors	r3, r3, r1
 946 0552 1A44     		add	r2, r2, r3
 947 0554 D7F83431 		ldr	r3, [r7, #308]
 948 0558 0533     		adds	r3, r3, #5
 949 055a 9849     		ldr	r1, .L29
 950 055c 51F82330 		ldr	r3, [r1, r3, lsl #2]
 951 0560 1A44     		add	r2, r2, r3
 952 0562 D7F83431 		ldr	r3, [r7, #308]
 953 0566 591D     		adds	r1, r3, #5
 954 0568 07F12C03 		add	r3, r7, #44
 955 056c 53F82130 		ldr	r3, [r3, r1, lsl #2]
 956 0570 1344     		add	r3, r3, r2
 957 0572 C7F83031 		str	r3, [r7, #304]
 958 0576 07F10C03 		add	r3, r7, #12
 959 057a DB68     		ldr	r3, [r3, #12]
 960 057c 4FEAB302 		ror	r2, r3, #2
 961 0580 07F10C03 		add	r3, r7, #12
 962 0584 DB68     		ldr	r3, [r3, #12]
 963 0586 4FEA7333 		ror	r3, r3, #13
 964 058a 5A40     		eors	r2, r2, r3
 965 058c 07F10C03 		add	r3, r7, #12
 966 0590 DB68     		ldr	r3, [r3, #12]
 967 0592 4FEAB353 		ror	r3, r3, #22
ARM GAS  C:\Users\lenovo\AppData\Local\Temp\ccds4vwo.s 			page 22


 968 0596 5A40     		eors	r2, r2, r3
 969 0598 07F10C03 		add	r3, r7, #12
 970 059c D968     		ldr	r1, [r3, #12]
 971 059e 07F10C03 		add	r3, r7, #12
 972 05a2 1B69     		ldr	r3, [r3, #16]
 973 05a4 1940     		ands	r1, r1, r3
 974 05a6 07F10C03 		add	r3, r7, #12
 975 05aa 5869     		ldr	r0, [r3, #20]
 976 05ac 07F10C03 		add	r3, r7, #12
 977 05b0 DC68     		ldr	r4, [r3, #12]
 978 05b2 07F10C03 		add	r3, r7, #12
 979 05b6 1B69     		ldr	r3, [r3, #16]
 980 05b8 2343     		orrs	r3, r3, r4
 981 05ba 0340     		ands	r3, r3, r0
 982 05bc 0B43     		orrs	r3, r3, r1
 983 05be 1344     		add	r3, r3, r2
 984 05c0 C7F82C31 		str	r3, [r7, #300]
 985 05c4 07F10C03 		add	r3, r7, #12
 986 05c8 9A69     		ldr	r2, [r3, #24]
 987 05ca D7F83031 		ldr	r3, [r7, #304]
 988 05ce 1A44     		add	r2, r2, r3
 989 05d0 07F10C03 		add	r3, r7, #12
 990 05d4 9A61     		str	r2, [r3, #24]
 991 05d6 D7F83021 		ldr	r2, [r7, #304]
 992 05da D7F82C31 		ldr	r3, [r7, #300]
 993 05de 1A44     		add	r2, r2, r3
 994 05e0 07F10C03 		add	r3, r7, #12
 995 05e4 9A60     		str	r2, [r3, #8]
 239:c:/Users/lenovo/Desktop/AIoT/first_day/firstday_afternoon/LiteOS_Lab_STM32_IoT/iot_link/network/dtls/mbedtls/mbedtls-2.16.2/library\sha256.c ****         P( A[2], A[3], A[4], A[5], A[6], A[7], A[0], A[1], W[i+6], K[i+6] );
 996              		.loc 1 239 9 discriminator 3
 997 05e6 07F10C03 		add	r3, r7, #12
 998 05ea 5A68     		ldr	r2, [r3, #4]
 999 05ec 07F10C03 		add	r3, r7, #12
 1000 05f0 9B69     		ldr	r3, [r3, #24]
 1001 05f2 4FEAB311 		ror	r1, r3, #6
 1002 05f6 07F10C03 		add	r3, r7, #12
 1003 05fa 9B69     		ldr	r3, [r3, #24]
 1004 05fc 4FEAF323 		ror	r3, r3, #11
 1005 0600 5940     		eors	r1, r1, r3
 1006 0602 07F10C03 		add	r3, r7, #12
 1007 0606 9B69     		ldr	r3, [r3, #24]
 1008 0608 4FEA7363 		ror	r3, r3, #25
 1009 060c 4B40     		eors	r3, r3, r1
 1010 060e 1A44     		add	r2, r2, r3
 1011 0610 07F10C03 		add	r3, r7, #12
 1012 0614 1968     		ldr	r1, [r3]
 1013 0616 07F10C03 		add	r3, r7, #12
 1014 061a 9869     		ldr	r0, [r3, #24]
 1015 061c 07F10C03 		add	r3, r7, #12
 1016 0620 DC69     		ldr	r4, [r3, #28]
 1017 0622 07F10C03 		add	r3, r7, #12
 1018 0626 1B68     		ldr	r3, [r3]
 1019 0628 6340     		eors	r3, r3, r4
 1020 062a 0340     		ands	r3, r3, r0
 1021 062c 4B40     		eors	r3, r3, r1
 1022 062e 1A44     		add	r2, r2, r3
 1023 0630 D7F83431 		ldr	r3, [r7, #308]
ARM GAS  C:\Users\lenovo\AppData\Local\Temp\ccds4vwo.s 			page 23


 1024 0634 0633     		adds	r3, r3, #6
 1025 0636 6149     		ldr	r1, .L29
 1026 0638 51F82330 		ldr	r3, [r1, r3, lsl #2]
 1027 063c 1A44     		add	r2, r2, r3
 1028 063e D7F83431 		ldr	r3, [r7, #308]
 1029 0642 991D     		adds	r1, r3, #6
 1030 0644 07F12C03 		add	r3, r7, #44
 1031 0648 53F82130 		ldr	r3, [r3, r1, lsl #2]
 1032 064c 1344     		add	r3, r3, r2
 1033 064e C7F83031 		str	r3, [r7, #304]
 1034 0652 07F10C03 		add	r3, r7, #12
 1035 0656 9B68     		ldr	r3, [r3, #8]
 1036 0658 4FEAB302 		ror	r2, r3, #2
 1037 065c 07F10C03 		add	r3, r7, #12
 1038 0660 9B68     		ldr	r3, [r3, #8]
 1039 0662 4FEA7333 		ror	r3, r3, #13
 1040 0666 5A40     		eors	r2, r2, r3
 1041 0668 07F10C03 		add	r3, r7, #12
 1042 066c 9B68     		ldr	r3, [r3, #8]
 1043 066e 4FEAB353 		ror	r3, r3, #22
 1044 0672 5A40     		eors	r2, r2, r3
 1045 0674 07F10C03 		add	r3, r7, #12
 1046 0678 9968     		ldr	r1, [r3, #8]
 1047 067a 07F10C03 		add	r3, r7, #12
 1048 067e DB68     		ldr	r3, [r3, #12]
 1049 0680 1940     		ands	r1, r1, r3
 1050 0682 07F10C03 		add	r3, r7, #12
 1051 0686 1869     		ldr	r0, [r3, #16]
 1052 0688 07F10C03 		add	r3, r7, #12
 1053 068c 9C68     		ldr	r4, [r3, #8]
 1054 068e 07F10C03 		add	r3, r7, #12
 1055 0692 DB68     		ldr	r3, [r3, #12]
 1056 0694 2343     		orrs	r3, r3, r4
 1057 0696 0340     		ands	r3, r3, r0
 1058 0698 0B43     		orrs	r3, r3, r1
 1059 069a 1344     		add	r3, r3, r2
 1060 069c C7F82C31 		str	r3, [r7, #300]
 1061 06a0 07F10C03 		add	r3, r7, #12
 1062 06a4 5A69     		ldr	r2, [r3, #20]
 1063 06a6 D7F83031 		ldr	r3, [r7, #304]
 1064 06aa 1A44     		add	r2, r2, r3
 1065 06ac 07F10C03 		add	r3, r7, #12
 1066 06b0 5A61     		str	r2, [r3, #20]
 1067 06b2 D7F83021 		ldr	r2, [r7, #304]
 1068 06b6 D7F82C31 		ldr	r3, [r7, #300]
 1069 06ba 1A44     		add	r2, r2, r3
 1070 06bc 07F10C03 		add	r3, r7, #12
 1071 06c0 5A60     		str	r2, [r3, #4]
 240:c:/Users/lenovo/Desktop/AIoT/first_day/firstday_afternoon/LiteOS_Lab_STM32_IoT/iot_link/network/dtls/mbedtls/mbedtls-2.16.2/library\sha256.c ****         P( A[1], A[2], A[3], A[4], A[5], A[6], A[7], A[0], W[i+7], K[i+7] );
 1072              		.loc 1 240 9 discriminator 3
 1073 06c2 07F10C03 		add	r3, r7, #12
 1074 06c6 1A68     		ldr	r2, [r3]
 1075 06c8 07F10C03 		add	r3, r7, #12
 1076 06cc 5B69     		ldr	r3, [r3, #20]
 1077 06ce 4FEAB311 		ror	r1, r3, #6
 1078 06d2 07F10C03 		add	r3, r7, #12
 1079 06d6 5B69     		ldr	r3, [r3, #20]
ARM GAS  C:\Users\lenovo\AppData\Local\Temp\ccds4vwo.s 			page 24


 1080 06d8 4FEAF323 		ror	r3, r3, #11
 1081 06dc 5940     		eors	r1, r1, r3
 1082 06de 07F10C03 		add	r3, r7, #12
 1083 06e2 5B69     		ldr	r3, [r3, #20]
 1084 06e4 4FEA7363 		ror	r3, r3, #25
 1085 06e8 4B40     		eors	r3, r3, r1
 1086 06ea 1A44     		add	r2, r2, r3
 1087 06ec 07F10C03 		add	r3, r7, #12
 1088 06f0 D969     		ldr	r1, [r3, #28]
 1089 06f2 07F10C03 		add	r3, r7, #12
 1090 06f6 5869     		ldr	r0, [r3, #20]
 1091 06f8 07F10C03 		add	r3, r7, #12
 1092 06fc 9C69     		ldr	r4, [r3, #24]
 1093 06fe 07F10C03 		add	r3, r7, #12
 1094 0702 DB69     		ldr	r3, [r3, #28]
 1095 0704 6340     		eors	r3, r3, r4
 1096 0706 0340     		ands	r3, r3, r0
 1097 0708 4B40     		eors	r3, r3, r1
 1098 070a 1A44     		add	r2, r2, r3
 1099 070c D7F83431 		ldr	r3, [r7, #308]
 1100 0710 0733     		adds	r3, r3, #7
 1101 0712 2A49     		ldr	r1, .L29
 1102 0714 51F82330 		ldr	r3, [r1, r3, lsl #2]
 1103 0718 1A44     		add	r2, r2, r3
 1104 071a D7F83431 		ldr	r3, [r7, #308]
 1105 071e D91D     		adds	r1, r3, #7
 1106 0720 07F12C03 		add	r3, r7, #44
 1107 0724 53F82130 		ldr	r3, [r3, r1, lsl #2]
 1108 0728 1344     		add	r3, r3, r2
 1109 072a C7F83031 		str	r3, [r7, #304]
 1110 072e 07F10C03 		add	r3, r7, #12
 1111 0732 5B68     		ldr	r3, [r3, #4]
 1112 0734 4FEAB302 		ror	r2, r3, #2
 1113 0738 07F10C03 		add	r3, r7, #12
 1114 073c 5B68     		ldr	r3, [r3, #4]
 1115 073e 4FEA7333 		ror	r3, r3, #13
 1116 0742 5A40     		eors	r2, r2, r3
 1117 0744 07F10C03 		add	r3, r7, #12
 1118 0748 5B68     		ldr	r3, [r3, #4]
 1119 074a 4FEAB353 		ror	r3, r3, #22
 1120 074e 5A40     		eors	r2, r2, r3
 1121 0750 07F10C03 		add	r3, r7, #12
 1122 0754 5968     		ldr	r1, [r3, #4]
 1123 0756 07F10C03 		add	r3, r7, #12
 1124 075a 9B68     		ldr	r3, [r3, #8]
 1125 075c 1940     		ands	r1, r1, r3
 1126 075e 07F10C03 		add	r3, r7, #12
 1127 0762 D868     		ldr	r0, [r3, #12]
 1128 0764 07F10C03 		add	r3, r7, #12
 1129 0768 5C68     		ldr	r4, [r3, #4]
 1130 076a 07F10C03 		add	r3, r7, #12
 1131 076e 9B68     		ldr	r3, [r3, #8]
 1132 0770 2343     		orrs	r3, r3, r4
 1133 0772 0340     		ands	r3, r3, r0
 1134 0774 0B43     		orrs	r3, r3, r1
 1135 0776 1344     		add	r3, r3, r2
 1136 0778 C7F82C31 		str	r3, [r7, #300]
ARM GAS  C:\Users\lenovo\AppData\Local\Temp\ccds4vwo.s 			page 25


 1137 077c 07F10C03 		add	r3, r7, #12
 1138 0780 1A69     		ldr	r2, [r3, #16]
 1139 0782 D7F83031 		ldr	r3, [r7, #304]
 1140 0786 1A44     		add	r2, r2, r3
 1141 0788 07F10C03 		add	r3, r7, #12
 1142 078c 1A61     		str	r2, [r3, #16]
 1143 078e D7F83021 		ldr	r2, [r7, #304]
 1144 0792 D7F82C31 		ldr	r3, [r7, #300]
 1145 0796 1A44     		add	r2, r2, r3
 1146 0798 07F10C03 		add	r3, r7, #12
 1147 079c 1A60     		str	r2, [r3]
 231:c:/Users/lenovo/Desktop/AIoT/first_day/firstday_afternoon/LiteOS_Lab_STM32_IoT/iot_link/network/dtls/mbedtls/mbedtls-2.16.2/library\sha256.c ****     {
 1148              		.loc 1 231 27 discriminator 3
 1149 079e D7F83431 		ldr	r3, [r7, #308]
 1150 07a2 0833     		adds	r3, r3, #8
 1151 07a4 C7F83431 		str	r3, [r7, #308]
 1152              	.L19:
 231:c:/Users/lenovo/Desktop/AIoT/first_day/firstday_afternoon/LiteOS_Lab_STM32_IoT/iot_link/network/dtls/mbedtls/mbedtls-2.16.2/library\sha256.c ****     {
 1153              		.loc 1 231 5 discriminator 1
 1154 07a8 D7F83431 		ldr	r3, [r7, #308]
 1155 07ac 0F2B     		cmp	r3, #15
 1156 07ae 7FF685AC 		bls	.L20
 241:c:/Users/lenovo/Desktop/AIoT/first_day/firstday_afternoon/LiteOS_Lab_STM32_IoT/iot_link/network/dtls/mbedtls/mbedtls-2.16.2/library\sha256.c ****     }
 242:c:/Users/lenovo/Desktop/AIoT/first_day/firstday_afternoon/LiteOS_Lab_STM32_IoT/iot_link/network/dtls/mbedtls/mbedtls-2.16.2/library\sha256.c **** 
 243:c:/Users/lenovo/Desktop/AIoT/first_day/firstday_afternoon/LiteOS_Lab_STM32_IoT/iot_link/network/dtls/mbedtls/mbedtls-2.16.2/library\sha256.c ****     for( i = 16; i < 64; i += 8 )
 1157              		.loc 1 243 12
 1158 07b2 1023     		movs	r3, #16
 1159 07b4 C7F83431 		str	r3, [r7, #308]
 1160              		.loc 1 243 5
 1161 07b8 00F001BE 		b	.L21
 1162              	.L30:
 1163              		.align	2
 1164              	.L29:
 1165 07bc 00000000 		.word	K
 1166              	.L22:
 244:c:/Users/lenovo/Desktop/AIoT/first_day/firstday_afternoon/LiteOS_Lab_STM32_IoT/iot_link/network/dtls/mbedtls/mbedtls-2.16.2/library\sha256.c ****     {
 245:c:/Users/lenovo/Desktop/AIoT/first_day/firstday_afternoon/LiteOS_Lab_STM32_IoT/iot_link/network/dtls/mbedtls/mbedtls-2.16.2/library\sha256.c ****         P( A[0], A[1], A[2], A[3], A[4], A[5], A[6], A[7], R(i+0), K[i+0] );
 1167              		.loc 1 245 9 discriminator 3
 1168 07c0 07F10C03 		add	r3, r7, #12
 1169 07c4 DA69     		ldr	r2, [r3, #28]
 1170 07c6 07F10C03 		add	r3, r7, #12
 1171 07ca 1B69     		ldr	r3, [r3, #16]
 1172 07cc 4FEAB311 		ror	r1, r3, #6
 1173 07d0 07F10C03 		add	r3, r7, #12
 1174 07d4 1B69     		ldr	r3, [r3, #16]
 1175 07d6 4FEAF323 		ror	r3, r3, #11
 1176 07da 5940     		eors	r1, r1, r3
 1177 07dc 07F10C03 		add	r3, r7, #12
 1178 07e0 1B69     		ldr	r3, [r3, #16]
 1179 07e2 4FEA7363 		ror	r3, r3, #25
 1180 07e6 4B40     		eors	r3, r3, r1
 1181 07e8 1A44     		add	r2, r2, r3
 1182 07ea 07F10C03 		add	r3, r7, #12
 1183 07ee 9969     		ldr	r1, [r3, #24]
 1184 07f0 07F10C03 		add	r3, r7, #12
 1185 07f4 1869     		ldr	r0, [r3, #16]
 1186 07f6 07F10C03 		add	r3, r7, #12
ARM GAS  C:\Users\lenovo\AppData\Local\Temp\ccds4vwo.s 			page 26


 1187 07fa 5C69     		ldr	r4, [r3, #20]
 1188 07fc 07F10C03 		add	r3, r7, #12
 1189 0800 9B69     		ldr	r3, [r3, #24]
 1190 0802 6340     		eors	r3, r3, r4
 1191 0804 0340     		ands	r3, r3, r0
 1192 0806 4B40     		eors	r3, r3, r1
 1193 0808 1A44     		add	r2, r2, r3
 1194 080a E949     		ldr	r1, .L31
 1195 080c D7F83431 		ldr	r3, [r7, #308]
 1196 0810 51F82330 		ldr	r3, [r1, r3, lsl #2]
 1197 0814 1A44     		add	r2, r2, r3
 1198 0816 D7F83431 		ldr	r3, [r7, #308]
 1199 081a 991E     		subs	r1, r3, #2
 1200 081c 07F12C03 		add	r3, r7, #44
 1201 0820 53F82130 		ldr	r3, [r3, r1, lsl #2]
 1202 0824 4FEA7341 		ror	r1, r3, #17
 1203 0828 D7F83431 		ldr	r3, [r7, #308]
 1204 082c 981E     		subs	r0, r3, #2
 1205 082e 07F12C03 		add	r3, r7, #44
 1206 0832 53F82030 		ldr	r3, [r3, r0, lsl #2]
 1207 0836 4FEAF343 		ror	r3, r3, #19
 1208 083a 5940     		eors	r1, r1, r3
 1209 083c D7F83431 		ldr	r3, [r7, #308]
 1210 0840 981E     		subs	r0, r3, #2
 1211 0842 07F12C03 		add	r3, r7, #44
 1212 0846 53F82030 		ldr	r3, [r3, r0, lsl #2]
 1213 084a 9B0A     		lsrs	r3, r3, #10
 1214 084c 5940     		eors	r1, r1, r3
 1215 084e D7F83431 		ldr	r3, [r7, #308]
 1216 0852 D81F     		subs	r0, r3, #7
 1217 0854 07F12C03 		add	r3, r7, #44
 1218 0858 53F82030 		ldr	r3, [r3, r0, lsl #2]
 1219 085c 1944     		add	r1, r1, r3
 1220 085e D7F83431 		ldr	r3, [r7, #308]
 1221 0862 A3F10F00 		sub	r0, r3, #15
 1222 0866 07F12C03 		add	r3, r7, #44
 1223 086a 53F82030 		ldr	r3, [r3, r0, lsl #2]
 1224 086e 4FEAF310 		ror	r0, r3, #7
 1225 0872 D7F83431 		ldr	r3, [r7, #308]
 1226 0876 A3F10F04 		sub	r4, r3, #15
 1227 087a 07F12C03 		add	r3, r7, #44
 1228 087e 53F82430 		ldr	r3, [r3, r4, lsl #2]
 1229 0882 4FEAB343 		ror	r3, r3, #18
 1230 0886 5840     		eors	r0, r0, r3
 1231 0888 D7F83431 		ldr	r3, [r7, #308]
 1232 088c A3F10F04 		sub	r4, r3, #15
 1233 0890 07F12C03 		add	r3, r7, #44
 1234 0894 53F82430 		ldr	r3, [r3, r4, lsl #2]
 1235 0898 DB08     		lsrs	r3, r3, #3
 1236 089a 4340     		eors	r3, r3, r0
 1237 089c 1944     		add	r1, r1, r3
 1238 089e D7F83431 		ldr	r3, [r7, #308]
 1239 08a2 A3F11000 		sub	r0, r3, #16
 1240 08a6 07F12C03 		add	r3, r7, #44
 1241 08aa 53F82030 		ldr	r3, [r3, r0, lsl #2]
 1242 08ae C818     		adds	r0, r1, r3
 1243 08b0 07F12C03 		add	r3, r7, #44
ARM GAS  C:\Users\lenovo\AppData\Local\Temp\ccds4vwo.s 			page 27


 1244 08b4 D7F83411 		ldr	r1, [r7, #308]
 1245 08b8 43F82100 		str	r0, [r3, r1, lsl #2]
 1246 08bc 07F12C03 		add	r3, r7, #44
 1247 08c0 D7F83411 		ldr	r1, [r7, #308]
 1248 08c4 53F82130 		ldr	r3, [r3, r1, lsl #2]
 1249 08c8 1344     		add	r3, r3, r2
 1250 08ca C7F83031 		str	r3, [r7, #304]
 1251 08ce 07F10C03 		add	r3, r7, #12
 1252 08d2 1B68     		ldr	r3, [r3]
 1253 08d4 4FEAB302 		ror	r2, r3, #2
 1254 08d8 07F10C03 		add	r3, r7, #12
 1255 08dc 1B68     		ldr	r3, [r3]
 1256 08de 4FEA7333 		ror	r3, r3, #13
 1257 08e2 5A40     		eors	r2, r2, r3
 1258 08e4 07F10C03 		add	r3, r7, #12
 1259 08e8 1B68     		ldr	r3, [r3]
 1260 08ea 4FEAB353 		ror	r3, r3, #22
 1261 08ee 5A40     		eors	r2, r2, r3
 1262 08f0 07F10C03 		add	r3, r7, #12
 1263 08f4 1968     		ldr	r1, [r3]
 1264 08f6 07F10C03 		add	r3, r7, #12
 1265 08fa 5B68     		ldr	r3, [r3, #4]
 1266 08fc 1940     		ands	r1, r1, r3
 1267 08fe 07F10C03 		add	r3, r7, #12
 1268 0902 9868     		ldr	r0, [r3, #8]
 1269 0904 07F10C03 		add	r3, r7, #12
 1270 0908 1C68     		ldr	r4, [r3]
 1271 090a 07F10C03 		add	r3, r7, #12
 1272 090e 5B68     		ldr	r3, [r3, #4]
 1273 0910 2343     		orrs	r3, r3, r4
 1274 0912 0340     		ands	r3, r3, r0
 1275 0914 0B43     		orrs	r3, r3, r1
 1276 0916 1344     		add	r3, r3, r2
 1277 0918 C7F82C31 		str	r3, [r7, #300]
 1278 091c 07F10C03 		add	r3, r7, #12
 1279 0920 DA68     		ldr	r2, [r3, #12]
 1280 0922 D7F83031 		ldr	r3, [r7, #304]
 1281 0926 1A44     		add	r2, r2, r3
 1282 0928 07F10C03 		add	r3, r7, #12
 1283 092c DA60     		str	r2, [r3, #12]
 1284 092e D7F83021 		ldr	r2, [r7, #304]
 1285 0932 D7F82C31 		ldr	r3, [r7, #300]
 1286 0936 1A44     		add	r2, r2, r3
 1287 0938 07F10C03 		add	r3, r7, #12
 1288 093c DA61     		str	r2, [r3, #28]
 246:c:/Users/lenovo/Desktop/AIoT/first_day/firstday_afternoon/LiteOS_Lab_STM32_IoT/iot_link/network/dtls/mbedtls/mbedtls-2.16.2/library\sha256.c ****         P( A[7], A[0], A[1], A[2], A[3], A[4], A[5], A[6], R(i+1), K[i+1] );
 1289              		.loc 1 246 9 discriminator 3
 1290 093e 07F10C03 		add	r3, r7, #12
 1291 0942 9A69     		ldr	r2, [r3, #24]
 1292 0944 07F10C03 		add	r3, r7, #12
 1293 0948 DB68     		ldr	r3, [r3, #12]
 1294 094a 4FEAB311 		ror	r1, r3, #6
 1295 094e 07F10C03 		add	r3, r7, #12
 1296 0952 DB68     		ldr	r3, [r3, #12]
 1297 0954 4FEAF323 		ror	r3, r3, #11
 1298 0958 5940     		eors	r1, r1, r3
 1299 095a 07F10C03 		add	r3, r7, #12
ARM GAS  C:\Users\lenovo\AppData\Local\Temp\ccds4vwo.s 			page 28


 1300 095e DB68     		ldr	r3, [r3, #12]
 1301 0960 4FEA7363 		ror	r3, r3, #25
 1302 0964 4B40     		eors	r3, r3, r1
 1303 0966 1A44     		add	r2, r2, r3
 1304 0968 07F10C03 		add	r3, r7, #12
 1305 096c 5969     		ldr	r1, [r3, #20]
 1306 096e 07F10C03 		add	r3, r7, #12
 1307 0972 D868     		ldr	r0, [r3, #12]
 1308 0974 07F10C03 		add	r3, r7, #12
 1309 0978 1C69     		ldr	r4, [r3, #16]
 1310 097a 07F10C03 		add	r3, r7, #12
 1311 097e 5B69     		ldr	r3, [r3, #20]
 1312 0980 6340     		eors	r3, r3, r4
 1313 0982 0340     		ands	r3, r3, r0
 1314 0984 4B40     		eors	r3, r3, r1
 1315 0986 1A44     		add	r2, r2, r3
 1316 0988 D7F83431 		ldr	r3, [r7, #308]
 1317 098c 0133     		adds	r3, r3, #1
 1318 098e 8849     		ldr	r1, .L31
 1319 0990 51F82330 		ldr	r3, [r1, r3, lsl #2]
 1320 0994 1A44     		add	r2, r2, r3
 1321 0996 D7F83431 		ldr	r3, [r7, #308]
 1322 099a 591E     		subs	r1, r3, #1
 1323 099c 07F12C03 		add	r3, r7, #44
 1324 09a0 53F82130 		ldr	r3, [r3, r1, lsl #2]
 1325 09a4 4FEA7341 		ror	r1, r3, #17
 1326 09a8 D7F83431 		ldr	r3, [r7, #308]
 1327 09ac 581E     		subs	r0, r3, #1
 1328 09ae 07F12C03 		add	r3, r7, #44
 1329 09b2 53F82030 		ldr	r3, [r3, r0, lsl #2]
 1330 09b6 4FEAF343 		ror	r3, r3, #19
 1331 09ba 5940     		eors	r1, r1, r3
 1332 09bc D7F83431 		ldr	r3, [r7, #308]
 1333 09c0 581E     		subs	r0, r3, #1
 1334 09c2 07F12C03 		add	r3, r7, #44
 1335 09c6 53F82030 		ldr	r3, [r3, r0, lsl #2]
 1336 09ca 9B0A     		lsrs	r3, r3, #10
 1337 09cc 5940     		eors	r1, r1, r3
 1338 09ce D7F83431 		ldr	r3, [r7, #308]
 1339 09d2 981F     		subs	r0, r3, #6
 1340 09d4 07F12C03 		add	r3, r7, #44
 1341 09d8 53F82030 		ldr	r3, [r3, r0, lsl #2]
 1342 09dc 1944     		add	r1, r1, r3
 1343 09de D7F83431 		ldr	r3, [r7, #308]
 1344 09e2 A3F10E00 		sub	r0, r3, #14
 1345 09e6 07F12C03 		add	r3, r7, #44
 1346 09ea 53F82030 		ldr	r3, [r3, r0, lsl #2]
 1347 09ee 4FEAF310 		ror	r0, r3, #7
 1348 09f2 D7F83431 		ldr	r3, [r7, #308]
 1349 09f6 A3F10E04 		sub	r4, r3, #14
 1350 09fa 07F12C03 		add	r3, r7, #44
 1351 09fe 53F82430 		ldr	r3, [r3, r4, lsl #2]
 1352 0a02 4FEAB343 		ror	r3, r3, #18
 1353 0a06 5840     		eors	r0, r0, r3
 1354 0a08 D7F83431 		ldr	r3, [r7, #308]
 1355 0a0c A3F10E04 		sub	r4, r3, #14
 1356 0a10 07F12C03 		add	r3, r7, #44
ARM GAS  C:\Users\lenovo\AppData\Local\Temp\ccds4vwo.s 			page 29


 1357 0a14 53F82430 		ldr	r3, [r3, r4, lsl #2]
 1358 0a18 DB08     		lsrs	r3, r3, #3
 1359 0a1a 4340     		eors	r3, r3, r0
 1360 0a1c C818     		adds	r0, r1, r3
 1361 0a1e D7F83431 		ldr	r3, [r7, #308]
 1362 0a22 A3F10F01 		sub	r1, r3, #15
 1363 0a26 07F12C03 		add	r3, r7, #44
 1364 0a2a 53F82110 		ldr	r1, [r3, r1, lsl #2]
 1365 0a2e D7F83431 		ldr	r3, [r7, #308]
 1366 0a32 0133     		adds	r3, r3, #1
 1367 0a34 0844     		add	r0, r0, r1
 1368 0a36 07F12C01 		add	r1, r7, #44
 1369 0a3a 41F82300 		str	r0, [r1, r3, lsl #2]
 1370 0a3e 07F12C01 		add	r1, r7, #44
 1371 0a42 51F82330 		ldr	r3, [r1, r3, lsl #2]
 1372 0a46 1344     		add	r3, r3, r2
 1373 0a48 C7F83031 		str	r3, [r7, #304]
 1374 0a4c 07F10C03 		add	r3, r7, #12
 1375 0a50 DB69     		ldr	r3, [r3, #28]
 1376 0a52 4FEAB302 		ror	r2, r3, #2
 1377 0a56 07F10C03 		add	r3, r7, #12
 1378 0a5a DB69     		ldr	r3, [r3, #28]
 1379 0a5c 4FEA7333 		ror	r3, r3, #13
 1380 0a60 5A40     		eors	r2, r2, r3
 1381 0a62 07F10C03 		add	r3, r7, #12
 1382 0a66 DB69     		ldr	r3, [r3, #28]
 1383 0a68 4FEAB353 		ror	r3, r3, #22
 1384 0a6c 5A40     		eors	r2, r2, r3
 1385 0a6e 07F10C03 		add	r3, r7, #12
 1386 0a72 D969     		ldr	r1, [r3, #28]
 1387 0a74 07F10C03 		add	r3, r7, #12
 1388 0a78 1B68     		ldr	r3, [r3]
 1389 0a7a 1940     		ands	r1, r1, r3
 1390 0a7c 07F10C03 		add	r3, r7, #12
 1391 0a80 5868     		ldr	r0, [r3, #4]
 1392 0a82 07F10C03 		add	r3, r7, #12
 1393 0a86 DC69     		ldr	r4, [r3, #28]
 1394 0a88 07F10C03 		add	r3, r7, #12
 1395 0a8c 1B68     		ldr	r3, [r3]
 1396 0a8e 2343     		orrs	r3, r3, r4
 1397 0a90 0340     		ands	r3, r3, r0
 1398 0a92 0B43     		orrs	r3, r3, r1
 1399 0a94 1344     		add	r3, r3, r2
 1400 0a96 C7F82C31 		str	r3, [r7, #300]
 1401 0a9a 07F10C03 		add	r3, r7, #12
 1402 0a9e 9A68     		ldr	r2, [r3, #8]
 1403 0aa0 D7F83031 		ldr	r3, [r7, #304]
 1404 0aa4 1A44     		add	r2, r2, r3
 1405 0aa6 07F10C03 		add	r3, r7, #12
 1406 0aaa 9A60     		str	r2, [r3, #8]
 1407 0aac D7F83021 		ldr	r2, [r7, #304]
 1408 0ab0 D7F82C31 		ldr	r3, [r7, #300]
 1409 0ab4 1A44     		add	r2, r2, r3
 1410 0ab6 07F10C03 		add	r3, r7, #12
 1411 0aba 9A61     		str	r2, [r3, #24]
 247:c:/Users/lenovo/Desktop/AIoT/first_day/firstday_afternoon/LiteOS_Lab_STM32_IoT/iot_link/network/dtls/mbedtls/mbedtls-2.16.2/library\sha256.c ****         P( A[6], A[7], A[0], A[1], A[2], A[3], A[4], A[5], R(i+2), K[i+2] );
 1412              		.loc 1 247 9 discriminator 3
ARM GAS  C:\Users\lenovo\AppData\Local\Temp\ccds4vwo.s 			page 30


 1413 0abc 07F10C03 		add	r3, r7, #12
 1414 0ac0 5A69     		ldr	r2, [r3, #20]
 1415 0ac2 07F10C03 		add	r3, r7, #12
 1416 0ac6 9B68     		ldr	r3, [r3, #8]
 1417 0ac8 4FEAB311 		ror	r1, r3, #6
 1418 0acc 07F10C03 		add	r3, r7, #12
 1419 0ad0 9B68     		ldr	r3, [r3, #8]
 1420 0ad2 4FEAF323 		ror	r3, r3, #11
 1421 0ad6 5940     		eors	r1, r1, r3
 1422 0ad8 07F10C03 		add	r3, r7, #12
 1423 0adc 9B68     		ldr	r3, [r3, #8]
 1424 0ade 4FEA7363 		ror	r3, r3, #25
 1425 0ae2 4B40     		eors	r3, r3, r1
 1426 0ae4 1A44     		add	r2, r2, r3
 1427 0ae6 07F10C03 		add	r3, r7, #12
 1428 0aea 1969     		ldr	r1, [r3, #16]
 1429 0aec 07F10C03 		add	r3, r7, #12
 1430 0af0 9868     		ldr	r0, [r3, #8]
 1431 0af2 07F10C03 		add	r3, r7, #12
 1432 0af6 DC68     		ldr	r4, [r3, #12]
 1433 0af8 07F10C03 		add	r3, r7, #12
 1434 0afc 1B69     		ldr	r3, [r3, #16]
 1435 0afe 6340     		eors	r3, r3, r4
 1436 0b00 0340     		ands	r3, r3, r0
 1437 0b02 4B40     		eors	r3, r3, r1
 1438 0b04 1A44     		add	r2, r2, r3
 1439 0b06 D7F83431 		ldr	r3, [r7, #308]
 1440 0b0a 0233     		adds	r3, r3, #2
 1441 0b0c 2849     		ldr	r1, .L31
 1442 0b0e 51F82330 		ldr	r3, [r1, r3, lsl #2]
 1443 0b12 1A44     		add	r2, r2, r3
 1444 0b14 07F12C03 		add	r3, r7, #44
 1445 0b18 D7F83411 		ldr	r1, [r7, #308]
 1446 0b1c 53F82130 		ldr	r3, [r3, r1, lsl #2]
 1447 0b20 4FEA7341 		ror	r1, r3, #17
 1448 0b24 07F12C03 		add	r3, r7, #44
 1449 0b28 D7F83401 		ldr	r0, [r7, #308]
 1450 0b2c 53F82030 		ldr	r3, [r3, r0, lsl #2]
 1451 0b30 4FEAF343 		ror	r3, r3, #19
 1452 0b34 5940     		eors	r1, r1, r3
 1453 0b36 07F12C03 		add	r3, r7, #44
 1454 0b3a D7F83401 		ldr	r0, [r7, #308]
 1455 0b3e 53F82030 		ldr	r3, [r3, r0, lsl #2]
 1456 0b42 9B0A     		lsrs	r3, r3, #10
 1457 0b44 5940     		eors	r1, r1, r3
 1458 0b46 D7F83431 		ldr	r3, [r7, #308]
 1459 0b4a 581F     		subs	r0, r3, #5
 1460 0b4c 07F12C03 		add	r3, r7, #44
 1461 0b50 53F82030 		ldr	r3, [r3, r0, lsl #2]
 1462 0b54 1944     		add	r1, r1, r3
 1463 0b56 D7F83431 		ldr	r3, [r7, #308]
 1464 0b5a A3F10D00 		sub	r0, r3, #13
 1465 0b5e 07F12C03 		add	r3, r7, #44
 1466 0b62 53F82030 		ldr	r3, [r3, r0, lsl #2]
 1467 0b66 4FEAF310 		ror	r0, r3, #7
 1468 0b6a D7F83431 		ldr	r3, [r7, #308]
 1469 0b6e A3F10D04 		sub	r4, r3, #13
ARM GAS  C:\Users\lenovo\AppData\Local\Temp\ccds4vwo.s 			page 31


 1470 0b72 07F12C03 		add	r3, r7, #44
 1471 0b76 53F82430 		ldr	r3, [r3, r4, lsl #2]
 1472 0b7a 4FEAB343 		ror	r3, r3, #18
 1473 0b7e 5840     		eors	r0, r0, r3
 1474 0b80 D7F83431 		ldr	r3, [r7, #308]
 1475 0b84 A3F10D04 		sub	r4, r3, #13
 1476 0b88 07F12C03 		add	r3, r7, #44
 1477 0b8c 53F82430 		ldr	r3, [r3, r4, lsl #2]
 1478 0b90 DB08     		lsrs	r3, r3, #3
 1479 0b92 4340     		eors	r3, r3, r0
 1480 0b94 C818     		adds	r0, r1, r3
 1481 0b96 D7F83431 		ldr	r3, [r7, #308]
 1482 0b9a A3F10E01 		sub	r1, r3, #14
 1483 0b9e 07F12C03 		add	r3, r7, #44
 1484 0ba2 53F82110 		ldr	r1, [r3, r1, lsl #2]
 1485 0ba6 D7F83431 		ldr	r3, [r7, #308]
 1486 0baa 0233     		adds	r3, r3, #2
 1487 0bac 0844     		add	r0, r0, r1
 1488 0bae 01E0     		b	.L32
 1489              	.L33:
 1490              		.align	2
 1491              	.L31:
 1492 0bb0 00000000 		.word	K
 1493              	.L32:
 1494 0bb4 07F12C01 		add	r1, r7, #44
 1495 0bb8 41F82300 		str	r0, [r1, r3, lsl #2]
 1496 0bbc 07F12C01 		add	r1, r7, #44
 1497 0bc0 51F82330 		ldr	r3, [r1, r3, lsl #2]
 1498 0bc4 1344     		add	r3, r3, r2
 1499 0bc6 C7F83031 		str	r3, [r7, #304]
 1500 0bca 07F10C03 		add	r3, r7, #12
 1501 0bce 9B69     		ldr	r3, [r3, #24]
 1502 0bd0 4FEAB302 		ror	r2, r3, #2
 1503 0bd4 07F10C03 		add	r3, r7, #12
 1504 0bd8 9B69     		ldr	r3, [r3, #24]
 1505 0bda 4FEA7333 		ror	r3, r3, #13
 1506 0bde 5A40     		eors	r2, r2, r3
 1507 0be0 07F10C03 		add	r3, r7, #12
 1508 0be4 9B69     		ldr	r3, [r3, #24]
 1509 0be6 4FEAB353 		ror	r3, r3, #22
 1510 0bea 5A40     		eors	r2, r2, r3
 1511 0bec 07F10C03 		add	r3, r7, #12
 1512 0bf0 9969     		ldr	r1, [r3, #24]
 1513 0bf2 07F10C03 		add	r3, r7, #12
 1514 0bf6 DB69     		ldr	r3, [r3, #28]
 1515 0bf8 1940     		ands	r1, r1, r3
 1516 0bfa 07F10C03 		add	r3, r7, #12
 1517 0bfe 1868     		ldr	r0, [r3]
 1518 0c00 07F10C03 		add	r3, r7, #12
 1519 0c04 9C69     		ldr	r4, [r3, #24]
 1520 0c06 07F10C03 		add	r3, r7, #12
 1521 0c0a DB69     		ldr	r3, [r3, #28]
 1522 0c0c 2343     		orrs	r3, r3, r4
 1523 0c0e 0340     		ands	r3, r3, r0
 1524 0c10 0B43     		orrs	r3, r3, r1
 1525 0c12 1344     		add	r3, r3, r2
 1526 0c14 C7F82C31 		str	r3, [r7, #300]
ARM GAS  C:\Users\lenovo\AppData\Local\Temp\ccds4vwo.s 			page 32


 1527 0c18 07F10C03 		add	r3, r7, #12
 1528 0c1c 5A68     		ldr	r2, [r3, #4]
 1529 0c1e D7F83031 		ldr	r3, [r7, #304]
 1530 0c22 1A44     		add	r2, r2, r3
 1531 0c24 07F10C03 		add	r3, r7, #12
 1532 0c28 5A60     		str	r2, [r3, #4]
 1533 0c2a D7F83021 		ldr	r2, [r7, #304]
 1534 0c2e D7F82C31 		ldr	r3, [r7, #300]
 1535 0c32 1A44     		add	r2, r2, r3
 1536 0c34 07F10C03 		add	r3, r7, #12
 1537 0c38 5A61     		str	r2, [r3, #20]
 248:c:/Users/lenovo/Desktop/AIoT/first_day/firstday_afternoon/LiteOS_Lab_STM32_IoT/iot_link/network/dtls/mbedtls/mbedtls-2.16.2/library\sha256.c ****         P( A[5], A[6], A[7], A[0], A[1], A[2], A[3], A[4], R(i+3), K[i+3] );
 1538              		.loc 1 248 9 discriminator 3
 1539 0c3a 07F10C03 		add	r3, r7, #12
 1540 0c3e 1A69     		ldr	r2, [r3, #16]
 1541 0c40 07F10C03 		add	r3, r7, #12
 1542 0c44 5B68     		ldr	r3, [r3, #4]
 1543 0c46 4FEAB311 		ror	r1, r3, #6
 1544 0c4a 07F10C03 		add	r3, r7, #12
 1545 0c4e 5B68     		ldr	r3, [r3, #4]
 1546 0c50 4FEAF323 		ror	r3, r3, #11
 1547 0c54 5940     		eors	r1, r1, r3
 1548 0c56 07F10C03 		add	r3, r7, #12
 1549 0c5a 5B68     		ldr	r3, [r3, #4]
 1550 0c5c 4FEA7363 		ror	r3, r3, #25
 1551 0c60 4B40     		eors	r3, r3, r1
 1552 0c62 1A44     		add	r2, r2, r3
 1553 0c64 07F10C03 		add	r3, r7, #12
 1554 0c68 D968     		ldr	r1, [r3, #12]
 1555 0c6a 07F10C03 		add	r3, r7, #12
 1556 0c6e 5868     		ldr	r0, [r3, #4]
 1557 0c70 07F10C03 		add	r3, r7, #12
 1558 0c74 9C68     		ldr	r4, [r3, #8]
 1559 0c76 07F10C03 		add	r3, r7, #12
 1560 0c7a DB68     		ldr	r3, [r3, #12]
 1561 0c7c 6340     		eors	r3, r3, r4
 1562 0c7e 0340     		ands	r3, r3, r0
 1563 0c80 4B40     		eors	r3, r3, r1
 1564 0c82 1A44     		add	r2, r2, r3
 1565 0c84 D7F83431 		ldr	r3, [r7, #308]
 1566 0c88 0333     		adds	r3, r3, #3
 1567 0c8a E949     		ldr	r1, .L34
 1568 0c8c 51F82330 		ldr	r3, [r1, r3, lsl #2]
 1569 0c90 1A44     		add	r2, r2, r3
 1570 0c92 D7F83431 		ldr	r3, [r7, #308]
 1571 0c96 591C     		adds	r1, r3, #1
 1572 0c98 07F12C03 		add	r3, r7, #44
 1573 0c9c 53F82130 		ldr	r3, [r3, r1, lsl #2]
 1574 0ca0 4FEA7341 		ror	r1, r3, #17
 1575 0ca4 D7F83431 		ldr	r3, [r7, #308]
 1576 0ca8 581C     		adds	r0, r3, #1
 1577 0caa 07F12C03 		add	r3, r7, #44
 1578 0cae 53F82030 		ldr	r3, [r3, r0, lsl #2]
 1579 0cb2 4FEAF343 		ror	r3, r3, #19
 1580 0cb6 5940     		eors	r1, r1, r3
 1581 0cb8 D7F83431 		ldr	r3, [r7, #308]
 1582 0cbc 581C     		adds	r0, r3, #1
ARM GAS  C:\Users\lenovo\AppData\Local\Temp\ccds4vwo.s 			page 33


 1583 0cbe 07F12C03 		add	r3, r7, #44
 1584 0cc2 53F82030 		ldr	r3, [r3, r0, lsl #2]
 1585 0cc6 9B0A     		lsrs	r3, r3, #10
 1586 0cc8 5940     		eors	r1, r1, r3
 1587 0cca D7F83431 		ldr	r3, [r7, #308]
 1588 0cce 181F     		subs	r0, r3, #4
 1589 0cd0 07F12C03 		add	r3, r7, #44
 1590 0cd4 53F82030 		ldr	r3, [r3, r0, lsl #2]
 1591 0cd8 1944     		add	r1, r1, r3
 1592 0cda D7F83431 		ldr	r3, [r7, #308]
 1593 0cde A3F10C00 		sub	r0, r3, #12
 1594 0ce2 07F12C03 		add	r3, r7, #44
 1595 0ce6 53F82030 		ldr	r3, [r3, r0, lsl #2]
 1596 0cea 4FEAF310 		ror	r0, r3, #7
 1597 0cee D7F83431 		ldr	r3, [r7, #308]
 1598 0cf2 A3F10C04 		sub	r4, r3, #12
 1599 0cf6 07F12C03 		add	r3, r7, #44
 1600 0cfa 53F82430 		ldr	r3, [r3, r4, lsl #2]
 1601 0cfe 4FEAB343 		ror	r3, r3, #18
 1602 0d02 5840     		eors	r0, r0, r3
 1603 0d04 D7F83431 		ldr	r3, [r7, #308]
 1604 0d08 A3F10C04 		sub	r4, r3, #12
 1605 0d0c 07F12C03 		add	r3, r7, #44
 1606 0d10 53F82430 		ldr	r3, [r3, r4, lsl #2]
 1607 0d14 DB08     		lsrs	r3, r3, #3
 1608 0d16 4340     		eors	r3, r3, r0
 1609 0d18 C818     		adds	r0, r1, r3
 1610 0d1a D7F83431 		ldr	r3, [r7, #308]
 1611 0d1e A3F10D01 		sub	r1, r3, #13
 1612 0d22 07F12C03 		add	r3, r7, #44
 1613 0d26 53F82110 		ldr	r1, [r3, r1, lsl #2]
 1614 0d2a D7F83431 		ldr	r3, [r7, #308]
 1615 0d2e 0333     		adds	r3, r3, #3
 1616 0d30 0844     		add	r0, r0, r1
 1617 0d32 07F12C01 		add	r1, r7, #44
 1618 0d36 41F82300 		str	r0, [r1, r3, lsl #2]
 1619 0d3a 07F12C01 		add	r1, r7, #44
 1620 0d3e 51F82330 		ldr	r3, [r1, r3, lsl #2]
 1621 0d42 1344     		add	r3, r3, r2
 1622 0d44 C7F83031 		str	r3, [r7, #304]
 1623 0d48 07F10C03 		add	r3, r7, #12
 1624 0d4c 5B69     		ldr	r3, [r3, #20]
 1625 0d4e 4FEAB302 		ror	r2, r3, #2
 1626 0d52 07F10C03 		add	r3, r7, #12
 1627 0d56 5B69     		ldr	r3, [r3, #20]
 1628 0d58 4FEA7333 		ror	r3, r3, #13
 1629 0d5c 5A40     		eors	r2, r2, r3
 1630 0d5e 07F10C03 		add	r3, r7, #12
 1631 0d62 5B69     		ldr	r3, [r3, #20]
 1632 0d64 4FEAB353 		ror	r3, r3, #22
 1633 0d68 5A40     		eors	r2, r2, r3
 1634 0d6a 07F10C03 		add	r3, r7, #12
 1635 0d6e 5969     		ldr	r1, [r3, #20]
 1636 0d70 07F10C03 		add	r3, r7, #12
 1637 0d74 9B69     		ldr	r3, [r3, #24]
 1638 0d76 1940     		ands	r1, r1, r3
 1639 0d78 07F10C03 		add	r3, r7, #12
ARM GAS  C:\Users\lenovo\AppData\Local\Temp\ccds4vwo.s 			page 34


 1640 0d7c D869     		ldr	r0, [r3, #28]
 1641 0d7e 07F10C03 		add	r3, r7, #12
 1642 0d82 5C69     		ldr	r4, [r3, #20]
 1643 0d84 07F10C03 		add	r3, r7, #12
 1644 0d88 9B69     		ldr	r3, [r3, #24]
 1645 0d8a 2343     		orrs	r3, r3, r4
 1646 0d8c 0340     		ands	r3, r3, r0
 1647 0d8e 0B43     		orrs	r3, r3, r1
 1648 0d90 1344     		add	r3, r3, r2
 1649 0d92 C7F82C31 		str	r3, [r7, #300]
 1650 0d96 07F10C03 		add	r3, r7, #12
 1651 0d9a 1A68     		ldr	r2, [r3]
 1652 0d9c D7F83031 		ldr	r3, [r7, #304]
 1653 0da0 1A44     		add	r2, r2, r3
 1654 0da2 07F10C03 		add	r3, r7, #12
 1655 0da6 1A60     		str	r2, [r3]
 1656 0da8 D7F83021 		ldr	r2, [r7, #304]
 1657 0dac D7F82C31 		ldr	r3, [r7, #300]
 1658 0db0 1A44     		add	r2, r2, r3
 1659 0db2 07F10C03 		add	r3, r7, #12
 1660 0db6 1A61     		str	r2, [r3, #16]
 249:c:/Users/lenovo/Desktop/AIoT/first_day/firstday_afternoon/LiteOS_Lab_STM32_IoT/iot_link/network/dtls/mbedtls/mbedtls-2.16.2/library\sha256.c ****         P( A[4], A[5], A[6], A[7], A[0], A[1], A[2], A[3], R(i+4), K[i+4] );
 1661              		.loc 1 249 9 discriminator 3
 1662 0db8 07F10C03 		add	r3, r7, #12
 1663 0dbc DA68     		ldr	r2, [r3, #12]
 1664 0dbe 07F10C03 		add	r3, r7, #12
 1665 0dc2 1B68     		ldr	r3, [r3]
 1666 0dc4 4FEAB311 		ror	r1, r3, #6
 1667 0dc8 07F10C03 		add	r3, r7, #12
 1668 0dcc 1B68     		ldr	r3, [r3]
 1669 0dce 4FEAF323 		ror	r3, r3, #11
 1670 0dd2 5940     		eors	r1, r1, r3
 1671 0dd4 07F10C03 		add	r3, r7, #12
 1672 0dd8 1B68     		ldr	r3, [r3]
 1673 0dda 4FEA7363 		ror	r3, r3, #25
 1674 0dde 4B40     		eors	r3, r3, r1
 1675 0de0 1A44     		add	r2, r2, r3
 1676 0de2 07F10C03 		add	r3, r7, #12
 1677 0de6 9968     		ldr	r1, [r3, #8]
 1678 0de8 07F10C03 		add	r3, r7, #12
 1679 0dec 1868     		ldr	r0, [r3]
 1680 0dee 07F10C03 		add	r3, r7, #12
 1681 0df2 5C68     		ldr	r4, [r3, #4]
 1682 0df4 07F10C03 		add	r3, r7, #12
 1683 0df8 9B68     		ldr	r3, [r3, #8]
 1684 0dfa 6340     		eors	r3, r3, r4
 1685 0dfc 0340     		ands	r3, r3, r0
 1686 0dfe 4B40     		eors	r3, r3, r1
 1687 0e00 1A44     		add	r2, r2, r3
 1688 0e02 D7F83431 		ldr	r3, [r7, #308]
 1689 0e06 0433     		adds	r3, r3, #4
 1690 0e08 8949     		ldr	r1, .L34
 1691 0e0a 51F82330 		ldr	r3, [r1, r3, lsl #2]
 1692 0e0e 1A44     		add	r2, r2, r3
 1693 0e10 D7F83431 		ldr	r3, [r7, #308]
 1694 0e14 991C     		adds	r1, r3, #2
 1695 0e16 07F12C03 		add	r3, r7, #44
ARM GAS  C:\Users\lenovo\AppData\Local\Temp\ccds4vwo.s 			page 35


 1696 0e1a 53F82130 		ldr	r3, [r3, r1, lsl #2]
 1697 0e1e 4FEA7341 		ror	r1, r3, #17
 1698 0e22 D7F83431 		ldr	r3, [r7, #308]
 1699 0e26 981C     		adds	r0, r3, #2
 1700 0e28 07F12C03 		add	r3, r7, #44
 1701 0e2c 53F82030 		ldr	r3, [r3, r0, lsl #2]
 1702 0e30 4FEAF343 		ror	r3, r3, #19
 1703 0e34 5940     		eors	r1, r1, r3
 1704 0e36 D7F83431 		ldr	r3, [r7, #308]
 1705 0e3a 981C     		adds	r0, r3, #2
 1706 0e3c 07F12C03 		add	r3, r7, #44
 1707 0e40 53F82030 		ldr	r3, [r3, r0, lsl #2]
 1708 0e44 9B0A     		lsrs	r3, r3, #10
 1709 0e46 5940     		eors	r1, r1, r3
 1710 0e48 D7F83431 		ldr	r3, [r7, #308]
 1711 0e4c D81E     		subs	r0, r3, #3
 1712 0e4e 07F12C03 		add	r3, r7, #44
 1713 0e52 53F82030 		ldr	r3, [r3, r0, lsl #2]
 1714 0e56 1944     		add	r1, r1, r3
 1715 0e58 D7F83431 		ldr	r3, [r7, #308]
 1716 0e5c A3F10B00 		sub	r0, r3, #11
 1717 0e60 07F12C03 		add	r3, r7, #44
 1718 0e64 53F82030 		ldr	r3, [r3, r0, lsl #2]
 1719 0e68 4FEAF310 		ror	r0, r3, #7
 1720 0e6c D7F83431 		ldr	r3, [r7, #308]
 1721 0e70 A3F10B04 		sub	r4, r3, #11
 1722 0e74 07F12C03 		add	r3, r7, #44
 1723 0e78 53F82430 		ldr	r3, [r3, r4, lsl #2]
 1724 0e7c 4FEAB343 		ror	r3, r3, #18
 1725 0e80 5840     		eors	r0, r0, r3
 1726 0e82 D7F83431 		ldr	r3, [r7, #308]
 1727 0e86 A3F10B04 		sub	r4, r3, #11
 1728 0e8a 07F12C03 		add	r3, r7, #44
 1729 0e8e 53F82430 		ldr	r3, [r3, r4, lsl #2]
 1730 0e92 DB08     		lsrs	r3, r3, #3
 1731 0e94 4340     		eors	r3, r3, r0
 1732 0e96 C818     		adds	r0, r1, r3
 1733 0e98 D7F83431 		ldr	r3, [r7, #308]
 1734 0e9c A3F10C01 		sub	r1, r3, #12
 1735 0ea0 07F12C03 		add	r3, r7, #44
 1736 0ea4 53F82110 		ldr	r1, [r3, r1, lsl #2]
 1737 0ea8 D7F83431 		ldr	r3, [r7, #308]
 1738 0eac 0433     		adds	r3, r3, #4
 1739 0eae 0844     		add	r0, r0, r1
 1740 0eb0 07F12C01 		add	r1, r7, #44
 1741 0eb4 41F82300 		str	r0, [r1, r3, lsl #2]
 1742 0eb8 07F12C01 		add	r1, r7, #44
 1743 0ebc 51F82330 		ldr	r3, [r1, r3, lsl #2]
 1744 0ec0 1344     		add	r3, r3, r2
 1745 0ec2 C7F83031 		str	r3, [r7, #304]
 1746 0ec6 07F10C03 		add	r3, r7, #12
 1747 0eca 1B69     		ldr	r3, [r3, #16]
 1748 0ecc 4FEAB302 		ror	r2, r3, #2
 1749 0ed0 07F10C03 		add	r3, r7, #12
 1750 0ed4 1B69     		ldr	r3, [r3, #16]
 1751 0ed6 4FEA7333 		ror	r3, r3, #13
 1752 0eda 5A40     		eors	r2, r2, r3
ARM GAS  C:\Users\lenovo\AppData\Local\Temp\ccds4vwo.s 			page 36


 1753 0edc 07F10C03 		add	r3, r7, #12
 1754 0ee0 1B69     		ldr	r3, [r3, #16]
 1755 0ee2 4FEAB353 		ror	r3, r3, #22
 1756 0ee6 5A40     		eors	r2, r2, r3
 1757 0ee8 07F10C03 		add	r3, r7, #12
 1758 0eec 1969     		ldr	r1, [r3, #16]
 1759 0eee 07F10C03 		add	r3, r7, #12
 1760 0ef2 5B69     		ldr	r3, [r3, #20]
 1761 0ef4 1940     		ands	r1, r1, r3
 1762 0ef6 07F10C03 		add	r3, r7, #12
 1763 0efa 9869     		ldr	r0, [r3, #24]
 1764 0efc 07F10C03 		add	r3, r7, #12
 1765 0f00 1C69     		ldr	r4, [r3, #16]
 1766 0f02 07F10C03 		add	r3, r7, #12
 1767 0f06 5B69     		ldr	r3, [r3, #20]
 1768 0f08 2343     		orrs	r3, r3, r4
 1769 0f0a 0340     		ands	r3, r3, r0
 1770 0f0c 0B43     		orrs	r3, r3, r1
 1771 0f0e 1344     		add	r3, r3, r2
 1772 0f10 C7F82C31 		str	r3, [r7, #300]
 1773 0f14 07F10C03 		add	r3, r7, #12
 1774 0f18 DA69     		ldr	r2, [r3, #28]
 1775 0f1a D7F83031 		ldr	r3, [r7, #304]
 1776 0f1e 1A44     		add	r2, r2, r3
 1777 0f20 07F10C03 		add	r3, r7, #12
 1778 0f24 DA61     		str	r2, [r3, #28]
 1779 0f26 D7F83021 		ldr	r2, [r7, #304]
 1780 0f2a D7F82C31 		ldr	r3, [r7, #300]
 1781 0f2e 1A44     		add	r2, r2, r3
 1782 0f30 07F10C03 		add	r3, r7, #12
 1783 0f34 DA60     		str	r2, [r3, #12]
 250:c:/Users/lenovo/Desktop/AIoT/first_day/firstday_afternoon/LiteOS_Lab_STM32_IoT/iot_link/network/dtls/mbedtls/mbedtls-2.16.2/library\sha256.c ****         P( A[3], A[4], A[5], A[6], A[7], A[0], A[1], A[2], R(i+5), K[i+5] );
 1784              		.loc 1 250 9 discriminator 3
 1785 0f36 07F10C03 		add	r3, r7, #12
 1786 0f3a 9A68     		ldr	r2, [r3, #8]
 1787 0f3c 07F10C03 		add	r3, r7, #12
 1788 0f40 DB69     		ldr	r3, [r3, #28]
 1789 0f42 4FEAB311 		ror	r1, r3, #6
 1790 0f46 07F10C03 		add	r3, r7, #12
 1791 0f4a DB69     		ldr	r3, [r3, #28]
 1792 0f4c 4FEAF323 		ror	r3, r3, #11
 1793 0f50 5940     		eors	r1, r1, r3
 1794 0f52 07F10C03 		add	r3, r7, #12
 1795 0f56 DB69     		ldr	r3, [r3, #28]
 1796 0f58 4FEA7363 		ror	r3, r3, #25
 1797 0f5c 4B40     		eors	r3, r3, r1
 1798 0f5e 1A44     		add	r2, r2, r3
 1799 0f60 07F10C03 		add	r3, r7, #12
 1800 0f64 5968     		ldr	r1, [r3, #4]
 1801 0f66 07F10C03 		add	r3, r7, #12
 1802 0f6a D869     		ldr	r0, [r3, #28]
 1803 0f6c 07F10C03 		add	r3, r7, #12
 1804 0f70 1C68     		ldr	r4, [r3]
 1805 0f72 07F10C03 		add	r3, r7, #12
 1806 0f76 5B68     		ldr	r3, [r3, #4]
 1807 0f78 6340     		eors	r3, r3, r4
 1808 0f7a 0340     		ands	r3, r3, r0
ARM GAS  C:\Users\lenovo\AppData\Local\Temp\ccds4vwo.s 			page 37


 1809 0f7c 4B40     		eors	r3, r3, r1
 1810 0f7e 1A44     		add	r2, r2, r3
 1811 0f80 D7F83431 		ldr	r3, [r7, #308]
 1812 0f84 0533     		adds	r3, r3, #5
 1813 0f86 2A49     		ldr	r1, .L34
 1814 0f88 51F82330 		ldr	r3, [r1, r3, lsl #2]
 1815 0f8c 1A44     		add	r2, r2, r3
 1816 0f8e D7F83431 		ldr	r3, [r7, #308]
 1817 0f92 D91C     		adds	r1, r3, #3
 1818 0f94 07F12C03 		add	r3, r7, #44
 1819 0f98 53F82130 		ldr	r3, [r3, r1, lsl #2]
 1820 0f9c 4FEA7341 		ror	r1, r3, #17
 1821 0fa0 D7F83431 		ldr	r3, [r7, #308]
 1822 0fa4 D81C     		adds	r0, r3, #3
 1823 0fa6 07F12C03 		add	r3, r7, #44
 1824 0faa 53F82030 		ldr	r3, [r3, r0, lsl #2]
 1825 0fae 4FEAF343 		ror	r3, r3, #19
 1826 0fb2 5940     		eors	r1, r1, r3
 1827 0fb4 D7F83431 		ldr	r3, [r7, #308]
 1828 0fb8 D81C     		adds	r0, r3, #3
 1829 0fba 07F12C03 		add	r3, r7, #44
 1830 0fbe 53F82030 		ldr	r3, [r3, r0, lsl #2]
 1831 0fc2 9B0A     		lsrs	r3, r3, #10
 1832 0fc4 5940     		eors	r1, r1, r3
 1833 0fc6 D7F83431 		ldr	r3, [r7, #308]
 1834 0fca 981E     		subs	r0, r3, #2
 1835 0fcc 07F12C03 		add	r3, r7, #44
 1836 0fd0 53F82030 		ldr	r3, [r3, r0, lsl #2]
 1837 0fd4 1944     		add	r1, r1, r3
 1838 0fd6 D7F83431 		ldr	r3, [r7, #308]
 1839 0fda A3F10A00 		sub	r0, r3, #10
 1840 0fde 07F12C03 		add	r3, r7, #44
 1841 0fe2 53F82030 		ldr	r3, [r3, r0, lsl #2]
 1842 0fe6 4FEAF310 		ror	r0, r3, #7
 1843 0fea D7F83431 		ldr	r3, [r7, #308]
 1844 0fee A3F10A04 		sub	r4, r3, #10
 1845 0ff2 07F12C03 		add	r3, r7, #44
 1846 0ff6 53F82430 		ldr	r3, [r3, r4, lsl #2]
 1847 0ffa 4FEAB343 		ror	r3, r3, #18
 1848 0ffe 5840     		eors	r0, r0, r3
 1849 1000 D7F83431 		ldr	r3, [r7, #308]
 1850 1004 A3F10A04 		sub	r4, r3, #10
 1851 1008 07F12C03 		add	r3, r7, #44
 1852 100c 53F82430 		ldr	r3, [r3, r4, lsl #2]
 1853 1010 DB08     		lsrs	r3, r3, #3
 1854 1012 4340     		eors	r3, r3, r0
 1855 1014 C818     		adds	r0, r1, r3
 1856 1016 D7F83431 		ldr	r3, [r7, #308]
 1857 101a A3F10B01 		sub	r1, r3, #11
 1858 101e 07F12C03 		add	r3, r7, #44
 1859 1022 53F82110 		ldr	r1, [r3, r1, lsl #2]
 1860 1026 D7F83431 		ldr	r3, [r7, #308]
 1861 102a 0533     		adds	r3, r3, #5
 1862 102c 0844     		add	r0, r0, r1
 1863 102e 01E0     		b	.L35
 1864              	.L36:
 1865              		.align	2
ARM GAS  C:\Users\lenovo\AppData\Local\Temp\ccds4vwo.s 			page 38


 1866              	.L34:
 1867 1030 00000000 		.word	K
 1868              	.L35:
 1869 1034 07F12C01 		add	r1, r7, #44
 1870 1038 41F82300 		str	r0, [r1, r3, lsl #2]
 1871 103c 07F12C01 		add	r1, r7, #44
 1872 1040 51F82330 		ldr	r3, [r1, r3, lsl #2]
 1873 1044 1344     		add	r3, r3, r2
 1874 1046 C7F83031 		str	r3, [r7, #304]
 1875 104a 07F10C03 		add	r3, r7, #12
 1876 104e DB68     		ldr	r3, [r3, #12]
 1877 1050 4FEAB302 		ror	r2, r3, #2
 1878 1054 07F10C03 		add	r3, r7, #12
 1879 1058 DB68     		ldr	r3, [r3, #12]
 1880 105a 4FEA7333 		ror	r3, r3, #13
 1881 105e 5A40     		eors	r2, r2, r3
 1882 1060 07F10C03 		add	r3, r7, #12
 1883 1064 DB68     		ldr	r3, [r3, #12]
 1884 1066 4FEAB353 		ror	r3, r3, #22
 1885 106a 5A40     		eors	r2, r2, r3
 1886 106c 07F10C03 		add	r3, r7, #12
 1887 1070 D968     		ldr	r1, [r3, #12]
 1888 1072 07F10C03 		add	r3, r7, #12
 1889 1076 1B69     		ldr	r3, [r3, #16]
 1890 1078 1940     		ands	r1, r1, r3
 1891 107a 07F10C03 		add	r3, r7, #12
 1892 107e 5869     		ldr	r0, [r3, #20]
 1893 1080 07F10C03 		add	r3, r7, #12
 1894 1084 DC68     		ldr	r4, [r3, #12]
 1895 1086 07F10C03 		add	r3, r7, #12
 1896 108a 1B69     		ldr	r3, [r3, #16]
 1897 108c 2343     		orrs	r3, r3, r4
 1898 108e 0340     		ands	r3, r3, r0
 1899 1090 0B43     		orrs	r3, r3, r1
 1900 1092 1344     		add	r3, r3, r2
 1901 1094 C7F82C31 		str	r3, [r7, #300]
 1902 1098 07F10C03 		add	r3, r7, #12
 1903 109c 9A69     		ldr	r2, [r3, #24]
 1904 109e D7F83031 		ldr	r3, [r7, #304]
 1905 10a2 1A44     		add	r2, r2, r3
 1906 10a4 07F10C03 		add	r3, r7, #12
 1907 10a8 9A61     		str	r2, [r3, #24]
 1908 10aa D7F83021 		ldr	r2, [r7, #304]
 1909 10ae D7F82C31 		ldr	r3, [r7, #300]
 1910 10b2 1A44     		add	r2, r2, r3
 1911 10b4 07F10C03 		add	r3, r7, #12
 1912 10b8 9A60     		str	r2, [r3, #8]
 251:c:/Users/lenovo/Desktop/AIoT/first_day/firstday_afternoon/LiteOS_Lab_STM32_IoT/iot_link/network/dtls/mbedtls/mbedtls-2.16.2/library\sha256.c ****         P( A[2], A[3], A[4], A[5], A[6], A[7], A[0], A[1], R(i+6), K[i+6] );
 1913              		.loc 1 251 9 discriminator 3
 1914 10ba 07F10C03 		add	r3, r7, #12
 1915 10be 5A68     		ldr	r2, [r3, #4]
 1916 10c0 07F10C03 		add	r3, r7, #12
 1917 10c4 9B69     		ldr	r3, [r3, #24]
 1918 10c6 4FEAB311 		ror	r1, r3, #6
 1919 10ca 07F10C03 		add	r3, r7, #12
 1920 10ce 9B69     		ldr	r3, [r3, #24]
 1921 10d0 4FEAF323 		ror	r3, r3, #11
ARM GAS  C:\Users\lenovo\AppData\Local\Temp\ccds4vwo.s 			page 39


 1922 10d4 5940     		eors	r1, r1, r3
 1923 10d6 07F10C03 		add	r3, r7, #12
 1924 10da 9B69     		ldr	r3, [r3, #24]
 1925 10dc 4FEA7363 		ror	r3, r3, #25
 1926 10e0 4B40     		eors	r3, r3, r1
 1927 10e2 1A44     		add	r2, r2, r3
 1928 10e4 07F10C03 		add	r3, r7, #12
 1929 10e8 1968     		ldr	r1, [r3]
 1930 10ea 07F10C03 		add	r3, r7, #12
 1931 10ee 9869     		ldr	r0, [r3, #24]
 1932 10f0 07F10C03 		add	r3, r7, #12
 1933 10f4 DC69     		ldr	r4, [r3, #28]
 1934 10f6 07F10C03 		add	r3, r7, #12
 1935 10fa 1B68     		ldr	r3, [r3]
 1936 10fc 6340     		eors	r3, r3, r4
 1937 10fe 0340     		ands	r3, r3, r0
 1938 1100 4B40     		eors	r3, r3, r1
 1939 1102 1A44     		add	r2, r2, r3
 1940 1104 D7F83431 		ldr	r3, [r7, #308]
 1941 1108 0633     		adds	r3, r3, #6
 1942 110a C449     		ldr	r1, .L37
 1943 110c 51F82330 		ldr	r3, [r1, r3, lsl #2]
 1944 1110 1A44     		add	r2, r2, r3
 1945 1112 D7F83431 		ldr	r3, [r7, #308]
 1946 1116 191D     		adds	r1, r3, #4
 1947 1118 07F12C03 		add	r3, r7, #44
 1948 111c 53F82130 		ldr	r3, [r3, r1, lsl #2]
 1949 1120 4FEA7341 		ror	r1, r3, #17
 1950 1124 D7F83431 		ldr	r3, [r7, #308]
 1951 1128 181D     		adds	r0, r3, #4
 1952 112a 07F12C03 		add	r3, r7, #44
 1953 112e 53F82030 		ldr	r3, [r3, r0, lsl #2]
 1954 1132 4FEAF343 		ror	r3, r3, #19
 1955 1136 5940     		eors	r1, r1, r3
 1956 1138 D7F83431 		ldr	r3, [r7, #308]
 1957 113c 181D     		adds	r0, r3, #4
 1958 113e 07F12C03 		add	r3, r7, #44
 1959 1142 53F82030 		ldr	r3, [r3, r0, lsl #2]
 1960 1146 9B0A     		lsrs	r3, r3, #10
 1961 1148 5940     		eors	r1, r1, r3
 1962 114a D7F83431 		ldr	r3, [r7, #308]
 1963 114e 581E     		subs	r0, r3, #1
 1964 1150 07F12C03 		add	r3, r7, #44
 1965 1154 53F82030 		ldr	r3, [r3, r0, lsl #2]
 1966 1158 1944     		add	r1, r1, r3
 1967 115a D7F83431 		ldr	r3, [r7, #308]
 1968 115e A3F10900 		sub	r0, r3, #9
 1969 1162 07F12C03 		add	r3, r7, #44
 1970 1166 53F82030 		ldr	r3, [r3, r0, lsl #2]
 1971 116a 4FEAF310 		ror	r0, r3, #7
 1972 116e D7F83431 		ldr	r3, [r7, #308]
 1973 1172 A3F10904 		sub	r4, r3, #9
 1974 1176 07F12C03 		add	r3, r7, #44
 1975 117a 53F82430 		ldr	r3, [r3, r4, lsl #2]
 1976 117e 4FEAB343 		ror	r3, r3, #18
 1977 1182 5840     		eors	r0, r0, r3
 1978 1184 D7F83431 		ldr	r3, [r7, #308]
ARM GAS  C:\Users\lenovo\AppData\Local\Temp\ccds4vwo.s 			page 40


 1979 1188 A3F10904 		sub	r4, r3, #9
 1980 118c 07F12C03 		add	r3, r7, #44
 1981 1190 53F82430 		ldr	r3, [r3, r4, lsl #2]
 1982 1194 DB08     		lsrs	r3, r3, #3
 1983 1196 4340     		eors	r3, r3, r0
 1984 1198 C818     		adds	r0, r1, r3
 1985 119a D7F83431 		ldr	r3, [r7, #308]
 1986 119e A3F10A01 		sub	r1, r3, #10
 1987 11a2 07F12C03 		add	r3, r7, #44
 1988 11a6 53F82110 		ldr	r1, [r3, r1, lsl #2]
 1989 11aa D7F83431 		ldr	r3, [r7, #308]
 1990 11ae 0633     		adds	r3, r3, #6
 1991 11b0 0844     		add	r0, r0, r1
 1992 11b2 07F12C01 		add	r1, r7, #44
 1993 11b6 41F82300 		str	r0, [r1, r3, lsl #2]
 1994 11ba 07F12C01 		add	r1, r7, #44
 1995 11be 51F82330 		ldr	r3, [r1, r3, lsl #2]
 1996 11c2 1344     		add	r3, r3, r2
 1997 11c4 C7F83031 		str	r3, [r7, #304]
 1998 11c8 07F10C03 		add	r3, r7, #12
 1999 11cc 9B68     		ldr	r3, [r3, #8]
 2000 11ce 4FEAB302 		ror	r2, r3, #2
 2001 11d2 07F10C03 		add	r3, r7, #12
 2002 11d6 9B68     		ldr	r3, [r3, #8]
 2003 11d8 4FEA7333 		ror	r3, r3, #13
 2004 11dc 5A40     		eors	r2, r2, r3
 2005 11de 07F10C03 		add	r3, r7, #12
 2006 11e2 9B68     		ldr	r3, [r3, #8]
 2007 11e4 4FEAB353 		ror	r3, r3, #22
 2008 11e8 5A40     		eors	r2, r2, r3
 2009 11ea 07F10C03 		add	r3, r7, #12
 2010 11ee 9968     		ldr	r1, [r3, #8]
 2011 11f0 07F10C03 		add	r3, r7, #12
 2012 11f4 DB68     		ldr	r3, [r3, #12]
 2013 11f6 1940     		ands	r1, r1, r3
 2014 11f8 07F10C03 		add	r3, r7, #12
 2015 11fc 1869     		ldr	r0, [r3, #16]
 2016 11fe 07F10C03 		add	r3, r7, #12
 2017 1202 9C68     		ldr	r4, [r3, #8]
 2018 1204 07F10C03 		add	r3, r7, #12
 2019 1208 DB68     		ldr	r3, [r3, #12]
 2020 120a 2343     		orrs	r3, r3, r4
 2021 120c 0340     		ands	r3, r3, r0
 2022 120e 0B43     		orrs	r3, r3, r1
 2023 1210 1344     		add	r3, r3, r2
 2024 1212 C7F82C31 		str	r3, [r7, #300]
 2025 1216 07F10C03 		add	r3, r7, #12
 2026 121a 5A69     		ldr	r2, [r3, #20]
 2027 121c D7F83031 		ldr	r3, [r7, #304]
 2028 1220 1A44     		add	r2, r2, r3
 2029 1222 07F10C03 		add	r3, r7, #12
 2030 1226 5A61     		str	r2, [r3, #20]
 2031 1228 D7F83021 		ldr	r2, [r7, #304]
 2032 122c D7F82C31 		ldr	r3, [r7, #300]
 2033 1230 1A44     		add	r2, r2, r3
 2034 1232 07F10C03 		add	r3, r7, #12
 2035 1236 5A60     		str	r2, [r3, #4]
ARM GAS  C:\Users\lenovo\AppData\Local\Temp\ccds4vwo.s 			page 41


 252:c:/Users/lenovo/Desktop/AIoT/first_day/firstday_afternoon/LiteOS_Lab_STM32_IoT/iot_link/network/dtls/mbedtls/mbedtls-2.16.2/library\sha256.c ****         P( A[1], A[2], A[3], A[4], A[5], A[6], A[7], A[0], R(i+7), K[i+7] );
 2036              		.loc 1 252 9 discriminator 3
 2037 1238 07F10C03 		add	r3, r7, #12
 2038 123c 1A68     		ldr	r2, [r3]
 2039 123e 07F10C03 		add	r3, r7, #12
 2040 1242 5B69     		ldr	r3, [r3, #20]
 2041 1244 4FEAB311 		ror	r1, r3, #6
 2042 1248 07F10C03 		add	r3, r7, #12
 2043 124c 5B69     		ldr	r3, [r3, #20]
 2044 124e 4FEAF323 		ror	r3, r3, #11
 2045 1252 5940     		eors	r1, r1, r3
 2046 1254 07F10C03 		add	r3, r7, #12
 2047 1258 5B69     		ldr	r3, [r3, #20]
 2048 125a 4FEA7363 		ror	r3, r3, #25
 2049 125e 4B40     		eors	r3, r3, r1
 2050 1260 1A44     		add	r2, r2, r3
 2051 1262 07F10C03 		add	r3, r7, #12
 2052 1266 D969     		ldr	r1, [r3, #28]
 2053 1268 07F10C03 		add	r3, r7, #12
 2054 126c 5869     		ldr	r0, [r3, #20]
 2055 126e 07F10C03 		add	r3, r7, #12
 2056 1272 9C69     		ldr	r4, [r3, #24]
 2057 1274 07F10C03 		add	r3, r7, #12
 2058 1278 DB69     		ldr	r3, [r3, #28]
 2059 127a 6340     		eors	r3, r3, r4
 2060 127c 0340     		ands	r3, r3, r0
 2061 127e 4B40     		eors	r3, r3, r1
 2062 1280 1A44     		add	r2, r2, r3
 2063 1282 D7F83431 		ldr	r3, [r7, #308]
 2064 1286 0733     		adds	r3, r3, #7
 2065 1288 6449     		ldr	r1, .L37
 2066 128a 51F82330 		ldr	r3, [r1, r3, lsl #2]
 2067 128e 1A44     		add	r2, r2, r3
 2068 1290 D7F83431 		ldr	r3, [r7, #308]
 2069 1294 591D     		adds	r1, r3, #5
 2070 1296 07F12C03 		add	r3, r7, #44
 2071 129a 53F82130 		ldr	r3, [r3, r1, lsl #2]
 2072 129e 4FEA7341 		ror	r1, r3, #17
 2073 12a2 D7F83431 		ldr	r3, [r7, #308]
 2074 12a6 581D     		adds	r0, r3, #5
 2075 12a8 07F12C03 		add	r3, r7, #44
 2076 12ac 53F82030 		ldr	r3, [r3, r0, lsl #2]
 2077 12b0 4FEAF343 		ror	r3, r3, #19
 2078 12b4 5940     		eors	r1, r1, r3
 2079 12b6 D7F83431 		ldr	r3, [r7, #308]
 2080 12ba 581D     		adds	r0, r3, #5
 2081 12bc 07F12C03 		add	r3, r7, #44
 2082 12c0 53F82030 		ldr	r3, [r3, r0, lsl #2]
 2083 12c4 9B0A     		lsrs	r3, r3, #10
 2084 12c6 5940     		eors	r1, r1, r3
 2085 12c8 07F12C03 		add	r3, r7, #44
 2086 12cc D7F83401 		ldr	r0, [r7, #308]
 2087 12d0 53F82030 		ldr	r3, [r3, r0, lsl #2]
 2088 12d4 1944     		add	r1, r1, r3
 2089 12d6 D7F83431 		ldr	r3, [r7, #308]
 2090 12da A3F10800 		sub	r0, r3, #8
 2091 12de 07F12C03 		add	r3, r7, #44
ARM GAS  C:\Users\lenovo\AppData\Local\Temp\ccds4vwo.s 			page 42


 2092 12e2 53F82030 		ldr	r3, [r3, r0, lsl #2]
 2093 12e6 4FEAF310 		ror	r0, r3, #7
 2094 12ea D7F83431 		ldr	r3, [r7, #308]
 2095 12ee A3F10804 		sub	r4, r3, #8
 2096 12f2 07F12C03 		add	r3, r7, #44
 2097 12f6 53F82430 		ldr	r3, [r3, r4, lsl #2]
 2098 12fa 4FEAB343 		ror	r3, r3, #18
 2099 12fe 5840     		eors	r0, r0, r3
 2100 1300 D7F83431 		ldr	r3, [r7, #308]
 2101 1304 A3F10804 		sub	r4, r3, #8
 2102 1308 07F12C03 		add	r3, r7, #44
 2103 130c 53F82430 		ldr	r3, [r3, r4, lsl #2]
 2104 1310 DB08     		lsrs	r3, r3, #3
 2105 1312 4340     		eors	r3, r3, r0
 2106 1314 C818     		adds	r0, r1, r3
 2107 1316 D7F83431 		ldr	r3, [r7, #308]
 2108 131a A3F10901 		sub	r1, r3, #9
 2109 131e 07F12C03 		add	r3, r7, #44
 2110 1322 53F82110 		ldr	r1, [r3, r1, lsl #2]
 2111 1326 D7F83431 		ldr	r3, [r7, #308]
 2112 132a 0733     		adds	r3, r3, #7
 2113 132c 0844     		add	r0, r0, r1
 2114 132e 07F12C01 		add	r1, r7, #44
 2115 1332 41F82300 		str	r0, [r1, r3, lsl #2]
 2116 1336 07F12C01 		add	r1, r7, #44
 2117 133a 51F82330 		ldr	r3, [r1, r3, lsl #2]
 2118 133e 1344     		add	r3, r3, r2
 2119 1340 C7F83031 		str	r3, [r7, #304]
 2120 1344 07F10C03 		add	r3, r7, #12
 2121 1348 5B68     		ldr	r3, [r3, #4]
 2122 134a 4FEAB302 		ror	r2, r3, #2
 2123 134e 07F10C03 		add	r3, r7, #12
 2124 1352 5B68     		ldr	r3, [r3, #4]
 2125 1354 4FEA7333 		ror	r3, r3, #13
 2126 1358 5A40     		eors	r2, r2, r3
 2127 135a 07F10C03 		add	r3, r7, #12
 2128 135e 5B68     		ldr	r3, [r3, #4]
 2129 1360 4FEAB353 		ror	r3, r3, #22
 2130 1364 5A40     		eors	r2, r2, r3
 2131 1366 07F10C03 		add	r3, r7, #12
 2132 136a 5968     		ldr	r1, [r3, #4]
 2133 136c 07F10C03 		add	r3, r7, #12
 2134 1370 9B68     		ldr	r3, [r3, #8]
 2135 1372 1940     		ands	r1, r1, r3
 2136 1374 07F10C03 		add	r3, r7, #12
 2137 1378 D868     		ldr	r0, [r3, #12]
 2138 137a 07F10C03 		add	r3, r7, #12
 2139 137e 5C68     		ldr	r4, [r3, #4]
 2140 1380 07F10C03 		add	r3, r7, #12
 2141 1384 9B68     		ldr	r3, [r3, #8]
 2142 1386 2343     		orrs	r3, r3, r4
 2143 1388 0340     		ands	r3, r3, r0
 2144 138a 0B43     		orrs	r3, r3, r1
 2145 138c 1344     		add	r3, r3, r2
 2146 138e C7F82C31 		str	r3, [r7, #300]
 2147 1392 07F10C03 		add	r3, r7, #12
 2148 1396 1A69     		ldr	r2, [r3, #16]
ARM GAS  C:\Users\lenovo\AppData\Local\Temp\ccds4vwo.s 			page 43


 2149 1398 D7F83031 		ldr	r3, [r7, #304]
 2150 139c 1A44     		add	r2, r2, r3
 2151 139e 07F10C03 		add	r3, r7, #12
 2152 13a2 1A61     		str	r2, [r3, #16]
 2153 13a4 D7F83021 		ldr	r2, [r7, #304]
 2154 13a8 D7F82C31 		ldr	r3, [r7, #300]
 2155 13ac 1A44     		add	r2, r2, r3
 2156 13ae 07F10C03 		add	r3, r7, #12
 2157 13b2 1A60     		str	r2, [r3]
 243:c:/Users/lenovo/Desktop/AIoT/first_day/firstday_afternoon/LiteOS_Lab_STM32_IoT/iot_link/network/dtls/mbedtls/mbedtls-2.16.2/library\sha256.c ****     {
 2158              		.loc 1 243 28 discriminator 3
 2159 13b4 D7F83431 		ldr	r3, [r7, #308]
 2160 13b8 0833     		adds	r3, r3, #8
 2161 13ba C7F83431 		str	r3, [r7, #308]
 2162              	.L21:
 243:c:/Users/lenovo/Desktop/AIoT/first_day/firstday_afternoon/LiteOS_Lab_STM32_IoT/iot_link/network/dtls/mbedtls/mbedtls-2.16.2/library\sha256.c ****     {
 2163              		.loc 1 243 5 discriminator 1
 2164 13be D7F83431 		ldr	r3, [r7, #308]
 2165 13c2 3F2B     		cmp	r3, #63
 2166 13c4 7FF6FCA9 		bls	.L22
 253:c:/Users/lenovo/Desktop/AIoT/first_day/firstday_afternoon/LiteOS_Lab_STM32_IoT/iot_link/network/dtls/mbedtls/mbedtls-2.16.2/library\sha256.c ****     }
 254:c:/Users/lenovo/Desktop/AIoT/first_day/firstday_afternoon/LiteOS_Lab_STM32_IoT/iot_link/network/dtls/mbedtls/mbedtls-2.16.2/library\sha256.c **** #endif /* MBEDTLS_SHA256_SMALLER */
 255:c:/Users/lenovo/Desktop/AIoT/first_day/firstday_afternoon/LiteOS_Lab_STM32_IoT/iot_link/network/dtls/mbedtls/mbedtls-2.16.2/library\sha256.c **** 
 256:c:/Users/lenovo/Desktop/AIoT/first_day/firstday_afternoon/LiteOS_Lab_STM32_IoT/iot_link/network/dtls/mbedtls/mbedtls-2.16.2/library\sha256.c ****     for( i = 0; i < 8; i++ )
 2167              		.loc 1 256 12
 2168 13c8 0023     		movs	r3, #0
 2169 13ca C7F83431 		str	r3, [r7, #308]
 2170              		.loc 1 256 5
 2171 13ce 19E0     		b	.L23
 2172              	.L24:
 257:c:/Users/lenovo/Desktop/AIoT/first_day/firstday_afternoon/LiteOS_Lab_STM32_IoT/iot_link/network/dtls/mbedtls/mbedtls-2.16.2/library\sha256.c ****         ctx->state[i] += A[i];
 2173              		.loc 1 257 23 discriminator 3
 2174 13d0 3B1D     		adds	r3, r7, #4
 2175 13d2 1B68     		ldr	r3, [r3]
 2176 13d4 D7F83421 		ldr	r2, [r7, #308]
 2177 13d8 0232     		adds	r2, r2, #2
 2178 13da 53F82220 		ldr	r2, [r3, r2, lsl #2]
 2179              		.loc 1 257 27 discriminator 3
 2180 13de 07F10C03 		add	r3, r7, #12
 2181 13e2 D7F83411 		ldr	r1, [r7, #308]
 2182 13e6 53F82130 		ldr	r3, [r3, r1, lsl #2]
 2183              		.loc 1 257 23 discriminator 3
 2184 13ea D118     		adds	r1, r2, r3
 2185 13ec 3B1D     		adds	r3, r7, #4
 2186 13ee 1B68     		ldr	r3, [r3]
 2187 13f0 D7F83421 		ldr	r2, [r7, #308]
 2188 13f4 0232     		adds	r2, r2, #2
 2189 13f6 43F82210 		str	r1, [r3, r2, lsl #2]
 256:c:/Users/lenovo/Desktop/AIoT/first_day/firstday_afternoon/LiteOS_Lab_STM32_IoT/iot_link/network/dtls/mbedtls/mbedtls-2.16.2/library\sha256.c ****         ctx->state[i] += A[i];
 2190              		.loc 1 256 25 discriminator 3
 2191 13fa D7F83431 		ldr	r3, [r7, #308]
 2192 13fe 0133     		adds	r3, r3, #1
 2193 1400 C7F83431 		str	r3, [r7, #308]
 2194              	.L23:
 256:c:/Users/lenovo/Desktop/AIoT/first_day/firstday_afternoon/LiteOS_Lab_STM32_IoT/iot_link/network/dtls/mbedtls/mbedtls-2.16.2/library\sha256.c ****         ctx->state[i] += A[i];
 2195              		.loc 1 256 5 discriminator 1
 2196 1404 D7F83431 		ldr	r3, [r7, #308]
ARM GAS  C:\Users\lenovo\AppData\Local\Temp\ccds4vwo.s 			page 44


 2197 1408 072B     		cmp	r3, #7
 2198 140a E1D9     		bls	.L24
 258:c:/Users/lenovo/Desktop/AIoT/first_day/firstday_afternoon/LiteOS_Lab_STM32_IoT/iot_link/network/dtls/mbedtls/mbedtls-2.16.2/library\sha256.c **** 
 259:c:/Users/lenovo/Desktop/AIoT/first_day/firstday_afternoon/LiteOS_Lab_STM32_IoT/iot_link/network/dtls/mbedtls/mbedtls-2.16.2/library\sha256.c ****     return( 0 );
 2199              		.loc 1 259 11
 2200 140c 0023     		movs	r3, #0
 260:c:/Users/lenovo/Desktop/AIoT/first_day/firstday_afternoon/LiteOS_Lab_STM32_IoT/iot_link/network/dtls/mbedtls/mbedtls-2.16.2/library\sha256.c **** }
 2201              		.loc 1 260 1
 2202 140e 1846     		mov	r0, r3
 2203 1410 07F59C77 		add	r7, r7, #312
 2204              	.LCFI29:
 2205              		.cfi_def_cfa_offset 8
 2206 1414 BD46     		mov	sp, r7
 2207              	.LCFI30:
 2208              		.cfi_def_cfa_register 13
 2209              		@ sp needed
 2210 1416 90BC     		pop	{r4, r7}
 2211              	.LCFI31:
 2212              		.cfi_restore 7
 2213              		.cfi_restore 4
 2214              		.cfi_def_cfa_offset 0
 2215 1418 7047     		bx	lr
 2216              	.L38:
 2217 141a 00BF     		.align	2
 2218              	.L37:
 2219 141c 00000000 		.word	K
 2220              		.cfi_endproc
 2221              	.LFE5:
 2223              		.section	.text.mbedtls_sha256_process,"ax",%progbits
 2224              		.align	1
 2225              		.global	mbedtls_sha256_process
 2226              		.syntax unified
 2227              		.thumb
 2228              		.thumb_func
 2229              		.fpu fpv4-sp-d16
 2231              	mbedtls_sha256_process:
 2232              	.LFB6:
 261:c:/Users/lenovo/Desktop/AIoT/first_day/firstday_afternoon/LiteOS_Lab_STM32_IoT/iot_link/network/dtls/mbedtls/mbedtls-2.16.2/library\sha256.c **** 
 262:c:/Users/lenovo/Desktop/AIoT/first_day/firstday_afternoon/LiteOS_Lab_STM32_IoT/iot_link/network/dtls/mbedtls/mbedtls-2.16.2/library\sha256.c **** #if !defined(MBEDTLS_DEPRECATED_REMOVED)
 263:c:/Users/lenovo/Desktop/AIoT/first_day/firstday_afternoon/LiteOS_Lab_STM32_IoT/iot_link/network/dtls/mbedtls/mbedtls-2.16.2/library\sha256.c **** void mbedtls_sha256_process( mbedtls_sha256_context *ctx,
 264:c:/Users/lenovo/Desktop/AIoT/first_day/firstday_afternoon/LiteOS_Lab_STM32_IoT/iot_link/network/dtls/mbedtls/mbedtls-2.16.2/library\sha256.c ****                              const unsigned char data[64] )
 265:c:/Users/lenovo/Desktop/AIoT/first_day/firstday_afternoon/LiteOS_Lab_STM32_IoT/iot_link/network/dtls/mbedtls/mbedtls-2.16.2/library\sha256.c **** {
 2233              		.loc 1 265 1
 2234              		.cfi_startproc
 2235              		@ args = 0, pretend = 0, frame = 8
 2236              		@ frame_needed = 1, uses_anonymous_args = 0
 2237 0000 80B5     		push	{r7, lr}
 2238              	.LCFI32:
 2239              		.cfi_def_cfa_offset 8
 2240              		.cfi_offset 7, -8
 2241              		.cfi_offset 14, -4
 2242 0002 82B0     		sub	sp, sp, #8
 2243              	.LCFI33:
 2244              		.cfi_def_cfa_offset 16
 2245 0004 00AF     		add	r7, sp, #0
 2246              	.LCFI34:
 2247              		.cfi_def_cfa_register 7
ARM GAS  C:\Users\lenovo\AppData\Local\Temp\ccds4vwo.s 			page 45


 2248 0006 7860     		str	r0, [r7, #4]
 2249 0008 3960     		str	r1, [r7]
 266:c:/Users/lenovo/Desktop/AIoT/first_day/firstday_afternoon/LiteOS_Lab_STM32_IoT/iot_link/network/dtls/mbedtls/mbedtls-2.16.2/library\sha256.c ****     mbedtls_internal_sha256_process( ctx, data );
 2250              		.loc 1 266 5
 2251 000a 3968     		ldr	r1, [r7]
 2252 000c 7868     		ldr	r0, [r7, #4]
 2253 000e FFF7FEFF 		bl	mbedtls_internal_sha256_process
 267:c:/Users/lenovo/Desktop/AIoT/first_day/firstday_afternoon/LiteOS_Lab_STM32_IoT/iot_link/network/dtls/mbedtls/mbedtls-2.16.2/library\sha256.c **** }
 2254              		.loc 1 267 1
 2255 0012 00BF     		nop
 2256 0014 0837     		adds	r7, r7, #8
 2257              	.LCFI35:
 2258              		.cfi_def_cfa_offset 8
 2259 0016 BD46     		mov	sp, r7
 2260              	.LCFI36:
 2261              		.cfi_def_cfa_register 13
 2262              		@ sp needed
 2263 0018 80BD     		pop	{r7, pc}
 2264              		.cfi_endproc
 2265              	.LFE6:
 2267              		.section	.text.mbedtls_sha256_update_ret,"ax",%progbits
 2268              		.align	1
 2269              		.global	mbedtls_sha256_update_ret
 2270              		.syntax unified
 2271              		.thumb
 2272              		.thumb_func
 2273              		.fpu fpv4-sp-d16
 2275              	mbedtls_sha256_update_ret:
 2276              	.LFB7:
 268:c:/Users/lenovo/Desktop/AIoT/first_day/firstday_afternoon/LiteOS_Lab_STM32_IoT/iot_link/network/dtls/mbedtls/mbedtls-2.16.2/library\sha256.c **** #endif
 269:c:/Users/lenovo/Desktop/AIoT/first_day/firstday_afternoon/LiteOS_Lab_STM32_IoT/iot_link/network/dtls/mbedtls/mbedtls-2.16.2/library\sha256.c **** #endif /* !MBEDTLS_SHA256_PROCESS_ALT */
 270:c:/Users/lenovo/Desktop/AIoT/first_day/firstday_afternoon/LiteOS_Lab_STM32_IoT/iot_link/network/dtls/mbedtls/mbedtls-2.16.2/library\sha256.c **** 
 271:c:/Users/lenovo/Desktop/AIoT/first_day/firstday_afternoon/LiteOS_Lab_STM32_IoT/iot_link/network/dtls/mbedtls/mbedtls-2.16.2/library\sha256.c **** /*
 272:c:/Users/lenovo/Desktop/AIoT/first_day/firstday_afternoon/LiteOS_Lab_STM32_IoT/iot_link/network/dtls/mbedtls/mbedtls-2.16.2/library\sha256.c ****  * SHA-256 process buffer
 273:c:/Users/lenovo/Desktop/AIoT/first_day/firstday_afternoon/LiteOS_Lab_STM32_IoT/iot_link/network/dtls/mbedtls/mbedtls-2.16.2/library\sha256.c ****  */
 274:c:/Users/lenovo/Desktop/AIoT/first_day/firstday_afternoon/LiteOS_Lab_STM32_IoT/iot_link/network/dtls/mbedtls/mbedtls-2.16.2/library\sha256.c **** int mbedtls_sha256_update_ret( mbedtls_sha256_context *ctx,
 275:c:/Users/lenovo/Desktop/AIoT/first_day/firstday_afternoon/LiteOS_Lab_STM32_IoT/iot_link/network/dtls/mbedtls/mbedtls-2.16.2/library\sha256.c ****                                const unsigned char *input,
 276:c:/Users/lenovo/Desktop/AIoT/first_day/firstday_afternoon/LiteOS_Lab_STM32_IoT/iot_link/network/dtls/mbedtls/mbedtls-2.16.2/library\sha256.c ****                                size_t ilen )
 277:c:/Users/lenovo/Desktop/AIoT/first_day/firstday_afternoon/LiteOS_Lab_STM32_IoT/iot_link/network/dtls/mbedtls/mbedtls-2.16.2/library\sha256.c **** {
 2277              		.loc 1 277 1
 2278              		.cfi_startproc
 2279              		@ args = 0, pretend = 0, frame = 32
 2280              		@ frame_needed = 1, uses_anonymous_args = 0
 2281 0000 80B5     		push	{r7, lr}
 2282              	.LCFI37:
 2283              		.cfi_def_cfa_offset 8
 2284              		.cfi_offset 7, -8
 2285              		.cfi_offset 14, -4
 2286 0002 88B0     		sub	sp, sp, #32
 2287              	.LCFI38:
 2288              		.cfi_def_cfa_offset 40
 2289 0004 00AF     		add	r7, sp, #0
 2290              	.LCFI39:
 2291              		.cfi_def_cfa_register 7
 2292 0006 F860     		str	r0, [r7, #12]
 2293 0008 B960     		str	r1, [r7, #8]
 2294 000a 7A60     		str	r2, [r7, #4]
ARM GAS  C:\Users\lenovo\AppData\Local\Temp\ccds4vwo.s 			page 46


 278:c:/Users/lenovo/Desktop/AIoT/first_day/firstday_afternoon/LiteOS_Lab_STM32_IoT/iot_link/network/dtls/mbedtls/mbedtls-2.16.2/library\sha256.c ****     int ret;
 279:c:/Users/lenovo/Desktop/AIoT/first_day/firstday_afternoon/LiteOS_Lab_STM32_IoT/iot_link/network/dtls/mbedtls/mbedtls-2.16.2/library\sha256.c ****     size_t fill;
 280:c:/Users/lenovo/Desktop/AIoT/first_day/firstday_afternoon/LiteOS_Lab_STM32_IoT/iot_link/network/dtls/mbedtls/mbedtls-2.16.2/library\sha256.c ****     uint32_t left;
 281:c:/Users/lenovo/Desktop/AIoT/first_day/firstday_afternoon/LiteOS_Lab_STM32_IoT/iot_link/network/dtls/mbedtls/mbedtls-2.16.2/library\sha256.c **** 
 282:c:/Users/lenovo/Desktop/AIoT/first_day/firstday_afternoon/LiteOS_Lab_STM32_IoT/iot_link/network/dtls/mbedtls/mbedtls-2.16.2/library\sha256.c ****     SHA256_VALIDATE_RET( ctx != NULL );
 283:c:/Users/lenovo/Desktop/AIoT/first_day/firstday_afternoon/LiteOS_Lab_STM32_IoT/iot_link/network/dtls/mbedtls/mbedtls-2.16.2/library\sha256.c ****     SHA256_VALIDATE_RET( ilen == 0 || input != NULL );
 284:c:/Users/lenovo/Desktop/AIoT/first_day/firstday_afternoon/LiteOS_Lab_STM32_IoT/iot_link/network/dtls/mbedtls/mbedtls-2.16.2/library\sha256.c **** 
 285:c:/Users/lenovo/Desktop/AIoT/first_day/firstday_afternoon/LiteOS_Lab_STM32_IoT/iot_link/network/dtls/mbedtls/mbedtls-2.16.2/library\sha256.c ****     if( ilen == 0 )
 2295              		.loc 1 285 7
 2296 000c 7B68     		ldr	r3, [r7, #4]
 2297 000e 002B     		cmp	r3, #0
 2298 0010 01D1     		bne	.L41
 286:c:/Users/lenovo/Desktop/AIoT/first_day/firstday_afternoon/LiteOS_Lab_STM32_IoT/iot_link/network/dtls/mbedtls/mbedtls-2.16.2/library\sha256.c ****         return( 0 );
 2299              		.loc 1 286 15
 2300 0012 0023     		movs	r3, #0
 2301 0014 65E0     		b	.L42
 2302              	.L41:
 287:c:/Users/lenovo/Desktop/AIoT/first_day/firstday_afternoon/LiteOS_Lab_STM32_IoT/iot_link/network/dtls/mbedtls/mbedtls-2.16.2/library\sha256.c **** 
 288:c:/Users/lenovo/Desktop/AIoT/first_day/firstday_afternoon/LiteOS_Lab_STM32_IoT/iot_link/network/dtls/mbedtls/mbedtls-2.16.2/library\sha256.c ****     left = ctx->total[0] & 0x3F;
 2303              		.loc 1 288 22
 2304 0016 FB68     		ldr	r3, [r7, #12]
 2305 0018 1B68     		ldr	r3, [r3]
 2306              		.loc 1 288 10
 2307 001a 03F03F03 		and	r3, r3, #63
 2308 001e FB61     		str	r3, [r7, #28]
 289:c:/Users/lenovo/Desktop/AIoT/first_day/firstday_afternoon/LiteOS_Lab_STM32_IoT/iot_link/network/dtls/mbedtls/mbedtls-2.16.2/library\sha256.c ****     fill = 64 - left;
 2309              		.loc 1 289 10
 2310 0020 FB69     		ldr	r3, [r7, #28]
 2311 0022 C3F14003 		rsb	r3, r3, #64
 2312 0026 BB61     		str	r3, [r7, #24]
 290:c:/Users/lenovo/Desktop/AIoT/first_day/firstday_afternoon/LiteOS_Lab_STM32_IoT/iot_link/network/dtls/mbedtls/mbedtls-2.16.2/library\sha256.c **** 
 291:c:/Users/lenovo/Desktop/AIoT/first_day/firstday_afternoon/LiteOS_Lab_STM32_IoT/iot_link/network/dtls/mbedtls/mbedtls-2.16.2/library\sha256.c ****     ctx->total[0] += (uint32_t) ilen;
 2313              		.loc 1 291 19
 2314 0028 FB68     		ldr	r3, [r7, #12]
 2315 002a 1A68     		ldr	r2, [r3]
 2316 002c 7B68     		ldr	r3, [r7, #4]
 2317 002e 1A44     		add	r2, r2, r3
 2318 0030 FB68     		ldr	r3, [r7, #12]
 2319 0032 1A60     		str	r2, [r3]
 292:c:/Users/lenovo/Desktop/AIoT/first_day/firstday_afternoon/LiteOS_Lab_STM32_IoT/iot_link/network/dtls/mbedtls/mbedtls-2.16.2/library\sha256.c ****     ctx->total[0] &= 0xFFFFFFFF;
 2320              		.loc 1 292 19
 2321 0034 FB68     		ldr	r3, [r7, #12]
 2322 0036 1A68     		ldr	r2, [r3]
 2323 0038 FB68     		ldr	r3, [r7, #12]
 2324 003a 1A60     		str	r2, [r3]
 293:c:/Users/lenovo/Desktop/AIoT/first_day/firstday_afternoon/LiteOS_Lab_STM32_IoT/iot_link/network/dtls/mbedtls/mbedtls-2.16.2/library\sha256.c **** 
 294:c:/Users/lenovo/Desktop/AIoT/first_day/firstday_afternoon/LiteOS_Lab_STM32_IoT/iot_link/network/dtls/mbedtls/mbedtls-2.16.2/library\sha256.c ****     if( ctx->total[0] < (uint32_t) ilen )
 2325              		.loc 1 294 19
 2326 003c FB68     		ldr	r3, [r7, #12]
 2327 003e 1B68     		ldr	r3, [r3]
 2328              		.loc 1 294 7
 2329 0040 7A68     		ldr	r2, [r7, #4]
 2330 0042 9A42     		cmp	r2, r3
 2331 0044 04D9     		bls	.L43
 295:c:/Users/lenovo/Desktop/AIoT/first_day/firstday_afternoon/LiteOS_Lab_STM32_IoT/iot_link/network/dtls/mbedtls/mbedtls-2.16.2/library\sha256.c ****         ctx->total[1]++;
 2332              		.loc 1 295 19
 2333 0046 FB68     		ldr	r3, [r7, #12]
ARM GAS  C:\Users\lenovo\AppData\Local\Temp\ccds4vwo.s 			page 47


 2334 0048 5B68     		ldr	r3, [r3, #4]
 2335              		.loc 1 295 22
 2336 004a 5A1C     		adds	r2, r3, #1
 2337 004c FB68     		ldr	r3, [r7, #12]
 2338 004e 5A60     		str	r2, [r3, #4]
 2339              	.L43:
 296:c:/Users/lenovo/Desktop/AIoT/first_day/firstday_afternoon/LiteOS_Lab_STM32_IoT/iot_link/network/dtls/mbedtls/mbedtls-2.16.2/library\sha256.c **** 
 297:c:/Users/lenovo/Desktop/AIoT/first_day/firstday_afternoon/LiteOS_Lab_STM32_IoT/iot_link/network/dtls/mbedtls/mbedtls-2.16.2/library\sha256.c ****     if( left && ilen >= fill )
 2340              		.loc 1 297 7
 2341 0050 FB69     		ldr	r3, [r7, #28]
 2342 0052 002B     		cmp	r3, #0
 2343 0054 34D0     		beq	.L46
 2344              		.loc 1 297 14 discriminator 1
 2345 0056 7A68     		ldr	r2, [r7, #4]
 2346 0058 BB69     		ldr	r3, [r7, #24]
 2347 005a 9A42     		cmp	r2, r3
 2348 005c 30D3     		bcc	.L46
 298:c:/Users/lenovo/Desktop/AIoT/first_day/firstday_afternoon/LiteOS_Lab_STM32_IoT/iot_link/network/dtls/mbedtls/mbedtls-2.16.2/library\sha256.c ****     {
 299:c:/Users/lenovo/Desktop/AIoT/first_day/firstday_afternoon/LiteOS_Lab_STM32_IoT/iot_link/network/dtls/mbedtls/mbedtls-2.16.2/library\sha256.c ****         memcpy( (void *) (ctx->buffer + left), input, fill );
 2349              		.loc 1 299 27
 2350 005e FB68     		ldr	r3, [r7, #12]
 2351 0060 03F12802 		add	r2, r3, #40
 2352              		.loc 1 299 9
 2353 0064 FB69     		ldr	r3, [r7, #28]
 2354 0066 1344     		add	r3, r3, r2
 2355 0068 BA69     		ldr	r2, [r7, #24]
 2356 006a B968     		ldr	r1, [r7, #8]
 2357 006c 1846     		mov	r0, r3
 2358 006e FFF7FEFF 		bl	memcpy
 300:c:/Users/lenovo/Desktop/AIoT/first_day/firstday_afternoon/LiteOS_Lab_STM32_IoT/iot_link/network/dtls/mbedtls/mbedtls-2.16.2/library\sha256.c **** 
 301:c:/Users/lenovo/Desktop/AIoT/first_day/firstday_afternoon/LiteOS_Lab_STM32_IoT/iot_link/network/dtls/mbedtls/mbedtls-2.16.2/library\sha256.c ****         if( ( ret = mbedtls_internal_sha256_process( ctx, ctx->buffer ) ) != 0 )
 2359              		.loc 1 301 62
 2360 0072 FB68     		ldr	r3, [r7, #12]
 2361 0074 2833     		adds	r3, r3, #40
 2362              		.loc 1 301 21
 2363 0076 1946     		mov	r1, r3
 2364 0078 F868     		ldr	r0, [r7, #12]
 2365 007a FFF7FEFF 		bl	mbedtls_internal_sha256_process
 2366 007e 7861     		str	r0, [r7, #20]
 2367              		.loc 1 301 11
 2368 0080 7B69     		ldr	r3, [r7, #20]
 2369 0082 002B     		cmp	r3, #0
 2370 0084 01D0     		beq	.L45
 302:c:/Users/lenovo/Desktop/AIoT/first_day/firstday_afternoon/LiteOS_Lab_STM32_IoT/iot_link/network/dtls/mbedtls/mbedtls-2.16.2/library\sha256.c ****             return( ret );
 2371              		.loc 1 302 19
 2372 0086 7B69     		ldr	r3, [r7, #20]
 2373 0088 2BE0     		b	.L42
 2374              	.L45:
 303:c:/Users/lenovo/Desktop/AIoT/first_day/firstday_afternoon/LiteOS_Lab_STM32_IoT/iot_link/network/dtls/mbedtls/mbedtls-2.16.2/library\sha256.c **** 
 304:c:/Users/lenovo/Desktop/AIoT/first_day/firstday_afternoon/LiteOS_Lab_STM32_IoT/iot_link/network/dtls/mbedtls/mbedtls-2.16.2/library\sha256.c ****         input += fill;
 2375              		.loc 1 304 15
 2376 008a BA68     		ldr	r2, [r7, #8]
 2377 008c BB69     		ldr	r3, [r7, #24]
 2378 008e 1344     		add	r3, r3, r2
 2379 0090 BB60     		str	r3, [r7, #8]
 305:c:/Users/lenovo/Desktop/AIoT/first_day/firstday_afternoon/LiteOS_Lab_STM32_IoT/iot_link/network/dtls/mbedtls/mbedtls-2.16.2/library\sha256.c ****         ilen  -= fill;
 2380              		.loc 1 305 15
ARM GAS  C:\Users\lenovo\AppData\Local\Temp\ccds4vwo.s 			page 48


 2381 0092 7A68     		ldr	r2, [r7, #4]
 2382 0094 BB69     		ldr	r3, [r7, #24]
 2383 0096 D31A     		subs	r3, r2, r3
 2384 0098 7B60     		str	r3, [r7, #4]
 306:c:/Users/lenovo/Desktop/AIoT/first_day/firstday_afternoon/LiteOS_Lab_STM32_IoT/iot_link/network/dtls/mbedtls/mbedtls-2.16.2/library\sha256.c ****         left = 0;
 2385              		.loc 1 306 14
 2386 009a 0023     		movs	r3, #0
 2387 009c FB61     		str	r3, [r7, #28]
 307:c:/Users/lenovo/Desktop/AIoT/first_day/firstday_afternoon/LiteOS_Lab_STM32_IoT/iot_link/network/dtls/mbedtls/mbedtls-2.16.2/library\sha256.c ****     }
 308:c:/Users/lenovo/Desktop/AIoT/first_day/firstday_afternoon/LiteOS_Lab_STM32_IoT/iot_link/network/dtls/mbedtls/mbedtls-2.16.2/library\sha256.c **** 
 309:c:/Users/lenovo/Desktop/AIoT/first_day/firstday_afternoon/LiteOS_Lab_STM32_IoT/iot_link/network/dtls/mbedtls/mbedtls-2.16.2/library\sha256.c ****     while( ilen >= 64 )
 2388              		.loc 1 309 10
 2389 009e 0FE0     		b	.L46
 2390              	.L48:
 310:c:/Users/lenovo/Desktop/AIoT/first_day/firstday_afternoon/LiteOS_Lab_STM32_IoT/iot_link/network/dtls/mbedtls/mbedtls-2.16.2/library\sha256.c ****     {
 311:c:/Users/lenovo/Desktop/AIoT/first_day/firstday_afternoon/LiteOS_Lab_STM32_IoT/iot_link/network/dtls/mbedtls/mbedtls-2.16.2/library\sha256.c ****         if( ( ret = mbedtls_internal_sha256_process( ctx, input ) ) != 0 )
 2391              		.loc 1 311 21
 2392 00a0 B968     		ldr	r1, [r7, #8]
 2393 00a2 F868     		ldr	r0, [r7, #12]
 2394 00a4 FFF7FEFF 		bl	mbedtls_internal_sha256_process
 2395 00a8 7861     		str	r0, [r7, #20]
 2396              		.loc 1 311 11
 2397 00aa 7B69     		ldr	r3, [r7, #20]
 2398 00ac 002B     		cmp	r3, #0
 2399 00ae 01D0     		beq	.L47
 312:c:/Users/lenovo/Desktop/AIoT/first_day/firstday_afternoon/LiteOS_Lab_STM32_IoT/iot_link/network/dtls/mbedtls/mbedtls-2.16.2/library\sha256.c ****             return( ret );
 2400              		.loc 1 312 19
 2401 00b0 7B69     		ldr	r3, [r7, #20]
 2402 00b2 16E0     		b	.L42
 2403              	.L47:
 313:c:/Users/lenovo/Desktop/AIoT/first_day/firstday_afternoon/LiteOS_Lab_STM32_IoT/iot_link/network/dtls/mbedtls/mbedtls-2.16.2/library\sha256.c **** 
 314:c:/Users/lenovo/Desktop/AIoT/first_day/firstday_afternoon/LiteOS_Lab_STM32_IoT/iot_link/network/dtls/mbedtls/mbedtls-2.16.2/library\sha256.c ****         input += 64;
 2404              		.loc 1 314 15
 2405 00b4 BB68     		ldr	r3, [r7, #8]
 2406 00b6 4033     		adds	r3, r3, #64
 2407 00b8 BB60     		str	r3, [r7, #8]
 315:c:/Users/lenovo/Desktop/AIoT/first_day/firstday_afternoon/LiteOS_Lab_STM32_IoT/iot_link/network/dtls/mbedtls/mbedtls-2.16.2/library\sha256.c ****         ilen  -= 64;
 2408              		.loc 1 315 15
 2409 00ba 7B68     		ldr	r3, [r7, #4]
 2410 00bc 403B     		subs	r3, r3, #64
 2411 00be 7B60     		str	r3, [r7, #4]
 2412              	.L46:
 309:c:/Users/lenovo/Desktop/AIoT/first_day/firstday_afternoon/LiteOS_Lab_STM32_IoT/iot_link/network/dtls/mbedtls/mbedtls-2.16.2/library\sha256.c ****     {
 2413              		.loc 1 309 10
 2414 00c0 7B68     		ldr	r3, [r7, #4]
 2415 00c2 3F2B     		cmp	r3, #63
 2416 00c4 ECD8     		bhi	.L48
 316:c:/Users/lenovo/Desktop/AIoT/first_day/firstday_afternoon/LiteOS_Lab_STM32_IoT/iot_link/network/dtls/mbedtls/mbedtls-2.16.2/library\sha256.c ****     }
 317:c:/Users/lenovo/Desktop/AIoT/first_day/firstday_afternoon/LiteOS_Lab_STM32_IoT/iot_link/network/dtls/mbedtls/mbedtls-2.16.2/library\sha256.c **** 
 318:c:/Users/lenovo/Desktop/AIoT/first_day/firstday_afternoon/LiteOS_Lab_STM32_IoT/iot_link/network/dtls/mbedtls/mbedtls-2.16.2/library\sha256.c ****     if( ilen > 0 )
 2417              		.loc 1 318 7
 2418 00c6 7B68     		ldr	r3, [r7, #4]
 2419 00c8 002B     		cmp	r3, #0
 2420 00ca 09D0     		beq	.L49
 319:c:/Users/lenovo/Desktop/AIoT/first_day/firstday_afternoon/LiteOS_Lab_STM32_IoT/iot_link/network/dtls/mbedtls/mbedtls-2.16.2/library\sha256.c ****         memcpy( (void *) (ctx->buffer + left), input, ilen );
 2421              		.loc 1 319 27
 2422 00cc FB68     		ldr	r3, [r7, #12]
ARM GAS  C:\Users\lenovo\AppData\Local\Temp\ccds4vwo.s 			page 49


 2423 00ce 03F12802 		add	r2, r3, #40
 2424              		.loc 1 319 9
 2425 00d2 FB69     		ldr	r3, [r7, #28]
 2426 00d4 1344     		add	r3, r3, r2
 2427 00d6 7A68     		ldr	r2, [r7, #4]
 2428 00d8 B968     		ldr	r1, [r7, #8]
 2429 00da 1846     		mov	r0, r3
 2430 00dc FFF7FEFF 		bl	memcpy
 2431              	.L49:
 320:c:/Users/lenovo/Desktop/AIoT/first_day/firstday_afternoon/LiteOS_Lab_STM32_IoT/iot_link/network/dtls/mbedtls/mbedtls-2.16.2/library\sha256.c **** 
 321:c:/Users/lenovo/Desktop/AIoT/first_day/firstday_afternoon/LiteOS_Lab_STM32_IoT/iot_link/network/dtls/mbedtls/mbedtls-2.16.2/library\sha256.c ****     return( 0 );
 2432              		.loc 1 321 11
 2433 00e0 0023     		movs	r3, #0
 2434              	.L42:
 322:c:/Users/lenovo/Desktop/AIoT/first_day/firstday_afternoon/LiteOS_Lab_STM32_IoT/iot_link/network/dtls/mbedtls/mbedtls-2.16.2/library\sha256.c **** }
 2435              		.loc 1 322 1
 2436 00e2 1846     		mov	r0, r3
 2437 00e4 2037     		adds	r7, r7, #32
 2438              	.LCFI40:
 2439              		.cfi_def_cfa_offset 8
 2440 00e6 BD46     		mov	sp, r7
 2441              	.LCFI41:
 2442              		.cfi_def_cfa_register 13
 2443              		@ sp needed
 2444 00e8 80BD     		pop	{r7, pc}
 2445              		.cfi_endproc
 2446              	.LFE7:
 2448              		.section	.text.mbedtls_sha256_update,"ax",%progbits
 2449              		.align	1
 2450              		.global	mbedtls_sha256_update
 2451              		.syntax unified
 2452              		.thumb
 2453              		.thumb_func
 2454              		.fpu fpv4-sp-d16
 2456              	mbedtls_sha256_update:
 2457              	.LFB8:
 323:c:/Users/lenovo/Desktop/AIoT/first_day/firstday_afternoon/LiteOS_Lab_STM32_IoT/iot_link/network/dtls/mbedtls/mbedtls-2.16.2/library\sha256.c **** 
 324:c:/Users/lenovo/Desktop/AIoT/first_day/firstday_afternoon/LiteOS_Lab_STM32_IoT/iot_link/network/dtls/mbedtls/mbedtls-2.16.2/library\sha256.c **** #if !defined(MBEDTLS_DEPRECATED_REMOVED)
 325:c:/Users/lenovo/Desktop/AIoT/first_day/firstday_afternoon/LiteOS_Lab_STM32_IoT/iot_link/network/dtls/mbedtls/mbedtls-2.16.2/library\sha256.c **** void mbedtls_sha256_update( mbedtls_sha256_context *ctx,
 326:c:/Users/lenovo/Desktop/AIoT/first_day/firstday_afternoon/LiteOS_Lab_STM32_IoT/iot_link/network/dtls/mbedtls/mbedtls-2.16.2/library\sha256.c ****                             const unsigned char *input,
 327:c:/Users/lenovo/Desktop/AIoT/first_day/firstday_afternoon/LiteOS_Lab_STM32_IoT/iot_link/network/dtls/mbedtls/mbedtls-2.16.2/library\sha256.c ****                             size_t ilen )
 328:c:/Users/lenovo/Desktop/AIoT/first_day/firstday_afternoon/LiteOS_Lab_STM32_IoT/iot_link/network/dtls/mbedtls/mbedtls-2.16.2/library\sha256.c **** {
 2458              		.loc 1 328 1
 2459              		.cfi_startproc
 2460              		@ args = 0, pretend = 0, frame = 16
 2461              		@ frame_needed = 1, uses_anonymous_args = 0
 2462 0000 80B5     		push	{r7, lr}
 2463              	.LCFI42:
 2464              		.cfi_def_cfa_offset 8
 2465              		.cfi_offset 7, -8
 2466              		.cfi_offset 14, -4
 2467 0002 84B0     		sub	sp, sp, #16
 2468              	.LCFI43:
 2469              		.cfi_def_cfa_offset 24
 2470 0004 00AF     		add	r7, sp, #0
 2471              	.LCFI44:
 2472              		.cfi_def_cfa_register 7
ARM GAS  C:\Users\lenovo\AppData\Local\Temp\ccds4vwo.s 			page 50


 2473 0006 F860     		str	r0, [r7, #12]
 2474 0008 B960     		str	r1, [r7, #8]
 2475 000a 7A60     		str	r2, [r7, #4]
 329:c:/Users/lenovo/Desktop/AIoT/first_day/firstday_afternoon/LiteOS_Lab_STM32_IoT/iot_link/network/dtls/mbedtls/mbedtls-2.16.2/library\sha256.c ****     mbedtls_sha256_update_ret( ctx, input, ilen );
 2476              		.loc 1 329 5
 2477 000c 7A68     		ldr	r2, [r7, #4]
 2478 000e B968     		ldr	r1, [r7, #8]
 2479 0010 F868     		ldr	r0, [r7, #12]
 2480 0012 FFF7FEFF 		bl	mbedtls_sha256_update_ret
 330:c:/Users/lenovo/Desktop/AIoT/first_day/firstday_afternoon/LiteOS_Lab_STM32_IoT/iot_link/network/dtls/mbedtls/mbedtls-2.16.2/library\sha256.c **** }
 2481              		.loc 1 330 1
 2482 0016 00BF     		nop
 2483 0018 1037     		adds	r7, r7, #16
 2484              	.LCFI45:
 2485              		.cfi_def_cfa_offset 8
 2486 001a BD46     		mov	sp, r7
 2487              	.LCFI46:
 2488              		.cfi_def_cfa_register 13
 2489              		@ sp needed
 2490 001c 80BD     		pop	{r7, pc}
 2491              		.cfi_endproc
 2492              	.LFE8:
 2494              		.section	.text.mbedtls_sha256_finish_ret,"ax",%progbits
 2495              		.align	1
 2496              		.global	mbedtls_sha256_finish_ret
 2497              		.syntax unified
 2498              		.thumb
 2499              		.thumb_func
 2500              		.fpu fpv4-sp-d16
 2502              	mbedtls_sha256_finish_ret:
 2503              	.LFB9:
 331:c:/Users/lenovo/Desktop/AIoT/first_day/firstday_afternoon/LiteOS_Lab_STM32_IoT/iot_link/network/dtls/mbedtls/mbedtls-2.16.2/library\sha256.c **** #endif
 332:c:/Users/lenovo/Desktop/AIoT/first_day/firstday_afternoon/LiteOS_Lab_STM32_IoT/iot_link/network/dtls/mbedtls/mbedtls-2.16.2/library\sha256.c **** 
 333:c:/Users/lenovo/Desktop/AIoT/first_day/firstday_afternoon/LiteOS_Lab_STM32_IoT/iot_link/network/dtls/mbedtls/mbedtls-2.16.2/library\sha256.c **** /*
 334:c:/Users/lenovo/Desktop/AIoT/first_day/firstday_afternoon/LiteOS_Lab_STM32_IoT/iot_link/network/dtls/mbedtls/mbedtls-2.16.2/library\sha256.c ****  * SHA-256 final digest
 335:c:/Users/lenovo/Desktop/AIoT/first_day/firstday_afternoon/LiteOS_Lab_STM32_IoT/iot_link/network/dtls/mbedtls/mbedtls-2.16.2/library\sha256.c ****  */
 336:c:/Users/lenovo/Desktop/AIoT/first_day/firstday_afternoon/LiteOS_Lab_STM32_IoT/iot_link/network/dtls/mbedtls/mbedtls-2.16.2/library\sha256.c **** int mbedtls_sha256_finish_ret( mbedtls_sha256_context *ctx,
 337:c:/Users/lenovo/Desktop/AIoT/first_day/firstday_afternoon/LiteOS_Lab_STM32_IoT/iot_link/network/dtls/mbedtls/mbedtls-2.16.2/library\sha256.c ****                                unsigned char output[32] )
 338:c:/Users/lenovo/Desktop/AIoT/first_day/firstday_afternoon/LiteOS_Lab_STM32_IoT/iot_link/network/dtls/mbedtls/mbedtls-2.16.2/library\sha256.c **** {
 2504              		.loc 1 338 1
 2505              		.cfi_startproc
 2506              		@ args = 0, pretend = 0, frame = 24
 2507              		@ frame_needed = 1, uses_anonymous_args = 0
 2508 0000 80B5     		push	{r7, lr}
 2509              	.LCFI47:
 2510              		.cfi_def_cfa_offset 8
 2511              		.cfi_offset 7, -8
 2512              		.cfi_offset 14, -4
 2513 0002 86B0     		sub	sp, sp, #24
 2514              	.LCFI48:
 2515              		.cfi_def_cfa_offset 32
 2516 0004 00AF     		add	r7, sp, #0
 2517              	.LCFI49:
 2518              		.cfi_def_cfa_register 7
 2519 0006 7860     		str	r0, [r7, #4]
 2520 0008 3960     		str	r1, [r7]
 339:c:/Users/lenovo/Desktop/AIoT/first_day/firstday_afternoon/LiteOS_Lab_STM32_IoT/iot_link/network/dtls/mbedtls/mbedtls-2.16.2/library\sha256.c ****     int ret;
ARM GAS  C:\Users\lenovo\AppData\Local\Temp\ccds4vwo.s 			page 51


 340:c:/Users/lenovo/Desktop/AIoT/first_day/firstday_afternoon/LiteOS_Lab_STM32_IoT/iot_link/network/dtls/mbedtls/mbedtls-2.16.2/library\sha256.c ****     uint32_t used;
 341:c:/Users/lenovo/Desktop/AIoT/first_day/firstday_afternoon/LiteOS_Lab_STM32_IoT/iot_link/network/dtls/mbedtls/mbedtls-2.16.2/library\sha256.c ****     uint32_t high, low;
 342:c:/Users/lenovo/Desktop/AIoT/first_day/firstday_afternoon/LiteOS_Lab_STM32_IoT/iot_link/network/dtls/mbedtls/mbedtls-2.16.2/library\sha256.c **** 
 343:c:/Users/lenovo/Desktop/AIoT/first_day/firstday_afternoon/LiteOS_Lab_STM32_IoT/iot_link/network/dtls/mbedtls/mbedtls-2.16.2/library\sha256.c ****     SHA256_VALIDATE_RET( ctx != NULL );
 344:c:/Users/lenovo/Desktop/AIoT/first_day/firstday_afternoon/LiteOS_Lab_STM32_IoT/iot_link/network/dtls/mbedtls/mbedtls-2.16.2/library\sha256.c ****     SHA256_VALIDATE_RET( (unsigned char *)output != NULL );
 345:c:/Users/lenovo/Desktop/AIoT/first_day/firstday_afternoon/LiteOS_Lab_STM32_IoT/iot_link/network/dtls/mbedtls/mbedtls-2.16.2/library\sha256.c **** 
 346:c:/Users/lenovo/Desktop/AIoT/first_day/firstday_afternoon/LiteOS_Lab_STM32_IoT/iot_link/network/dtls/mbedtls/mbedtls-2.16.2/library\sha256.c ****     /*
 347:c:/Users/lenovo/Desktop/AIoT/first_day/firstday_afternoon/LiteOS_Lab_STM32_IoT/iot_link/network/dtls/mbedtls/mbedtls-2.16.2/library\sha256.c ****      * Add padding: 0x80 then 0x00 until 8 bytes remain for the length
 348:c:/Users/lenovo/Desktop/AIoT/first_day/firstday_afternoon/LiteOS_Lab_STM32_IoT/iot_link/network/dtls/mbedtls/mbedtls-2.16.2/library\sha256.c ****      */
 349:c:/Users/lenovo/Desktop/AIoT/first_day/firstday_afternoon/LiteOS_Lab_STM32_IoT/iot_link/network/dtls/mbedtls/mbedtls-2.16.2/library\sha256.c ****     used = ctx->total[0] & 0x3F;
 2521              		.loc 1 349 22
 2522 000a 7B68     		ldr	r3, [r7, #4]
 2523 000c 1B68     		ldr	r3, [r3]
 2524              		.loc 1 349 10
 2525 000e 03F03F03 		and	r3, r3, #63
 2526 0012 7B61     		str	r3, [r7, #20]
 350:c:/Users/lenovo/Desktop/AIoT/first_day/firstday_afternoon/LiteOS_Lab_STM32_IoT/iot_link/network/dtls/mbedtls/mbedtls-2.16.2/library\sha256.c **** 
 351:c:/Users/lenovo/Desktop/AIoT/first_day/firstday_afternoon/LiteOS_Lab_STM32_IoT/iot_link/network/dtls/mbedtls/mbedtls-2.16.2/library\sha256.c ****     ctx->buffer[used++] = 0x80;
 2527              		.loc 1 351 21
 2528 0014 7B69     		ldr	r3, [r7, #20]
 2529 0016 5A1C     		adds	r2, r3, #1
 2530 0018 7A61     		str	r2, [r7, #20]
 2531              		.loc 1 351 25
 2532 001a 7A68     		ldr	r2, [r7, #4]
 2533 001c 1344     		add	r3, r3, r2
 2534 001e 8022     		movs	r2, #128
 2535 0020 83F82820 		strb	r2, [r3, #40]
 352:c:/Users/lenovo/Desktop/AIoT/first_day/firstday_afternoon/LiteOS_Lab_STM32_IoT/iot_link/network/dtls/mbedtls/mbedtls-2.16.2/library\sha256.c **** 
 353:c:/Users/lenovo/Desktop/AIoT/first_day/firstday_afternoon/LiteOS_Lab_STM32_IoT/iot_link/network/dtls/mbedtls/mbedtls-2.16.2/library\sha256.c ****     if( used <= 56 )
 2536              		.loc 1 353 7
 2537 0024 7B69     		ldr	r3, [r7, #20]
 2538 0026 382B     		cmp	r3, #56
 2539 0028 0CD8     		bhi	.L52
 354:c:/Users/lenovo/Desktop/AIoT/first_day/firstday_afternoon/LiteOS_Lab_STM32_IoT/iot_link/network/dtls/mbedtls/mbedtls-2.16.2/library\sha256.c ****     {
 355:c:/Users/lenovo/Desktop/AIoT/first_day/firstday_afternoon/LiteOS_Lab_STM32_IoT/iot_link/network/dtls/mbedtls/mbedtls-2.16.2/library\sha256.c ****         /* Enough room for padding + length in current block */
 356:c:/Users/lenovo/Desktop/AIoT/first_day/firstday_afternoon/LiteOS_Lab_STM32_IoT/iot_link/network/dtls/mbedtls/mbedtls-2.16.2/library\sha256.c ****         memset( ctx->buffer + used, 0, 56 - used );
 2540              		.loc 1 356 17
 2541 002a 7B68     		ldr	r3, [r7, #4]
 2542 002c 03F12802 		add	r2, r3, #40
 2543              		.loc 1 356 9
 2544 0030 7B69     		ldr	r3, [r7, #20]
 2545 0032 D018     		adds	r0, r2, r3
 2546              		.loc 1 356 43
 2547 0034 7B69     		ldr	r3, [r7, #20]
 2548 0036 C3F13803 		rsb	r3, r3, #56
 2549              		.loc 1 356 9
 2550 003a 1A46     		mov	r2, r3
 2551 003c 0021     		movs	r1, #0
 2552 003e FFF7FEFF 		bl	memset
 2553 0042 1EE0     		b	.L53
 2554              	.L52:
 357:c:/Users/lenovo/Desktop/AIoT/first_day/firstday_afternoon/LiteOS_Lab_STM32_IoT/iot_link/network/dtls/mbedtls/mbedtls-2.16.2/library\sha256.c ****     }
 358:c:/Users/lenovo/Desktop/AIoT/first_day/firstday_afternoon/LiteOS_Lab_STM32_IoT/iot_link/network/dtls/mbedtls/mbedtls-2.16.2/library\sha256.c ****     else
 359:c:/Users/lenovo/Desktop/AIoT/first_day/firstday_afternoon/LiteOS_Lab_STM32_IoT/iot_link/network/dtls/mbedtls/mbedtls-2.16.2/library\sha256.c ****     {
 360:c:/Users/lenovo/Desktop/AIoT/first_day/firstday_afternoon/LiteOS_Lab_STM32_IoT/iot_link/network/dtls/mbedtls/mbedtls-2.16.2/library\sha256.c ****         /* We'll need an extra block */
 361:c:/Users/lenovo/Desktop/AIoT/first_day/firstday_afternoon/LiteOS_Lab_STM32_IoT/iot_link/network/dtls/mbedtls/mbedtls-2.16.2/library\sha256.c ****         memset( ctx->buffer + used, 0, 64 - used );
 2555              		.loc 1 361 17
ARM GAS  C:\Users\lenovo\AppData\Local\Temp\ccds4vwo.s 			page 52


 2556 0044 7B68     		ldr	r3, [r7, #4]
 2557 0046 03F12802 		add	r2, r3, #40
 2558              		.loc 1 361 9
 2559 004a 7B69     		ldr	r3, [r7, #20]
 2560 004c D018     		adds	r0, r2, r3
 2561              		.loc 1 361 43
 2562 004e 7B69     		ldr	r3, [r7, #20]
 2563 0050 C3F14003 		rsb	r3, r3, #64
 2564              		.loc 1 361 9
 2565 0054 1A46     		mov	r2, r3
 2566 0056 0021     		movs	r1, #0
 2567 0058 FFF7FEFF 		bl	memset
 362:c:/Users/lenovo/Desktop/AIoT/first_day/firstday_afternoon/LiteOS_Lab_STM32_IoT/iot_link/network/dtls/mbedtls/mbedtls-2.16.2/library\sha256.c **** 
 363:c:/Users/lenovo/Desktop/AIoT/first_day/firstday_afternoon/LiteOS_Lab_STM32_IoT/iot_link/network/dtls/mbedtls/mbedtls-2.16.2/library\sha256.c ****         if( ( ret = mbedtls_internal_sha256_process( ctx, ctx->buffer ) ) != 0 )
 2568              		.loc 1 363 62
 2569 005c 7B68     		ldr	r3, [r7, #4]
 2570 005e 2833     		adds	r3, r3, #40
 2571              		.loc 1 363 21
 2572 0060 1946     		mov	r1, r3
 2573 0062 7868     		ldr	r0, [r7, #4]
 2574 0064 FFF7FEFF 		bl	mbedtls_internal_sha256_process
 2575 0068 3861     		str	r0, [r7, #16]
 2576              		.loc 1 363 11
 2577 006a 3B69     		ldr	r3, [r7, #16]
 2578 006c 002B     		cmp	r3, #0
 2579 006e 01D0     		beq	.L54
 364:c:/Users/lenovo/Desktop/AIoT/first_day/firstday_afternoon/LiteOS_Lab_STM32_IoT/iot_link/network/dtls/mbedtls/mbedtls-2.16.2/library\sha256.c ****             return( ret );
 2580              		.loc 1 364 19
 2581 0070 3B69     		ldr	r3, [r7, #16]
 2582 0072 28E1     		b	.L55
 2583              	.L54:
 365:c:/Users/lenovo/Desktop/AIoT/first_day/firstday_afternoon/LiteOS_Lab_STM32_IoT/iot_link/network/dtls/mbedtls/mbedtls-2.16.2/library\sha256.c **** 
 366:c:/Users/lenovo/Desktop/AIoT/first_day/firstday_afternoon/LiteOS_Lab_STM32_IoT/iot_link/network/dtls/mbedtls/mbedtls-2.16.2/library\sha256.c ****         memset( ctx->buffer, 0, 56 );
 2584              		.loc 1 366 20
 2585 0074 7B68     		ldr	r3, [r7, #4]
 2586 0076 2833     		adds	r3, r3, #40
 2587              		.loc 1 366 9
 2588 0078 3822     		movs	r2, #56
 2589 007a 0021     		movs	r1, #0
 2590 007c 1846     		mov	r0, r3
 2591 007e FFF7FEFF 		bl	memset
 2592              	.L53:
 367:c:/Users/lenovo/Desktop/AIoT/first_day/firstday_afternoon/LiteOS_Lab_STM32_IoT/iot_link/network/dtls/mbedtls/mbedtls-2.16.2/library\sha256.c ****     }
 368:c:/Users/lenovo/Desktop/AIoT/first_day/firstday_afternoon/LiteOS_Lab_STM32_IoT/iot_link/network/dtls/mbedtls/mbedtls-2.16.2/library\sha256.c **** 
 369:c:/Users/lenovo/Desktop/AIoT/first_day/firstday_afternoon/LiteOS_Lab_STM32_IoT/iot_link/network/dtls/mbedtls/mbedtls-2.16.2/library\sha256.c ****     /*
 370:c:/Users/lenovo/Desktop/AIoT/first_day/firstday_afternoon/LiteOS_Lab_STM32_IoT/iot_link/network/dtls/mbedtls/mbedtls-2.16.2/library\sha256.c ****      * Add message length
 371:c:/Users/lenovo/Desktop/AIoT/first_day/firstday_afternoon/LiteOS_Lab_STM32_IoT/iot_link/network/dtls/mbedtls/mbedtls-2.16.2/library\sha256.c ****      */
 372:c:/Users/lenovo/Desktop/AIoT/first_day/firstday_afternoon/LiteOS_Lab_STM32_IoT/iot_link/network/dtls/mbedtls/mbedtls-2.16.2/library\sha256.c ****     high = ( ctx->total[0] >> 29 )
 2593              		.loc 1 372 24
 2594 0082 7B68     		ldr	r3, [r7, #4]
 2595 0084 1B68     		ldr	r3, [r3]
 2596              		.loc 1 372 28
 2597 0086 5A0F     		lsrs	r2, r3, #29
 373:c:/Users/lenovo/Desktop/AIoT/first_day/firstday_afternoon/LiteOS_Lab_STM32_IoT/iot_link/network/dtls/mbedtls/mbedtls-2.16.2/library\sha256.c ****          | ( ctx->total[1] <<  3 );
 2598              		.loc 1 373 24
 2599 0088 7B68     		ldr	r3, [r7, #4]
 2600 008a 5B68     		ldr	r3, [r3, #4]
ARM GAS  C:\Users\lenovo\AppData\Local\Temp\ccds4vwo.s 			page 53


 2601              		.loc 1 373 28
 2602 008c DB00     		lsls	r3, r3, #3
 372:c:/Users/lenovo/Desktop/AIoT/first_day/firstday_afternoon/LiteOS_Lab_STM32_IoT/iot_link/network/dtls/mbedtls/mbedtls-2.16.2/library\sha256.c ****          | ( ctx->total[1] <<  3 );
 2603              		.loc 1 372 10
 2604 008e 1343     		orrs	r3, r3, r2
 2605 0090 FB60     		str	r3, [r7, #12]
 374:c:/Users/lenovo/Desktop/AIoT/first_day/firstday_afternoon/LiteOS_Lab_STM32_IoT/iot_link/network/dtls/mbedtls/mbedtls-2.16.2/library\sha256.c ****     low  = ( ctx->total[0] <<  3 );
 2606              		.loc 1 374 24
 2607 0092 7B68     		ldr	r3, [r7, #4]
 2608 0094 1B68     		ldr	r3, [r3]
 2609              		.loc 1 374 10
 2610 0096 DB00     		lsls	r3, r3, #3
 2611 0098 BB60     		str	r3, [r7, #8]
 375:c:/Users/lenovo/Desktop/AIoT/first_day/firstday_afternoon/LiteOS_Lab_STM32_IoT/iot_link/network/dtls/mbedtls/mbedtls-2.16.2/library\sha256.c **** 
 376:c:/Users/lenovo/Desktop/AIoT/first_day/firstday_afternoon/LiteOS_Lab_STM32_IoT/iot_link/network/dtls/mbedtls/mbedtls-2.16.2/library\sha256.c ****     PUT_UINT32_BE( high, ctx->buffer, 56 );
 2612              		.loc 1 376 5
 2613 009a FB68     		ldr	r3, [r7, #12]
 2614 009c 1B0E     		lsrs	r3, r3, #24
 2615 009e DAB2     		uxtb	r2, r3
 2616 00a0 7B68     		ldr	r3, [r7, #4]
 2617 00a2 83F86020 		strb	r2, [r3, #96]
 2618 00a6 FB68     		ldr	r3, [r7, #12]
 2619 00a8 1B0C     		lsrs	r3, r3, #16
 2620 00aa DAB2     		uxtb	r2, r3
 2621 00ac 7B68     		ldr	r3, [r7, #4]
 2622 00ae 83F86120 		strb	r2, [r3, #97]
 2623 00b2 FB68     		ldr	r3, [r7, #12]
 2624 00b4 1B0A     		lsrs	r3, r3, #8
 2625 00b6 DAB2     		uxtb	r2, r3
 2626 00b8 7B68     		ldr	r3, [r7, #4]
 2627 00ba 83F86220 		strb	r2, [r3, #98]
 2628 00be FB68     		ldr	r3, [r7, #12]
 2629 00c0 DAB2     		uxtb	r2, r3
 2630 00c2 7B68     		ldr	r3, [r7, #4]
 2631 00c4 83F86320 		strb	r2, [r3, #99]
 377:c:/Users/lenovo/Desktop/AIoT/first_day/firstday_afternoon/LiteOS_Lab_STM32_IoT/iot_link/network/dtls/mbedtls/mbedtls-2.16.2/library\sha256.c ****     PUT_UINT32_BE( low,  ctx->buffer, 60 );
 2632              		.loc 1 377 5
 2633 00c8 BB68     		ldr	r3, [r7, #8]
 2634 00ca 1B0E     		lsrs	r3, r3, #24
 2635 00cc DAB2     		uxtb	r2, r3
 2636 00ce 7B68     		ldr	r3, [r7, #4]
 2637 00d0 83F86420 		strb	r2, [r3, #100]
 2638 00d4 BB68     		ldr	r3, [r7, #8]
 2639 00d6 1B0C     		lsrs	r3, r3, #16
 2640 00d8 DAB2     		uxtb	r2, r3
 2641 00da 7B68     		ldr	r3, [r7, #4]
 2642 00dc 83F86520 		strb	r2, [r3, #101]
 2643 00e0 BB68     		ldr	r3, [r7, #8]
 2644 00e2 1B0A     		lsrs	r3, r3, #8
 2645 00e4 DAB2     		uxtb	r2, r3
 2646 00e6 7B68     		ldr	r3, [r7, #4]
 2647 00e8 83F86620 		strb	r2, [r3, #102]
 2648 00ec BB68     		ldr	r3, [r7, #8]
 2649 00ee DAB2     		uxtb	r2, r3
 2650 00f0 7B68     		ldr	r3, [r7, #4]
 2651 00f2 83F86720 		strb	r2, [r3, #103]
 378:c:/Users/lenovo/Desktop/AIoT/first_day/firstday_afternoon/LiteOS_Lab_STM32_IoT/iot_link/network/dtls/mbedtls/mbedtls-2.16.2/library\sha256.c **** 
ARM GAS  C:\Users\lenovo\AppData\Local\Temp\ccds4vwo.s 			page 54


 379:c:/Users/lenovo/Desktop/AIoT/first_day/firstday_afternoon/LiteOS_Lab_STM32_IoT/iot_link/network/dtls/mbedtls/mbedtls-2.16.2/library\sha256.c ****     if( ( ret = mbedtls_internal_sha256_process( ctx, ctx->buffer ) ) != 0 )
 2652              		.loc 1 379 58
 2653 00f6 7B68     		ldr	r3, [r7, #4]
 2654 00f8 2833     		adds	r3, r3, #40
 2655              		.loc 1 379 17
 2656 00fa 1946     		mov	r1, r3
 2657 00fc 7868     		ldr	r0, [r7, #4]
 2658 00fe FFF7FEFF 		bl	mbedtls_internal_sha256_process
 2659 0102 3861     		str	r0, [r7, #16]
 2660              		.loc 1 379 7
 2661 0104 3B69     		ldr	r3, [r7, #16]
 2662 0106 002B     		cmp	r3, #0
 2663 0108 01D0     		beq	.L56
 380:c:/Users/lenovo/Desktop/AIoT/first_day/firstday_afternoon/LiteOS_Lab_STM32_IoT/iot_link/network/dtls/mbedtls/mbedtls-2.16.2/library\sha256.c ****         return( ret );
 2664              		.loc 1 380 15
 2665 010a 3B69     		ldr	r3, [r7, #16]
 2666 010c DBE0     		b	.L55
 2667              	.L56:
 381:c:/Users/lenovo/Desktop/AIoT/first_day/firstday_afternoon/LiteOS_Lab_STM32_IoT/iot_link/network/dtls/mbedtls/mbedtls-2.16.2/library\sha256.c **** 
 382:c:/Users/lenovo/Desktop/AIoT/first_day/firstday_afternoon/LiteOS_Lab_STM32_IoT/iot_link/network/dtls/mbedtls/mbedtls-2.16.2/library\sha256.c ****     /*
 383:c:/Users/lenovo/Desktop/AIoT/first_day/firstday_afternoon/LiteOS_Lab_STM32_IoT/iot_link/network/dtls/mbedtls/mbedtls-2.16.2/library\sha256.c ****      * Output final state
 384:c:/Users/lenovo/Desktop/AIoT/first_day/firstday_afternoon/LiteOS_Lab_STM32_IoT/iot_link/network/dtls/mbedtls/mbedtls-2.16.2/library\sha256.c ****      */
 385:c:/Users/lenovo/Desktop/AIoT/first_day/firstday_afternoon/LiteOS_Lab_STM32_IoT/iot_link/network/dtls/mbedtls/mbedtls-2.16.2/library\sha256.c ****     PUT_UINT32_BE( ctx->state[0], output,  0 );
 2668              		.loc 1 385 5
 2669 010e 7B68     		ldr	r3, [r7, #4]
 2670 0110 9B68     		ldr	r3, [r3, #8]
 2671 0112 1B0E     		lsrs	r3, r3, #24
 2672 0114 DAB2     		uxtb	r2, r3
 2673 0116 3B68     		ldr	r3, [r7]
 2674 0118 1A70     		strb	r2, [r3]
 2675 011a 7B68     		ldr	r3, [r7, #4]
 2676 011c 9B68     		ldr	r3, [r3, #8]
 2677 011e 1A0C     		lsrs	r2, r3, #16
 2678 0120 3B68     		ldr	r3, [r7]
 2679 0122 0133     		adds	r3, r3, #1
 2680 0124 D2B2     		uxtb	r2, r2
 2681 0126 1A70     		strb	r2, [r3]
 2682 0128 7B68     		ldr	r3, [r7, #4]
 2683 012a 9B68     		ldr	r3, [r3, #8]
 2684 012c 1A0A     		lsrs	r2, r3, #8
 2685 012e 3B68     		ldr	r3, [r7]
 2686 0130 0233     		adds	r3, r3, #2
 2687 0132 D2B2     		uxtb	r2, r2
 2688 0134 1A70     		strb	r2, [r3]
 2689 0136 7B68     		ldr	r3, [r7, #4]
 2690 0138 9A68     		ldr	r2, [r3, #8]
 2691 013a 3B68     		ldr	r3, [r7]
 2692 013c 0333     		adds	r3, r3, #3
 2693 013e D2B2     		uxtb	r2, r2
 2694 0140 1A70     		strb	r2, [r3]
 386:c:/Users/lenovo/Desktop/AIoT/first_day/firstday_afternoon/LiteOS_Lab_STM32_IoT/iot_link/network/dtls/mbedtls/mbedtls-2.16.2/library\sha256.c ****     PUT_UINT32_BE( ctx->state[1], output,  4 );
 2695              		.loc 1 386 5
 2696 0142 7B68     		ldr	r3, [r7, #4]
 2697 0144 DB68     		ldr	r3, [r3, #12]
 2698 0146 1A0E     		lsrs	r2, r3, #24
 2699 0148 3B68     		ldr	r3, [r7]
 2700 014a 0433     		adds	r3, r3, #4
ARM GAS  C:\Users\lenovo\AppData\Local\Temp\ccds4vwo.s 			page 55


 2701 014c D2B2     		uxtb	r2, r2
 2702 014e 1A70     		strb	r2, [r3]
 2703 0150 7B68     		ldr	r3, [r7, #4]
 2704 0152 DB68     		ldr	r3, [r3, #12]
 2705 0154 1A0C     		lsrs	r2, r3, #16
 2706 0156 3B68     		ldr	r3, [r7]
 2707 0158 0533     		adds	r3, r3, #5
 2708 015a D2B2     		uxtb	r2, r2
 2709 015c 1A70     		strb	r2, [r3]
 2710 015e 7B68     		ldr	r3, [r7, #4]
 2711 0160 DB68     		ldr	r3, [r3, #12]
 2712 0162 1A0A     		lsrs	r2, r3, #8
 2713 0164 3B68     		ldr	r3, [r7]
 2714 0166 0633     		adds	r3, r3, #6
 2715 0168 D2B2     		uxtb	r2, r2
 2716 016a 1A70     		strb	r2, [r3]
 2717 016c 7B68     		ldr	r3, [r7, #4]
 2718 016e DA68     		ldr	r2, [r3, #12]
 2719 0170 3B68     		ldr	r3, [r7]
 2720 0172 0733     		adds	r3, r3, #7
 2721 0174 D2B2     		uxtb	r2, r2
 2722 0176 1A70     		strb	r2, [r3]
 387:c:/Users/lenovo/Desktop/AIoT/first_day/firstday_afternoon/LiteOS_Lab_STM32_IoT/iot_link/network/dtls/mbedtls/mbedtls-2.16.2/library\sha256.c ****     PUT_UINT32_BE( ctx->state[2], output,  8 );
 2723              		.loc 1 387 5
 2724 0178 7B68     		ldr	r3, [r7, #4]
 2725 017a 1B69     		ldr	r3, [r3, #16]
 2726 017c 1A0E     		lsrs	r2, r3, #24
 2727 017e 3B68     		ldr	r3, [r7]
 2728 0180 0833     		adds	r3, r3, #8
 2729 0182 D2B2     		uxtb	r2, r2
 2730 0184 1A70     		strb	r2, [r3]
 2731 0186 7B68     		ldr	r3, [r7, #4]
 2732 0188 1B69     		ldr	r3, [r3, #16]
 2733 018a 1A0C     		lsrs	r2, r3, #16
 2734 018c 3B68     		ldr	r3, [r7]
 2735 018e 0933     		adds	r3, r3, #9
 2736 0190 D2B2     		uxtb	r2, r2
 2737 0192 1A70     		strb	r2, [r3]
 2738 0194 7B68     		ldr	r3, [r7, #4]
 2739 0196 1B69     		ldr	r3, [r3, #16]
 2740 0198 1A0A     		lsrs	r2, r3, #8
 2741 019a 3B68     		ldr	r3, [r7]
 2742 019c 0A33     		adds	r3, r3, #10
 2743 019e D2B2     		uxtb	r2, r2
 2744 01a0 1A70     		strb	r2, [r3]
 2745 01a2 7B68     		ldr	r3, [r7, #4]
 2746 01a4 1A69     		ldr	r2, [r3, #16]
 2747 01a6 3B68     		ldr	r3, [r7]
 2748 01a8 0B33     		adds	r3, r3, #11
 2749 01aa D2B2     		uxtb	r2, r2
 2750 01ac 1A70     		strb	r2, [r3]
 388:c:/Users/lenovo/Desktop/AIoT/first_day/firstday_afternoon/LiteOS_Lab_STM32_IoT/iot_link/network/dtls/mbedtls/mbedtls-2.16.2/library\sha256.c ****     PUT_UINT32_BE( ctx->state[3], output, 12 );
 2751              		.loc 1 388 5
 2752 01ae 7B68     		ldr	r3, [r7, #4]
 2753 01b0 5B69     		ldr	r3, [r3, #20]
 2754 01b2 1A0E     		lsrs	r2, r3, #24
 2755 01b4 3B68     		ldr	r3, [r7]
ARM GAS  C:\Users\lenovo\AppData\Local\Temp\ccds4vwo.s 			page 56


 2756 01b6 0C33     		adds	r3, r3, #12
 2757 01b8 D2B2     		uxtb	r2, r2
 2758 01ba 1A70     		strb	r2, [r3]
 2759 01bc 7B68     		ldr	r3, [r7, #4]
 2760 01be 5B69     		ldr	r3, [r3, #20]
 2761 01c0 1A0C     		lsrs	r2, r3, #16
 2762 01c2 3B68     		ldr	r3, [r7]
 2763 01c4 0D33     		adds	r3, r3, #13
 2764 01c6 D2B2     		uxtb	r2, r2
 2765 01c8 1A70     		strb	r2, [r3]
 2766 01ca 7B68     		ldr	r3, [r7, #4]
 2767 01cc 5B69     		ldr	r3, [r3, #20]
 2768 01ce 1A0A     		lsrs	r2, r3, #8
 2769 01d0 3B68     		ldr	r3, [r7]
 2770 01d2 0E33     		adds	r3, r3, #14
 2771 01d4 D2B2     		uxtb	r2, r2
 2772 01d6 1A70     		strb	r2, [r3]
 2773 01d8 7B68     		ldr	r3, [r7, #4]
 2774 01da 5A69     		ldr	r2, [r3, #20]
 2775 01dc 3B68     		ldr	r3, [r7]
 2776 01de 0F33     		adds	r3, r3, #15
 2777 01e0 D2B2     		uxtb	r2, r2
 2778 01e2 1A70     		strb	r2, [r3]
 389:c:/Users/lenovo/Desktop/AIoT/first_day/firstday_afternoon/LiteOS_Lab_STM32_IoT/iot_link/network/dtls/mbedtls/mbedtls-2.16.2/library\sha256.c ****     PUT_UINT32_BE( ctx->state[4], output, 16 );
 2779              		.loc 1 389 5
 2780 01e4 7B68     		ldr	r3, [r7, #4]
 2781 01e6 9B69     		ldr	r3, [r3, #24]
 2782 01e8 1A0E     		lsrs	r2, r3, #24
 2783 01ea 3B68     		ldr	r3, [r7]
 2784 01ec 1033     		adds	r3, r3, #16
 2785 01ee D2B2     		uxtb	r2, r2
 2786 01f0 1A70     		strb	r2, [r3]
 2787 01f2 7B68     		ldr	r3, [r7, #4]
 2788 01f4 9B69     		ldr	r3, [r3, #24]
 2789 01f6 1A0C     		lsrs	r2, r3, #16
 2790 01f8 3B68     		ldr	r3, [r7]
 2791 01fa 1133     		adds	r3, r3, #17
 2792 01fc D2B2     		uxtb	r2, r2
 2793 01fe 1A70     		strb	r2, [r3]
 2794 0200 7B68     		ldr	r3, [r7, #4]
 2795 0202 9B69     		ldr	r3, [r3, #24]
 2796 0204 1A0A     		lsrs	r2, r3, #8
 2797 0206 3B68     		ldr	r3, [r7]
 2798 0208 1233     		adds	r3, r3, #18
 2799 020a D2B2     		uxtb	r2, r2
 2800 020c 1A70     		strb	r2, [r3]
 2801 020e 7B68     		ldr	r3, [r7, #4]
 2802 0210 9A69     		ldr	r2, [r3, #24]
 2803 0212 3B68     		ldr	r3, [r7]
 2804 0214 1333     		adds	r3, r3, #19
 2805 0216 D2B2     		uxtb	r2, r2
 2806 0218 1A70     		strb	r2, [r3]
 390:c:/Users/lenovo/Desktop/AIoT/first_day/firstday_afternoon/LiteOS_Lab_STM32_IoT/iot_link/network/dtls/mbedtls/mbedtls-2.16.2/library\sha256.c ****     PUT_UINT32_BE( ctx->state[5], output, 20 );
 2807              		.loc 1 390 5
 2808 021a 7B68     		ldr	r3, [r7, #4]
 2809 021c DB69     		ldr	r3, [r3, #28]
 2810 021e 1A0E     		lsrs	r2, r3, #24
ARM GAS  C:\Users\lenovo\AppData\Local\Temp\ccds4vwo.s 			page 57


 2811 0220 3B68     		ldr	r3, [r7]
 2812 0222 1433     		adds	r3, r3, #20
 2813 0224 D2B2     		uxtb	r2, r2
 2814 0226 1A70     		strb	r2, [r3]
 2815 0228 7B68     		ldr	r3, [r7, #4]
 2816 022a DB69     		ldr	r3, [r3, #28]
 2817 022c 1A0C     		lsrs	r2, r3, #16
 2818 022e 3B68     		ldr	r3, [r7]
 2819 0230 1533     		adds	r3, r3, #21
 2820 0232 D2B2     		uxtb	r2, r2
 2821 0234 1A70     		strb	r2, [r3]
 2822 0236 7B68     		ldr	r3, [r7, #4]
 2823 0238 DB69     		ldr	r3, [r3, #28]
 2824 023a 1A0A     		lsrs	r2, r3, #8
 2825 023c 3B68     		ldr	r3, [r7]
 2826 023e 1633     		adds	r3, r3, #22
 2827 0240 D2B2     		uxtb	r2, r2
 2828 0242 1A70     		strb	r2, [r3]
 2829 0244 7B68     		ldr	r3, [r7, #4]
 2830 0246 DA69     		ldr	r2, [r3, #28]
 2831 0248 3B68     		ldr	r3, [r7]
 2832 024a 1733     		adds	r3, r3, #23
 2833 024c D2B2     		uxtb	r2, r2
 2834 024e 1A70     		strb	r2, [r3]
 391:c:/Users/lenovo/Desktop/AIoT/first_day/firstday_afternoon/LiteOS_Lab_STM32_IoT/iot_link/network/dtls/mbedtls/mbedtls-2.16.2/library\sha256.c ****     PUT_UINT32_BE( ctx->state[6], output, 24 );
 2835              		.loc 1 391 5
 2836 0250 7B68     		ldr	r3, [r7, #4]
 2837 0252 1B6A     		ldr	r3, [r3, #32]
 2838 0254 1A0E     		lsrs	r2, r3, #24
 2839 0256 3B68     		ldr	r3, [r7]
 2840 0258 1833     		adds	r3, r3, #24
 2841 025a D2B2     		uxtb	r2, r2
 2842 025c 1A70     		strb	r2, [r3]
 2843 025e 7B68     		ldr	r3, [r7, #4]
 2844 0260 1B6A     		ldr	r3, [r3, #32]
 2845 0262 1A0C     		lsrs	r2, r3, #16
 2846 0264 3B68     		ldr	r3, [r7]
 2847 0266 1933     		adds	r3, r3, #25
 2848 0268 D2B2     		uxtb	r2, r2
 2849 026a 1A70     		strb	r2, [r3]
 2850 026c 7B68     		ldr	r3, [r7, #4]
 2851 026e 1B6A     		ldr	r3, [r3, #32]
 2852 0270 1A0A     		lsrs	r2, r3, #8
 2853 0272 3B68     		ldr	r3, [r7]
 2854 0274 1A33     		adds	r3, r3, #26
 2855 0276 D2B2     		uxtb	r2, r2
 2856 0278 1A70     		strb	r2, [r3]
 2857 027a 7B68     		ldr	r3, [r7, #4]
 2858 027c 1A6A     		ldr	r2, [r3, #32]
 2859 027e 3B68     		ldr	r3, [r7]
 2860 0280 1B33     		adds	r3, r3, #27
 2861 0282 D2B2     		uxtb	r2, r2
 2862 0284 1A70     		strb	r2, [r3]
 392:c:/Users/lenovo/Desktop/AIoT/first_day/firstday_afternoon/LiteOS_Lab_STM32_IoT/iot_link/network/dtls/mbedtls/mbedtls-2.16.2/library\sha256.c **** 
 393:c:/Users/lenovo/Desktop/AIoT/first_day/firstday_afternoon/LiteOS_Lab_STM32_IoT/iot_link/network/dtls/mbedtls/mbedtls-2.16.2/library\sha256.c ****     if( ctx->is224 == 0 )
 2863              		.loc 1 393 12
 2864 0286 7B68     		ldr	r3, [r7, #4]
ARM GAS  C:\Users\lenovo\AppData\Local\Temp\ccds4vwo.s 			page 58


 2865 0288 9B6E     		ldr	r3, [r3, #104]
 2866              		.loc 1 393 7
 2867 028a 002B     		cmp	r3, #0
 2868 028c 1AD1     		bne	.L57
 394:c:/Users/lenovo/Desktop/AIoT/first_day/firstday_afternoon/LiteOS_Lab_STM32_IoT/iot_link/network/dtls/mbedtls/mbedtls-2.16.2/library\sha256.c ****         PUT_UINT32_BE( ctx->state[7], output, 28 );
 2869              		.loc 1 394 9
 2870 028e 7B68     		ldr	r3, [r7, #4]
 2871 0290 5B6A     		ldr	r3, [r3, #36]
 2872 0292 1A0E     		lsrs	r2, r3, #24
 2873 0294 3B68     		ldr	r3, [r7]
 2874 0296 1C33     		adds	r3, r3, #28
 2875 0298 D2B2     		uxtb	r2, r2
 2876 029a 1A70     		strb	r2, [r3]
 2877 029c 7B68     		ldr	r3, [r7, #4]
 2878 029e 5B6A     		ldr	r3, [r3, #36]
 2879 02a0 1A0C     		lsrs	r2, r3, #16
 2880 02a2 3B68     		ldr	r3, [r7]
 2881 02a4 1D33     		adds	r3, r3, #29
 2882 02a6 D2B2     		uxtb	r2, r2
 2883 02a8 1A70     		strb	r2, [r3]
 2884 02aa 7B68     		ldr	r3, [r7, #4]
 2885 02ac 5B6A     		ldr	r3, [r3, #36]
 2886 02ae 1A0A     		lsrs	r2, r3, #8
 2887 02b0 3B68     		ldr	r3, [r7]
 2888 02b2 1E33     		adds	r3, r3, #30
 2889 02b4 D2B2     		uxtb	r2, r2
 2890 02b6 1A70     		strb	r2, [r3]
 2891 02b8 7B68     		ldr	r3, [r7, #4]
 2892 02ba 5A6A     		ldr	r2, [r3, #36]
 2893 02bc 3B68     		ldr	r3, [r7]
 2894 02be 1F33     		adds	r3, r3, #31
 2895 02c0 D2B2     		uxtb	r2, r2
 2896 02c2 1A70     		strb	r2, [r3]
 2897              	.L57:
 395:c:/Users/lenovo/Desktop/AIoT/first_day/firstday_afternoon/LiteOS_Lab_STM32_IoT/iot_link/network/dtls/mbedtls/mbedtls-2.16.2/library\sha256.c **** 
 396:c:/Users/lenovo/Desktop/AIoT/first_day/firstday_afternoon/LiteOS_Lab_STM32_IoT/iot_link/network/dtls/mbedtls/mbedtls-2.16.2/library\sha256.c ****     return( 0 );
 2898              		.loc 1 396 11
 2899 02c4 0023     		movs	r3, #0
 2900              	.L55:
 397:c:/Users/lenovo/Desktop/AIoT/first_day/firstday_afternoon/LiteOS_Lab_STM32_IoT/iot_link/network/dtls/mbedtls/mbedtls-2.16.2/library\sha256.c **** }
 2901              		.loc 1 397 1
 2902 02c6 1846     		mov	r0, r3
 2903 02c8 1837     		adds	r7, r7, #24
 2904              	.LCFI50:
 2905              		.cfi_def_cfa_offset 8
 2906 02ca BD46     		mov	sp, r7
 2907              	.LCFI51:
 2908              		.cfi_def_cfa_register 13
 2909              		@ sp needed
 2910 02cc 80BD     		pop	{r7, pc}
 2911              		.cfi_endproc
 2912              	.LFE9:
 2914              		.section	.text.mbedtls_sha256_finish,"ax",%progbits
 2915              		.align	1
 2916              		.global	mbedtls_sha256_finish
 2917              		.syntax unified
 2918              		.thumb
ARM GAS  C:\Users\lenovo\AppData\Local\Temp\ccds4vwo.s 			page 59


 2919              		.thumb_func
 2920              		.fpu fpv4-sp-d16
 2922              	mbedtls_sha256_finish:
 2923              	.LFB10:
 398:c:/Users/lenovo/Desktop/AIoT/first_day/firstday_afternoon/LiteOS_Lab_STM32_IoT/iot_link/network/dtls/mbedtls/mbedtls-2.16.2/library\sha256.c **** 
 399:c:/Users/lenovo/Desktop/AIoT/first_day/firstday_afternoon/LiteOS_Lab_STM32_IoT/iot_link/network/dtls/mbedtls/mbedtls-2.16.2/library\sha256.c **** #if !defined(MBEDTLS_DEPRECATED_REMOVED)
 400:c:/Users/lenovo/Desktop/AIoT/first_day/firstday_afternoon/LiteOS_Lab_STM32_IoT/iot_link/network/dtls/mbedtls/mbedtls-2.16.2/library\sha256.c **** void mbedtls_sha256_finish( mbedtls_sha256_context *ctx,
 401:c:/Users/lenovo/Desktop/AIoT/first_day/firstday_afternoon/LiteOS_Lab_STM32_IoT/iot_link/network/dtls/mbedtls/mbedtls-2.16.2/library\sha256.c ****                             unsigned char output[32] )
 402:c:/Users/lenovo/Desktop/AIoT/first_day/firstday_afternoon/LiteOS_Lab_STM32_IoT/iot_link/network/dtls/mbedtls/mbedtls-2.16.2/library\sha256.c **** {
 2924              		.loc 1 402 1
 2925              		.cfi_startproc
 2926              		@ args = 0, pretend = 0, frame = 8
 2927              		@ frame_needed = 1, uses_anonymous_args = 0
 2928 0000 80B5     		push	{r7, lr}
 2929              	.LCFI52:
 2930              		.cfi_def_cfa_offset 8
 2931              		.cfi_offset 7, -8
 2932              		.cfi_offset 14, -4
 2933 0002 82B0     		sub	sp, sp, #8
 2934              	.LCFI53:
 2935              		.cfi_def_cfa_offset 16
 2936 0004 00AF     		add	r7, sp, #0
 2937              	.LCFI54:
 2938              		.cfi_def_cfa_register 7
 2939 0006 7860     		str	r0, [r7, #4]
 2940 0008 3960     		str	r1, [r7]
 403:c:/Users/lenovo/Desktop/AIoT/first_day/firstday_afternoon/LiteOS_Lab_STM32_IoT/iot_link/network/dtls/mbedtls/mbedtls-2.16.2/library\sha256.c ****     mbedtls_sha256_finish_ret( ctx, output );
 2941              		.loc 1 403 5
 2942 000a 3968     		ldr	r1, [r7]
 2943 000c 7868     		ldr	r0, [r7, #4]
 2944 000e FFF7FEFF 		bl	mbedtls_sha256_finish_ret
 404:c:/Users/lenovo/Desktop/AIoT/first_day/firstday_afternoon/LiteOS_Lab_STM32_IoT/iot_link/network/dtls/mbedtls/mbedtls-2.16.2/library\sha256.c **** }
 2945              		.loc 1 404 1
 2946 0012 00BF     		nop
 2947 0014 0837     		adds	r7, r7, #8
 2948              	.LCFI55:
 2949              		.cfi_def_cfa_offset 8
 2950 0016 BD46     		mov	sp, r7
 2951              	.LCFI56:
 2952              		.cfi_def_cfa_register 13
 2953              		@ sp needed
 2954 0018 80BD     		pop	{r7, pc}
 2955              		.cfi_endproc
 2956              	.LFE10:
 2958              		.section	.text.mbedtls_sha256_ret,"ax",%progbits
 2959              		.align	1
 2960              		.global	mbedtls_sha256_ret
 2961              		.syntax unified
 2962              		.thumb
 2963              		.thumb_func
 2964              		.fpu fpv4-sp-d16
 2966              	mbedtls_sha256_ret:
 2967              	.LFB11:
 405:c:/Users/lenovo/Desktop/AIoT/first_day/firstday_afternoon/LiteOS_Lab_STM32_IoT/iot_link/network/dtls/mbedtls/mbedtls-2.16.2/library\sha256.c **** #endif
 406:c:/Users/lenovo/Desktop/AIoT/first_day/firstday_afternoon/LiteOS_Lab_STM32_IoT/iot_link/network/dtls/mbedtls/mbedtls-2.16.2/library\sha256.c **** 
 407:c:/Users/lenovo/Desktop/AIoT/first_day/firstday_afternoon/LiteOS_Lab_STM32_IoT/iot_link/network/dtls/mbedtls/mbedtls-2.16.2/library\sha256.c **** #endif /* !MBEDTLS_SHA256_ALT */
 408:c:/Users/lenovo/Desktop/AIoT/first_day/firstday_afternoon/LiteOS_Lab_STM32_IoT/iot_link/network/dtls/mbedtls/mbedtls-2.16.2/library\sha256.c **** 
ARM GAS  C:\Users\lenovo\AppData\Local\Temp\ccds4vwo.s 			page 60


 409:c:/Users/lenovo/Desktop/AIoT/first_day/firstday_afternoon/LiteOS_Lab_STM32_IoT/iot_link/network/dtls/mbedtls/mbedtls-2.16.2/library\sha256.c **** /*
 410:c:/Users/lenovo/Desktop/AIoT/first_day/firstday_afternoon/LiteOS_Lab_STM32_IoT/iot_link/network/dtls/mbedtls/mbedtls-2.16.2/library\sha256.c ****  * output = SHA-256( input buffer )
 411:c:/Users/lenovo/Desktop/AIoT/first_day/firstday_afternoon/LiteOS_Lab_STM32_IoT/iot_link/network/dtls/mbedtls/mbedtls-2.16.2/library\sha256.c ****  */
 412:c:/Users/lenovo/Desktop/AIoT/first_day/firstday_afternoon/LiteOS_Lab_STM32_IoT/iot_link/network/dtls/mbedtls/mbedtls-2.16.2/library\sha256.c **** int mbedtls_sha256_ret( const unsigned char *input,
 413:c:/Users/lenovo/Desktop/AIoT/first_day/firstday_afternoon/LiteOS_Lab_STM32_IoT/iot_link/network/dtls/mbedtls/mbedtls-2.16.2/library\sha256.c ****                         size_t ilen,
 414:c:/Users/lenovo/Desktop/AIoT/first_day/firstday_afternoon/LiteOS_Lab_STM32_IoT/iot_link/network/dtls/mbedtls/mbedtls-2.16.2/library\sha256.c ****                         unsigned char output[32],
 415:c:/Users/lenovo/Desktop/AIoT/first_day/firstday_afternoon/LiteOS_Lab_STM32_IoT/iot_link/network/dtls/mbedtls/mbedtls-2.16.2/library\sha256.c ****                         int is224 )
 416:c:/Users/lenovo/Desktop/AIoT/first_day/firstday_afternoon/LiteOS_Lab_STM32_IoT/iot_link/network/dtls/mbedtls/mbedtls-2.16.2/library\sha256.c **** {
 2968              		.loc 1 416 1
 2969              		.cfi_startproc
 2970              		@ args = 0, pretend = 0, frame = 128
 2971              		@ frame_needed = 1, uses_anonymous_args = 0
 2972 0000 80B5     		push	{r7, lr}
 2973              	.LCFI57:
 2974              		.cfi_def_cfa_offset 8
 2975              		.cfi_offset 7, -8
 2976              		.cfi_offset 14, -4
 2977 0002 A0B0     		sub	sp, sp, #128
 2978              	.LCFI58:
 2979              		.cfi_def_cfa_offset 136
 2980 0004 00AF     		add	r7, sp, #0
 2981              	.LCFI59:
 2982              		.cfi_def_cfa_register 7
 2983 0006 F860     		str	r0, [r7, #12]
 2984 0008 B960     		str	r1, [r7, #8]
 2985 000a 7A60     		str	r2, [r7, #4]
 2986 000c 3B60     		str	r3, [r7]
 417:c:/Users/lenovo/Desktop/AIoT/first_day/firstday_afternoon/LiteOS_Lab_STM32_IoT/iot_link/network/dtls/mbedtls/mbedtls-2.16.2/library\sha256.c ****     int ret;
 418:c:/Users/lenovo/Desktop/AIoT/first_day/firstday_afternoon/LiteOS_Lab_STM32_IoT/iot_link/network/dtls/mbedtls/mbedtls-2.16.2/library\sha256.c ****     mbedtls_sha256_context ctx;
 419:c:/Users/lenovo/Desktop/AIoT/first_day/firstday_afternoon/LiteOS_Lab_STM32_IoT/iot_link/network/dtls/mbedtls/mbedtls-2.16.2/library\sha256.c **** 
 420:c:/Users/lenovo/Desktop/AIoT/first_day/firstday_afternoon/LiteOS_Lab_STM32_IoT/iot_link/network/dtls/mbedtls/mbedtls-2.16.2/library\sha256.c ****     SHA256_VALIDATE_RET( is224 == 0 || is224 == 1 );
 421:c:/Users/lenovo/Desktop/AIoT/first_day/firstday_afternoon/LiteOS_Lab_STM32_IoT/iot_link/network/dtls/mbedtls/mbedtls-2.16.2/library\sha256.c ****     SHA256_VALIDATE_RET( ilen == 0 || input != NULL );
 422:c:/Users/lenovo/Desktop/AIoT/first_day/firstday_afternoon/LiteOS_Lab_STM32_IoT/iot_link/network/dtls/mbedtls/mbedtls-2.16.2/library\sha256.c ****     SHA256_VALIDATE_RET( (unsigned char *)output != NULL );
 423:c:/Users/lenovo/Desktop/AIoT/first_day/firstday_afternoon/LiteOS_Lab_STM32_IoT/iot_link/network/dtls/mbedtls/mbedtls-2.16.2/library\sha256.c **** 
 424:c:/Users/lenovo/Desktop/AIoT/first_day/firstday_afternoon/LiteOS_Lab_STM32_IoT/iot_link/network/dtls/mbedtls/mbedtls-2.16.2/library\sha256.c ****     mbedtls_sha256_init( &ctx );
 2987              		.loc 1 424 5
 2988 000e 07F11003 		add	r3, r7, #16
 2989 0012 1846     		mov	r0, r3
 2990 0014 FFF7FEFF 		bl	mbedtls_sha256_init
 425:c:/Users/lenovo/Desktop/AIoT/first_day/firstday_afternoon/LiteOS_Lab_STM32_IoT/iot_link/network/dtls/mbedtls/mbedtls-2.16.2/library\sha256.c **** 
 426:c:/Users/lenovo/Desktop/AIoT/first_day/firstday_afternoon/LiteOS_Lab_STM32_IoT/iot_link/network/dtls/mbedtls/mbedtls-2.16.2/library\sha256.c ****     if( ( ret = mbedtls_sha256_starts_ret( &ctx, is224 ) ) != 0 )
 2991              		.loc 1 426 17
 2992 0018 07F11003 		add	r3, r7, #16
 2993 001c 3968     		ldr	r1, [r7]
 2994 001e 1846     		mov	r0, r3
 2995 0020 FFF7FEFF 		bl	mbedtls_sha256_starts_ret
 2996 0024 F867     		str	r0, [r7, #124]
 2997              		.loc 1 426 7
 2998 0026 FB6F     		ldr	r3, [r7, #124]
 2999 0028 002B     		cmp	r3, #0
 3000 002a 14D1     		bne	.L64
 427:c:/Users/lenovo/Desktop/AIoT/first_day/firstday_afternoon/LiteOS_Lab_STM32_IoT/iot_link/network/dtls/mbedtls/mbedtls-2.16.2/library\sha256.c ****         goto exit;
 428:c:/Users/lenovo/Desktop/AIoT/first_day/firstday_afternoon/LiteOS_Lab_STM32_IoT/iot_link/network/dtls/mbedtls/mbedtls-2.16.2/library\sha256.c **** 
 429:c:/Users/lenovo/Desktop/AIoT/first_day/firstday_afternoon/LiteOS_Lab_STM32_IoT/iot_link/network/dtls/mbedtls/mbedtls-2.16.2/library\sha256.c ****     if( ( ret = mbedtls_sha256_update_ret( &ctx, input, ilen ) ) != 0 )
 3001              		.loc 1 429 17
 3002 002c 07F11003 		add	r3, r7, #16
 3003 0030 BA68     		ldr	r2, [r7, #8]
ARM GAS  C:\Users\lenovo\AppData\Local\Temp\ccds4vwo.s 			page 61


 3004 0032 F968     		ldr	r1, [r7, #12]
 3005 0034 1846     		mov	r0, r3
 3006 0036 FFF7FEFF 		bl	mbedtls_sha256_update_ret
 3007 003a F867     		str	r0, [r7, #124]
 3008              		.loc 1 429 7
 3009 003c FB6F     		ldr	r3, [r7, #124]
 3010 003e 002B     		cmp	r3, #0
 3011 0040 0BD1     		bne	.L65
 430:c:/Users/lenovo/Desktop/AIoT/first_day/firstday_afternoon/LiteOS_Lab_STM32_IoT/iot_link/network/dtls/mbedtls/mbedtls-2.16.2/library\sha256.c ****         goto exit;
 431:c:/Users/lenovo/Desktop/AIoT/first_day/firstday_afternoon/LiteOS_Lab_STM32_IoT/iot_link/network/dtls/mbedtls/mbedtls-2.16.2/library\sha256.c **** 
 432:c:/Users/lenovo/Desktop/AIoT/first_day/firstday_afternoon/LiteOS_Lab_STM32_IoT/iot_link/network/dtls/mbedtls/mbedtls-2.16.2/library\sha256.c ****     if( ( ret = mbedtls_sha256_finish_ret( &ctx, output ) ) != 0 )
 3012              		.loc 1 432 17
 3013 0042 07F11003 		add	r3, r7, #16
 3014 0046 7968     		ldr	r1, [r7, #4]
 3015 0048 1846     		mov	r0, r3
 3016 004a FFF7FEFF 		bl	mbedtls_sha256_finish_ret
 3017 004e F867     		str	r0, [r7, #124]
 3018              		.loc 1 432 7
 3019 0050 FB6F     		ldr	r3, [r7, #124]
 3020 0052 002B     		cmp	r3, #0
 433:c:/Users/lenovo/Desktop/AIoT/first_day/firstday_afternoon/LiteOS_Lab_STM32_IoT/iot_link/network/dtls/mbedtls/mbedtls-2.16.2/library\sha256.c ****         goto exit;
 434:c:/Users/lenovo/Desktop/AIoT/first_day/firstday_afternoon/LiteOS_Lab_STM32_IoT/iot_link/network/dtls/mbedtls/mbedtls-2.16.2/library\sha256.c **** 
 435:c:/Users/lenovo/Desktop/AIoT/first_day/firstday_afternoon/LiteOS_Lab_STM32_IoT/iot_link/network/dtls/mbedtls/mbedtls-2.16.2/library\sha256.c **** exit:
 3021              		.loc 1 435 1
 3022 0054 02E0     		b	.L61
 3023              	.L64:
 427:c:/Users/lenovo/Desktop/AIoT/first_day/firstday_afternoon/LiteOS_Lab_STM32_IoT/iot_link/network/dtls/mbedtls/mbedtls-2.16.2/library\sha256.c **** 
 3024              		.loc 1 427 9
 3025 0056 00BF     		nop
 3026 0058 00E0     		b	.L61
 3027              	.L65:
 430:c:/Users/lenovo/Desktop/AIoT/first_day/firstday_afternoon/LiteOS_Lab_STM32_IoT/iot_link/network/dtls/mbedtls/mbedtls-2.16.2/library\sha256.c ****         goto exit;
 3028              		.loc 1 430 9
 3029 005a 00BF     		nop
 3030              	.L61:
 436:c:/Users/lenovo/Desktop/AIoT/first_day/firstday_afternoon/LiteOS_Lab_STM32_IoT/iot_link/network/dtls/mbedtls/mbedtls-2.16.2/library\sha256.c ****     mbedtls_sha256_free( &ctx );
 3031              		.loc 1 436 5
 3032 005c 07F11003 		add	r3, r7, #16
 3033 0060 1846     		mov	r0, r3
 3034 0062 FFF7FEFF 		bl	mbedtls_sha256_free
 437:c:/Users/lenovo/Desktop/AIoT/first_day/firstday_afternoon/LiteOS_Lab_STM32_IoT/iot_link/network/dtls/mbedtls/mbedtls-2.16.2/library\sha256.c **** 
 438:c:/Users/lenovo/Desktop/AIoT/first_day/firstday_afternoon/LiteOS_Lab_STM32_IoT/iot_link/network/dtls/mbedtls/mbedtls-2.16.2/library\sha256.c ****     return( ret );
 3035              		.loc 1 438 11
 3036 0066 FB6F     		ldr	r3, [r7, #124]
 439:c:/Users/lenovo/Desktop/AIoT/first_day/firstday_afternoon/LiteOS_Lab_STM32_IoT/iot_link/network/dtls/mbedtls/mbedtls-2.16.2/library\sha256.c **** }
 3037              		.loc 1 439 1
 3038 0068 1846     		mov	r0, r3
 3039 006a 8037     		adds	r7, r7, #128
 3040              	.LCFI60:
 3041              		.cfi_def_cfa_offset 8
 3042 006c BD46     		mov	sp, r7
 3043              	.LCFI61:
 3044              		.cfi_def_cfa_register 13
 3045              		@ sp needed
 3046 006e 80BD     		pop	{r7, pc}
 3047              		.cfi_endproc
 3048              	.LFE11:
ARM GAS  C:\Users\lenovo\AppData\Local\Temp\ccds4vwo.s 			page 62


 3050              		.section	.text.mbedtls_sha256,"ax",%progbits
 3051              		.align	1
 3052              		.global	mbedtls_sha256
 3053              		.syntax unified
 3054              		.thumb
 3055              		.thumb_func
 3056              		.fpu fpv4-sp-d16
 3058              	mbedtls_sha256:
 3059              	.LFB12:
 440:c:/Users/lenovo/Desktop/AIoT/first_day/firstday_afternoon/LiteOS_Lab_STM32_IoT/iot_link/network/dtls/mbedtls/mbedtls-2.16.2/library\sha256.c **** 
 441:c:/Users/lenovo/Desktop/AIoT/first_day/firstday_afternoon/LiteOS_Lab_STM32_IoT/iot_link/network/dtls/mbedtls/mbedtls-2.16.2/library\sha256.c **** #if !defined(MBEDTLS_DEPRECATED_REMOVED)
 442:c:/Users/lenovo/Desktop/AIoT/first_day/firstday_afternoon/LiteOS_Lab_STM32_IoT/iot_link/network/dtls/mbedtls/mbedtls-2.16.2/library\sha256.c **** void mbedtls_sha256( const unsigned char *input,
 443:c:/Users/lenovo/Desktop/AIoT/first_day/firstday_afternoon/LiteOS_Lab_STM32_IoT/iot_link/network/dtls/mbedtls/mbedtls-2.16.2/library\sha256.c ****                      size_t ilen,
 444:c:/Users/lenovo/Desktop/AIoT/first_day/firstday_afternoon/LiteOS_Lab_STM32_IoT/iot_link/network/dtls/mbedtls/mbedtls-2.16.2/library\sha256.c ****                      unsigned char output[32],
 445:c:/Users/lenovo/Desktop/AIoT/first_day/firstday_afternoon/LiteOS_Lab_STM32_IoT/iot_link/network/dtls/mbedtls/mbedtls-2.16.2/library\sha256.c ****                      int is224 )
 446:c:/Users/lenovo/Desktop/AIoT/first_day/firstday_afternoon/LiteOS_Lab_STM32_IoT/iot_link/network/dtls/mbedtls/mbedtls-2.16.2/library\sha256.c **** {
 3060              		.loc 1 446 1
 3061              		.cfi_startproc
 3062              		@ args = 0, pretend = 0, frame = 16
 3063              		@ frame_needed = 1, uses_anonymous_args = 0
 3064 0000 80B5     		push	{r7, lr}
 3065              	.LCFI62:
 3066              		.cfi_def_cfa_offset 8
 3067              		.cfi_offset 7, -8
 3068              		.cfi_offset 14, -4
 3069 0002 84B0     		sub	sp, sp, #16
 3070              	.LCFI63:
 3071              		.cfi_def_cfa_offset 24
 3072 0004 00AF     		add	r7, sp, #0
 3073              	.LCFI64:
 3074              		.cfi_def_cfa_register 7
 3075 0006 F860     		str	r0, [r7, #12]
 3076 0008 B960     		str	r1, [r7, #8]
 3077 000a 7A60     		str	r2, [r7, #4]
 3078 000c 3B60     		str	r3, [r7]
 447:c:/Users/lenovo/Desktop/AIoT/first_day/firstday_afternoon/LiteOS_Lab_STM32_IoT/iot_link/network/dtls/mbedtls/mbedtls-2.16.2/library\sha256.c ****     mbedtls_sha256_ret( input, ilen, output, is224 );
 3079              		.loc 1 447 5
 3080 000e 3B68     		ldr	r3, [r7]
 3081 0010 7A68     		ldr	r2, [r7, #4]
 3082 0012 B968     		ldr	r1, [r7, #8]
 3083 0014 F868     		ldr	r0, [r7, #12]
 3084 0016 FFF7FEFF 		bl	mbedtls_sha256_ret
 448:c:/Users/lenovo/Desktop/AIoT/first_day/firstday_afternoon/LiteOS_Lab_STM32_IoT/iot_link/network/dtls/mbedtls/mbedtls-2.16.2/library\sha256.c **** }
 3085              		.loc 1 448 1
 3086 001a 00BF     		nop
 3087 001c 1037     		adds	r7, r7, #16
 3088              	.LCFI65:
 3089              		.cfi_def_cfa_offset 8
 3090 001e BD46     		mov	sp, r7
 3091              	.LCFI66:
 3092              		.cfi_def_cfa_register 13
 3093              		@ sp needed
 3094 0020 80BD     		pop	{r7, pc}
 3095              		.cfi_endproc
 3096              	.LFE12:
 3098              		.text
 3099              	.Letext0:
ARM GAS  C:\Users\lenovo\AppData\Local\Temp\ccds4vwo.s 			page 63


 3100              		.file 2 "c:\\users\\lenovo\\.iotlink\\tools\\gcc-arm-none-eabi\\arm-none-eabi\\include\\machine\\_
 3101              		.file 3 "c:\\users\\lenovo\\.iotlink\\tools\\gcc-arm-none-eabi\\lib\\gcc\\arm-none-eabi\\9.2.1\\in
 3102              		.file 4 "c:\\users\\lenovo\\.iotlink\\tools\\gcc-arm-none-eabi\\arm-none-eabi\\include\\sys\\_stdi
 3103              		.file 5 "c:/Users/lenovo/Desktop/AIoT/first_day/firstday_afternoon/LiteOS_Lab_STM32_IoT/iot_link/n
 3104              		.file 6 "c:\\users\\lenovo\\.iotlink\\tools\\gcc-arm-none-eabi\\arm-none-eabi\\include\\sys\\lock.
 3105              		.file 7 "c:\\users\\lenovo\\.iotlink\\tools\\gcc-arm-none-eabi\\arm-none-eabi\\include\\sys\\_type
 3106              		.file 8 "c:\\users\\lenovo\\.iotlink\\tools\\gcc-arm-none-eabi\\arm-none-eabi\\include\\sys\\reent
ARM GAS  C:\Users\lenovo\AppData\Local\Temp\ccds4vwo.s 			page 64

