ARM GAS  C:\Users\lenovo\AppData\Local\Temp\ccSoL50u.s 			page 1


   1              		.cpu cortex-m4
   2              		.eabi_attribute 27, 1
   3              		.eabi_attribute 28, 1
   4              		.eabi_attribute 20, 1
   5              		.eabi_attribute 21, 1
   6              		.eabi_attribute 23, 3
   7              		.eabi_attribute 24, 1
   8              		.eabi_attribute 25, 1
   9              		.eabi_attribute 26, 1
  10              		.eabi_attribute 30, 6
  11              		.eabi_attribute 34, 1
  12              		.eabi_attribute 18, 4
  13              		.file	"ssl_tls.c"
  14              		.text
  15              	.Ltext0:
  16              		.cfi_sections	.debug_frame
  17              		.section	.text.mbedtls_cipher_get_block_size,"ax",%progbits
  18              		.align	1
  19              		.arch armv7e-m
  20              		.syntax unified
  21              		.thumb
  22              		.thumb_func
  23              		.fpu fpv4-sp-d16
  25              	mbedtls_cipher_get_block_size:
  26              	.LFB4:
  27              		.file 1 "c:/Users/lenovo/Desktop/AIoT/first_day/firstday_afternoon/LiteOS_Lab_STM32_IoT/iot_link/n
   1:c:/Users/lenovo/Desktop/AIoT/first_day/firstday_afternoon/LiteOS_Lab_STM32_IoT/iot_link/network/dtls/mbedtls/mbedtls-2.16.2/include/mbedtls\cipher.h **** /**
   2:c:/Users/lenovo/Desktop/AIoT/first_day/firstday_afternoon/LiteOS_Lab_STM32_IoT/iot_link/network/dtls/mbedtls/mbedtls-2.16.2/include/mbedtls\cipher.h ****  * \file cipher.h
   3:c:/Users/lenovo/Desktop/AIoT/first_day/firstday_afternoon/LiteOS_Lab_STM32_IoT/iot_link/network/dtls/mbedtls/mbedtls-2.16.2/include/mbedtls\cipher.h ****  *
   4:c:/Users/lenovo/Desktop/AIoT/first_day/firstday_afternoon/LiteOS_Lab_STM32_IoT/iot_link/network/dtls/mbedtls/mbedtls-2.16.2/include/mbedtls\cipher.h ****  * \brief This file contains an abstraction interface for use with the cipher
   5:c:/Users/lenovo/Desktop/AIoT/first_day/firstday_afternoon/LiteOS_Lab_STM32_IoT/iot_link/network/dtls/mbedtls/mbedtls-2.16.2/include/mbedtls\cipher.h ****  * primitives provided by the library. It provides a common interface to all of
   6:c:/Users/lenovo/Desktop/AIoT/first_day/firstday_afternoon/LiteOS_Lab_STM32_IoT/iot_link/network/dtls/mbedtls/mbedtls-2.16.2/include/mbedtls\cipher.h ****  * the available cipher operations.
   7:c:/Users/lenovo/Desktop/AIoT/first_day/firstday_afternoon/LiteOS_Lab_STM32_IoT/iot_link/network/dtls/mbedtls/mbedtls-2.16.2/include/mbedtls\cipher.h ****  *
   8:c:/Users/lenovo/Desktop/AIoT/first_day/firstday_afternoon/LiteOS_Lab_STM32_IoT/iot_link/network/dtls/mbedtls/mbedtls-2.16.2/include/mbedtls\cipher.h ****  * \author Adriaan de Jong <dejong@fox-it.com>
   9:c:/Users/lenovo/Desktop/AIoT/first_day/firstday_afternoon/LiteOS_Lab_STM32_IoT/iot_link/network/dtls/mbedtls/mbedtls-2.16.2/include/mbedtls\cipher.h ****  */
  10:c:/Users/lenovo/Desktop/AIoT/first_day/firstday_afternoon/LiteOS_Lab_STM32_IoT/iot_link/network/dtls/mbedtls/mbedtls-2.16.2/include/mbedtls\cipher.h **** /*
  11:c:/Users/lenovo/Desktop/AIoT/first_day/firstday_afternoon/LiteOS_Lab_STM32_IoT/iot_link/network/dtls/mbedtls/mbedtls-2.16.2/include/mbedtls\cipher.h ****  *  Copyright (C) 2006-2018, Arm Limited (or its affiliates), All Rights Reserved
  12:c:/Users/lenovo/Desktop/AIoT/first_day/firstday_afternoon/LiteOS_Lab_STM32_IoT/iot_link/network/dtls/mbedtls/mbedtls-2.16.2/include/mbedtls\cipher.h ****  *  SPDX-License-Identifier: Apache-2.0
  13:c:/Users/lenovo/Desktop/AIoT/first_day/firstday_afternoon/LiteOS_Lab_STM32_IoT/iot_link/network/dtls/mbedtls/mbedtls-2.16.2/include/mbedtls\cipher.h ****  *
  14:c:/Users/lenovo/Desktop/AIoT/first_day/firstday_afternoon/LiteOS_Lab_STM32_IoT/iot_link/network/dtls/mbedtls/mbedtls-2.16.2/include/mbedtls\cipher.h ****  *  Licensed under the Apache License, Version 2.0 (the "License"); you may
  15:c:/Users/lenovo/Desktop/AIoT/first_day/firstday_afternoon/LiteOS_Lab_STM32_IoT/iot_link/network/dtls/mbedtls/mbedtls-2.16.2/include/mbedtls\cipher.h ****  *  not use this file except in compliance with the License.
  16:c:/Users/lenovo/Desktop/AIoT/first_day/firstday_afternoon/LiteOS_Lab_STM32_IoT/iot_link/network/dtls/mbedtls/mbedtls-2.16.2/include/mbedtls\cipher.h ****  *  You may obtain a copy of the License at
  17:c:/Users/lenovo/Desktop/AIoT/first_day/firstday_afternoon/LiteOS_Lab_STM32_IoT/iot_link/network/dtls/mbedtls/mbedtls-2.16.2/include/mbedtls\cipher.h ****  *
  18:c:/Users/lenovo/Desktop/AIoT/first_day/firstday_afternoon/LiteOS_Lab_STM32_IoT/iot_link/network/dtls/mbedtls/mbedtls-2.16.2/include/mbedtls\cipher.h ****  *  http://www.apache.org/licenses/LICENSE-2.0
  19:c:/Users/lenovo/Desktop/AIoT/first_day/firstday_afternoon/LiteOS_Lab_STM32_IoT/iot_link/network/dtls/mbedtls/mbedtls-2.16.2/include/mbedtls\cipher.h ****  *
  20:c:/Users/lenovo/Desktop/AIoT/first_day/firstday_afternoon/LiteOS_Lab_STM32_IoT/iot_link/network/dtls/mbedtls/mbedtls-2.16.2/include/mbedtls\cipher.h ****  *  Unless required by applicable law or agreed to in writing, software
  21:c:/Users/lenovo/Desktop/AIoT/first_day/firstday_afternoon/LiteOS_Lab_STM32_IoT/iot_link/network/dtls/mbedtls/mbedtls-2.16.2/include/mbedtls\cipher.h ****  *  distributed under the License is distributed on an "AS IS" BASIS, WITHOUT
  22:c:/Users/lenovo/Desktop/AIoT/first_day/firstday_afternoon/LiteOS_Lab_STM32_IoT/iot_link/network/dtls/mbedtls/mbedtls-2.16.2/include/mbedtls\cipher.h ****  *  WARRANTIES OR CONDITIONS OF ANY KIND, either express or implied.
  23:c:/Users/lenovo/Desktop/AIoT/first_day/firstday_afternoon/LiteOS_Lab_STM32_IoT/iot_link/network/dtls/mbedtls/mbedtls-2.16.2/include/mbedtls\cipher.h ****  *  See the License for the specific language governing permissions and
  24:c:/Users/lenovo/Desktop/AIoT/first_day/firstday_afternoon/LiteOS_Lab_STM32_IoT/iot_link/network/dtls/mbedtls/mbedtls-2.16.2/include/mbedtls\cipher.h ****  *  limitations under the License.
  25:c:/Users/lenovo/Desktop/AIoT/first_day/firstday_afternoon/LiteOS_Lab_STM32_IoT/iot_link/network/dtls/mbedtls/mbedtls-2.16.2/include/mbedtls\cipher.h ****  *
  26:c:/Users/lenovo/Desktop/AIoT/first_day/firstday_afternoon/LiteOS_Lab_STM32_IoT/iot_link/network/dtls/mbedtls/mbedtls-2.16.2/include/mbedtls\cipher.h ****  *  This file is part of Mbed TLS (https://tls.mbed.org)
  27:c:/Users/lenovo/Desktop/AIoT/first_day/firstday_afternoon/LiteOS_Lab_STM32_IoT/iot_link/network/dtls/mbedtls/mbedtls-2.16.2/include/mbedtls\cipher.h ****  */
  28:c:/Users/lenovo/Desktop/AIoT/first_day/firstday_afternoon/LiteOS_Lab_STM32_IoT/iot_link/network/dtls/mbedtls/mbedtls-2.16.2/include/mbedtls\cipher.h **** 
  29:c:/Users/lenovo/Desktop/AIoT/first_day/firstday_afternoon/LiteOS_Lab_STM32_IoT/iot_link/network/dtls/mbedtls/mbedtls-2.16.2/include/mbedtls\cipher.h **** #ifndef MBEDTLS_CIPHER_H
  30:c:/Users/lenovo/Desktop/AIoT/first_day/firstday_afternoon/LiteOS_Lab_STM32_IoT/iot_link/network/dtls/mbedtls/mbedtls-2.16.2/include/mbedtls\cipher.h **** #define MBEDTLS_CIPHER_H
  31:c:/Users/lenovo/Desktop/AIoT/first_day/firstday_afternoon/LiteOS_Lab_STM32_IoT/iot_link/network/dtls/mbedtls/mbedtls-2.16.2/include/mbedtls\cipher.h **** 
ARM GAS  C:\Users\lenovo\AppData\Local\Temp\ccSoL50u.s 			page 2


  32:c:/Users/lenovo/Desktop/AIoT/first_day/firstday_afternoon/LiteOS_Lab_STM32_IoT/iot_link/network/dtls/mbedtls/mbedtls-2.16.2/include/mbedtls\cipher.h **** #if !defined(MBEDTLS_CONFIG_FILE)
  33:c:/Users/lenovo/Desktop/AIoT/first_day/firstday_afternoon/LiteOS_Lab_STM32_IoT/iot_link/network/dtls/mbedtls/mbedtls-2.16.2/include/mbedtls\cipher.h **** #include "config.h"
  34:c:/Users/lenovo/Desktop/AIoT/first_day/firstday_afternoon/LiteOS_Lab_STM32_IoT/iot_link/network/dtls/mbedtls/mbedtls-2.16.2/include/mbedtls\cipher.h **** #else
  35:c:/Users/lenovo/Desktop/AIoT/first_day/firstday_afternoon/LiteOS_Lab_STM32_IoT/iot_link/network/dtls/mbedtls/mbedtls-2.16.2/include/mbedtls\cipher.h **** #include MBEDTLS_CONFIG_FILE
  36:c:/Users/lenovo/Desktop/AIoT/first_day/firstday_afternoon/LiteOS_Lab_STM32_IoT/iot_link/network/dtls/mbedtls/mbedtls-2.16.2/include/mbedtls\cipher.h **** #endif
  37:c:/Users/lenovo/Desktop/AIoT/first_day/firstday_afternoon/LiteOS_Lab_STM32_IoT/iot_link/network/dtls/mbedtls/mbedtls-2.16.2/include/mbedtls\cipher.h **** 
  38:c:/Users/lenovo/Desktop/AIoT/first_day/firstday_afternoon/LiteOS_Lab_STM32_IoT/iot_link/network/dtls/mbedtls/mbedtls-2.16.2/include/mbedtls\cipher.h **** #include <stddef.h>
  39:c:/Users/lenovo/Desktop/AIoT/first_day/firstday_afternoon/LiteOS_Lab_STM32_IoT/iot_link/network/dtls/mbedtls/mbedtls-2.16.2/include/mbedtls\cipher.h **** #include "platform_util.h"
  40:c:/Users/lenovo/Desktop/AIoT/first_day/firstday_afternoon/LiteOS_Lab_STM32_IoT/iot_link/network/dtls/mbedtls/mbedtls-2.16.2/include/mbedtls\cipher.h **** 
  41:c:/Users/lenovo/Desktop/AIoT/first_day/firstday_afternoon/LiteOS_Lab_STM32_IoT/iot_link/network/dtls/mbedtls/mbedtls-2.16.2/include/mbedtls\cipher.h **** #if defined(MBEDTLS_GCM_C) || defined(MBEDTLS_CCM_C) || defined(MBEDTLS_CHACHAPOLY_C)
  42:c:/Users/lenovo/Desktop/AIoT/first_day/firstday_afternoon/LiteOS_Lab_STM32_IoT/iot_link/network/dtls/mbedtls/mbedtls-2.16.2/include/mbedtls\cipher.h **** #define MBEDTLS_CIPHER_MODE_AEAD
  43:c:/Users/lenovo/Desktop/AIoT/first_day/firstday_afternoon/LiteOS_Lab_STM32_IoT/iot_link/network/dtls/mbedtls/mbedtls-2.16.2/include/mbedtls\cipher.h **** #endif
  44:c:/Users/lenovo/Desktop/AIoT/first_day/firstday_afternoon/LiteOS_Lab_STM32_IoT/iot_link/network/dtls/mbedtls/mbedtls-2.16.2/include/mbedtls\cipher.h **** 
  45:c:/Users/lenovo/Desktop/AIoT/first_day/firstday_afternoon/LiteOS_Lab_STM32_IoT/iot_link/network/dtls/mbedtls/mbedtls-2.16.2/include/mbedtls\cipher.h **** #if defined(MBEDTLS_CIPHER_MODE_CBC)
  46:c:/Users/lenovo/Desktop/AIoT/first_day/firstday_afternoon/LiteOS_Lab_STM32_IoT/iot_link/network/dtls/mbedtls/mbedtls-2.16.2/include/mbedtls\cipher.h **** #define MBEDTLS_CIPHER_MODE_WITH_PADDING
  47:c:/Users/lenovo/Desktop/AIoT/first_day/firstday_afternoon/LiteOS_Lab_STM32_IoT/iot_link/network/dtls/mbedtls/mbedtls-2.16.2/include/mbedtls\cipher.h **** #endif
  48:c:/Users/lenovo/Desktop/AIoT/first_day/firstday_afternoon/LiteOS_Lab_STM32_IoT/iot_link/network/dtls/mbedtls/mbedtls-2.16.2/include/mbedtls\cipher.h **** 
  49:c:/Users/lenovo/Desktop/AIoT/first_day/firstday_afternoon/LiteOS_Lab_STM32_IoT/iot_link/network/dtls/mbedtls/mbedtls-2.16.2/include/mbedtls\cipher.h **** #if defined(MBEDTLS_ARC4_C) || defined(MBEDTLS_CIPHER_NULL_CIPHER) || \
  50:c:/Users/lenovo/Desktop/AIoT/first_day/firstday_afternoon/LiteOS_Lab_STM32_IoT/iot_link/network/dtls/mbedtls/mbedtls-2.16.2/include/mbedtls\cipher.h ****     defined(MBEDTLS_CHACHA20_C)
  51:c:/Users/lenovo/Desktop/AIoT/first_day/firstday_afternoon/LiteOS_Lab_STM32_IoT/iot_link/network/dtls/mbedtls/mbedtls-2.16.2/include/mbedtls\cipher.h **** #define MBEDTLS_CIPHER_MODE_STREAM
  52:c:/Users/lenovo/Desktop/AIoT/first_day/firstday_afternoon/LiteOS_Lab_STM32_IoT/iot_link/network/dtls/mbedtls/mbedtls-2.16.2/include/mbedtls\cipher.h **** #endif
  53:c:/Users/lenovo/Desktop/AIoT/first_day/firstday_afternoon/LiteOS_Lab_STM32_IoT/iot_link/network/dtls/mbedtls/mbedtls-2.16.2/include/mbedtls\cipher.h **** 
  54:c:/Users/lenovo/Desktop/AIoT/first_day/firstday_afternoon/LiteOS_Lab_STM32_IoT/iot_link/network/dtls/mbedtls/mbedtls-2.16.2/include/mbedtls\cipher.h **** #if ( defined(__ARMCC_VERSION) || defined(_MSC_VER) ) && \
  55:c:/Users/lenovo/Desktop/AIoT/first_day/firstday_afternoon/LiteOS_Lab_STM32_IoT/iot_link/network/dtls/mbedtls/mbedtls-2.16.2/include/mbedtls\cipher.h ****     !defined(inline) && !defined(__cplusplus)
  56:c:/Users/lenovo/Desktop/AIoT/first_day/firstday_afternoon/LiteOS_Lab_STM32_IoT/iot_link/network/dtls/mbedtls/mbedtls-2.16.2/include/mbedtls\cipher.h **** #define inline __inline
  57:c:/Users/lenovo/Desktop/AIoT/first_day/firstday_afternoon/LiteOS_Lab_STM32_IoT/iot_link/network/dtls/mbedtls/mbedtls-2.16.2/include/mbedtls\cipher.h **** #endif
  58:c:/Users/lenovo/Desktop/AIoT/first_day/firstday_afternoon/LiteOS_Lab_STM32_IoT/iot_link/network/dtls/mbedtls/mbedtls-2.16.2/include/mbedtls\cipher.h **** 
  59:c:/Users/lenovo/Desktop/AIoT/first_day/firstday_afternoon/LiteOS_Lab_STM32_IoT/iot_link/network/dtls/mbedtls/mbedtls-2.16.2/include/mbedtls\cipher.h **** #define MBEDTLS_ERR_CIPHER_FEATURE_UNAVAILABLE  -0x6080  /**< The selected feature is not available
  60:c:/Users/lenovo/Desktop/AIoT/first_day/firstday_afternoon/LiteOS_Lab_STM32_IoT/iot_link/network/dtls/mbedtls/mbedtls-2.16.2/include/mbedtls\cipher.h **** #define MBEDTLS_ERR_CIPHER_BAD_INPUT_DATA       -0x6100  /**< Bad input parameters. */
  61:c:/Users/lenovo/Desktop/AIoT/first_day/firstday_afternoon/LiteOS_Lab_STM32_IoT/iot_link/network/dtls/mbedtls/mbedtls-2.16.2/include/mbedtls\cipher.h **** #define MBEDTLS_ERR_CIPHER_ALLOC_FAILED         -0x6180  /**< Failed to allocate memory. */
  62:c:/Users/lenovo/Desktop/AIoT/first_day/firstday_afternoon/LiteOS_Lab_STM32_IoT/iot_link/network/dtls/mbedtls/mbedtls-2.16.2/include/mbedtls\cipher.h **** #define MBEDTLS_ERR_CIPHER_INVALID_PADDING      -0x6200  /**< Input data contains invalid padding a
  63:c:/Users/lenovo/Desktop/AIoT/first_day/firstday_afternoon/LiteOS_Lab_STM32_IoT/iot_link/network/dtls/mbedtls/mbedtls-2.16.2/include/mbedtls\cipher.h **** #define MBEDTLS_ERR_CIPHER_FULL_BLOCK_EXPECTED  -0x6280  /**< Decryption of block requires a full b
  64:c:/Users/lenovo/Desktop/AIoT/first_day/firstday_afternoon/LiteOS_Lab_STM32_IoT/iot_link/network/dtls/mbedtls/mbedtls-2.16.2/include/mbedtls\cipher.h **** #define MBEDTLS_ERR_CIPHER_AUTH_FAILED          -0x6300  /**< Authentication failed (for AEAD modes
  65:c:/Users/lenovo/Desktop/AIoT/first_day/firstday_afternoon/LiteOS_Lab_STM32_IoT/iot_link/network/dtls/mbedtls/mbedtls-2.16.2/include/mbedtls\cipher.h **** #define MBEDTLS_ERR_CIPHER_INVALID_CONTEXT      -0x6380  /**< The context is invalid. For example, 
  66:c:/Users/lenovo/Desktop/AIoT/first_day/firstday_afternoon/LiteOS_Lab_STM32_IoT/iot_link/network/dtls/mbedtls/mbedtls-2.16.2/include/mbedtls\cipher.h **** 
  67:c:/Users/lenovo/Desktop/AIoT/first_day/firstday_afternoon/LiteOS_Lab_STM32_IoT/iot_link/network/dtls/mbedtls/mbedtls-2.16.2/include/mbedtls\cipher.h **** /* MBEDTLS_ERR_CIPHER_HW_ACCEL_FAILED is deprecated and should not be used. */
  68:c:/Users/lenovo/Desktop/AIoT/first_day/firstday_afternoon/LiteOS_Lab_STM32_IoT/iot_link/network/dtls/mbedtls/mbedtls-2.16.2/include/mbedtls\cipher.h **** #define MBEDTLS_ERR_CIPHER_HW_ACCEL_FAILED      -0x6400  /**< Cipher hardware accelerator failed. *
  69:c:/Users/lenovo/Desktop/AIoT/first_day/firstday_afternoon/LiteOS_Lab_STM32_IoT/iot_link/network/dtls/mbedtls/mbedtls-2.16.2/include/mbedtls\cipher.h **** 
  70:c:/Users/lenovo/Desktop/AIoT/first_day/firstday_afternoon/LiteOS_Lab_STM32_IoT/iot_link/network/dtls/mbedtls/mbedtls-2.16.2/include/mbedtls\cipher.h **** #define MBEDTLS_CIPHER_VARIABLE_IV_LEN     0x01    /**< Cipher accepts IVs of variable length. */
  71:c:/Users/lenovo/Desktop/AIoT/first_day/firstday_afternoon/LiteOS_Lab_STM32_IoT/iot_link/network/dtls/mbedtls/mbedtls-2.16.2/include/mbedtls\cipher.h **** #define MBEDTLS_CIPHER_VARIABLE_KEY_LEN    0x02    /**< Cipher accepts keys of variable length. */
  72:c:/Users/lenovo/Desktop/AIoT/first_day/firstday_afternoon/LiteOS_Lab_STM32_IoT/iot_link/network/dtls/mbedtls/mbedtls-2.16.2/include/mbedtls\cipher.h **** 
  73:c:/Users/lenovo/Desktop/AIoT/first_day/firstday_afternoon/LiteOS_Lab_STM32_IoT/iot_link/network/dtls/mbedtls/mbedtls-2.16.2/include/mbedtls\cipher.h **** #ifdef __cplusplus
  74:c:/Users/lenovo/Desktop/AIoT/first_day/firstday_afternoon/LiteOS_Lab_STM32_IoT/iot_link/network/dtls/mbedtls/mbedtls-2.16.2/include/mbedtls\cipher.h **** extern "C" {
  75:c:/Users/lenovo/Desktop/AIoT/first_day/firstday_afternoon/LiteOS_Lab_STM32_IoT/iot_link/network/dtls/mbedtls/mbedtls-2.16.2/include/mbedtls\cipher.h **** #endif
  76:c:/Users/lenovo/Desktop/AIoT/first_day/firstday_afternoon/LiteOS_Lab_STM32_IoT/iot_link/network/dtls/mbedtls/mbedtls-2.16.2/include/mbedtls\cipher.h **** 
  77:c:/Users/lenovo/Desktop/AIoT/first_day/firstday_afternoon/LiteOS_Lab_STM32_IoT/iot_link/network/dtls/mbedtls/mbedtls-2.16.2/include/mbedtls\cipher.h **** /**
  78:c:/Users/lenovo/Desktop/AIoT/first_day/firstday_afternoon/LiteOS_Lab_STM32_IoT/iot_link/network/dtls/mbedtls/mbedtls-2.16.2/include/mbedtls\cipher.h ****  * \brief     Supported cipher types.
  79:c:/Users/lenovo/Desktop/AIoT/first_day/firstday_afternoon/LiteOS_Lab_STM32_IoT/iot_link/network/dtls/mbedtls/mbedtls-2.16.2/include/mbedtls\cipher.h ****  *
  80:c:/Users/lenovo/Desktop/AIoT/first_day/firstday_afternoon/LiteOS_Lab_STM32_IoT/iot_link/network/dtls/mbedtls/mbedtls-2.16.2/include/mbedtls\cipher.h ****  * \warning   RC4 and DES are considered weak ciphers and their use
  81:c:/Users/lenovo/Desktop/AIoT/first_day/firstday_afternoon/LiteOS_Lab_STM32_IoT/iot_link/network/dtls/mbedtls/mbedtls-2.16.2/include/mbedtls\cipher.h ****  *            constitutes a security risk. Arm recommends considering stronger
  82:c:/Users/lenovo/Desktop/AIoT/first_day/firstday_afternoon/LiteOS_Lab_STM32_IoT/iot_link/network/dtls/mbedtls/mbedtls-2.16.2/include/mbedtls\cipher.h ****  *            ciphers instead.
  83:c:/Users/lenovo/Desktop/AIoT/first_day/firstday_afternoon/LiteOS_Lab_STM32_IoT/iot_link/network/dtls/mbedtls/mbedtls-2.16.2/include/mbedtls\cipher.h ****  */
  84:c:/Users/lenovo/Desktop/AIoT/first_day/firstday_afternoon/LiteOS_Lab_STM32_IoT/iot_link/network/dtls/mbedtls/mbedtls-2.16.2/include/mbedtls\cipher.h **** typedef enum {
  85:c:/Users/lenovo/Desktop/AIoT/first_day/firstday_afternoon/LiteOS_Lab_STM32_IoT/iot_link/network/dtls/mbedtls/mbedtls-2.16.2/include/mbedtls\cipher.h ****     MBEDTLS_CIPHER_ID_NONE = 0,  /**< Placeholder to mark the end of cipher ID lists. */
  86:c:/Users/lenovo/Desktop/AIoT/first_day/firstday_afternoon/LiteOS_Lab_STM32_IoT/iot_link/network/dtls/mbedtls/mbedtls-2.16.2/include/mbedtls\cipher.h ****     MBEDTLS_CIPHER_ID_NULL,      /**< The identity cipher, treated as a stream cipher. */
  87:c:/Users/lenovo/Desktop/AIoT/first_day/firstday_afternoon/LiteOS_Lab_STM32_IoT/iot_link/network/dtls/mbedtls/mbedtls-2.16.2/include/mbedtls\cipher.h ****     MBEDTLS_CIPHER_ID_AES,       /**< The AES cipher. */
  88:c:/Users/lenovo/Desktop/AIoT/first_day/firstday_afternoon/LiteOS_Lab_STM32_IoT/iot_link/network/dtls/mbedtls/mbedtls-2.16.2/include/mbedtls\cipher.h ****     MBEDTLS_CIPHER_ID_DES,       /**< The DES cipher. */
ARM GAS  C:\Users\lenovo\AppData\Local\Temp\ccSoL50u.s 			page 3


  89:c:/Users/lenovo/Desktop/AIoT/first_day/firstday_afternoon/LiteOS_Lab_STM32_IoT/iot_link/network/dtls/mbedtls/mbedtls-2.16.2/include/mbedtls\cipher.h ****     MBEDTLS_CIPHER_ID_3DES,      /**< The Triple DES cipher. */
  90:c:/Users/lenovo/Desktop/AIoT/first_day/firstday_afternoon/LiteOS_Lab_STM32_IoT/iot_link/network/dtls/mbedtls/mbedtls-2.16.2/include/mbedtls\cipher.h ****     MBEDTLS_CIPHER_ID_CAMELLIA,  /**< The Camellia cipher. */
  91:c:/Users/lenovo/Desktop/AIoT/first_day/firstday_afternoon/LiteOS_Lab_STM32_IoT/iot_link/network/dtls/mbedtls/mbedtls-2.16.2/include/mbedtls\cipher.h ****     MBEDTLS_CIPHER_ID_BLOWFISH,  /**< The Blowfish cipher. */
  92:c:/Users/lenovo/Desktop/AIoT/first_day/firstday_afternoon/LiteOS_Lab_STM32_IoT/iot_link/network/dtls/mbedtls/mbedtls-2.16.2/include/mbedtls\cipher.h ****     MBEDTLS_CIPHER_ID_ARC4,      /**< The RC4 cipher. */
  93:c:/Users/lenovo/Desktop/AIoT/first_day/firstday_afternoon/LiteOS_Lab_STM32_IoT/iot_link/network/dtls/mbedtls/mbedtls-2.16.2/include/mbedtls\cipher.h ****     MBEDTLS_CIPHER_ID_ARIA,      /**< The Aria cipher. */
  94:c:/Users/lenovo/Desktop/AIoT/first_day/firstday_afternoon/LiteOS_Lab_STM32_IoT/iot_link/network/dtls/mbedtls/mbedtls-2.16.2/include/mbedtls\cipher.h ****     MBEDTLS_CIPHER_ID_CHACHA20,  /**< The ChaCha20 cipher. */
  95:c:/Users/lenovo/Desktop/AIoT/first_day/firstday_afternoon/LiteOS_Lab_STM32_IoT/iot_link/network/dtls/mbedtls/mbedtls-2.16.2/include/mbedtls\cipher.h **** } mbedtls_cipher_id_t;
  96:c:/Users/lenovo/Desktop/AIoT/first_day/firstday_afternoon/LiteOS_Lab_STM32_IoT/iot_link/network/dtls/mbedtls/mbedtls-2.16.2/include/mbedtls\cipher.h **** 
  97:c:/Users/lenovo/Desktop/AIoT/first_day/firstday_afternoon/LiteOS_Lab_STM32_IoT/iot_link/network/dtls/mbedtls/mbedtls-2.16.2/include/mbedtls\cipher.h **** /**
  98:c:/Users/lenovo/Desktop/AIoT/first_day/firstday_afternoon/LiteOS_Lab_STM32_IoT/iot_link/network/dtls/mbedtls/mbedtls-2.16.2/include/mbedtls\cipher.h ****  * \brief     Supported {cipher type, cipher mode} pairs.
  99:c:/Users/lenovo/Desktop/AIoT/first_day/firstday_afternoon/LiteOS_Lab_STM32_IoT/iot_link/network/dtls/mbedtls/mbedtls-2.16.2/include/mbedtls\cipher.h ****  *
 100:c:/Users/lenovo/Desktop/AIoT/first_day/firstday_afternoon/LiteOS_Lab_STM32_IoT/iot_link/network/dtls/mbedtls/mbedtls-2.16.2/include/mbedtls\cipher.h ****  * \warning   RC4 and DES are considered weak ciphers and their use
 101:c:/Users/lenovo/Desktop/AIoT/first_day/firstday_afternoon/LiteOS_Lab_STM32_IoT/iot_link/network/dtls/mbedtls/mbedtls-2.16.2/include/mbedtls\cipher.h ****  *            constitutes a security risk. Arm recommends considering stronger
 102:c:/Users/lenovo/Desktop/AIoT/first_day/firstday_afternoon/LiteOS_Lab_STM32_IoT/iot_link/network/dtls/mbedtls/mbedtls-2.16.2/include/mbedtls\cipher.h ****  *            ciphers instead.
 103:c:/Users/lenovo/Desktop/AIoT/first_day/firstday_afternoon/LiteOS_Lab_STM32_IoT/iot_link/network/dtls/mbedtls/mbedtls-2.16.2/include/mbedtls\cipher.h ****  */
 104:c:/Users/lenovo/Desktop/AIoT/first_day/firstday_afternoon/LiteOS_Lab_STM32_IoT/iot_link/network/dtls/mbedtls/mbedtls-2.16.2/include/mbedtls\cipher.h **** typedef enum {
 105:c:/Users/lenovo/Desktop/AIoT/first_day/firstday_afternoon/LiteOS_Lab_STM32_IoT/iot_link/network/dtls/mbedtls/mbedtls-2.16.2/include/mbedtls\cipher.h ****     MBEDTLS_CIPHER_NONE = 0,             /**< Placeholder to mark the end of cipher-pair lists. */
 106:c:/Users/lenovo/Desktop/AIoT/first_day/firstday_afternoon/LiteOS_Lab_STM32_IoT/iot_link/network/dtls/mbedtls/mbedtls-2.16.2/include/mbedtls\cipher.h ****     MBEDTLS_CIPHER_NULL,                 /**< The identity stream cipher. */
 107:c:/Users/lenovo/Desktop/AIoT/first_day/firstday_afternoon/LiteOS_Lab_STM32_IoT/iot_link/network/dtls/mbedtls/mbedtls-2.16.2/include/mbedtls\cipher.h ****     MBEDTLS_CIPHER_AES_128_ECB,          /**< AES cipher with 128-bit ECB mode. */
 108:c:/Users/lenovo/Desktop/AIoT/first_day/firstday_afternoon/LiteOS_Lab_STM32_IoT/iot_link/network/dtls/mbedtls/mbedtls-2.16.2/include/mbedtls\cipher.h ****     MBEDTLS_CIPHER_AES_192_ECB,          /**< AES cipher with 192-bit ECB mode. */
 109:c:/Users/lenovo/Desktop/AIoT/first_day/firstday_afternoon/LiteOS_Lab_STM32_IoT/iot_link/network/dtls/mbedtls/mbedtls-2.16.2/include/mbedtls\cipher.h ****     MBEDTLS_CIPHER_AES_256_ECB,          /**< AES cipher with 256-bit ECB mode. */
 110:c:/Users/lenovo/Desktop/AIoT/first_day/firstday_afternoon/LiteOS_Lab_STM32_IoT/iot_link/network/dtls/mbedtls/mbedtls-2.16.2/include/mbedtls\cipher.h ****     MBEDTLS_CIPHER_AES_128_CBC,          /**< AES cipher with 128-bit CBC mode. */
 111:c:/Users/lenovo/Desktop/AIoT/first_day/firstday_afternoon/LiteOS_Lab_STM32_IoT/iot_link/network/dtls/mbedtls/mbedtls-2.16.2/include/mbedtls\cipher.h ****     MBEDTLS_CIPHER_AES_192_CBC,          /**< AES cipher with 192-bit CBC mode. */
 112:c:/Users/lenovo/Desktop/AIoT/first_day/firstday_afternoon/LiteOS_Lab_STM32_IoT/iot_link/network/dtls/mbedtls/mbedtls-2.16.2/include/mbedtls\cipher.h ****     MBEDTLS_CIPHER_AES_256_CBC,          /**< AES cipher with 256-bit CBC mode. */
 113:c:/Users/lenovo/Desktop/AIoT/first_day/firstday_afternoon/LiteOS_Lab_STM32_IoT/iot_link/network/dtls/mbedtls/mbedtls-2.16.2/include/mbedtls\cipher.h ****     MBEDTLS_CIPHER_AES_128_CFB128,       /**< AES cipher with 128-bit CFB128 mode. */
 114:c:/Users/lenovo/Desktop/AIoT/first_day/firstday_afternoon/LiteOS_Lab_STM32_IoT/iot_link/network/dtls/mbedtls/mbedtls-2.16.2/include/mbedtls\cipher.h ****     MBEDTLS_CIPHER_AES_192_CFB128,       /**< AES cipher with 192-bit CFB128 mode. */
 115:c:/Users/lenovo/Desktop/AIoT/first_day/firstday_afternoon/LiteOS_Lab_STM32_IoT/iot_link/network/dtls/mbedtls/mbedtls-2.16.2/include/mbedtls\cipher.h ****     MBEDTLS_CIPHER_AES_256_CFB128,       /**< AES cipher with 256-bit CFB128 mode. */
 116:c:/Users/lenovo/Desktop/AIoT/first_day/firstday_afternoon/LiteOS_Lab_STM32_IoT/iot_link/network/dtls/mbedtls/mbedtls-2.16.2/include/mbedtls\cipher.h ****     MBEDTLS_CIPHER_AES_128_CTR,          /**< AES cipher with 128-bit CTR mode. */
 117:c:/Users/lenovo/Desktop/AIoT/first_day/firstday_afternoon/LiteOS_Lab_STM32_IoT/iot_link/network/dtls/mbedtls/mbedtls-2.16.2/include/mbedtls\cipher.h ****     MBEDTLS_CIPHER_AES_192_CTR,          /**< AES cipher with 192-bit CTR mode. */
 118:c:/Users/lenovo/Desktop/AIoT/first_day/firstday_afternoon/LiteOS_Lab_STM32_IoT/iot_link/network/dtls/mbedtls/mbedtls-2.16.2/include/mbedtls\cipher.h ****     MBEDTLS_CIPHER_AES_256_CTR,          /**< AES cipher with 256-bit CTR mode. */
 119:c:/Users/lenovo/Desktop/AIoT/first_day/firstday_afternoon/LiteOS_Lab_STM32_IoT/iot_link/network/dtls/mbedtls/mbedtls-2.16.2/include/mbedtls\cipher.h ****     MBEDTLS_CIPHER_AES_128_GCM,          /**< AES cipher with 128-bit GCM mode. */
 120:c:/Users/lenovo/Desktop/AIoT/first_day/firstday_afternoon/LiteOS_Lab_STM32_IoT/iot_link/network/dtls/mbedtls/mbedtls-2.16.2/include/mbedtls\cipher.h ****     MBEDTLS_CIPHER_AES_192_GCM,          /**< AES cipher with 192-bit GCM mode. */
 121:c:/Users/lenovo/Desktop/AIoT/first_day/firstday_afternoon/LiteOS_Lab_STM32_IoT/iot_link/network/dtls/mbedtls/mbedtls-2.16.2/include/mbedtls\cipher.h ****     MBEDTLS_CIPHER_AES_256_GCM,          /**< AES cipher with 256-bit GCM mode. */
 122:c:/Users/lenovo/Desktop/AIoT/first_day/firstday_afternoon/LiteOS_Lab_STM32_IoT/iot_link/network/dtls/mbedtls/mbedtls-2.16.2/include/mbedtls\cipher.h ****     MBEDTLS_CIPHER_CAMELLIA_128_ECB,     /**< Camellia cipher with 128-bit ECB mode. */
 123:c:/Users/lenovo/Desktop/AIoT/first_day/firstday_afternoon/LiteOS_Lab_STM32_IoT/iot_link/network/dtls/mbedtls/mbedtls-2.16.2/include/mbedtls\cipher.h ****     MBEDTLS_CIPHER_CAMELLIA_192_ECB,     /**< Camellia cipher with 192-bit ECB mode. */
 124:c:/Users/lenovo/Desktop/AIoT/first_day/firstday_afternoon/LiteOS_Lab_STM32_IoT/iot_link/network/dtls/mbedtls/mbedtls-2.16.2/include/mbedtls\cipher.h ****     MBEDTLS_CIPHER_CAMELLIA_256_ECB,     /**< Camellia cipher with 256-bit ECB mode. */
 125:c:/Users/lenovo/Desktop/AIoT/first_day/firstday_afternoon/LiteOS_Lab_STM32_IoT/iot_link/network/dtls/mbedtls/mbedtls-2.16.2/include/mbedtls\cipher.h ****     MBEDTLS_CIPHER_CAMELLIA_128_CBC,     /**< Camellia cipher with 128-bit CBC mode. */
 126:c:/Users/lenovo/Desktop/AIoT/first_day/firstday_afternoon/LiteOS_Lab_STM32_IoT/iot_link/network/dtls/mbedtls/mbedtls-2.16.2/include/mbedtls\cipher.h ****     MBEDTLS_CIPHER_CAMELLIA_192_CBC,     /**< Camellia cipher with 192-bit CBC mode. */
 127:c:/Users/lenovo/Desktop/AIoT/first_day/firstday_afternoon/LiteOS_Lab_STM32_IoT/iot_link/network/dtls/mbedtls/mbedtls-2.16.2/include/mbedtls\cipher.h ****     MBEDTLS_CIPHER_CAMELLIA_256_CBC,     /**< Camellia cipher with 256-bit CBC mode. */
 128:c:/Users/lenovo/Desktop/AIoT/first_day/firstday_afternoon/LiteOS_Lab_STM32_IoT/iot_link/network/dtls/mbedtls/mbedtls-2.16.2/include/mbedtls\cipher.h ****     MBEDTLS_CIPHER_CAMELLIA_128_CFB128,  /**< Camellia cipher with 128-bit CFB128 mode. */
 129:c:/Users/lenovo/Desktop/AIoT/first_day/firstday_afternoon/LiteOS_Lab_STM32_IoT/iot_link/network/dtls/mbedtls/mbedtls-2.16.2/include/mbedtls\cipher.h ****     MBEDTLS_CIPHER_CAMELLIA_192_CFB128,  /**< Camellia cipher with 192-bit CFB128 mode. */
 130:c:/Users/lenovo/Desktop/AIoT/first_day/firstday_afternoon/LiteOS_Lab_STM32_IoT/iot_link/network/dtls/mbedtls/mbedtls-2.16.2/include/mbedtls\cipher.h ****     MBEDTLS_CIPHER_CAMELLIA_256_CFB128,  /**< Camellia cipher with 256-bit CFB128 mode. */
 131:c:/Users/lenovo/Desktop/AIoT/first_day/firstday_afternoon/LiteOS_Lab_STM32_IoT/iot_link/network/dtls/mbedtls/mbedtls-2.16.2/include/mbedtls\cipher.h ****     MBEDTLS_CIPHER_CAMELLIA_128_CTR,     /**< Camellia cipher with 128-bit CTR mode. */
 132:c:/Users/lenovo/Desktop/AIoT/first_day/firstday_afternoon/LiteOS_Lab_STM32_IoT/iot_link/network/dtls/mbedtls/mbedtls-2.16.2/include/mbedtls\cipher.h ****     MBEDTLS_CIPHER_CAMELLIA_192_CTR,     /**< Camellia cipher with 192-bit CTR mode. */
 133:c:/Users/lenovo/Desktop/AIoT/first_day/firstday_afternoon/LiteOS_Lab_STM32_IoT/iot_link/network/dtls/mbedtls/mbedtls-2.16.2/include/mbedtls\cipher.h ****     MBEDTLS_CIPHER_CAMELLIA_256_CTR,     /**< Camellia cipher with 256-bit CTR mode. */
 134:c:/Users/lenovo/Desktop/AIoT/first_day/firstday_afternoon/LiteOS_Lab_STM32_IoT/iot_link/network/dtls/mbedtls/mbedtls-2.16.2/include/mbedtls\cipher.h ****     MBEDTLS_CIPHER_CAMELLIA_128_GCM,     /**< Camellia cipher with 128-bit GCM mode. */
 135:c:/Users/lenovo/Desktop/AIoT/first_day/firstday_afternoon/LiteOS_Lab_STM32_IoT/iot_link/network/dtls/mbedtls/mbedtls-2.16.2/include/mbedtls\cipher.h ****     MBEDTLS_CIPHER_CAMELLIA_192_GCM,     /**< Camellia cipher with 192-bit GCM mode. */
 136:c:/Users/lenovo/Desktop/AIoT/first_day/firstday_afternoon/LiteOS_Lab_STM32_IoT/iot_link/network/dtls/mbedtls/mbedtls-2.16.2/include/mbedtls\cipher.h ****     MBEDTLS_CIPHER_CAMELLIA_256_GCM,     /**< Camellia cipher with 256-bit GCM mode. */
 137:c:/Users/lenovo/Desktop/AIoT/first_day/firstday_afternoon/LiteOS_Lab_STM32_IoT/iot_link/network/dtls/mbedtls/mbedtls-2.16.2/include/mbedtls\cipher.h ****     MBEDTLS_CIPHER_DES_ECB,              /**< DES cipher with ECB mode. */
 138:c:/Users/lenovo/Desktop/AIoT/first_day/firstday_afternoon/LiteOS_Lab_STM32_IoT/iot_link/network/dtls/mbedtls/mbedtls-2.16.2/include/mbedtls\cipher.h ****     MBEDTLS_CIPHER_DES_CBC,              /**< DES cipher with CBC mode. */
 139:c:/Users/lenovo/Desktop/AIoT/first_day/firstday_afternoon/LiteOS_Lab_STM32_IoT/iot_link/network/dtls/mbedtls/mbedtls-2.16.2/include/mbedtls\cipher.h ****     MBEDTLS_CIPHER_DES_EDE_ECB,          /**< DES cipher with EDE ECB mode. */
 140:c:/Users/lenovo/Desktop/AIoT/first_day/firstday_afternoon/LiteOS_Lab_STM32_IoT/iot_link/network/dtls/mbedtls/mbedtls-2.16.2/include/mbedtls\cipher.h ****     MBEDTLS_CIPHER_DES_EDE_CBC,          /**< DES cipher with EDE CBC mode. */
 141:c:/Users/lenovo/Desktop/AIoT/first_day/firstday_afternoon/LiteOS_Lab_STM32_IoT/iot_link/network/dtls/mbedtls/mbedtls-2.16.2/include/mbedtls\cipher.h ****     MBEDTLS_CIPHER_DES_EDE3_ECB,         /**< DES cipher with EDE3 ECB mode. */
 142:c:/Users/lenovo/Desktop/AIoT/first_day/firstday_afternoon/LiteOS_Lab_STM32_IoT/iot_link/network/dtls/mbedtls/mbedtls-2.16.2/include/mbedtls\cipher.h ****     MBEDTLS_CIPHER_DES_EDE3_CBC,         /**< DES cipher with EDE3 CBC mode. */
 143:c:/Users/lenovo/Desktop/AIoT/first_day/firstday_afternoon/LiteOS_Lab_STM32_IoT/iot_link/network/dtls/mbedtls/mbedtls-2.16.2/include/mbedtls\cipher.h ****     MBEDTLS_CIPHER_BLOWFISH_ECB,         /**< Blowfish cipher with ECB mode. */
 144:c:/Users/lenovo/Desktop/AIoT/first_day/firstday_afternoon/LiteOS_Lab_STM32_IoT/iot_link/network/dtls/mbedtls/mbedtls-2.16.2/include/mbedtls\cipher.h ****     MBEDTLS_CIPHER_BLOWFISH_CBC,         /**< Blowfish cipher with CBC mode. */
 145:c:/Users/lenovo/Desktop/AIoT/first_day/firstday_afternoon/LiteOS_Lab_STM32_IoT/iot_link/network/dtls/mbedtls/mbedtls-2.16.2/include/mbedtls\cipher.h ****     MBEDTLS_CIPHER_BLOWFISH_CFB64,       /**< Blowfish cipher with CFB64 mode. */
ARM GAS  C:\Users\lenovo\AppData\Local\Temp\ccSoL50u.s 			page 4


 146:c:/Users/lenovo/Desktop/AIoT/first_day/firstday_afternoon/LiteOS_Lab_STM32_IoT/iot_link/network/dtls/mbedtls/mbedtls-2.16.2/include/mbedtls\cipher.h ****     MBEDTLS_CIPHER_BLOWFISH_CTR,         /**< Blowfish cipher with CTR mode. */
 147:c:/Users/lenovo/Desktop/AIoT/first_day/firstday_afternoon/LiteOS_Lab_STM32_IoT/iot_link/network/dtls/mbedtls/mbedtls-2.16.2/include/mbedtls\cipher.h ****     MBEDTLS_CIPHER_ARC4_128,             /**< RC4 cipher with 128-bit mode. */
 148:c:/Users/lenovo/Desktop/AIoT/first_day/firstday_afternoon/LiteOS_Lab_STM32_IoT/iot_link/network/dtls/mbedtls/mbedtls-2.16.2/include/mbedtls\cipher.h ****     MBEDTLS_CIPHER_AES_128_CCM,          /**< AES cipher with 128-bit CCM mode. */
 149:c:/Users/lenovo/Desktop/AIoT/first_day/firstday_afternoon/LiteOS_Lab_STM32_IoT/iot_link/network/dtls/mbedtls/mbedtls-2.16.2/include/mbedtls\cipher.h ****     MBEDTLS_CIPHER_AES_192_CCM,          /**< AES cipher with 192-bit CCM mode. */
 150:c:/Users/lenovo/Desktop/AIoT/first_day/firstday_afternoon/LiteOS_Lab_STM32_IoT/iot_link/network/dtls/mbedtls/mbedtls-2.16.2/include/mbedtls\cipher.h ****     MBEDTLS_CIPHER_AES_256_CCM,          /**< AES cipher with 256-bit CCM mode. */
 151:c:/Users/lenovo/Desktop/AIoT/first_day/firstday_afternoon/LiteOS_Lab_STM32_IoT/iot_link/network/dtls/mbedtls/mbedtls-2.16.2/include/mbedtls\cipher.h ****     MBEDTLS_CIPHER_CAMELLIA_128_CCM,     /**< Camellia cipher with 128-bit CCM mode. */
 152:c:/Users/lenovo/Desktop/AIoT/first_day/firstday_afternoon/LiteOS_Lab_STM32_IoT/iot_link/network/dtls/mbedtls/mbedtls-2.16.2/include/mbedtls\cipher.h ****     MBEDTLS_CIPHER_CAMELLIA_192_CCM,     /**< Camellia cipher with 192-bit CCM mode. */
 153:c:/Users/lenovo/Desktop/AIoT/first_day/firstday_afternoon/LiteOS_Lab_STM32_IoT/iot_link/network/dtls/mbedtls/mbedtls-2.16.2/include/mbedtls\cipher.h ****     MBEDTLS_CIPHER_CAMELLIA_256_CCM,     /**< Camellia cipher with 256-bit CCM mode. */
 154:c:/Users/lenovo/Desktop/AIoT/first_day/firstday_afternoon/LiteOS_Lab_STM32_IoT/iot_link/network/dtls/mbedtls/mbedtls-2.16.2/include/mbedtls\cipher.h ****     MBEDTLS_CIPHER_ARIA_128_ECB,         /**< Aria cipher with 128-bit key and ECB mode. */
 155:c:/Users/lenovo/Desktop/AIoT/first_day/firstday_afternoon/LiteOS_Lab_STM32_IoT/iot_link/network/dtls/mbedtls/mbedtls-2.16.2/include/mbedtls\cipher.h ****     MBEDTLS_CIPHER_ARIA_192_ECB,         /**< Aria cipher with 192-bit key and ECB mode. */
 156:c:/Users/lenovo/Desktop/AIoT/first_day/firstday_afternoon/LiteOS_Lab_STM32_IoT/iot_link/network/dtls/mbedtls/mbedtls-2.16.2/include/mbedtls\cipher.h ****     MBEDTLS_CIPHER_ARIA_256_ECB,         /**< Aria cipher with 256-bit key and ECB mode. */
 157:c:/Users/lenovo/Desktop/AIoT/first_day/firstday_afternoon/LiteOS_Lab_STM32_IoT/iot_link/network/dtls/mbedtls/mbedtls-2.16.2/include/mbedtls\cipher.h ****     MBEDTLS_CIPHER_ARIA_128_CBC,         /**< Aria cipher with 128-bit key and CBC mode. */
 158:c:/Users/lenovo/Desktop/AIoT/first_day/firstday_afternoon/LiteOS_Lab_STM32_IoT/iot_link/network/dtls/mbedtls/mbedtls-2.16.2/include/mbedtls\cipher.h ****     MBEDTLS_CIPHER_ARIA_192_CBC,         /**< Aria cipher with 192-bit key and CBC mode. */
 159:c:/Users/lenovo/Desktop/AIoT/first_day/firstday_afternoon/LiteOS_Lab_STM32_IoT/iot_link/network/dtls/mbedtls/mbedtls-2.16.2/include/mbedtls\cipher.h ****     MBEDTLS_CIPHER_ARIA_256_CBC,         /**< Aria cipher with 256-bit key and CBC mode. */
 160:c:/Users/lenovo/Desktop/AIoT/first_day/firstday_afternoon/LiteOS_Lab_STM32_IoT/iot_link/network/dtls/mbedtls/mbedtls-2.16.2/include/mbedtls\cipher.h ****     MBEDTLS_CIPHER_ARIA_128_CFB128,      /**< Aria cipher with 128-bit key and CFB-128 mode. */
 161:c:/Users/lenovo/Desktop/AIoT/first_day/firstday_afternoon/LiteOS_Lab_STM32_IoT/iot_link/network/dtls/mbedtls/mbedtls-2.16.2/include/mbedtls\cipher.h ****     MBEDTLS_CIPHER_ARIA_192_CFB128,      /**< Aria cipher with 192-bit key and CFB-128 mode. */
 162:c:/Users/lenovo/Desktop/AIoT/first_day/firstday_afternoon/LiteOS_Lab_STM32_IoT/iot_link/network/dtls/mbedtls/mbedtls-2.16.2/include/mbedtls\cipher.h ****     MBEDTLS_CIPHER_ARIA_256_CFB128,      /**< Aria cipher with 256-bit key and CFB-128 mode. */
 163:c:/Users/lenovo/Desktop/AIoT/first_day/firstday_afternoon/LiteOS_Lab_STM32_IoT/iot_link/network/dtls/mbedtls/mbedtls-2.16.2/include/mbedtls\cipher.h ****     MBEDTLS_CIPHER_ARIA_128_CTR,         /**< Aria cipher with 128-bit key and CTR mode. */
 164:c:/Users/lenovo/Desktop/AIoT/first_day/firstday_afternoon/LiteOS_Lab_STM32_IoT/iot_link/network/dtls/mbedtls/mbedtls-2.16.2/include/mbedtls\cipher.h ****     MBEDTLS_CIPHER_ARIA_192_CTR,         /**< Aria cipher with 192-bit key and CTR mode. */
 165:c:/Users/lenovo/Desktop/AIoT/first_day/firstday_afternoon/LiteOS_Lab_STM32_IoT/iot_link/network/dtls/mbedtls/mbedtls-2.16.2/include/mbedtls\cipher.h ****     MBEDTLS_CIPHER_ARIA_256_CTR,         /**< Aria cipher with 256-bit key and CTR mode. */
 166:c:/Users/lenovo/Desktop/AIoT/first_day/firstday_afternoon/LiteOS_Lab_STM32_IoT/iot_link/network/dtls/mbedtls/mbedtls-2.16.2/include/mbedtls\cipher.h ****     MBEDTLS_CIPHER_ARIA_128_GCM,         /**< Aria cipher with 128-bit key and GCM mode. */
 167:c:/Users/lenovo/Desktop/AIoT/first_day/firstday_afternoon/LiteOS_Lab_STM32_IoT/iot_link/network/dtls/mbedtls/mbedtls-2.16.2/include/mbedtls\cipher.h ****     MBEDTLS_CIPHER_ARIA_192_GCM,         /**< Aria cipher with 192-bit key and GCM mode. */
 168:c:/Users/lenovo/Desktop/AIoT/first_day/firstday_afternoon/LiteOS_Lab_STM32_IoT/iot_link/network/dtls/mbedtls/mbedtls-2.16.2/include/mbedtls\cipher.h ****     MBEDTLS_CIPHER_ARIA_256_GCM,         /**< Aria cipher with 256-bit key and GCM mode. */
 169:c:/Users/lenovo/Desktop/AIoT/first_day/firstday_afternoon/LiteOS_Lab_STM32_IoT/iot_link/network/dtls/mbedtls/mbedtls-2.16.2/include/mbedtls\cipher.h ****     MBEDTLS_CIPHER_ARIA_128_CCM,         /**< Aria cipher with 128-bit key and CCM mode. */
 170:c:/Users/lenovo/Desktop/AIoT/first_day/firstday_afternoon/LiteOS_Lab_STM32_IoT/iot_link/network/dtls/mbedtls/mbedtls-2.16.2/include/mbedtls\cipher.h ****     MBEDTLS_CIPHER_ARIA_192_CCM,         /**< Aria cipher with 192-bit key and CCM mode. */
 171:c:/Users/lenovo/Desktop/AIoT/first_day/firstday_afternoon/LiteOS_Lab_STM32_IoT/iot_link/network/dtls/mbedtls/mbedtls-2.16.2/include/mbedtls\cipher.h ****     MBEDTLS_CIPHER_ARIA_256_CCM,         /**< Aria cipher with 256-bit key and CCM mode. */
 172:c:/Users/lenovo/Desktop/AIoT/first_day/firstday_afternoon/LiteOS_Lab_STM32_IoT/iot_link/network/dtls/mbedtls/mbedtls-2.16.2/include/mbedtls\cipher.h ****     MBEDTLS_CIPHER_AES_128_OFB,          /**< AES 128-bit cipher in OFB mode. */
 173:c:/Users/lenovo/Desktop/AIoT/first_day/firstday_afternoon/LiteOS_Lab_STM32_IoT/iot_link/network/dtls/mbedtls/mbedtls-2.16.2/include/mbedtls\cipher.h ****     MBEDTLS_CIPHER_AES_192_OFB,          /**< AES 192-bit cipher in OFB mode. */
 174:c:/Users/lenovo/Desktop/AIoT/first_day/firstday_afternoon/LiteOS_Lab_STM32_IoT/iot_link/network/dtls/mbedtls/mbedtls-2.16.2/include/mbedtls\cipher.h ****     MBEDTLS_CIPHER_AES_256_OFB,          /**< AES 256-bit cipher in OFB mode. */
 175:c:/Users/lenovo/Desktop/AIoT/first_day/firstday_afternoon/LiteOS_Lab_STM32_IoT/iot_link/network/dtls/mbedtls/mbedtls-2.16.2/include/mbedtls\cipher.h ****     MBEDTLS_CIPHER_AES_128_XTS,          /**< AES 128-bit cipher in XTS block mode. */
 176:c:/Users/lenovo/Desktop/AIoT/first_day/firstday_afternoon/LiteOS_Lab_STM32_IoT/iot_link/network/dtls/mbedtls/mbedtls-2.16.2/include/mbedtls\cipher.h ****     MBEDTLS_CIPHER_AES_256_XTS,          /**< AES 256-bit cipher in XTS block mode. */
 177:c:/Users/lenovo/Desktop/AIoT/first_day/firstday_afternoon/LiteOS_Lab_STM32_IoT/iot_link/network/dtls/mbedtls/mbedtls-2.16.2/include/mbedtls\cipher.h ****     MBEDTLS_CIPHER_CHACHA20,             /**< ChaCha20 stream cipher. */
 178:c:/Users/lenovo/Desktop/AIoT/first_day/firstday_afternoon/LiteOS_Lab_STM32_IoT/iot_link/network/dtls/mbedtls/mbedtls-2.16.2/include/mbedtls\cipher.h ****     MBEDTLS_CIPHER_CHACHA20_POLY1305,    /**< ChaCha20-Poly1305 AEAD cipher. */
 179:c:/Users/lenovo/Desktop/AIoT/first_day/firstday_afternoon/LiteOS_Lab_STM32_IoT/iot_link/network/dtls/mbedtls/mbedtls-2.16.2/include/mbedtls\cipher.h **** } mbedtls_cipher_type_t;
 180:c:/Users/lenovo/Desktop/AIoT/first_day/firstday_afternoon/LiteOS_Lab_STM32_IoT/iot_link/network/dtls/mbedtls/mbedtls-2.16.2/include/mbedtls\cipher.h **** 
 181:c:/Users/lenovo/Desktop/AIoT/first_day/firstday_afternoon/LiteOS_Lab_STM32_IoT/iot_link/network/dtls/mbedtls/mbedtls-2.16.2/include/mbedtls\cipher.h **** /** Supported cipher modes. */
 182:c:/Users/lenovo/Desktop/AIoT/first_day/firstday_afternoon/LiteOS_Lab_STM32_IoT/iot_link/network/dtls/mbedtls/mbedtls-2.16.2/include/mbedtls\cipher.h **** typedef enum {
 183:c:/Users/lenovo/Desktop/AIoT/first_day/firstday_afternoon/LiteOS_Lab_STM32_IoT/iot_link/network/dtls/mbedtls/mbedtls-2.16.2/include/mbedtls\cipher.h ****     MBEDTLS_MODE_NONE = 0,               /**< None. */
 184:c:/Users/lenovo/Desktop/AIoT/first_day/firstday_afternoon/LiteOS_Lab_STM32_IoT/iot_link/network/dtls/mbedtls/mbedtls-2.16.2/include/mbedtls\cipher.h ****     MBEDTLS_MODE_ECB,                    /**< The ECB cipher mode. */
 185:c:/Users/lenovo/Desktop/AIoT/first_day/firstday_afternoon/LiteOS_Lab_STM32_IoT/iot_link/network/dtls/mbedtls/mbedtls-2.16.2/include/mbedtls\cipher.h ****     MBEDTLS_MODE_CBC,                    /**< The CBC cipher mode. */
 186:c:/Users/lenovo/Desktop/AIoT/first_day/firstday_afternoon/LiteOS_Lab_STM32_IoT/iot_link/network/dtls/mbedtls/mbedtls-2.16.2/include/mbedtls\cipher.h ****     MBEDTLS_MODE_CFB,                    /**< The CFB cipher mode. */
 187:c:/Users/lenovo/Desktop/AIoT/first_day/firstday_afternoon/LiteOS_Lab_STM32_IoT/iot_link/network/dtls/mbedtls/mbedtls-2.16.2/include/mbedtls\cipher.h ****     MBEDTLS_MODE_OFB,                    /**< The OFB cipher mode. */
 188:c:/Users/lenovo/Desktop/AIoT/first_day/firstday_afternoon/LiteOS_Lab_STM32_IoT/iot_link/network/dtls/mbedtls/mbedtls-2.16.2/include/mbedtls\cipher.h ****     MBEDTLS_MODE_CTR,                    /**< The CTR cipher mode. */
 189:c:/Users/lenovo/Desktop/AIoT/first_day/firstday_afternoon/LiteOS_Lab_STM32_IoT/iot_link/network/dtls/mbedtls/mbedtls-2.16.2/include/mbedtls\cipher.h ****     MBEDTLS_MODE_GCM,                    /**< The GCM cipher mode. */
 190:c:/Users/lenovo/Desktop/AIoT/first_day/firstday_afternoon/LiteOS_Lab_STM32_IoT/iot_link/network/dtls/mbedtls/mbedtls-2.16.2/include/mbedtls\cipher.h ****     MBEDTLS_MODE_STREAM,                 /**< The stream cipher mode. */
 191:c:/Users/lenovo/Desktop/AIoT/first_day/firstday_afternoon/LiteOS_Lab_STM32_IoT/iot_link/network/dtls/mbedtls/mbedtls-2.16.2/include/mbedtls\cipher.h ****     MBEDTLS_MODE_CCM,                    /**< The CCM cipher mode. */
 192:c:/Users/lenovo/Desktop/AIoT/first_day/firstday_afternoon/LiteOS_Lab_STM32_IoT/iot_link/network/dtls/mbedtls/mbedtls-2.16.2/include/mbedtls\cipher.h ****     MBEDTLS_MODE_XTS,                    /**< The XTS cipher mode. */
 193:c:/Users/lenovo/Desktop/AIoT/first_day/firstday_afternoon/LiteOS_Lab_STM32_IoT/iot_link/network/dtls/mbedtls/mbedtls-2.16.2/include/mbedtls\cipher.h ****     MBEDTLS_MODE_CHACHAPOLY,             /**< The ChaCha-Poly cipher mode. */
 194:c:/Users/lenovo/Desktop/AIoT/first_day/firstday_afternoon/LiteOS_Lab_STM32_IoT/iot_link/network/dtls/mbedtls/mbedtls-2.16.2/include/mbedtls\cipher.h **** } mbedtls_cipher_mode_t;
 195:c:/Users/lenovo/Desktop/AIoT/first_day/firstday_afternoon/LiteOS_Lab_STM32_IoT/iot_link/network/dtls/mbedtls/mbedtls-2.16.2/include/mbedtls\cipher.h **** 
 196:c:/Users/lenovo/Desktop/AIoT/first_day/firstday_afternoon/LiteOS_Lab_STM32_IoT/iot_link/network/dtls/mbedtls/mbedtls-2.16.2/include/mbedtls\cipher.h **** /** Supported cipher padding types. */
 197:c:/Users/lenovo/Desktop/AIoT/first_day/firstday_afternoon/LiteOS_Lab_STM32_IoT/iot_link/network/dtls/mbedtls/mbedtls-2.16.2/include/mbedtls\cipher.h **** typedef enum {
 198:c:/Users/lenovo/Desktop/AIoT/first_day/firstday_afternoon/LiteOS_Lab_STM32_IoT/iot_link/network/dtls/mbedtls/mbedtls-2.16.2/include/mbedtls\cipher.h ****     MBEDTLS_PADDING_PKCS7 = 0,     /**< PKCS7 padding (default).        */
 199:c:/Users/lenovo/Desktop/AIoT/first_day/firstday_afternoon/LiteOS_Lab_STM32_IoT/iot_link/network/dtls/mbedtls/mbedtls-2.16.2/include/mbedtls\cipher.h ****     MBEDTLS_PADDING_ONE_AND_ZEROS, /**< ISO/IEC 7816-4 padding.         */
 200:c:/Users/lenovo/Desktop/AIoT/first_day/firstday_afternoon/LiteOS_Lab_STM32_IoT/iot_link/network/dtls/mbedtls/mbedtls-2.16.2/include/mbedtls\cipher.h ****     MBEDTLS_PADDING_ZEROS_AND_LEN, /**< ANSI X.923 padding.             */
 201:c:/Users/lenovo/Desktop/AIoT/first_day/firstday_afternoon/LiteOS_Lab_STM32_IoT/iot_link/network/dtls/mbedtls/mbedtls-2.16.2/include/mbedtls\cipher.h ****     MBEDTLS_PADDING_ZEROS,         /**< Zero padding (not reversible). */
 202:c:/Users/lenovo/Desktop/AIoT/first_day/firstday_afternoon/LiteOS_Lab_STM32_IoT/iot_link/network/dtls/mbedtls/mbedtls-2.16.2/include/mbedtls\cipher.h ****     MBEDTLS_PADDING_NONE,          /**< Never pad (full blocks only).   */
ARM GAS  C:\Users\lenovo\AppData\Local\Temp\ccSoL50u.s 			page 5


 203:c:/Users/lenovo/Desktop/AIoT/first_day/firstday_afternoon/LiteOS_Lab_STM32_IoT/iot_link/network/dtls/mbedtls/mbedtls-2.16.2/include/mbedtls\cipher.h **** } mbedtls_cipher_padding_t;
 204:c:/Users/lenovo/Desktop/AIoT/first_day/firstday_afternoon/LiteOS_Lab_STM32_IoT/iot_link/network/dtls/mbedtls/mbedtls-2.16.2/include/mbedtls\cipher.h **** 
 205:c:/Users/lenovo/Desktop/AIoT/first_day/firstday_afternoon/LiteOS_Lab_STM32_IoT/iot_link/network/dtls/mbedtls/mbedtls-2.16.2/include/mbedtls\cipher.h **** /** Type of operation. */
 206:c:/Users/lenovo/Desktop/AIoT/first_day/firstday_afternoon/LiteOS_Lab_STM32_IoT/iot_link/network/dtls/mbedtls/mbedtls-2.16.2/include/mbedtls\cipher.h **** typedef enum {
 207:c:/Users/lenovo/Desktop/AIoT/first_day/firstday_afternoon/LiteOS_Lab_STM32_IoT/iot_link/network/dtls/mbedtls/mbedtls-2.16.2/include/mbedtls\cipher.h ****     MBEDTLS_OPERATION_NONE = -1,
 208:c:/Users/lenovo/Desktop/AIoT/first_day/firstday_afternoon/LiteOS_Lab_STM32_IoT/iot_link/network/dtls/mbedtls/mbedtls-2.16.2/include/mbedtls\cipher.h ****     MBEDTLS_DECRYPT = 0,
 209:c:/Users/lenovo/Desktop/AIoT/first_day/firstday_afternoon/LiteOS_Lab_STM32_IoT/iot_link/network/dtls/mbedtls/mbedtls-2.16.2/include/mbedtls\cipher.h ****     MBEDTLS_ENCRYPT,
 210:c:/Users/lenovo/Desktop/AIoT/first_day/firstday_afternoon/LiteOS_Lab_STM32_IoT/iot_link/network/dtls/mbedtls/mbedtls-2.16.2/include/mbedtls\cipher.h **** } mbedtls_operation_t;
 211:c:/Users/lenovo/Desktop/AIoT/first_day/firstday_afternoon/LiteOS_Lab_STM32_IoT/iot_link/network/dtls/mbedtls/mbedtls-2.16.2/include/mbedtls\cipher.h **** 
 212:c:/Users/lenovo/Desktop/AIoT/first_day/firstday_afternoon/LiteOS_Lab_STM32_IoT/iot_link/network/dtls/mbedtls/mbedtls-2.16.2/include/mbedtls\cipher.h **** enum {
 213:c:/Users/lenovo/Desktop/AIoT/first_day/firstday_afternoon/LiteOS_Lab_STM32_IoT/iot_link/network/dtls/mbedtls/mbedtls-2.16.2/include/mbedtls\cipher.h ****     /** Undefined key length. */
 214:c:/Users/lenovo/Desktop/AIoT/first_day/firstday_afternoon/LiteOS_Lab_STM32_IoT/iot_link/network/dtls/mbedtls/mbedtls-2.16.2/include/mbedtls\cipher.h ****     MBEDTLS_KEY_LENGTH_NONE = 0,
 215:c:/Users/lenovo/Desktop/AIoT/first_day/firstday_afternoon/LiteOS_Lab_STM32_IoT/iot_link/network/dtls/mbedtls/mbedtls-2.16.2/include/mbedtls\cipher.h ****     /** Key length, in bits (including parity), for DES keys. */
 216:c:/Users/lenovo/Desktop/AIoT/first_day/firstday_afternoon/LiteOS_Lab_STM32_IoT/iot_link/network/dtls/mbedtls/mbedtls-2.16.2/include/mbedtls\cipher.h ****     MBEDTLS_KEY_LENGTH_DES  = 64,
 217:c:/Users/lenovo/Desktop/AIoT/first_day/firstday_afternoon/LiteOS_Lab_STM32_IoT/iot_link/network/dtls/mbedtls/mbedtls-2.16.2/include/mbedtls\cipher.h ****     /** Key length in bits, including parity, for DES in two-key EDE. */
 218:c:/Users/lenovo/Desktop/AIoT/first_day/firstday_afternoon/LiteOS_Lab_STM32_IoT/iot_link/network/dtls/mbedtls/mbedtls-2.16.2/include/mbedtls\cipher.h ****     MBEDTLS_KEY_LENGTH_DES_EDE = 128,
 219:c:/Users/lenovo/Desktop/AIoT/first_day/firstday_afternoon/LiteOS_Lab_STM32_IoT/iot_link/network/dtls/mbedtls/mbedtls-2.16.2/include/mbedtls\cipher.h ****     /** Key length in bits, including parity, for DES in three-key EDE. */
 220:c:/Users/lenovo/Desktop/AIoT/first_day/firstday_afternoon/LiteOS_Lab_STM32_IoT/iot_link/network/dtls/mbedtls/mbedtls-2.16.2/include/mbedtls\cipher.h ****     MBEDTLS_KEY_LENGTH_DES_EDE3 = 192,
 221:c:/Users/lenovo/Desktop/AIoT/first_day/firstday_afternoon/LiteOS_Lab_STM32_IoT/iot_link/network/dtls/mbedtls/mbedtls-2.16.2/include/mbedtls\cipher.h **** };
 222:c:/Users/lenovo/Desktop/AIoT/first_day/firstday_afternoon/LiteOS_Lab_STM32_IoT/iot_link/network/dtls/mbedtls/mbedtls-2.16.2/include/mbedtls\cipher.h **** 
 223:c:/Users/lenovo/Desktop/AIoT/first_day/firstday_afternoon/LiteOS_Lab_STM32_IoT/iot_link/network/dtls/mbedtls/mbedtls-2.16.2/include/mbedtls\cipher.h **** /** Maximum length of any IV, in Bytes. */
 224:c:/Users/lenovo/Desktop/AIoT/first_day/firstday_afternoon/LiteOS_Lab_STM32_IoT/iot_link/network/dtls/mbedtls/mbedtls-2.16.2/include/mbedtls\cipher.h **** #define MBEDTLS_MAX_IV_LENGTH      16
 225:c:/Users/lenovo/Desktop/AIoT/first_day/firstday_afternoon/LiteOS_Lab_STM32_IoT/iot_link/network/dtls/mbedtls/mbedtls-2.16.2/include/mbedtls\cipher.h **** /** Maximum block size of any cipher, in Bytes. */
 226:c:/Users/lenovo/Desktop/AIoT/first_day/firstday_afternoon/LiteOS_Lab_STM32_IoT/iot_link/network/dtls/mbedtls/mbedtls-2.16.2/include/mbedtls\cipher.h **** #define MBEDTLS_MAX_BLOCK_LENGTH   16
 227:c:/Users/lenovo/Desktop/AIoT/first_day/firstday_afternoon/LiteOS_Lab_STM32_IoT/iot_link/network/dtls/mbedtls/mbedtls-2.16.2/include/mbedtls\cipher.h **** 
 228:c:/Users/lenovo/Desktop/AIoT/first_day/firstday_afternoon/LiteOS_Lab_STM32_IoT/iot_link/network/dtls/mbedtls/mbedtls-2.16.2/include/mbedtls\cipher.h **** /**
 229:c:/Users/lenovo/Desktop/AIoT/first_day/firstday_afternoon/LiteOS_Lab_STM32_IoT/iot_link/network/dtls/mbedtls/mbedtls-2.16.2/include/mbedtls\cipher.h ****  * Base cipher information (opaque struct).
 230:c:/Users/lenovo/Desktop/AIoT/first_day/firstday_afternoon/LiteOS_Lab_STM32_IoT/iot_link/network/dtls/mbedtls/mbedtls-2.16.2/include/mbedtls\cipher.h ****  */
 231:c:/Users/lenovo/Desktop/AIoT/first_day/firstday_afternoon/LiteOS_Lab_STM32_IoT/iot_link/network/dtls/mbedtls/mbedtls-2.16.2/include/mbedtls\cipher.h **** typedef struct mbedtls_cipher_base_t mbedtls_cipher_base_t;
 232:c:/Users/lenovo/Desktop/AIoT/first_day/firstday_afternoon/LiteOS_Lab_STM32_IoT/iot_link/network/dtls/mbedtls/mbedtls-2.16.2/include/mbedtls\cipher.h **** 
 233:c:/Users/lenovo/Desktop/AIoT/first_day/firstday_afternoon/LiteOS_Lab_STM32_IoT/iot_link/network/dtls/mbedtls/mbedtls-2.16.2/include/mbedtls\cipher.h **** /**
 234:c:/Users/lenovo/Desktop/AIoT/first_day/firstday_afternoon/LiteOS_Lab_STM32_IoT/iot_link/network/dtls/mbedtls/mbedtls-2.16.2/include/mbedtls\cipher.h ****  * CMAC context (opaque struct).
 235:c:/Users/lenovo/Desktop/AIoT/first_day/firstday_afternoon/LiteOS_Lab_STM32_IoT/iot_link/network/dtls/mbedtls/mbedtls-2.16.2/include/mbedtls\cipher.h ****  */
 236:c:/Users/lenovo/Desktop/AIoT/first_day/firstday_afternoon/LiteOS_Lab_STM32_IoT/iot_link/network/dtls/mbedtls/mbedtls-2.16.2/include/mbedtls\cipher.h **** typedef struct mbedtls_cmac_context_t mbedtls_cmac_context_t;
 237:c:/Users/lenovo/Desktop/AIoT/first_day/firstday_afternoon/LiteOS_Lab_STM32_IoT/iot_link/network/dtls/mbedtls/mbedtls-2.16.2/include/mbedtls\cipher.h **** 
 238:c:/Users/lenovo/Desktop/AIoT/first_day/firstday_afternoon/LiteOS_Lab_STM32_IoT/iot_link/network/dtls/mbedtls/mbedtls-2.16.2/include/mbedtls\cipher.h **** /**
 239:c:/Users/lenovo/Desktop/AIoT/first_day/firstday_afternoon/LiteOS_Lab_STM32_IoT/iot_link/network/dtls/mbedtls/mbedtls-2.16.2/include/mbedtls\cipher.h ****  * Cipher information. Allows calling cipher functions
 240:c:/Users/lenovo/Desktop/AIoT/first_day/firstday_afternoon/LiteOS_Lab_STM32_IoT/iot_link/network/dtls/mbedtls/mbedtls-2.16.2/include/mbedtls\cipher.h ****  * in a generic way.
 241:c:/Users/lenovo/Desktop/AIoT/first_day/firstday_afternoon/LiteOS_Lab_STM32_IoT/iot_link/network/dtls/mbedtls/mbedtls-2.16.2/include/mbedtls\cipher.h ****  */
 242:c:/Users/lenovo/Desktop/AIoT/first_day/firstday_afternoon/LiteOS_Lab_STM32_IoT/iot_link/network/dtls/mbedtls/mbedtls-2.16.2/include/mbedtls\cipher.h **** typedef struct mbedtls_cipher_info_t
 243:c:/Users/lenovo/Desktop/AIoT/first_day/firstday_afternoon/LiteOS_Lab_STM32_IoT/iot_link/network/dtls/mbedtls/mbedtls-2.16.2/include/mbedtls\cipher.h **** {
 244:c:/Users/lenovo/Desktop/AIoT/first_day/firstday_afternoon/LiteOS_Lab_STM32_IoT/iot_link/network/dtls/mbedtls/mbedtls-2.16.2/include/mbedtls\cipher.h ****     /** Full cipher identifier. For example,
 245:c:/Users/lenovo/Desktop/AIoT/first_day/firstday_afternoon/LiteOS_Lab_STM32_IoT/iot_link/network/dtls/mbedtls/mbedtls-2.16.2/include/mbedtls\cipher.h ****      * MBEDTLS_CIPHER_AES_256_CBC.
 246:c:/Users/lenovo/Desktop/AIoT/first_day/firstday_afternoon/LiteOS_Lab_STM32_IoT/iot_link/network/dtls/mbedtls/mbedtls-2.16.2/include/mbedtls\cipher.h ****      */
 247:c:/Users/lenovo/Desktop/AIoT/first_day/firstday_afternoon/LiteOS_Lab_STM32_IoT/iot_link/network/dtls/mbedtls/mbedtls-2.16.2/include/mbedtls\cipher.h ****     mbedtls_cipher_type_t type;
 248:c:/Users/lenovo/Desktop/AIoT/first_day/firstday_afternoon/LiteOS_Lab_STM32_IoT/iot_link/network/dtls/mbedtls/mbedtls-2.16.2/include/mbedtls\cipher.h **** 
 249:c:/Users/lenovo/Desktop/AIoT/first_day/firstday_afternoon/LiteOS_Lab_STM32_IoT/iot_link/network/dtls/mbedtls/mbedtls-2.16.2/include/mbedtls\cipher.h ****     /** The cipher mode. For example, MBEDTLS_MODE_CBC. */
 250:c:/Users/lenovo/Desktop/AIoT/first_day/firstday_afternoon/LiteOS_Lab_STM32_IoT/iot_link/network/dtls/mbedtls/mbedtls-2.16.2/include/mbedtls\cipher.h ****     mbedtls_cipher_mode_t mode;
 251:c:/Users/lenovo/Desktop/AIoT/first_day/firstday_afternoon/LiteOS_Lab_STM32_IoT/iot_link/network/dtls/mbedtls/mbedtls-2.16.2/include/mbedtls\cipher.h **** 
 252:c:/Users/lenovo/Desktop/AIoT/first_day/firstday_afternoon/LiteOS_Lab_STM32_IoT/iot_link/network/dtls/mbedtls/mbedtls-2.16.2/include/mbedtls\cipher.h ****     /** The cipher key length, in bits. This is the
 253:c:/Users/lenovo/Desktop/AIoT/first_day/firstday_afternoon/LiteOS_Lab_STM32_IoT/iot_link/network/dtls/mbedtls/mbedtls-2.16.2/include/mbedtls\cipher.h ****      * default length for variable sized ciphers.
 254:c:/Users/lenovo/Desktop/AIoT/first_day/firstday_afternoon/LiteOS_Lab_STM32_IoT/iot_link/network/dtls/mbedtls/mbedtls-2.16.2/include/mbedtls\cipher.h ****      * Includes parity bits for ciphers like DES.
 255:c:/Users/lenovo/Desktop/AIoT/first_day/firstday_afternoon/LiteOS_Lab_STM32_IoT/iot_link/network/dtls/mbedtls/mbedtls-2.16.2/include/mbedtls\cipher.h ****      */
 256:c:/Users/lenovo/Desktop/AIoT/first_day/firstday_afternoon/LiteOS_Lab_STM32_IoT/iot_link/network/dtls/mbedtls/mbedtls-2.16.2/include/mbedtls\cipher.h ****     unsigned int key_bitlen;
 257:c:/Users/lenovo/Desktop/AIoT/first_day/firstday_afternoon/LiteOS_Lab_STM32_IoT/iot_link/network/dtls/mbedtls/mbedtls-2.16.2/include/mbedtls\cipher.h **** 
 258:c:/Users/lenovo/Desktop/AIoT/first_day/firstday_afternoon/LiteOS_Lab_STM32_IoT/iot_link/network/dtls/mbedtls/mbedtls-2.16.2/include/mbedtls\cipher.h ****     /** Name of the cipher. */
 259:c:/Users/lenovo/Desktop/AIoT/first_day/firstday_afternoon/LiteOS_Lab_STM32_IoT/iot_link/network/dtls/mbedtls/mbedtls-2.16.2/include/mbedtls\cipher.h ****     const char * name;
ARM GAS  C:\Users\lenovo\AppData\Local\Temp\ccSoL50u.s 			page 6


 260:c:/Users/lenovo/Desktop/AIoT/first_day/firstday_afternoon/LiteOS_Lab_STM32_IoT/iot_link/network/dtls/mbedtls/mbedtls-2.16.2/include/mbedtls\cipher.h **** 
 261:c:/Users/lenovo/Desktop/AIoT/first_day/firstday_afternoon/LiteOS_Lab_STM32_IoT/iot_link/network/dtls/mbedtls/mbedtls-2.16.2/include/mbedtls\cipher.h ****     /** IV or nonce size, in Bytes.
 262:c:/Users/lenovo/Desktop/AIoT/first_day/firstday_afternoon/LiteOS_Lab_STM32_IoT/iot_link/network/dtls/mbedtls/mbedtls-2.16.2/include/mbedtls\cipher.h ****      * For ciphers that accept variable IV sizes,
 263:c:/Users/lenovo/Desktop/AIoT/first_day/firstday_afternoon/LiteOS_Lab_STM32_IoT/iot_link/network/dtls/mbedtls/mbedtls-2.16.2/include/mbedtls\cipher.h ****      * this is the recommended size.
 264:c:/Users/lenovo/Desktop/AIoT/first_day/firstday_afternoon/LiteOS_Lab_STM32_IoT/iot_link/network/dtls/mbedtls/mbedtls-2.16.2/include/mbedtls\cipher.h ****      */
 265:c:/Users/lenovo/Desktop/AIoT/first_day/firstday_afternoon/LiteOS_Lab_STM32_IoT/iot_link/network/dtls/mbedtls/mbedtls-2.16.2/include/mbedtls\cipher.h ****     unsigned int iv_size;
 266:c:/Users/lenovo/Desktop/AIoT/first_day/firstday_afternoon/LiteOS_Lab_STM32_IoT/iot_link/network/dtls/mbedtls/mbedtls-2.16.2/include/mbedtls\cipher.h **** 
 267:c:/Users/lenovo/Desktop/AIoT/first_day/firstday_afternoon/LiteOS_Lab_STM32_IoT/iot_link/network/dtls/mbedtls/mbedtls-2.16.2/include/mbedtls\cipher.h ****     /** Bitflag comprised of MBEDTLS_CIPHER_VARIABLE_IV_LEN and
 268:c:/Users/lenovo/Desktop/AIoT/first_day/firstday_afternoon/LiteOS_Lab_STM32_IoT/iot_link/network/dtls/mbedtls/mbedtls-2.16.2/include/mbedtls\cipher.h ****      *  MBEDTLS_CIPHER_VARIABLE_KEY_LEN indicating whether the
 269:c:/Users/lenovo/Desktop/AIoT/first_day/firstday_afternoon/LiteOS_Lab_STM32_IoT/iot_link/network/dtls/mbedtls/mbedtls-2.16.2/include/mbedtls\cipher.h ****      *  cipher supports variable IV or variable key sizes, respectively.
 270:c:/Users/lenovo/Desktop/AIoT/first_day/firstday_afternoon/LiteOS_Lab_STM32_IoT/iot_link/network/dtls/mbedtls/mbedtls-2.16.2/include/mbedtls\cipher.h ****      */
 271:c:/Users/lenovo/Desktop/AIoT/first_day/firstday_afternoon/LiteOS_Lab_STM32_IoT/iot_link/network/dtls/mbedtls/mbedtls-2.16.2/include/mbedtls\cipher.h ****     int flags;
 272:c:/Users/lenovo/Desktop/AIoT/first_day/firstday_afternoon/LiteOS_Lab_STM32_IoT/iot_link/network/dtls/mbedtls/mbedtls-2.16.2/include/mbedtls\cipher.h **** 
 273:c:/Users/lenovo/Desktop/AIoT/first_day/firstday_afternoon/LiteOS_Lab_STM32_IoT/iot_link/network/dtls/mbedtls/mbedtls-2.16.2/include/mbedtls\cipher.h ****     /** The block size, in Bytes. */
 274:c:/Users/lenovo/Desktop/AIoT/first_day/firstday_afternoon/LiteOS_Lab_STM32_IoT/iot_link/network/dtls/mbedtls/mbedtls-2.16.2/include/mbedtls\cipher.h ****     unsigned int block_size;
 275:c:/Users/lenovo/Desktop/AIoT/first_day/firstday_afternoon/LiteOS_Lab_STM32_IoT/iot_link/network/dtls/mbedtls/mbedtls-2.16.2/include/mbedtls\cipher.h **** 
 276:c:/Users/lenovo/Desktop/AIoT/first_day/firstday_afternoon/LiteOS_Lab_STM32_IoT/iot_link/network/dtls/mbedtls/mbedtls-2.16.2/include/mbedtls\cipher.h ****     /** Struct for base cipher information and functions. */
 277:c:/Users/lenovo/Desktop/AIoT/first_day/firstday_afternoon/LiteOS_Lab_STM32_IoT/iot_link/network/dtls/mbedtls/mbedtls-2.16.2/include/mbedtls\cipher.h ****     const mbedtls_cipher_base_t *base;
 278:c:/Users/lenovo/Desktop/AIoT/first_day/firstday_afternoon/LiteOS_Lab_STM32_IoT/iot_link/network/dtls/mbedtls/mbedtls-2.16.2/include/mbedtls\cipher.h **** 
 279:c:/Users/lenovo/Desktop/AIoT/first_day/firstday_afternoon/LiteOS_Lab_STM32_IoT/iot_link/network/dtls/mbedtls/mbedtls-2.16.2/include/mbedtls\cipher.h **** } mbedtls_cipher_info_t;
 280:c:/Users/lenovo/Desktop/AIoT/first_day/firstday_afternoon/LiteOS_Lab_STM32_IoT/iot_link/network/dtls/mbedtls/mbedtls-2.16.2/include/mbedtls\cipher.h **** 
 281:c:/Users/lenovo/Desktop/AIoT/first_day/firstday_afternoon/LiteOS_Lab_STM32_IoT/iot_link/network/dtls/mbedtls/mbedtls-2.16.2/include/mbedtls\cipher.h **** /**
 282:c:/Users/lenovo/Desktop/AIoT/first_day/firstday_afternoon/LiteOS_Lab_STM32_IoT/iot_link/network/dtls/mbedtls/mbedtls-2.16.2/include/mbedtls\cipher.h ****  * Generic cipher context.
 283:c:/Users/lenovo/Desktop/AIoT/first_day/firstday_afternoon/LiteOS_Lab_STM32_IoT/iot_link/network/dtls/mbedtls/mbedtls-2.16.2/include/mbedtls\cipher.h ****  */
 284:c:/Users/lenovo/Desktop/AIoT/first_day/firstday_afternoon/LiteOS_Lab_STM32_IoT/iot_link/network/dtls/mbedtls/mbedtls-2.16.2/include/mbedtls\cipher.h **** typedef struct mbedtls_cipher_context_t
 285:c:/Users/lenovo/Desktop/AIoT/first_day/firstday_afternoon/LiteOS_Lab_STM32_IoT/iot_link/network/dtls/mbedtls/mbedtls-2.16.2/include/mbedtls\cipher.h **** {
 286:c:/Users/lenovo/Desktop/AIoT/first_day/firstday_afternoon/LiteOS_Lab_STM32_IoT/iot_link/network/dtls/mbedtls/mbedtls-2.16.2/include/mbedtls\cipher.h ****     /** Information about the associated cipher. */
 287:c:/Users/lenovo/Desktop/AIoT/first_day/firstday_afternoon/LiteOS_Lab_STM32_IoT/iot_link/network/dtls/mbedtls/mbedtls-2.16.2/include/mbedtls\cipher.h ****     const mbedtls_cipher_info_t *cipher_info;
 288:c:/Users/lenovo/Desktop/AIoT/first_day/firstday_afternoon/LiteOS_Lab_STM32_IoT/iot_link/network/dtls/mbedtls/mbedtls-2.16.2/include/mbedtls\cipher.h **** 
 289:c:/Users/lenovo/Desktop/AIoT/first_day/firstday_afternoon/LiteOS_Lab_STM32_IoT/iot_link/network/dtls/mbedtls/mbedtls-2.16.2/include/mbedtls\cipher.h ****     /** Key length to use. */
 290:c:/Users/lenovo/Desktop/AIoT/first_day/firstday_afternoon/LiteOS_Lab_STM32_IoT/iot_link/network/dtls/mbedtls/mbedtls-2.16.2/include/mbedtls\cipher.h ****     int key_bitlen;
 291:c:/Users/lenovo/Desktop/AIoT/first_day/firstday_afternoon/LiteOS_Lab_STM32_IoT/iot_link/network/dtls/mbedtls/mbedtls-2.16.2/include/mbedtls\cipher.h **** 
 292:c:/Users/lenovo/Desktop/AIoT/first_day/firstday_afternoon/LiteOS_Lab_STM32_IoT/iot_link/network/dtls/mbedtls/mbedtls-2.16.2/include/mbedtls\cipher.h ****     /** Operation that the key of the context has been
 293:c:/Users/lenovo/Desktop/AIoT/first_day/firstday_afternoon/LiteOS_Lab_STM32_IoT/iot_link/network/dtls/mbedtls/mbedtls-2.16.2/include/mbedtls\cipher.h ****      * initialized for.
 294:c:/Users/lenovo/Desktop/AIoT/first_day/firstday_afternoon/LiteOS_Lab_STM32_IoT/iot_link/network/dtls/mbedtls/mbedtls-2.16.2/include/mbedtls\cipher.h ****      */
 295:c:/Users/lenovo/Desktop/AIoT/first_day/firstday_afternoon/LiteOS_Lab_STM32_IoT/iot_link/network/dtls/mbedtls/mbedtls-2.16.2/include/mbedtls\cipher.h ****     mbedtls_operation_t operation;
 296:c:/Users/lenovo/Desktop/AIoT/first_day/firstday_afternoon/LiteOS_Lab_STM32_IoT/iot_link/network/dtls/mbedtls/mbedtls-2.16.2/include/mbedtls\cipher.h **** 
 297:c:/Users/lenovo/Desktop/AIoT/first_day/firstday_afternoon/LiteOS_Lab_STM32_IoT/iot_link/network/dtls/mbedtls/mbedtls-2.16.2/include/mbedtls\cipher.h **** #if defined(MBEDTLS_CIPHER_MODE_WITH_PADDING)
 298:c:/Users/lenovo/Desktop/AIoT/first_day/firstday_afternoon/LiteOS_Lab_STM32_IoT/iot_link/network/dtls/mbedtls/mbedtls-2.16.2/include/mbedtls\cipher.h ****     /** Padding functions to use, if relevant for
 299:c:/Users/lenovo/Desktop/AIoT/first_day/firstday_afternoon/LiteOS_Lab_STM32_IoT/iot_link/network/dtls/mbedtls/mbedtls-2.16.2/include/mbedtls\cipher.h ****      * the specific cipher mode.
 300:c:/Users/lenovo/Desktop/AIoT/first_day/firstday_afternoon/LiteOS_Lab_STM32_IoT/iot_link/network/dtls/mbedtls/mbedtls-2.16.2/include/mbedtls\cipher.h ****      */
 301:c:/Users/lenovo/Desktop/AIoT/first_day/firstday_afternoon/LiteOS_Lab_STM32_IoT/iot_link/network/dtls/mbedtls/mbedtls-2.16.2/include/mbedtls\cipher.h ****     void (*add_padding)( unsigned char *output, size_t olen, size_t data_len );
 302:c:/Users/lenovo/Desktop/AIoT/first_day/firstday_afternoon/LiteOS_Lab_STM32_IoT/iot_link/network/dtls/mbedtls/mbedtls-2.16.2/include/mbedtls\cipher.h ****     int (*get_padding)( unsigned char *input, size_t ilen, size_t *data_len );
 303:c:/Users/lenovo/Desktop/AIoT/first_day/firstday_afternoon/LiteOS_Lab_STM32_IoT/iot_link/network/dtls/mbedtls/mbedtls-2.16.2/include/mbedtls\cipher.h **** #endif
 304:c:/Users/lenovo/Desktop/AIoT/first_day/firstday_afternoon/LiteOS_Lab_STM32_IoT/iot_link/network/dtls/mbedtls/mbedtls-2.16.2/include/mbedtls\cipher.h **** 
 305:c:/Users/lenovo/Desktop/AIoT/first_day/firstday_afternoon/LiteOS_Lab_STM32_IoT/iot_link/network/dtls/mbedtls/mbedtls-2.16.2/include/mbedtls\cipher.h ****     /** Buffer for input that has not been processed yet. */
 306:c:/Users/lenovo/Desktop/AIoT/first_day/firstday_afternoon/LiteOS_Lab_STM32_IoT/iot_link/network/dtls/mbedtls/mbedtls-2.16.2/include/mbedtls\cipher.h ****     unsigned char unprocessed_data[MBEDTLS_MAX_BLOCK_LENGTH];
 307:c:/Users/lenovo/Desktop/AIoT/first_day/firstday_afternoon/LiteOS_Lab_STM32_IoT/iot_link/network/dtls/mbedtls/mbedtls-2.16.2/include/mbedtls\cipher.h **** 
 308:c:/Users/lenovo/Desktop/AIoT/first_day/firstday_afternoon/LiteOS_Lab_STM32_IoT/iot_link/network/dtls/mbedtls/mbedtls-2.16.2/include/mbedtls\cipher.h ****     /** Number of Bytes that have not been processed yet. */
 309:c:/Users/lenovo/Desktop/AIoT/first_day/firstday_afternoon/LiteOS_Lab_STM32_IoT/iot_link/network/dtls/mbedtls/mbedtls-2.16.2/include/mbedtls\cipher.h ****     size_t unprocessed_len;
 310:c:/Users/lenovo/Desktop/AIoT/first_day/firstday_afternoon/LiteOS_Lab_STM32_IoT/iot_link/network/dtls/mbedtls/mbedtls-2.16.2/include/mbedtls\cipher.h **** 
 311:c:/Users/lenovo/Desktop/AIoT/first_day/firstday_afternoon/LiteOS_Lab_STM32_IoT/iot_link/network/dtls/mbedtls/mbedtls-2.16.2/include/mbedtls\cipher.h ****     /** Current IV or NONCE_COUNTER for CTR-mode, data unit (or sector) number
 312:c:/Users/lenovo/Desktop/AIoT/first_day/firstday_afternoon/LiteOS_Lab_STM32_IoT/iot_link/network/dtls/mbedtls/mbedtls-2.16.2/include/mbedtls\cipher.h ****      * for XTS-mode. */
 313:c:/Users/lenovo/Desktop/AIoT/first_day/firstday_afternoon/LiteOS_Lab_STM32_IoT/iot_link/network/dtls/mbedtls/mbedtls-2.16.2/include/mbedtls\cipher.h ****     unsigned char iv[MBEDTLS_MAX_IV_LENGTH];
 314:c:/Users/lenovo/Desktop/AIoT/first_day/firstday_afternoon/LiteOS_Lab_STM32_IoT/iot_link/network/dtls/mbedtls/mbedtls-2.16.2/include/mbedtls\cipher.h **** 
 315:c:/Users/lenovo/Desktop/AIoT/first_day/firstday_afternoon/LiteOS_Lab_STM32_IoT/iot_link/network/dtls/mbedtls/mbedtls-2.16.2/include/mbedtls\cipher.h ****     /** IV size in Bytes, for ciphers with variable-length IVs. */
 316:c:/Users/lenovo/Desktop/AIoT/first_day/firstday_afternoon/LiteOS_Lab_STM32_IoT/iot_link/network/dtls/mbedtls/mbedtls-2.16.2/include/mbedtls\cipher.h ****     size_t iv_size;
ARM GAS  C:\Users\lenovo\AppData\Local\Temp\ccSoL50u.s 			page 7


 317:c:/Users/lenovo/Desktop/AIoT/first_day/firstday_afternoon/LiteOS_Lab_STM32_IoT/iot_link/network/dtls/mbedtls/mbedtls-2.16.2/include/mbedtls\cipher.h **** 
 318:c:/Users/lenovo/Desktop/AIoT/first_day/firstday_afternoon/LiteOS_Lab_STM32_IoT/iot_link/network/dtls/mbedtls/mbedtls-2.16.2/include/mbedtls\cipher.h ****     /** The cipher-specific context. */
 319:c:/Users/lenovo/Desktop/AIoT/first_day/firstday_afternoon/LiteOS_Lab_STM32_IoT/iot_link/network/dtls/mbedtls/mbedtls-2.16.2/include/mbedtls\cipher.h ****     void *cipher_ctx;
 320:c:/Users/lenovo/Desktop/AIoT/first_day/firstday_afternoon/LiteOS_Lab_STM32_IoT/iot_link/network/dtls/mbedtls/mbedtls-2.16.2/include/mbedtls\cipher.h **** 
 321:c:/Users/lenovo/Desktop/AIoT/first_day/firstday_afternoon/LiteOS_Lab_STM32_IoT/iot_link/network/dtls/mbedtls/mbedtls-2.16.2/include/mbedtls\cipher.h **** #if defined(MBEDTLS_CMAC_C)
 322:c:/Users/lenovo/Desktop/AIoT/first_day/firstday_afternoon/LiteOS_Lab_STM32_IoT/iot_link/network/dtls/mbedtls/mbedtls-2.16.2/include/mbedtls\cipher.h ****     /** CMAC-specific context. */
 323:c:/Users/lenovo/Desktop/AIoT/first_day/firstday_afternoon/LiteOS_Lab_STM32_IoT/iot_link/network/dtls/mbedtls/mbedtls-2.16.2/include/mbedtls\cipher.h ****     mbedtls_cmac_context_t *cmac_ctx;
 324:c:/Users/lenovo/Desktop/AIoT/first_day/firstday_afternoon/LiteOS_Lab_STM32_IoT/iot_link/network/dtls/mbedtls/mbedtls-2.16.2/include/mbedtls\cipher.h **** #endif
 325:c:/Users/lenovo/Desktop/AIoT/first_day/firstday_afternoon/LiteOS_Lab_STM32_IoT/iot_link/network/dtls/mbedtls/mbedtls-2.16.2/include/mbedtls\cipher.h **** } mbedtls_cipher_context_t;
 326:c:/Users/lenovo/Desktop/AIoT/first_day/firstday_afternoon/LiteOS_Lab_STM32_IoT/iot_link/network/dtls/mbedtls/mbedtls-2.16.2/include/mbedtls\cipher.h **** 
 327:c:/Users/lenovo/Desktop/AIoT/first_day/firstday_afternoon/LiteOS_Lab_STM32_IoT/iot_link/network/dtls/mbedtls/mbedtls-2.16.2/include/mbedtls\cipher.h **** /**
 328:c:/Users/lenovo/Desktop/AIoT/first_day/firstday_afternoon/LiteOS_Lab_STM32_IoT/iot_link/network/dtls/mbedtls/mbedtls-2.16.2/include/mbedtls\cipher.h ****  * \brief This function retrieves the list of ciphers supported by the generic
 329:c:/Users/lenovo/Desktop/AIoT/first_day/firstday_afternoon/LiteOS_Lab_STM32_IoT/iot_link/network/dtls/mbedtls/mbedtls-2.16.2/include/mbedtls\cipher.h ****  * cipher module.
 330:c:/Users/lenovo/Desktop/AIoT/first_day/firstday_afternoon/LiteOS_Lab_STM32_IoT/iot_link/network/dtls/mbedtls/mbedtls-2.16.2/include/mbedtls\cipher.h ****  *
 331:c:/Users/lenovo/Desktop/AIoT/first_day/firstday_afternoon/LiteOS_Lab_STM32_IoT/iot_link/network/dtls/mbedtls/mbedtls-2.16.2/include/mbedtls\cipher.h ****  * \return      A statically-allocated array of ciphers. The last entry
 332:c:/Users/lenovo/Desktop/AIoT/first_day/firstday_afternoon/LiteOS_Lab_STM32_IoT/iot_link/network/dtls/mbedtls/mbedtls-2.16.2/include/mbedtls\cipher.h ****  *              is zero.
 333:c:/Users/lenovo/Desktop/AIoT/first_day/firstday_afternoon/LiteOS_Lab_STM32_IoT/iot_link/network/dtls/mbedtls/mbedtls-2.16.2/include/mbedtls\cipher.h ****  */
 334:c:/Users/lenovo/Desktop/AIoT/first_day/firstday_afternoon/LiteOS_Lab_STM32_IoT/iot_link/network/dtls/mbedtls/mbedtls-2.16.2/include/mbedtls\cipher.h **** const int *mbedtls_cipher_list( void );
 335:c:/Users/lenovo/Desktop/AIoT/first_day/firstday_afternoon/LiteOS_Lab_STM32_IoT/iot_link/network/dtls/mbedtls/mbedtls-2.16.2/include/mbedtls\cipher.h **** 
 336:c:/Users/lenovo/Desktop/AIoT/first_day/firstday_afternoon/LiteOS_Lab_STM32_IoT/iot_link/network/dtls/mbedtls/mbedtls-2.16.2/include/mbedtls\cipher.h **** /**
 337:c:/Users/lenovo/Desktop/AIoT/first_day/firstday_afternoon/LiteOS_Lab_STM32_IoT/iot_link/network/dtls/mbedtls/mbedtls-2.16.2/include/mbedtls\cipher.h ****  * \brief               This function retrieves the cipher-information
 338:c:/Users/lenovo/Desktop/AIoT/first_day/firstday_afternoon/LiteOS_Lab_STM32_IoT/iot_link/network/dtls/mbedtls/mbedtls-2.16.2/include/mbedtls\cipher.h ****  *                      structure associated with the given cipher name.
 339:c:/Users/lenovo/Desktop/AIoT/first_day/firstday_afternoon/LiteOS_Lab_STM32_IoT/iot_link/network/dtls/mbedtls/mbedtls-2.16.2/include/mbedtls\cipher.h ****  *
 340:c:/Users/lenovo/Desktop/AIoT/first_day/firstday_afternoon/LiteOS_Lab_STM32_IoT/iot_link/network/dtls/mbedtls/mbedtls-2.16.2/include/mbedtls\cipher.h ****  * \param cipher_name   Name of the cipher to search for. This must not be
 341:c:/Users/lenovo/Desktop/AIoT/first_day/firstday_afternoon/LiteOS_Lab_STM32_IoT/iot_link/network/dtls/mbedtls/mbedtls-2.16.2/include/mbedtls\cipher.h ****  *                      \c NULL.
 342:c:/Users/lenovo/Desktop/AIoT/first_day/firstday_afternoon/LiteOS_Lab_STM32_IoT/iot_link/network/dtls/mbedtls/mbedtls-2.16.2/include/mbedtls\cipher.h ****  *
 343:c:/Users/lenovo/Desktop/AIoT/first_day/firstday_afternoon/LiteOS_Lab_STM32_IoT/iot_link/network/dtls/mbedtls/mbedtls-2.16.2/include/mbedtls\cipher.h ****  * \return              The cipher information structure associated with the
 344:c:/Users/lenovo/Desktop/AIoT/first_day/firstday_afternoon/LiteOS_Lab_STM32_IoT/iot_link/network/dtls/mbedtls/mbedtls-2.16.2/include/mbedtls\cipher.h ****  *                      given \p cipher_name.
 345:c:/Users/lenovo/Desktop/AIoT/first_day/firstday_afternoon/LiteOS_Lab_STM32_IoT/iot_link/network/dtls/mbedtls/mbedtls-2.16.2/include/mbedtls\cipher.h ****  * \return              \c NULL if the associated cipher information is not found.
 346:c:/Users/lenovo/Desktop/AIoT/first_day/firstday_afternoon/LiteOS_Lab_STM32_IoT/iot_link/network/dtls/mbedtls/mbedtls-2.16.2/include/mbedtls\cipher.h ****  */
 347:c:/Users/lenovo/Desktop/AIoT/first_day/firstday_afternoon/LiteOS_Lab_STM32_IoT/iot_link/network/dtls/mbedtls/mbedtls-2.16.2/include/mbedtls\cipher.h **** const mbedtls_cipher_info_t *mbedtls_cipher_info_from_string( const char *cipher_name );
 348:c:/Users/lenovo/Desktop/AIoT/first_day/firstday_afternoon/LiteOS_Lab_STM32_IoT/iot_link/network/dtls/mbedtls/mbedtls-2.16.2/include/mbedtls\cipher.h **** 
 349:c:/Users/lenovo/Desktop/AIoT/first_day/firstday_afternoon/LiteOS_Lab_STM32_IoT/iot_link/network/dtls/mbedtls/mbedtls-2.16.2/include/mbedtls\cipher.h **** /**
 350:c:/Users/lenovo/Desktop/AIoT/first_day/firstday_afternoon/LiteOS_Lab_STM32_IoT/iot_link/network/dtls/mbedtls/mbedtls-2.16.2/include/mbedtls\cipher.h ****  * \brief               This function retrieves the cipher-information
 351:c:/Users/lenovo/Desktop/AIoT/first_day/firstday_afternoon/LiteOS_Lab_STM32_IoT/iot_link/network/dtls/mbedtls/mbedtls-2.16.2/include/mbedtls\cipher.h ****  *                      structure associated with the given cipher type.
 352:c:/Users/lenovo/Desktop/AIoT/first_day/firstday_afternoon/LiteOS_Lab_STM32_IoT/iot_link/network/dtls/mbedtls/mbedtls-2.16.2/include/mbedtls\cipher.h ****  *
 353:c:/Users/lenovo/Desktop/AIoT/first_day/firstday_afternoon/LiteOS_Lab_STM32_IoT/iot_link/network/dtls/mbedtls/mbedtls-2.16.2/include/mbedtls\cipher.h ****  * \param cipher_type   Type of the cipher to search for.
 354:c:/Users/lenovo/Desktop/AIoT/first_day/firstday_afternoon/LiteOS_Lab_STM32_IoT/iot_link/network/dtls/mbedtls/mbedtls-2.16.2/include/mbedtls\cipher.h ****  *
 355:c:/Users/lenovo/Desktop/AIoT/first_day/firstday_afternoon/LiteOS_Lab_STM32_IoT/iot_link/network/dtls/mbedtls/mbedtls-2.16.2/include/mbedtls\cipher.h ****  * \return              The cipher information structure associated with the
 356:c:/Users/lenovo/Desktop/AIoT/first_day/firstday_afternoon/LiteOS_Lab_STM32_IoT/iot_link/network/dtls/mbedtls/mbedtls-2.16.2/include/mbedtls\cipher.h ****  *                      given \p cipher_type.
 357:c:/Users/lenovo/Desktop/AIoT/first_day/firstday_afternoon/LiteOS_Lab_STM32_IoT/iot_link/network/dtls/mbedtls/mbedtls-2.16.2/include/mbedtls\cipher.h ****  * \return              \c NULL if the associated cipher information is not found.
 358:c:/Users/lenovo/Desktop/AIoT/first_day/firstday_afternoon/LiteOS_Lab_STM32_IoT/iot_link/network/dtls/mbedtls/mbedtls-2.16.2/include/mbedtls\cipher.h ****  */
 359:c:/Users/lenovo/Desktop/AIoT/first_day/firstday_afternoon/LiteOS_Lab_STM32_IoT/iot_link/network/dtls/mbedtls/mbedtls-2.16.2/include/mbedtls\cipher.h **** const mbedtls_cipher_info_t *mbedtls_cipher_info_from_type( const mbedtls_cipher_type_t cipher_type
 360:c:/Users/lenovo/Desktop/AIoT/first_day/firstday_afternoon/LiteOS_Lab_STM32_IoT/iot_link/network/dtls/mbedtls/mbedtls-2.16.2/include/mbedtls\cipher.h **** 
 361:c:/Users/lenovo/Desktop/AIoT/first_day/firstday_afternoon/LiteOS_Lab_STM32_IoT/iot_link/network/dtls/mbedtls/mbedtls-2.16.2/include/mbedtls\cipher.h **** /**
 362:c:/Users/lenovo/Desktop/AIoT/first_day/firstday_afternoon/LiteOS_Lab_STM32_IoT/iot_link/network/dtls/mbedtls/mbedtls-2.16.2/include/mbedtls\cipher.h ****  * \brief               This function retrieves the cipher-information
 363:c:/Users/lenovo/Desktop/AIoT/first_day/firstday_afternoon/LiteOS_Lab_STM32_IoT/iot_link/network/dtls/mbedtls/mbedtls-2.16.2/include/mbedtls\cipher.h ****  *                      structure associated with the given cipher ID,
 364:c:/Users/lenovo/Desktop/AIoT/first_day/firstday_afternoon/LiteOS_Lab_STM32_IoT/iot_link/network/dtls/mbedtls/mbedtls-2.16.2/include/mbedtls\cipher.h ****  *                      key size and mode.
 365:c:/Users/lenovo/Desktop/AIoT/first_day/firstday_afternoon/LiteOS_Lab_STM32_IoT/iot_link/network/dtls/mbedtls/mbedtls-2.16.2/include/mbedtls\cipher.h ****  *
 366:c:/Users/lenovo/Desktop/AIoT/first_day/firstday_afternoon/LiteOS_Lab_STM32_IoT/iot_link/network/dtls/mbedtls/mbedtls-2.16.2/include/mbedtls\cipher.h ****  * \param cipher_id     The ID of the cipher to search for. For example,
 367:c:/Users/lenovo/Desktop/AIoT/first_day/firstday_afternoon/LiteOS_Lab_STM32_IoT/iot_link/network/dtls/mbedtls/mbedtls-2.16.2/include/mbedtls\cipher.h ****  *                      #MBEDTLS_CIPHER_ID_AES.
 368:c:/Users/lenovo/Desktop/AIoT/first_day/firstday_afternoon/LiteOS_Lab_STM32_IoT/iot_link/network/dtls/mbedtls/mbedtls-2.16.2/include/mbedtls\cipher.h ****  * \param key_bitlen    The length of the key in bits.
 369:c:/Users/lenovo/Desktop/AIoT/first_day/firstday_afternoon/LiteOS_Lab_STM32_IoT/iot_link/network/dtls/mbedtls/mbedtls-2.16.2/include/mbedtls\cipher.h ****  * \param mode          The cipher mode. For example, #MBEDTLS_MODE_CBC.
 370:c:/Users/lenovo/Desktop/AIoT/first_day/firstday_afternoon/LiteOS_Lab_STM32_IoT/iot_link/network/dtls/mbedtls/mbedtls-2.16.2/include/mbedtls\cipher.h ****  *
 371:c:/Users/lenovo/Desktop/AIoT/first_day/firstday_afternoon/LiteOS_Lab_STM32_IoT/iot_link/network/dtls/mbedtls/mbedtls-2.16.2/include/mbedtls\cipher.h ****  * \return              The cipher information structure associated with the
 372:c:/Users/lenovo/Desktop/AIoT/first_day/firstday_afternoon/LiteOS_Lab_STM32_IoT/iot_link/network/dtls/mbedtls/mbedtls-2.16.2/include/mbedtls\cipher.h ****  *                      given \p cipher_id.
 373:c:/Users/lenovo/Desktop/AIoT/first_day/firstday_afternoon/LiteOS_Lab_STM32_IoT/iot_link/network/dtls/mbedtls/mbedtls-2.16.2/include/mbedtls\cipher.h ****  * \return              \c NULL if the associated cipher information is not found.
ARM GAS  C:\Users\lenovo\AppData\Local\Temp\ccSoL50u.s 			page 8


 374:c:/Users/lenovo/Desktop/AIoT/first_day/firstday_afternoon/LiteOS_Lab_STM32_IoT/iot_link/network/dtls/mbedtls/mbedtls-2.16.2/include/mbedtls\cipher.h ****  */
 375:c:/Users/lenovo/Desktop/AIoT/first_day/firstday_afternoon/LiteOS_Lab_STM32_IoT/iot_link/network/dtls/mbedtls/mbedtls-2.16.2/include/mbedtls\cipher.h **** const mbedtls_cipher_info_t *mbedtls_cipher_info_from_values( const mbedtls_cipher_id_t cipher_id,
 376:c:/Users/lenovo/Desktop/AIoT/first_day/firstday_afternoon/LiteOS_Lab_STM32_IoT/iot_link/network/dtls/mbedtls/mbedtls-2.16.2/include/mbedtls\cipher.h ****                                               int key_bitlen,
 377:c:/Users/lenovo/Desktop/AIoT/first_day/firstday_afternoon/LiteOS_Lab_STM32_IoT/iot_link/network/dtls/mbedtls/mbedtls-2.16.2/include/mbedtls\cipher.h ****                                               const mbedtls_cipher_mode_t mode );
 378:c:/Users/lenovo/Desktop/AIoT/first_day/firstday_afternoon/LiteOS_Lab_STM32_IoT/iot_link/network/dtls/mbedtls/mbedtls-2.16.2/include/mbedtls\cipher.h **** 
 379:c:/Users/lenovo/Desktop/AIoT/first_day/firstday_afternoon/LiteOS_Lab_STM32_IoT/iot_link/network/dtls/mbedtls/mbedtls-2.16.2/include/mbedtls\cipher.h **** /**
 380:c:/Users/lenovo/Desktop/AIoT/first_day/firstday_afternoon/LiteOS_Lab_STM32_IoT/iot_link/network/dtls/mbedtls/mbedtls-2.16.2/include/mbedtls\cipher.h ****  * \brief               This function initializes a \p cipher_context as NONE.
 381:c:/Users/lenovo/Desktop/AIoT/first_day/firstday_afternoon/LiteOS_Lab_STM32_IoT/iot_link/network/dtls/mbedtls/mbedtls-2.16.2/include/mbedtls\cipher.h ****  *
 382:c:/Users/lenovo/Desktop/AIoT/first_day/firstday_afternoon/LiteOS_Lab_STM32_IoT/iot_link/network/dtls/mbedtls/mbedtls-2.16.2/include/mbedtls\cipher.h ****  * \param ctx           The context to be initialized. This must not be \c NULL.
 383:c:/Users/lenovo/Desktop/AIoT/first_day/firstday_afternoon/LiteOS_Lab_STM32_IoT/iot_link/network/dtls/mbedtls/mbedtls-2.16.2/include/mbedtls\cipher.h ****  */
 384:c:/Users/lenovo/Desktop/AIoT/first_day/firstday_afternoon/LiteOS_Lab_STM32_IoT/iot_link/network/dtls/mbedtls/mbedtls-2.16.2/include/mbedtls\cipher.h **** void mbedtls_cipher_init( mbedtls_cipher_context_t *ctx );
 385:c:/Users/lenovo/Desktop/AIoT/first_day/firstday_afternoon/LiteOS_Lab_STM32_IoT/iot_link/network/dtls/mbedtls/mbedtls-2.16.2/include/mbedtls\cipher.h **** 
 386:c:/Users/lenovo/Desktop/AIoT/first_day/firstday_afternoon/LiteOS_Lab_STM32_IoT/iot_link/network/dtls/mbedtls/mbedtls-2.16.2/include/mbedtls\cipher.h **** /**
 387:c:/Users/lenovo/Desktop/AIoT/first_day/firstday_afternoon/LiteOS_Lab_STM32_IoT/iot_link/network/dtls/mbedtls/mbedtls-2.16.2/include/mbedtls\cipher.h ****  * \brief               This function frees and clears the cipher-specific
 388:c:/Users/lenovo/Desktop/AIoT/first_day/firstday_afternoon/LiteOS_Lab_STM32_IoT/iot_link/network/dtls/mbedtls/mbedtls-2.16.2/include/mbedtls\cipher.h ****  *                      context of \p ctx. Freeing \p ctx itself remains the
 389:c:/Users/lenovo/Desktop/AIoT/first_day/firstday_afternoon/LiteOS_Lab_STM32_IoT/iot_link/network/dtls/mbedtls/mbedtls-2.16.2/include/mbedtls\cipher.h ****  *                      responsibility of the caller.
 390:c:/Users/lenovo/Desktop/AIoT/first_day/firstday_afternoon/LiteOS_Lab_STM32_IoT/iot_link/network/dtls/mbedtls/mbedtls-2.16.2/include/mbedtls\cipher.h ****  *
 391:c:/Users/lenovo/Desktop/AIoT/first_day/firstday_afternoon/LiteOS_Lab_STM32_IoT/iot_link/network/dtls/mbedtls/mbedtls-2.16.2/include/mbedtls\cipher.h ****  * \param ctx           The context to be freed. If this is \c NULL, the
 392:c:/Users/lenovo/Desktop/AIoT/first_day/firstday_afternoon/LiteOS_Lab_STM32_IoT/iot_link/network/dtls/mbedtls/mbedtls-2.16.2/include/mbedtls\cipher.h ****  *                      function has no effect, otherwise this must point to an
 393:c:/Users/lenovo/Desktop/AIoT/first_day/firstday_afternoon/LiteOS_Lab_STM32_IoT/iot_link/network/dtls/mbedtls/mbedtls-2.16.2/include/mbedtls\cipher.h ****  *                      initialized context.
 394:c:/Users/lenovo/Desktop/AIoT/first_day/firstday_afternoon/LiteOS_Lab_STM32_IoT/iot_link/network/dtls/mbedtls/mbedtls-2.16.2/include/mbedtls\cipher.h ****  */
 395:c:/Users/lenovo/Desktop/AIoT/first_day/firstday_afternoon/LiteOS_Lab_STM32_IoT/iot_link/network/dtls/mbedtls/mbedtls-2.16.2/include/mbedtls\cipher.h **** void mbedtls_cipher_free( mbedtls_cipher_context_t *ctx );
 396:c:/Users/lenovo/Desktop/AIoT/first_day/firstday_afternoon/LiteOS_Lab_STM32_IoT/iot_link/network/dtls/mbedtls/mbedtls-2.16.2/include/mbedtls\cipher.h **** 
 397:c:/Users/lenovo/Desktop/AIoT/first_day/firstday_afternoon/LiteOS_Lab_STM32_IoT/iot_link/network/dtls/mbedtls/mbedtls-2.16.2/include/mbedtls\cipher.h **** 
 398:c:/Users/lenovo/Desktop/AIoT/first_day/firstday_afternoon/LiteOS_Lab_STM32_IoT/iot_link/network/dtls/mbedtls/mbedtls-2.16.2/include/mbedtls\cipher.h **** /**
 399:c:/Users/lenovo/Desktop/AIoT/first_day/firstday_afternoon/LiteOS_Lab_STM32_IoT/iot_link/network/dtls/mbedtls/mbedtls-2.16.2/include/mbedtls\cipher.h ****  * \brief               This function initializes and fills the cipher-context
 400:c:/Users/lenovo/Desktop/AIoT/first_day/firstday_afternoon/LiteOS_Lab_STM32_IoT/iot_link/network/dtls/mbedtls/mbedtls-2.16.2/include/mbedtls\cipher.h ****  *                      structure with the appropriate values. It also clears
 401:c:/Users/lenovo/Desktop/AIoT/first_day/firstday_afternoon/LiteOS_Lab_STM32_IoT/iot_link/network/dtls/mbedtls/mbedtls-2.16.2/include/mbedtls\cipher.h ****  *                      the structure.
 402:c:/Users/lenovo/Desktop/AIoT/first_day/firstday_afternoon/LiteOS_Lab_STM32_IoT/iot_link/network/dtls/mbedtls/mbedtls-2.16.2/include/mbedtls\cipher.h ****  *
 403:c:/Users/lenovo/Desktop/AIoT/first_day/firstday_afternoon/LiteOS_Lab_STM32_IoT/iot_link/network/dtls/mbedtls/mbedtls-2.16.2/include/mbedtls\cipher.h ****  * \param ctx           The context to initialize. This must be initialized.
 404:c:/Users/lenovo/Desktop/AIoT/first_day/firstday_afternoon/LiteOS_Lab_STM32_IoT/iot_link/network/dtls/mbedtls/mbedtls-2.16.2/include/mbedtls\cipher.h ****  * \param cipher_info   The cipher to use.
 405:c:/Users/lenovo/Desktop/AIoT/first_day/firstday_afternoon/LiteOS_Lab_STM32_IoT/iot_link/network/dtls/mbedtls/mbedtls-2.16.2/include/mbedtls\cipher.h ****  *
 406:c:/Users/lenovo/Desktop/AIoT/first_day/firstday_afternoon/LiteOS_Lab_STM32_IoT/iot_link/network/dtls/mbedtls/mbedtls-2.16.2/include/mbedtls\cipher.h ****  * \return              \c 0 on success.
 407:c:/Users/lenovo/Desktop/AIoT/first_day/firstday_afternoon/LiteOS_Lab_STM32_IoT/iot_link/network/dtls/mbedtls/mbedtls-2.16.2/include/mbedtls\cipher.h ****  * \return              #MBEDTLS_ERR_CIPHER_BAD_INPUT_DATA on
 408:c:/Users/lenovo/Desktop/AIoT/first_day/firstday_afternoon/LiteOS_Lab_STM32_IoT/iot_link/network/dtls/mbedtls/mbedtls-2.16.2/include/mbedtls\cipher.h ****  *                      parameter-verification failure.
 409:c:/Users/lenovo/Desktop/AIoT/first_day/firstday_afternoon/LiteOS_Lab_STM32_IoT/iot_link/network/dtls/mbedtls/mbedtls-2.16.2/include/mbedtls\cipher.h ****  * \return              #MBEDTLS_ERR_CIPHER_ALLOC_FAILED if allocation of the
 410:c:/Users/lenovo/Desktop/AIoT/first_day/firstday_afternoon/LiteOS_Lab_STM32_IoT/iot_link/network/dtls/mbedtls/mbedtls-2.16.2/include/mbedtls\cipher.h ****  *                      cipher-specific context fails.
 411:c:/Users/lenovo/Desktop/AIoT/first_day/firstday_afternoon/LiteOS_Lab_STM32_IoT/iot_link/network/dtls/mbedtls/mbedtls-2.16.2/include/mbedtls\cipher.h ****  *
 412:c:/Users/lenovo/Desktop/AIoT/first_day/firstday_afternoon/LiteOS_Lab_STM32_IoT/iot_link/network/dtls/mbedtls/mbedtls-2.16.2/include/mbedtls\cipher.h ****  * \internal Currently, the function also clears the structure.
 413:c:/Users/lenovo/Desktop/AIoT/first_day/firstday_afternoon/LiteOS_Lab_STM32_IoT/iot_link/network/dtls/mbedtls/mbedtls-2.16.2/include/mbedtls\cipher.h ****  * In future versions, the caller will be required to call
 414:c:/Users/lenovo/Desktop/AIoT/first_day/firstday_afternoon/LiteOS_Lab_STM32_IoT/iot_link/network/dtls/mbedtls/mbedtls-2.16.2/include/mbedtls\cipher.h ****  * mbedtls_cipher_init() on the structure first.
 415:c:/Users/lenovo/Desktop/AIoT/first_day/firstday_afternoon/LiteOS_Lab_STM32_IoT/iot_link/network/dtls/mbedtls/mbedtls-2.16.2/include/mbedtls\cipher.h ****  */
 416:c:/Users/lenovo/Desktop/AIoT/first_day/firstday_afternoon/LiteOS_Lab_STM32_IoT/iot_link/network/dtls/mbedtls/mbedtls-2.16.2/include/mbedtls\cipher.h **** int mbedtls_cipher_setup( mbedtls_cipher_context_t *ctx,
 417:c:/Users/lenovo/Desktop/AIoT/first_day/firstday_afternoon/LiteOS_Lab_STM32_IoT/iot_link/network/dtls/mbedtls/mbedtls-2.16.2/include/mbedtls\cipher.h ****                           const mbedtls_cipher_info_t *cipher_info );
 418:c:/Users/lenovo/Desktop/AIoT/first_day/firstday_afternoon/LiteOS_Lab_STM32_IoT/iot_link/network/dtls/mbedtls/mbedtls-2.16.2/include/mbedtls\cipher.h **** 
 419:c:/Users/lenovo/Desktop/AIoT/first_day/firstday_afternoon/LiteOS_Lab_STM32_IoT/iot_link/network/dtls/mbedtls/mbedtls-2.16.2/include/mbedtls\cipher.h **** /**
 420:c:/Users/lenovo/Desktop/AIoT/first_day/firstday_afternoon/LiteOS_Lab_STM32_IoT/iot_link/network/dtls/mbedtls/mbedtls-2.16.2/include/mbedtls\cipher.h ****  * \brief        This function returns the block size of the given cipher.
 421:c:/Users/lenovo/Desktop/AIoT/first_day/firstday_afternoon/LiteOS_Lab_STM32_IoT/iot_link/network/dtls/mbedtls/mbedtls-2.16.2/include/mbedtls\cipher.h ****  *
 422:c:/Users/lenovo/Desktop/AIoT/first_day/firstday_afternoon/LiteOS_Lab_STM32_IoT/iot_link/network/dtls/mbedtls/mbedtls-2.16.2/include/mbedtls\cipher.h ****  * \param ctx    The context of the cipher. This must be initialized.
 423:c:/Users/lenovo/Desktop/AIoT/first_day/firstday_afternoon/LiteOS_Lab_STM32_IoT/iot_link/network/dtls/mbedtls/mbedtls-2.16.2/include/mbedtls\cipher.h ****  *
 424:c:/Users/lenovo/Desktop/AIoT/first_day/firstday_afternoon/LiteOS_Lab_STM32_IoT/iot_link/network/dtls/mbedtls/mbedtls-2.16.2/include/mbedtls\cipher.h ****  * \return       The block size of the underlying cipher.
 425:c:/Users/lenovo/Desktop/AIoT/first_day/firstday_afternoon/LiteOS_Lab_STM32_IoT/iot_link/network/dtls/mbedtls/mbedtls-2.16.2/include/mbedtls\cipher.h ****  * \return       \c 0 if \p ctx has not been initialized.
 426:c:/Users/lenovo/Desktop/AIoT/first_day/firstday_afternoon/LiteOS_Lab_STM32_IoT/iot_link/network/dtls/mbedtls/mbedtls-2.16.2/include/mbedtls\cipher.h ****  */
 427:c:/Users/lenovo/Desktop/AIoT/first_day/firstday_afternoon/LiteOS_Lab_STM32_IoT/iot_link/network/dtls/mbedtls/mbedtls-2.16.2/include/mbedtls\cipher.h **** static inline unsigned int mbedtls_cipher_get_block_size(
 428:c:/Users/lenovo/Desktop/AIoT/first_day/firstday_afternoon/LiteOS_Lab_STM32_IoT/iot_link/network/dtls/mbedtls/mbedtls-2.16.2/include/mbedtls\cipher.h ****     const mbedtls_cipher_context_t *ctx )
 429:c:/Users/lenovo/Desktop/AIoT/first_day/firstday_afternoon/LiteOS_Lab_STM32_IoT/iot_link/network/dtls/mbedtls/mbedtls-2.16.2/include/mbedtls\cipher.h **** {
  28              		.loc 1 429 1
ARM GAS  C:\Users\lenovo\AppData\Local\Temp\ccSoL50u.s 			page 9


  29              		.cfi_startproc
  30              		@ args = 0, pretend = 0, frame = 8
  31              		@ frame_needed = 1, uses_anonymous_args = 0
  32              		@ link register save eliminated.
  33 0000 80B4     		push	{r7}
  34              	.LCFI0:
  35              		.cfi_def_cfa_offset 4
  36              		.cfi_offset 7, -4
  37 0002 83B0     		sub	sp, sp, #12
  38              	.LCFI1:
  39              		.cfi_def_cfa_offset 16
  40 0004 00AF     		add	r7, sp, #0
  41              	.LCFI2:
  42              		.cfi_def_cfa_register 7
  43 0006 7860     		str	r0, [r7, #4]
 430:c:/Users/lenovo/Desktop/AIoT/first_day/firstday_afternoon/LiteOS_Lab_STM32_IoT/iot_link/network/dtls/mbedtls/mbedtls-2.16.2/include/mbedtls\cipher.h ****     MBEDTLS_INTERNAL_VALIDATE_RET( ctx != NULL, 0 );
 431:c:/Users/lenovo/Desktop/AIoT/first_day/firstday_afternoon/LiteOS_Lab_STM32_IoT/iot_link/network/dtls/mbedtls/mbedtls-2.16.2/include/mbedtls\cipher.h ****     if( ctx->cipher_info == NULL )
  44              		.loc 1 431 12
  45 0008 7B68     		ldr	r3, [r7, #4]
  46 000a 1B68     		ldr	r3, [r3]
  47              		.loc 1 431 7
  48 000c 002B     		cmp	r3, #0
  49 000e 01D1     		bne	.L2
 432:c:/Users/lenovo/Desktop/AIoT/first_day/firstday_afternoon/LiteOS_Lab_STM32_IoT/iot_link/network/dtls/mbedtls/mbedtls-2.16.2/include/mbedtls\cipher.h ****         return 0;
  50              		.loc 1 432 16
  51 0010 0023     		movs	r3, #0
  52 0012 02E0     		b	.L3
  53              	.L2:
 433:c:/Users/lenovo/Desktop/AIoT/first_day/firstday_afternoon/LiteOS_Lab_STM32_IoT/iot_link/network/dtls/mbedtls/mbedtls-2.16.2/include/mbedtls\cipher.h **** 
 434:c:/Users/lenovo/Desktop/AIoT/first_day/firstday_afternoon/LiteOS_Lab_STM32_IoT/iot_link/network/dtls/mbedtls/mbedtls-2.16.2/include/mbedtls\cipher.h ****     return ctx->cipher_info->block_size;
  54              		.loc 1 434 15
  55 0014 7B68     		ldr	r3, [r7, #4]
  56 0016 1B68     		ldr	r3, [r3]
  57              		.loc 1 434 28
  58 0018 5B69     		ldr	r3, [r3, #20]
  59              	.L3:
 435:c:/Users/lenovo/Desktop/AIoT/first_day/firstday_afternoon/LiteOS_Lab_STM32_IoT/iot_link/network/dtls/mbedtls/mbedtls-2.16.2/include/mbedtls\cipher.h **** }
  60              		.loc 1 435 1
  61 001a 1846     		mov	r0, r3
  62 001c 0C37     		adds	r7, r7, #12
  63              	.LCFI3:
  64              		.cfi_def_cfa_offset 4
  65 001e BD46     		mov	sp, r7
  66              	.LCFI4:
  67              		.cfi_def_cfa_register 13
  68              		@ sp needed
  69 0020 5DF8047B 		ldr	r7, [sp], #4
  70              	.LCFI5:
  71              		.cfi_restore 7
  72              		.cfi_def_cfa_offset 0
  73 0024 7047     		bx	lr
  74              		.cfi_endproc
  75              	.LFE4:
  77              		.section	.text.mbedtls_cipher_get_cipher_mode,"ax",%progbits
  78              		.align	1
  79              		.syntax unified
  80              		.thumb
ARM GAS  C:\Users\lenovo\AppData\Local\Temp\ccSoL50u.s 			page 10


  81              		.thumb_func
  82              		.fpu fpv4-sp-d16
  84              	mbedtls_cipher_get_cipher_mode:
  85              	.LFB5:
 436:c:/Users/lenovo/Desktop/AIoT/first_day/firstday_afternoon/LiteOS_Lab_STM32_IoT/iot_link/network/dtls/mbedtls/mbedtls-2.16.2/include/mbedtls\cipher.h **** 
 437:c:/Users/lenovo/Desktop/AIoT/first_day/firstday_afternoon/LiteOS_Lab_STM32_IoT/iot_link/network/dtls/mbedtls/mbedtls-2.16.2/include/mbedtls\cipher.h **** /**
 438:c:/Users/lenovo/Desktop/AIoT/first_day/firstday_afternoon/LiteOS_Lab_STM32_IoT/iot_link/network/dtls/mbedtls/mbedtls-2.16.2/include/mbedtls\cipher.h ****  * \brief        This function returns the mode of operation for
 439:c:/Users/lenovo/Desktop/AIoT/first_day/firstday_afternoon/LiteOS_Lab_STM32_IoT/iot_link/network/dtls/mbedtls/mbedtls-2.16.2/include/mbedtls\cipher.h ****  *               the cipher. For example, MBEDTLS_MODE_CBC.
 440:c:/Users/lenovo/Desktop/AIoT/first_day/firstday_afternoon/LiteOS_Lab_STM32_IoT/iot_link/network/dtls/mbedtls/mbedtls-2.16.2/include/mbedtls\cipher.h ****  *
 441:c:/Users/lenovo/Desktop/AIoT/first_day/firstday_afternoon/LiteOS_Lab_STM32_IoT/iot_link/network/dtls/mbedtls/mbedtls-2.16.2/include/mbedtls\cipher.h ****  * \param ctx    The context of the cipher. This must be initialized.
 442:c:/Users/lenovo/Desktop/AIoT/first_day/firstday_afternoon/LiteOS_Lab_STM32_IoT/iot_link/network/dtls/mbedtls/mbedtls-2.16.2/include/mbedtls\cipher.h ****  *
 443:c:/Users/lenovo/Desktop/AIoT/first_day/firstday_afternoon/LiteOS_Lab_STM32_IoT/iot_link/network/dtls/mbedtls/mbedtls-2.16.2/include/mbedtls\cipher.h ****  * \return       The mode of operation.
 444:c:/Users/lenovo/Desktop/AIoT/first_day/firstday_afternoon/LiteOS_Lab_STM32_IoT/iot_link/network/dtls/mbedtls/mbedtls-2.16.2/include/mbedtls\cipher.h ****  * \return       #MBEDTLS_MODE_NONE if \p ctx has not been initialized.
 445:c:/Users/lenovo/Desktop/AIoT/first_day/firstday_afternoon/LiteOS_Lab_STM32_IoT/iot_link/network/dtls/mbedtls/mbedtls-2.16.2/include/mbedtls\cipher.h ****  */
 446:c:/Users/lenovo/Desktop/AIoT/first_day/firstday_afternoon/LiteOS_Lab_STM32_IoT/iot_link/network/dtls/mbedtls/mbedtls-2.16.2/include/mbedtls\cipher.h **** static inline mbedtls_cipher_mode_t mbedtls_cipher_get_cipher_mode(
 447:c:/Users/lenovo/Desktop/AIoT/first_day/firstday_afternoon/LiteOS_Lab_STM32_IoT/iot_link/network/dtls/mbedtls/mbedtls-2.16.2/include/mbedtls\cipher.h ****     const mbedtls_cipher_context_t *ctx )
 448:c:/Users/lenovo/Desktop/AIoT/first_day/firstday_afternoon/LiteOS_Lab_STM32_IoT/iot_link/network/dtls/mbedtls/mbedtls-2.16.2/include/mbedtls\cipher.h **** {
  86              		.loc 1 448 1
  87              		.cfi_startproc
  88              		@ args = 0, pretend = 0, frame = 8
  89              		@ frame_needed = 1, uses_anonymous_args = 0
  90              		@ link register save eliminated.
  91 0000 80B4     		push	{r7}
  92              	.LCFI6:
  93              		.cfi_def_cfa_offset 4
  94              		.cfi_offset 7, -4
  95 0002 83B0     		sub	sp, sp, #12
  96              	.LCFI7:
  97              		.cfi_def_cfa_offset 16
  98 0004 00AF     		add	r7, sp, #0
  99              	.LCFI8:
 100              		.cfi_def_cfa_register 7
 101 0006 7860     		str	r0, [r7, #4]
 449:c:/Users/lenovo/Desktop/AIoT/first_day/firstday_afternoon/LiteOS_Lab_STM32_IoT/iot_link/network/dtls/mbedtls/mbedtls-2.16.2/include/mbedtls\cipher.h ****     MBEDTLS_INTERNAL_VALIDATE_RET( ctx != NULL, MBEDTLS_MODE_NONE );
 450:c:/Users/lenovo/Desktop/AIoT/first_day/firstday_afternoon/LiteOS_Lab_STM32_IoT/iot_link/network/dtls/mbedtls/mbedtls-2.16.2/include/mbedtls\cipher.h ****     if( ctx->cipher_info == NULL )
 102              		.loc 1 450 12
 103 0008 7B68     		ldr	r3, [r7, #4]
 104 000a 1B68     		ldr	r3, [r3]
 105              		.loc 1 450 7
 106 000c 002B     		cmp	r3, #0
 107 000e 01D1     		bne	.L5
 451:c:/Users/lenovo/Desktop/AIoT/first_day/firstday_afternoon/LiteOS_Lab_STM32_IoT/iot_link/network/dtls/mbedtls/mbedtls-2.16.2/include/mbedtls\cipher.h ****         return MBEDTLS_MODE_NONE;
 108              		.loc 1 451 16
 109 0010 0023     		movs	r3, #0
 110 0012 02E0     		b	.L6
 111              	.L5:
 452:c:/Users/lenovo/Desktop/AIoT/first_day/firstday_afternoon/LiteOS_Lab_STM32_IoT/iot_link/network/dtls/mbedtls/mbedtls-2.16.2/include/mbedtls\cipher.h **** 
 453:c:/Users/lenovo/Desktop/AIoT/first_day/firstday_afternoon/LiteOS_Lab_STM32_IoT/iot_link/network/dtls/mbedtls/mbedtls-2.16.2/include/mbedtls\cipher.h ****     return ctx->cipher_info->mode;
 112              		.loc 1 453 15
 113 0014 7B68     		ldr	r3, [r7, #4]
 114 0016 1B68     		ldr	r3, [r3]
 115              		.loc 1 453 28
 116 0018 5B78     		ldrb	r3, [r3, #1]	@ zero_extendqisi2
 117              	.L6:
 454:c:/Users/lenovo/Desktop/AIoT/first_day/firstday_afternoon/LiteOS_Lab_STM32_IoT/iot_link/network/dtls/mbedtls/mbedtls-2.16.2/include/mbedtls\cipher.h **** }
 118              		.loc 1 454 1
 119 001a 1846     		mov	r0, r3
ARM GAS  C:\Users\lenovo\AppData\Local\Temp\ccSoL50u.s 			page 11


 120 001c 0C37     		adds	r7, r7, #12
 121              	.LCFI9:
 122              		.cfi_def_cfa_offset 4
 123 001e BD46     		mov	sp, r7
 124              	.LCFI10:
 125              		.cfi_def_cfa_register 13
 126              		@ sp needed
 127 0020 5DF8047B 		ldr	r7, [sp], #4
 128              	.LCFI11:
 129              		.cfi_restore 7
 130              		.cfi_def_cfa_offset 0
 131 0024 7047     		bx	lr
 132              		.cfi_endproc
 133              	.LFE5:
 135              		.section	.text.mbedtls_ssl_hdr_len,"ax",%progbits
 136              		.align	1
 137              		.syntax unified
 138              		.thumb
 139              		.thumb_func
 140              		.fpu fpv4-sp-d16
 142              	mbedtls_ssl_hdr_len:
 143              	.LFB13:
 144              		.file 2 "c:/Users/lenovo/Desktop/AIoT/first_day/firstday_afternoon/LiteOS_Lab_STM32_IoT/iot_link/n
   1:c:/Users/lenovo/Desktop/AIoT/first_day/firstday_afternoon/LiteOS_Lab_STM32_IoT/iot_link/network/dtls/mbedtls/mbedtls-2.16.2/include/mbedtls\ssl_internal.h **** /**
   2:c:/Users/lenovo/Desktop/AIoT/first_day/firstday_afternoon/LiteOS_Lab_STM32_IoT/iot_link/network/dtls/mbedtls/mbedtls-2.16.2/include/mbedtls\ssl_internal.h ****  * \file ssl_internal.h
   3:c:/Users/lenovo/Desktop/AIoT/first_day/firstday_afternoon/LiteOS_Lab_STM32_IoT/iot_link/network/dtls/mbedtls/mbedtls-2.16.2/include/mbedtls\ssl_internal.h ****  *
   4:c:/Users/lenovo/Desktop/AIoT/first_day/firstday_afternoon/LiteOS_Lab_STM32_IoT/iot_link/network/dtls/mbedtls/mbedtls-2.16.2/include/mbedtls\ssl_internal.h ****  * \brief Internal functions shared by the SSL modules
   5:c:/Users/lenovo/Desktop/AIoT/first_day/firstday_afternoon/LiteOS_Lab_STM32_IoT/iot_link/network/dtls/mbedtls/mbedtls-2.16.2/include/mbedtls\ssl_internal.h ****  */
   6:c:/Users/lenovo/Desktop/AIoT/first_day/firstday_afternoon/LiteOS_Lab_STM32_IoT/iot_link/network/dtls/mbedtls/mbedtls-2.16.2/include/mbedtls\ssl_internal.h **** /*
   7:c:/Users/lenovo/Desktop/AIoT/first_day/firstday_afternoon/LiteOS_Lab_STM32_IoT/iot_link/network/dtls/mbedtls/mbedtls-2.16.2/include/mbedtls\ssl_internal.h ****  *  Copyright (C) 2006-2015, ARM Limited, All Rights Reserved
   8:c:/Users/lenovo/Desktop/AIoT/first_day/firstday_afternoon/LiteOS_Lab_STM32_IoT/iot_link/network/dtls/mbedtls/mbedtls-2.16.2/include/mbedtls\ssl_internal.h ****  *  SPDX-License-Identifier: Apache-2.0
   9:c:/Users/lenovo/Desktop/AIoT/first_day/firstday_afternoon/LiteOS_Lab_STM32_IoT/iot_link/network/dtls/mbedtls/mbedtls-2.16.2/include/mbedtls\ssl_internal.h ****  *
  10:c:/Users/lenovo/Desktop/AIoT/first_day/firstday_afternoon/LiteOS_Lab_STM32_IoT/iot_link/network/dtls/mbedtls/mbedtls-2.16.2/include/mbedtls\ssl_internal.h ****  *  Licensed under the Apache License, Version 2.0 (the "License"); you may
  11:c:/Users/lenovo/Desktop/AIoT/first_day/firstday_afternoon/LiteOS_Lab_STM32_IoT/iot_link/network/dtls/mbedtls/mbedtls-2.16.2/include/mbedtls\ssl_internal.h ****  *  not use this file except in compliance with the License.
  12:c:/Users/lenovo/Desktop/AIoT/first_day/firstday_afternoon/LiteOS_Lab_STM32_IoT/iot_link/network/dtls/mbedtls/mbedtls-2.16.2/include/mbedtls\ssl_internal.h ****  *  You may obtain a copy of the License at
  13:c:/Users/lenovo/Desktop/AIoT/first_day/firstday_afternoon/LiteOS_Lab_STM32_IoT/iot_link/network/dtls/mbedtls/mbedtls-2.16.2/include/mbedtls\ssl_internal.h ****  *
  14:c:/Users/lenovo/Desktop/AIoT/first_day/firstday_afternoon/LiteOS_Lab_STM32_IoT/iot_link/network/dtls/mbedtls/mbedtls-2.16.2/include/mbedtls\ssl_internal.h ****  *  http://www.apache.org/licenses/LICENSE-2.0
  15:c:/Users/lenovo/Desktop/AIoT/first_day/firstday_afternoon/LiteOS_Lab_STM32_IoT/iot_link/network/dtls/mbedtls/mbedtls-2.16.2/include/mbedtls\ssl_internal.h ****  *
  16:c:/Users/lenovo/Desktop/AIoT/first_day/firstday_afternoon/LiteOS_Lab_STM32_IoT/iot_link/network/dtls/mbedtls/mbedtls-2.16.2/include/mbedtls\ssl_internal.h ****  *  Unless required by applicable law or agreed to in writing, software
  17:c:/Users/lenovo/Desktop/AIoT/first_day/firstday_afternoon/LiteOS_Lab_STM32_IoT/iot_link/network/dtls/mbedtls/mbedtls-2.16.2/include/mbedtls\ssl_internal.h ****  *  distributed under the License is distributed on an "AS IS" BASIS, WITHOUT
  18:c:/Users/lenovo/Desktop/AIoT/first_day/firstday_afternoon/LiteOS_Lab_STM32_IoT/iot_link/network/dtls/mbedtls/mbedtls-2.16.2/include/mbedtls\ssl_internal.h ****  *  WARRANTIES OR CONDITIONS OF ANY KIND, either express or implied.
  19:c:/Users/lenovo/Desktop/AIoT/first_day/firstday_afternoon/LiteOS_Lab_STM32_IoT/iot_link/network/dtls/mbedtls/mbedtls-2.16.2/include/mbedtls\ssl_internal.h ****  *  See the License for the specific language governing permissions and
  20:c:/Users/lenovo/Desktop/AIoT/first_day/firstday_afternoon/LiteOS_Lab_STM32_IoT/iot_link/network/dtls/mbedtls/mbedtls-2.16.2/include/mbedtls\ssl_internal.h ****  *  limitations under the License.
  21:c:/Users/lenovo/Desktop/AIoT/first_day/firstday_afternoon/LiteOS_Lab_STM32_IoT/iot_link/network/dtls/mbedtls/mbedtls-2.16.2/include/mbedtls\ssl_internal.h ****  *
  22:c:/Users/lenovo/Desktop/AIoT/first_day/firstday_afternoon/LiteOS_Lab_STM32_IoT/iot_link/network/dtls/mbedtls/mbedtls-2.16.2/include/mbedtls\ssl_internal.h ****  *  This file is part of mbed TLS (https://tls.mbed.org)
  23:c:/Users/lenovo/Desktop/AIoT/first_day/firstday_afternoon/LiteOS_Lab_STM32_IoT/iot_link/network/dtls/mbedtls/mbedtls-2.16.2/include/mbedtls\ssl_internal.h ****  */
  24:c:/Users/lenovo/Desktop/AIoT/first_day/firstday_afternoon/LiteOS_Lab_STM32_IoT/iot_link/network/dtls/mbedtls/mbedtls-2.16.2/include/mbedtls\ssl_internal.h **** #ifndef MBEDTLS_SSL_INTERNAL_H
  25:c:/Users/lenovo/Desktop/AIoT/first_day/firstday_afternoon/LiteOS_Lab_STM32_IoT/iot_link/network/dtls/mbedtls/mbedtls-2.16.2/include/mbedtls\ssl_internal.h **** #define MBEDTLS_SSL_INTERNAL_H
  26:c:/Users/lenovo/Desktop/AIoT/first_day/firstday_afternoon/LiteOS_Lab_STM32_IoT/iot_link/network/dtls/mbedtls/mbedtls-2.16.2/include/mbedtls\ssl_internal.h **** 
  27:c:/Users/lenovo/Desktop/AIoT/first_day/firstday_afternoon/LiteOS_Lab_STM32_IoT/iot_link/network/dtls/mbedtls/mbedtls-2.16.2/include/mbedtls\ssl_internal.h **** #if !defined(MBEDTLS_CONFIG_FILE)
  28:c:/Users/lenovo/Desktop/AIoT/first_day/firstday_afternoon/LiteOS_Lab_STM32_IoT/iot_link/network/dtls/mbedtls/mbedtls-2.16.2/include/mbedtls\ssl_internal.h **** #include "config.h"
  29:c:/Users/lenovo/Desktop/AIoT/first_day/firstday_afternoon/LiteOS_Lab_STM32_IoT/iot_link/network/dtls/mbedtls/mbedtls-2.16.2/include/mbedtls\ssl_internal.h **** #else
  30:c:/Users/lenovo/Desktop/AIoT/first_day/firstday_afternoon/LiteOS_Lab_STM32_IoT/iot_link/network/dtls/mbedtls/mbedtls-2.16.2/include/mbedtls\ssl_internal.h **** #include MBEDTLS_CONFIG_FILE
  31:c:/Users/lenovo/Desktop/AIoT/first_day/firstday_afternoon/LiteOS_Lab_STM32_IoT/iot_link/network/dtls/mbedtls/mbedtls-2.16.2/include/mbedtls\ssl_internal.h **** #endif
  32:c:/Users/lenovo/Desktop/AIoT/first_day/firstday_afternoon/LiteOS_Lab_STM32_IoT/iot_link/network/dtls/mbedtls/mbedtls-2.16.2/include/mbedtls\ssl_internal.h **** 
  33:c:/Users/lenovo/Desktop/AIoT/first_day/firstday_afternoon/LiteOS_Lab_STM32_IoT/iot_link/network/dtls/mbedtls/mbedtls-2.16.2/include/mbedtls\ssl_internal.h **** #include "ssl.h"
  34:c:/Users/lenovo/Desktop/AIoT/first_day/firstday_afternoon/LiteOS_Lab_STM32_IoT/iot_link/network/dtls/mbedtls/mbedtls-2.16.2/include/mbedtls\ssl_internal.h **** #include "cipher.h"
ARM GAS  C:\Users\lenovo\AppData\Local\Temp\ccSoL50u.s 			page 12


  35:c:/Users/lenovo/Desktop/AIoT/first_day/firstday_afternoon/LiteOS_Lab_STM32_IoT/iot_link/network/dtls/mbedtls/mbedtls-2.16.2/include/mbedtls\ssl_internal.h **** 
  36:c:/Users/lenovo/Desktop/AIoT/first_day/firstday_afternoon/LiteOS_Lab_STM32_IoT/iot_link/network/dtls/mbedtls/mbedtls-2.16.2/include/mbedtls\ssl_internal.h **** #if defined(MBEDTLS_MD5_C)
  37:c:/Users/lenovo/Desktop/AIoT/first_day/firstday_afternoon/LiteOS_Lab_STM32_IoT/iot_link/network/dtls/mbedtls/mbedtls-2.16.2/include/mbedtls\ssl_internal.h **** #include "md5.h"
  38:c:/Users/lenovo/Desktop/AIoT/first_day/firstday_afternoon/LiteOS_Lab_STM32_IoT/iot_link/network/dtls/mbedtls/mbedtls-2.16.2/include/mbedtls\ssl_internal.h **** #endif
  39:c:/Users/lenovo/Desktop/AIoT/first_day/firstday_afternoon/LiteOS_Lab_STM32_IoT/iot_link/network/dtls/mbedtls/mbedtls-2.16.2/include/mbedtls\ssl_internal.h **** 
  40:c:/Users/lenovo/Desktop/AIoT/first_day/firstday_afternoon/LiteOS_Lab_STM32_IoT/iot_link/network/dtls/mbedtls/mbedtls-2.16.2/include/mbedtls\ssl_internal.h **** #if defined(MBEDTLS_SHA1_C)
  41:c:/Users/lenovo/Desktop/AIoT/first_day/firstday_afternoon/LiteOS_Lab_STM32_IoT/iot_link/network/dtls/mbedtls/mbedtls-2.16.2/include/mbedtls\ssl_internal.h **** #include "sha1.h"
  42:c:/Users/lenovo/Desktop/AIoT/first_day/firstday_afternoon/LiteOS_Lab_STM32_IoT/iot_link/network/dtls/mbedtls/mbedtls-2.16.2/include/mbedtls\ssl_internal.h **** #endif
  43:c:/Users/lenovo/Desktop/AIoT/first_day/firstday_afternoon/LiteOS_Lab_STM32_IoT/iot_link/network/dtls/mbedtls/mbedtls-2.16.2/include/mbedtls\ssl_internal.h **** 
  44:c:/Users/lenovo/Desktop/AIoT/first_day/firstday_afternoon/LiteOS_Lab_STM32_IoT/iot_link/network/dtls/mbedtls/mbedtls-2.16.2/include/mbedtls\ssl_internal.h **** #if defined(MBEDTLS_SHA256_C)
  45:c:/Users/lenovo/Desktop/AIoT/first_day/firstday_afternoon/LiteOS_Lab_STM32_IoT/iot_link/network/dtls/mbedtls/mbedtls-2.16.2/include/mbedtls\ssl_internal.h **** #include "sha256.h"
  46:c:/Users/lenovo/Desktop/AIoT/first_day/firstday_afternoon/LiteOS_Lab_STM32_IoT/iot_link/network/dtls/mbedtls/mbedtls-2.16.2/include/mbedtls\ssl_internal.h **** #endif
  47:c:/Users/lenovo/Desktop/AIoT/first_day/firstday_afternoon/LiteOS_Lab_STM32_IoT/iot_link/network/dtls/mbedtls/mbedtls-2.16.2/include/mbedtls\ssl_internal.h **** 
  48:c:/Users/lenovo/Desktop/AIoT/first_day/firstday_afternoon/LiteOS_Lab_STM32_IoT/iot_link/network/dtls/mbedtls/mbedtls-2.16.2/include/mbedtls\ssl_internal.h **** #if defined(MBEDTLS_SHA512_C)
  49:c:/Users/lenovo/Desktop/AIoT/first_day/firstday_afternoon/LiteOS_Lab_STM32_IoT/iot_link/network/dtls/mbedtls/mbedtls-2.16.2/include/mbedtls\ssl_internal.h **** #include "sha512.h"
  50:c:/Users/lenovo/Desktop/AIoT/first_day/firstday_afternoon/LiteOS_Lab_STM32_IoT/iot_link/network/dtls/mbedtls/mbedtls-2.16.2/include/mbedtls\ssl_internal.h **** #endif
  51:c:/Users/lenovo/Desktop/AIoT/first_day/firstday_afternoon/LiteOS_Lab_STM32_IoT/iot_link/network/dtls/mbedtls/mbedtls-2.16.2/include/mbedtls\ssl_internal.h **** 
  52:c:/Users/lenovo/Desktop/AIoT/first_day/firstday_afternoon/LiteOS_Lab_STM32_IoT/iot_link/network/dtls/mbedtls/mbedtls-2.16.2/include/mbedtls\ssl_internal.h **** #if defined(MBEDTLS_KEY_EXCHANGE_ECJPAKE_ENABLED)
  53:c:/Users/lenovo/Desktop/AIoT/first_day/firstday_afternoon/LiteOS_Lab_STM32_IoT/iot_link/network/dtls/mbedtls/mbedtls-2.16.2/include/mbedtls\ssl_internal.h **** #include "ecjpake.h"
  54:c:/Users/lenovo/Desktop/AIoT/first_day/firstday_afternoon/LiteOS_Lab_STM32_IoT/iot_link/network/dtls/mbedtls/mbedtls-2.16.2/include/mbedtls\ssl_internal.h **** #endif
  55:c:/Users/lenovo/Desktop/AIoT/first_day/firstday_afternoon/LiteOS_Lab_STM32_IoT/iot_link/network/dtls/mbedtls/mbedtls-2.16.2/include/mbedtls\ssl_internal.h **** 
  56:c:/Users/lenovo/Desktop/AIoT/first_day/firstday_afternoon/LiteOS_Lab_STM32_IoT/iot_link/network/dtls/mbedtls/mbedtls-2.16.2/include/mbedtls\ssl_internal.h **** #if ( defined(__ARMCC_VERSION) || defined(_MSC_VER) ) && \
  57:c:/Users/lenovo/Desktop/AIoT/first_day/firstday_afternoon/LiteOS_Lab_STM32_IoT/iot_link/network/dtls/mbedtls/mbedtls-2.16.2/include/mbedtls\ssl_internal.h ****     !defined(inline) && !defined(__cplusplus)
  58:c:/Users/lenovo/Desktop/AIoT/first_day/firstday_afternoon/LiteOS_Lab_STM32_IoT/iot_link/network/dtls/mbedtls/mbedtls-2.16.2/include/mbedtls\ssl_internal.h **** #define inline __inline
  59:c:/Users/lenovo/Desktop/AIoT/first_day/firstday_afternoon/LiteOS_Lab_STM32_IoT/iot_link/network/dtls/mbedtls/mbedtls-2.16.2/include/mbedtls\ssl_internal.h **** #endif
  60:c:/Users/lenovo/Desktop/AIoT/first_day/firstday_afternoon/LiteOS_Lab_STM32_IoT/iot_link/network/dtls/mbedtls/mbedtls-2.16.2/include/mbedtls\ssl_internal.h **** 
  61:c:/Users/lenovo/Desktop/AIoT/first_day/firstday_afternoon/LiteOS_Lab_STM32_IoT/iot_link/network/dtls/mbedtls/mbedtls-2.16.2/include/mbedtls\ssl_internal.h **** /* Determine minimum supported version */
  62:c:/Users/lenovo/Desktop/AIoT/first_day/firstday_afternoon/LiteOS_Lab_STM32_IoT/iot_link/network/dtls/mbedtls/mbedtls-2.16.2/include/mbedtls\ssl_internal.h **** #define MBEDTLS_SSL_MIN_MAJOR_VERSION           MBEDTLS_SSL_MAJOR_VERSION_3
  63:c:/Users/lenovo/Desktop/AIoT/first_day/firstday_afternoon/LiteOS_Lab_STM32_IoT/iot_link/network/dtls/mbedtls/mbedtls-2.16.2/include/mbedtls\ssl_internal.h **** 
  64:c:/Users/lenovo/Desktop/AIoT/first_day/firstday_afternoon/LiteOS_Lab_STM32_IoT/iot_link/network/dtls/mbedtls/mbedtls-2.16.2/include/mbedtls\ssl_internal.h **** #if defined(MBEDTLS_SSL_PROTO_SSL3)
  65:c:/Users/lenovo/Desktop/AIoT/first_day/firstday_afternoon/LiteOS_Lab_STM32_IoT/iot_link/network/dtls/mbedtls/mbedtls-2.16.2/include/mbedtls\ssl_internal.h **** #define MBEDTLS_SSL_MIN_MINOR_VERSION           MBEDTLS_SSL_MINOR_VERSION_0
  66:c:/Users/lenovo/Desktop/AIoT/first_day/firstday_afternoon/LiteOS_Lab_STM32_IoT/iot_link/network/dtls/mbedtls/mbedtls-2.16.2/include/mbedtls\ssl_internal.h **** #else
  67:c:/Users/lenovo/Desktop/AIoT/first_day/firstday_afternoon/LiteOS_Lab_STM32_IoT/iot_link/network/dtls/mbedtls/mbedtls-2.16.2/include/mbedtls\ssl_internal.h **** #if defined(MBEDTLS_SSL_PROTO_TLS1)
  68:c:/Users/lenovo/Desktop/AIoT/first_day/firstday_afternoon/LiteOS_Lab_STM32_IoT/iot_link/network/dtls/mbedtls/mbedtls-2.16.2/include/mbedtls\ssl_internal.h **** #define MBEDTLS_SSL_MIN_MINOR_VERSION           MBEDTLS_SSL_MINOR_VERSION_1
  69:c:/Users/lenovo/Desktop/AIoT/first_day/firstday_afternoon/LiteOS_Lab_STM32_IoT/iot_link/network/dtls/mbedtls/mbedtls-2.16.2/include/mbedtls\ssl_internal.h **** #else
  70:c:/Users/lenovo/Desktop/AIoT/first_day/firstday_afternoon/LiteOS_Lab_STM32_IoT/iot_link/network/dtls/mbedtls/mbedtls-2.16.2/include/mbedtls\ssl_internal.h **** #if defined(MBEDTLS_SSL_PROTO_TLS1_1)
  71:c:/Users/lenovo/Desktop/AIoT/first_day/firstday_afternoon/LiteOS_Lab_STM32_IoT/iot_link/network/dtls/mbedtls/mbedtls-2.16.2/include/mbedtls\ssl_internal.h **** #define MBEDTLS_SSL_MIN_MINOR_VERSION           MBEDTLS_SSL_MINOR_VERSION_2
  72:c:/Users/lenovo/Desktop/AIoT/first_day/firstday_afternoon/LiteOS_Lab_STM32_IoT/iot_link/network/dtls/mbedtls/mbedtls-2.16.2/include/mbedtls\ssl_internal.h **** #else
  73:c:/Users/lenovo/Desktop/AIoT/first_day/firstday_afternoon/LiteOS_Lab_STM32_IoT/iot_link/network/dtls/mbedtls/mbedtls-2.16.2/include/mbedtls\ssl_internal.h **** #if defined(MBEDTLS_SSL_PROTO_TLS1_2)
  74:c:/Users/lenovo/Desktop/AIoT/first_day/firstday_afternoon/LiteOS_Lab_STM32_IoT/iot_link/network/dtls/mbedtls/mbedtls-2.16.2/include/mbedtls\ssl_internal.h **** #define MBEDTLS_SSL_MIN_MINOR_VERSION           MBEDTLS_SSL_MINOR_VERSION_3
  75:c:/Users/lenovo/Desktop/AIoT/first_day/firstday_afternoon/LiteOS_Lab_STM32_IoT/iot_link/network/dtls/mbedtls/mbedtls-2.16.2/include/mbedtls\ssl_internal.h **** #endif /* MBEDTLS_SSL_PROTO_TLS1_2 */
  76:c:/Users/lenovo/Desktop/AIoT/first_day/firstday_afternoon/LiteOS_Lab_STM32_IoT/iot_link/network/dtls/mbedtls/mbedtls-2.16.2/include/mbedtls\ssl_internal.h **** #endif /* MBEDTLS_SSL_PROTO_TLS1_1 */
  77:c:/Users/lenovo/Desktop/AIoT/first_day/firstday_afternoon/LiteOS_Lab_STM32_IoT/iot_link/network/dtls/mbedtls/mbedtls-2.16.2/include/mbedtls\ssl_internal.h **** #endif /* MBEDTLS_SSL_PROTO_TLS1   */
  78:c:/Users/lenovo/Desktop/AIoT/first_day/firstday_afternoon/LiteOS_Lab_STM32_IoT/iot_link/network/dtls/mbedtls/mbedtls-2.16.2/include/mbedtls\ssl_internal.h **** #endif /* MBEDTLS_SSL_PROTO_SSL3   */
  79:c:/Users/lenovo/Desktop/AIoT/first_day/firstday_afternoon/LiteOS_Lab_STM32_IoT/iot_link/network/dtls/mbedtls/mbedtls-2.16.2/include/mbedtls\ssl_internal.h **** 
  80:c:/Users/lenovo/Desktop/AIoT/first_day/firstday_afternoon/LiteOS_Lab_STM32_IoT/iot_link/network/dtls/mbedtls/mbedtls-2.16.2/include/mbedtls\ssl_internal.h **** #define MBEDTLS_SSL_MIN_VALID_MINOR_VERSION MBEDTLS_SSL_MINOR_VERSION_1
  81:c:/Users/lenovo/Desktop/AIoT/first_day/firstday_afternoon/LiteOS_Lab_STM32_IoT/iot_link/network/dtls/mbedtls/mbedtls-2.16.2/include/mbedtls\ssl_internal.h **** #define MBEDTLS_SSL_MIN_VALID_MAJOR_VERSION MBEDTLS_SSL_MAJOR_VERSION_3
  82:c:/Users/lenovo/Desktop/AIoT/first_day/firstday_afternoon/LiteOS_Lab_STM32_IoT/iot_link/network/dtls/mbedtls/mbedtls-2.16.2/include/mbedtls\ssl_internal.h **** 
  83:c:/Users/lenovo/Desktop/AIoT/first_day/firstday_afternoon/LiteOS_Lab_STM32_IoT/iot_link/network/dtls/mbedtls/mbedtls-2.16.2/include/mbedtls\ssl_internal.h **** /* Determine maximum supported version */
  84:c:/Users/lenovo/Desktop/AIoT/first_day/firstday_afternoon/LiteOS_Lab_STM32_IoT/iot_link/network/dtls/mbedtls/mbedtls-2.16.2/include/mbedtls\ssl_internal.h **** #define MBEDTLS_SSL_MAX_MAJOR_VERSION           MBEDTLS_SSL_MAJOR_VERSION_3
  85:c:/Users/lenovo/Desktop/AIoT/first_day/firstday_afternoon/LiteOS_Lab_STM32_IoT/iot_link/network/dtls/mbedtls/mbedtls-2.16.2/include/mbedtls\ssl_internal.h **** 
  86:c:/Users/lenovo/Desktop/AIoT/first_day/firstday_afternoon/LiteOS_Lab_STM32_IoT/iot_link/network/dtls/mbedtls/mbedtls-2.16.2/include/mbedtls\ssl_internal.h **** #if defined(MBEDTLS_SSL_PROTO_TLS1_2)
  87:c:/Users/lenovo/Desktop/AIoT/first_day/firstday_afternoon/LiteOS_Lab_STM32_IoT/iot_link/network/dtls/mbedtls/mbedtls-2.16.2/include/mbedtls\ssl_internal.h **** #define MBEDTLS_SSL_MAX_MINOR_VERSION           MBEDTLS_SSL_MINOR_VERSION_3
  88:c:/Users/lenovo/Desktop/AIoT/first_day/firstday_afternoon/LiteOS_Lab_STM32_IoT/iot_link/network/dtls/mbedtls/mbedtls-2.16.2/include/mbedtls\ssl_internal.h **** #else
  89:c:/Users/lenovo/Desktop/AIoT/first_day/firstday_afternoon/LiteOS_Lab_STM32_IoT/iot_link/network/dtls/mbedtls/mbedtls-2.16.2/include/mbedtls\ssl_internal.h **** #if defined(MBEDTLS_SSL_PROTO_TLS1_1)
  90:c:/Users/lenovo/Desktop/AIoT/first_day/firstday_afternoon/LiteOS_Lab_STM32_IoT/iot_link/network/dtls/mbedtls/mbedtls-2.16.2/include/mbedtls\ssl_internal.h **** #define MBEDTLS_SSL_MAX_MINOR_VERSION           MBEDTLS_SSL_MINOR_VERSION_2
  91:c:/Users/lenovo/Desktop/AIoT/first_day/firstday_afternoon/LiteOS_Lab_STM32_IoT/iot_link/network/dtls/mbedtls/mbedtls-2.16.2/include/mbedtls\ssl_internal.h **** #else
ARM GAS  C:\Users\lenovo\AppData\Local\Temp\ccSoL50u.s 			page 13


  92:c:/Users/lenovo/Desktop/AIoT/first_day/firstday_afternoon/LiteOS_Lab_STM32_IoT/iot_link/network/dtls/mbedtls/mbedtls-2.16.2/include/mbedtls\ssl_internal.h **** #if defined(MBEDTLS_SSL_PROTO_TLS1)
  93:c:/Users/lenovo/Desktop/AIoT/first_day/firstday_afternoon/LiteOS_Lab_STM32_IoT/iot_link/network/dtls/mbedtls/mbedtls-2.16.2/include/mbedtls\ssl_internal.h **** #define MBEDTLS_SSL_MAX_MINOR_VERSION           MBEDTLS_SSL_MINOR_VERSION_1
  94:c:/Users/lenovo/Desktop/AIoT/first_day/firstday_afternoon/LiteOS_Lab_STM32_IoT/iot_link/network/dtls/mbedtls/mbedtls-2.16.2/include/mbedtls\ssl_internal.h **** #else
  95:c:/Users/lenovo/Desktop/AIoT/first_day/firstday_afternoon/LiteOS_Lab_STM32_IoT/iot_link/network/dtls/mbedtls/mbedtls-2.16.2/include/mbedtls\ssl_internal.h **** #if defined(MBEDTLS_SSL_PROTO_SSL3)
  96:c:/Users/lenovo/Desktop/AIoT/first_day/firstday_afternoon/LiteOS_Lab_STM32_IoT/iot_link/network/dtls/mbedtls/mbedtls-2.16.2/include/mbedtls\ssl_internal.h **** #define MBEDTLS_SSL_MAX_MINOR_VERSION           MBEDTLS_SSL_MINOR_VERSION_0
  97:c:/Users/lenovo/Desktop/AIoT/first_day/firstday_afternoon/LiteOS_Lab_STM32_IoT/iot_link/network/dtls/mbedtls/mbedtls-2.16.2/include/mbedtls\ssl_internal.h **** #endif /* MBEDTLS_SSL_PROTO_SSL3   */
  98:c:/Users/lenovo/Desktop/AIoT/first_day/firstday_afternoon/LiteOS_Lab_STM32_IoT/iot_link/network/dtls/mbedtls/mbedtls-2.16.2/include/mbedtls\ssl_internal.h **** #endif /* MBEDTLS_SSL_PROTO_TLS1   */
  99:c:/Users/lenovo/Desktop/AIoT/first_day/firstday_afternoon/LiteOS_Lab_STM32_IoT/iot_link/network/dtls/mbedtls/mbedtls-2.16.2/include/mbedtls\ssl_internal.h **** #endif /* MBEDTLS_SSL_PROTO_TLS1_1 */
 100:c:/Users/lenovo/Desktop/AIoT/first_day/firstday_afternoon/LiteOS_Lab_STM32_IoT/iot_link/network/dtls/mbedtls/mbedtls-2.16.2/include/mbedtls\ssl_internal.h **** #endif /* MBEDTLS_SSL_PROTO_TLS1_2 */
 101:c:/Users/lenovo/Desktop/AIoT/first_day/firstday_afternoon/LiteOS_Lab_STM32_IoT/iot_link/network/dtls/mbedtls/mbedtls-2.16.2/include/mbedtls\ssl_internal.h **** 
 102:c:/Users/lenovo/Desktop/AIoT/first_day/firstday_afternoon/LiteOS_Lab_STM32_IoT/iot_link/network/dtls/mbedtls/mbedtls-2.16.2/include/mbedtls\ssl_internal.h **** /* Shorthand for restartable ECC */
 103:c:/Users/lenovo/Desktop/AIoT/first_day/firstday_afternoon/LiteOS_Lab_STM32_IoT/iot_link/network/dtls/mbedtls/mbedtls-2.16.2/include/mbedtls\ssl_internal.h **** #if defined(MBEDTLS_ECP_RESTARTABLE) && \
 104:c:/Users/lenovo/Desktop/AIoT/first_day/firstday_afternoon/LiteOS_Lab_STM32_IoT/iot_link/network/dtls/mbedtls/mbedtls-2.16.2/include/mbedtls\ssl_internal.h ****     defined(MBEDTLS_SSL_CLI_C) && \
 105:c:/Users/lenovo/Desktop/AIoT/first_day/firstday_afternoon/LiteOS_Lab_STM32_IoT/iot_link/network/dtls/mbedtls/mbedtls-2.16.2/include/mbedtls\ssl_internal.h ****     defined(MBEDTLS_SSL_PROTO_TLS1_2) && \
 106:c:/Users/lenovo/Desktop/AIoT/first_day/firstday_afternoon/LiteOS_Lab_STM32_IoT/iot_link/network/dtls/mbedtls/mbedtls-2.16.2/include/mbedtls\ssl_internal.h ****     defined(MBEDTLS_KEY_EXCHANGE_ECDHE_ECDSA_ENABLED)
 107:c:/Users/lenovo/Desktop/AIoT/first_day/firstday_afternoon/LiteOS_Lab_STM32_IoT/iot_link/network/dtls/mbedtls/mbedtls-2.16.2/include/mbedtls\ssl_internal.h **** #define MBEDTLS_SSL__ECP_RESTARTABLE
 108:c:/Users/lenovo/Desktop/AIoT/first_day/firstday_afternoon/LiteOS_Lab_STM32_IoT/iot_link/network/dtls/mbedtls/mbedtls-2.16.2/include/mbedtls\ssl_internal.h **** #endif
 109:c:/Users/lenovo/Desktop/AIoT/first_day/firstday_afternoon/LiteOS_Lab_STM32_IoT/iot_link/network/dtls/mbedtls/mbedtls-2.16.2/include/mbedtls\ssl_internal.h **** 
 110:c:/Users/lenovo/Desktop/AIoT/first_day/firstday_afternoon/LiteOS_Lab_STM32_IoT/iot_link/network/dtls/mbedtls/mbedtls-2.16.2/include/mbedtls\ssl_internal.h **** #define MBEDTLS_SSL_INITIAL_HANDSHAKE           0
 111:c:/Users/lenovo/Desktop/AIoT/first_day/firstday_afternoon/LiteOS_Lab_STM32_IoT/iot_link/network/dtls/mbedtls/mbedtls-2.16.2/include/mbedtls\ssl_internal.h **** #define MBEDTLS_SSL_RENEGOTIATION_IN_PROGRESS   1   /* In progress */
 112:c:/Users/lenovo/Desktop/AIoT/first_day/firstday_afternoon/LiteOS_Lab_STM32_IoT/iot_link/network/dtls/mbedtls/mbedtls-2.16.2/include/mbedtls\ssl_internal.h **** #define MBEDTLS_SSL_RENEGOTIATION_DONE          2   /* Done or aborted */
 113:c:/Users/lenovo/Desktop/AIoT/first_day/firstday_afternoon/LiteOS_Lab_STM32_IoT/iot_link/network/dtls/mbedtls/mbedtls-2.16.2/include/mbedtls\ssl_internal.h **** #define MBEDTLS_SSL_RENEGOTIATION_PENDING       3   /* Requested (server only) */
 114:c:/Users/lenovo/Desktop/AIoT/first_day/firstday_afternoon/LiteOS_Lab_STM32_IoT/iot_link/network/dtls/mbedtls/mbedtls-2.16.2/include/mbedtls\ssl_internal.h **** 
 115:c:/Users/lenovo/Desktop/AIoT/first_day/firstday_afternoon/LiteOS_Lab_STM32_IoT/iot_link/network/dtls/mbedtls/mbedtls-2.16.2/include/mbedtls\ssl_internal.h **** /*
 116:c:/Users/lenovo/Desktop/AIoT/first_day/firstday_afternoon/LiteOS_Lab_STM32_IoT/iot_link/network/dtls/mbedtls/mbedtls-2.16.2/include/mbedtls\ssl_internal.h ****  * DTLS retransmission states, see RFC 6347 4.2.4
 117:c:/Users/lenovo/Desktop/AIoT/first_day/firstday_afternoon/LiteOS_Lab_STM32_IoT/iot_link/network/dtls/mbedtls/mbedtls-2.16.2/include/mbedtls\ssl_internal.h ****  *
 118:c:/Users/lenovo/Desktop/AIoT/first_day/firstday_afternoon/LiteOS_Lab_STM32_IoT/iot_link/network/dtls/mbedtls/mbedtls-2.16.2/include/mbedtls\ssl_internal.h ****  * The SENDING state is merged in PREPARING for initial sends,
 119:c:/Users/lenovo/Desktop/AIoT/first_day/firstday_afternoon/LiteOS_Lab_STM32_IoT/iot_link/network/dtls/mbedtls/mbedtls-2.16.2/include/mbedtls\ssl_internal.h ****  * but is distinct for resends.
 120:c:/Users/lenovo/Desktop/AIoT/first_day/firstday_afternoon/LiteOS_Lab_STM32_IoT/iot_link/network/dtls/mbedtls/mbedtls-2.16.2/include/mbedtls\ssl_internal.h ****  *
 121:c:/Users/lenovo/Desktop/AIoT/first_day/firstday_afternoon/LiteOS_Lab_STM32_IoT/iot_link/network/dtls/mbedtls/mbedtls-2.16.2/include/mbedtls\ssl_internal.h ****  * Note: initial state is wrong for server, but is not used anyway.
 122:c:/Users/lenovo/Desktop/AIoT/first_day/firstday_afternoon/LiteOS_Lab_STM32_IoT/iot_link/network/dtls/mbedtls/mbedtls-2.16.2/include/mbedtls\ssl_internal.h ****  */
 123:c:/Users/lenovo/Desktop/AIoT/first_day/firstday_afternoon/LiteOS_Lab_STM32_IoT/iot_link/network/dtls/mbedtls/mbedtls-2.16.2/include/mbedtls\ssl_internal.h **** #define MBEDTLS_SSL_RETRANS_PREPARING       0
 124:c:/Users/lenovo/Desktop/AIoT/first_day/firstday_afternoon/LiteOS_Lab_STM32_IoT/iot_link/network/dtls/mbedtls/mbedtls-2.16.2/include/mbedtls\ssl_internal.h **** #define MBEDTLS_SSL_RETRANS_SENDING         1
 125:c:/Users/lenovo/Desktop/AIoT/first_day/firstday_afternoon/LiteOS_Lab_STM32_IoT/iot_link/network/dtls/mbedtls/mbedtls-2.16.2/include/mbedtls\ssl_internal.h **** #define MBEDTLS_SSL_RETRANS_WAITING         2
 126:c:/Users/lenovo/Desktop/AIoT/first_day/firstday_afternoon/LiteOS_Lab_STM32_IoT/iot_link/network/dtls/mbedtls/mbedtls-2.16.2/include/mbedtls\ssl_internal.h **** #define MBEDTLS_SSL_RETRANS_FINISHED        3
 127:c:/Users/lenovo/Desktop/AIoT/first_day/firstday_afternoon/LiteOS_Lab_STM32_IoT/iot_link/network/dtls/mbedtls/mbedtls-2.16.2/include/mbedtls\ssl_internal.h **** 
 128:c:/Users/lenovo/Desktop/AIoT/first_day/firstday_afternoon/LiteOS_Lab_STM32_IoT/iot_link/network/dtls/mbedtls/mbedtls-2.16.2/include/mbedtls\ssl_internal.h **** /*
 129:c:/Users/lenovo/Desktop/AIoT/first_day/firstday_afternoon/LiteOS_Lab_STM32_IoT/iot_link/network/dtls/mbedtls/mbedtls-2.16.2/include/mbedtls\ssl_internal.h ****  * Allow extra bytes for record, authentication and encryption overhead:
 130:c:/Users/lenovo/Desktop/AIoT/first_day/firstday_afternoon/LiteOS_Lab_STM32_IoT/iot_link/network/dtls/mbedtls/mbedtls-2.16.2/include/mbedtls\ssl_internal.h ****  * counter (8) + header (5) + IV(16) + MAC (16-48) + padding (0-256)
 131:c:/Users/lenovo/Desktop/AIoT/first_day/firstday_afternoon/LiteOS_Lab_STM32_IoT/iot_link/network/dtls/mbedtls/mbedtls-2.16.2/include/mbedtls\ssl_internal.h ****  * and allow for a maximum of 1024 of compression expansion if
 132:c:/Users/lenovo/Desktop/AIoT/first_day/firstday_afternoon/LiteOS_Lab_STM32_IoT/iot_link/network/dtls/mbedtls/mbedtls-2.16.2/include/mbedtls\ssl_internal.h ****  * enabled.
 133:c:/Users/lenovo/Desktop/AIoT/first_day/firstday_afternoon/LiteOS_Lab_STM32_IoT/iot_link/network/dtls/mbedtls/mbedtls-2.16.2/include/mbedtls\ssl_internal.h ****  */
 134:c:/Users/lenovo/Desktop/AIoT/first_day/firstday_afternoon/LiteOS_Lab_STM32_IoT/iot_link/network/dtls/mbedtls/mbedtls-2.16.2/include/mbedtls\ssl_internal.h **** #if defined(MBEDTLS_ZLIB_SUPPORT)
 135:c:/Users/lenovo/Desktop/AIoT/first_day/firstday_afternoon/LiteOS_Lab_STM32_IoT/iot_link/network/dtls/mbedtls/mbedtls-2.16.2/include/mbedtls\ssl_internal.h **** #define MBEDTLS_SSL_COMPRESSION_ADD          1024
 136:c:/Users/lenovo/Desktop/AIoT/first_day/firstday_afternoon/LiteOS_Lab_STM32_IoT/iot_link/network/dtls/mbedtls/mbedtls-2.16.2/include/mbedtls\ssl_internal.h **** #else
 137:c:/Users/lenovo/Desktop/AIoT/first_day/firstday_afternoon/LiteOS_Lab_STM32_IoT/iot_link/network/dtls/mbedtls/mbedtls-2.16.2/include/mbedtls\ssl_internal.h **** #define MBEDTLS_SSL_COMPRESSION_ADD             0
 138:c:/Users/lenovo/Desktop/AIoT/first_day/firstday_afternoon/LiteOS_Lab_STM32_IoT/iot_link/network/dtls/mbedtls/mbedtls-2.16.2/include/mbedtls\ssl_internal.h **** #endif
 139:c:/Users/lenovo/Desktop/AIoT/first_day/firstday_afternoon/LiteOS_Lab_STM32_IoT/iot_link/network/dtls/mbedtls/mbedtls-2.16.2/include/mbedtls\ssl_internal.h **** 
 140:c:/Users/lenovo/Desktop/AIoT/first_day/firstday_afternoon/LiteOS_Lab_STM32_IoT/iot_link/network/dtls/mbedtls/mbedtls-2.16.2/include/mbedtls\ssl_internal.h **** #if defined(MBEDTLS_ARC4_C) || defined(MBEDTLS_CIPHER_MODE_CBC)
 141:c:/Users/lenovo/Desktop/AIoT/first_day/firstday_afternoon/LiteOS_Lab_STM32_IoT/iot_link/network/dtls/mbedtls/mbedtls-2.16.2/include/mbedtls\ssl_internal.h **** /* Ciphersuites using HMAC */
 142:c:/Users/lenovo/Desktop/AIoT/first_day/firstday_afternoon/LiteOS_Lab_STM32_IoT/iot_link/network/dtls/mbedtls/mbedtls-2.16.2/include/mbedtls\ssl_internal.h **** #if defined(MBEDTLS_SHA512_C)
 143:c:/Users/lenovo/Desktop/AIoT/first_day/firstday_afternoon/LiteOS_Lab_STM32_IoT/iot_link/network/dtls/mbedtls/mbedtls-2.16.2/include/mbedtls\ssl_internal.h **** #define MBEDTLS_SSL_MAC_ADD                 48  /* SHA-384 used for HMAC */
 144:c:/Users/lenovo/Desktop/AIoT/first_day/firstday_afternoon/LiteOS_Lab_STM32_IoT/iot_link/network/dtls/mbedtls/mbedtls-2.16.2/include/mbedtls\ssl_internal.h **** #elif defined(MBEDTLS_SHA256_C)
 145:c:/Users/lenovo/Desktop/AIoT/first_day/firstday_afternoon/LiteOS_Lab_STM32_IoT/iot_link/network/dtls/mbedtls/mbedtls-2.16.2/include/mbedtls\ssl_internal.h **** #define MBEDTLS_SSL_MAC_ADD                 32  /* SHA-256 used for HMAC */
 146:c:/Users/lenovo/Desktop/AIoT/first_day/firstday_afternoon/LiteOS_Lab_STM32_IoT/iot_link/network/dtls/mbedtls/mbedtls-2.16.2/include/mbedtls\ssl_internal.h **** #else
 147:c:/Users/lenovo/Desktop/AIoT/first_day/firstday_afternoon/LiteOS_Lab_STM32_IoT/iot_link/network/dtls/mbedtls/mbedtls-2.16.2/include/mbedtls\ssl_internal.h **** #define MBEDTLS_SSL_MAC_ADD                 20  /* SHA-1   used for HMAC */
 148:c:/Users/lenovo/Desktop/AIoT/first_day/firstday_afternoon/LiteOS_Lab_STM32_IoT/iot_link/network/dtls/mbedtls/mbedtls-2.16.2/include/mbedtls\ssl_internal.h **** #endif
ARM GAS  C:\Users\lenovo\AppData\Local\Temp\ccSoL50u.s 			page 14


 149:c:/Users/lenovo/Desktop/AIoT/first_day/firstday_afternoon/LiteOS_Lab_STM32_IoT/iot_link/network/dtls/mbedtls/mbedtls-2.16.2/include/mbedtls\ssl_internal.h **** #else
 150:c:/Users/lenovo/Desktop/AIoT/first_day/firstday_afternoon/LiteOS_Lab_STM32_IoT/iot_link/network/dtls/mbedtls/mbedtls-2.16.2/include/mbedtls\ssl_internal.h **** /* AEAD ciphersuites: GCM and CCM use a 128 bits tag */
 151:c:/Users/lenovo/Desktop/AIoT/first_day/firstday_afternoon/LiteOS_Lab_STM32_IoT/iot_link/network/dtls/mbedtls/mbedtls-2.16.2/include/mbedtls\ssl_internal.h **** #define MBEDTLS_SSL_MAC_ADD                 16
 152:c:/Users/lenovo/Desktop/AIoT/first_day/firstday_afternoon/LiteOS_Lab_STM32_IoT/iot_link/network/dtls/mbedtls/mbedtls-2.16.2/include/mbedtls\ssl_internal.h **** #endif
 153:c:/Users/lenovo/Desktop/AIoT/first_day/firstday_afternoon/LiteOS_Lab_STM32_IoT/iot_link/network/dtls/mbedtls/mbedtls-2.16.2/include/mbedtls\ssl_internal.h **** 
 154:c:/Users/lenovo/Desktop/AIoT/first_day/firstday_afternoon/LiteOS_Lab_STM32_IoT/iot_link/network/dtls/mbedtls/mbedtls-2.16.2/include/mbedtls\ssl_internal.h **** #if defined(MBEDTLS_CIPHER_MODE_CBC)
 155:c:/Users/lenovo/Desktop/AIoT/first_day/firstday_afternoon/LiteOS_Lab_STM32_IoT/iot_link/network/dtls/mbedtls/mbedtls-2.16.2/include/mbedtls\ssl_internal.h **** #define MBEDTLS_SSL_PADDING_ADD            256
 156:c:/Users/lenovo/Desktop/AIoT/first_day/firstday_afternoon/LiteOS_Lab_STM32_IoT/iot_link/network/dtls/mbedtls/mbedtls-2.16.2/include/mbedtls\ssl_internal.h **** #else
 157:c:/Users/lenovo/Desktop/AIoT/first_day/firstday_afternoon/LiteOS_Lab_STM32_IoT/iot_link/network/dtls/mbedtls/mbedtls-2.16.2/include/mbedtls\ssl_internal.h **** #define MBEDTLS_SSL_PADDING_ADD              0
 158:c:/Users/lenovo/Desktop/AIoT/first_day/firstday_afternoon/LiteOS_Lab_STM32_IoT/iot_link/network/dtls/mbedtls/mbedtls-2.16.2/include/mbedtls\ssl_internal.h **** #endif
 159:c:/Users/lenovo/Desktop/AIoT/first_day/firstday_afternoon/LiteOS_Lab_STM32_IoT/iot_link/network/dtls/mbedtls/mbedtls-2.16.2/include/mbedtls\ssl_internal.h **** 
 160:c:/Users/lenovo/Desktop/AIoT/first_day/firstday_afternoon/LiteOS_Lab_STM32_IoT/iot_link/network/dtls/mbedtls/mbedtls-2.16.2/include/mbedtls\ssl_internal.h **** #define MBEDTLS_SSL_PAYLOAD_OVERHEAD ( MBEDTLS_SSL_COMPRESSION_ADD +    \
 161:c:/Users/lenovo/Desktop/AIoT/first_day/firstday_afternoon/LiteOS_Lab_STM32_IoT/iot_link/network/dtls/mbedtls/mbedtls-2.16.2/include/mbedtls\ssl_internal.h ****                                        MBEDTLS_MAX_IV_LENGTH +          \
 162:c:/Users/lenovo/Desktop/AIoT/first_day/firstday_afternoon/LiteOS_Lab_STM32_IoT/iot_link/network/dtls/mbedtls/mbedtls-2.16.2/include/mbedtls\ssl_internal.h ****                                        MBEDTLS_SSL_MAC_ADD +            \
 163:c:/Users/lenovo/Desktop/AIoT/first_day/firstday_afternoon/LiteOS_Lab_STM32_IoT/iot_link/network/dtls/mbedtls/mbedtls-2.16.2/include/mbedtls\ssl_internal.h ****                                        MBEDTLS_SSL_PADDING_ADD          \
 164:c:/Users/lenovo/Desktop/AIoT/first_day/firstday_afternoon/LiteOS_Lab_STM32_IoT/iot_link/network/dtls/mbedtls/mbedtls-2.16.2/include/mbedtls\ssl_internal.h ****                                        )
 165:c:/Users/lenovo/Desktop/AIoT/first_day/firstday_afternoon/LiteOS_Lab_STM32_IoT/iot_link/network/dtls/mbedtls/mbedtls-2.16.2/include/mbedtls\ssl_internal.h **** 
 166:c:/Users/lenovo/Desktop/AIoT/first_day/firstday_afternoon/LiteOS_Lab_STM32_IoT/iot_link/network/dtls/mbedtls/mbedtls-2.16.2/include/mbedtls\ssl_internal.h **** #define MBEDTLS_SSL_IN_PAYLOAD_LEN ( MBEDTLS_SSL_PAYLOAD_OVERHEAD + \
 167:c:/Users/lenovo/Desktop/AIoT/first_day/firstday_afternoon/LiteOS_Lab_STM32_IoT/iot_link/network/dtls/mbedtls/mbedtls-2.16.2/include/mbedtls\ssl_internal.h ****                                      ( MBEDTLS_SSL_IN_CONTENT_LEN ) )
 168:c:/Users/lenovo/Desktop/AIoT/first_day/firstday_afternoon/LiteOS_Lab_STM32_IoT/iot_link/network/dtls/mbedtls/mbedtls-2.16.2/include/mbedtls\ssl_internal.h **** 
 169:c:/Users/lenovo/Desktop/AIoT/first_day/firstday_afternoon/LiteOS_Lab_STM32_IoT/iot_link/network/dtls/mbedtls/mbedtls-2.16.2/include/mbedtls\ssl_internal.h **** #define MBEDTLS_SSL_OUT_PAYLOAD_LEN ( MBEDTLS_SSL_PAYLOAD_OVERHEAD + \
 170:c:/Users/lenovo/Desktop/AIoT/first_day/firstday_afternoon/LiteOS_Lab_STM32_IoT/iot_link/network/dtls/mbedtls/mbedtls-2.16.2/include/mbedtls\ssl_internal.h ****                                       ( MBEDTLS_SSL_OUT_CONTENT_LEN ) )
 171:c:/Users/lenovo/Desktop/AIoT/first_day/firstday_afternoon/LiteOS_Lab_STM32_IoT/iot_link/network/dtls/mbedtls/mbedtls-2.16.2/include/mbedtls\ssl_internal.h **** 
 172:c:/Users/lenovo/Desktop/AIoT/first_day/firstday_afternoon/LiteOS_Lab_STM32_IoT/iot_link/network/dtls/mbedtls/mbedtls-2.16.2/include/mbedtls\ssl_internal.h **** /* The maximum number of buffered handshake messages. */
 173:c:/Users/lenovo/Desktop/AIoT/first_day/firstday_afternoon/LiteOS_Lab_STM32_IoT/iot_link/network/dtls/mbedtls/mbedtls-2.16.2/include/mbedtls\ssl_internal.h **** #define MBEDTLS_SSL_MAX_BUFFERED_HS 4
 174:c:/Users/lenovo/Desktop/AIoT/first_day/firstday_afternoon/LiteOS_Lab_STM32_IoT/iot_link/network/dtls/mbedtls/mbedtls-2.16.2/include/mbedtls\ssl_internal.h **** 
 175:c:/Users/lenovo/Desktop/AIoT/first_day/firstday_afternoon/LiteOS_Lab_STM32_IoT/iot_link/network/dtls/mbedtls/mbedtls-2.16.2/include/mbedtls\ssl_internal.h **** /* Maximum length we can advertise as our max content length for
 176:c:/Users/lenovo/Desktop/AIoT/first_day/firstday_afternoon/LiteOS_Lab_STM32_IoT/iot_link/network/dtls/mbedtls/mbedtls-2.16.2/include/mbedtls\ssl_internal.h ****    RFC 6066 max_fragment_length extension negotiation purposes
 177:c:/Users/lenovo/Desktop/AIoT/first_day/firstday_afternoon/LiteOS_Lab_STM32_IoT/iot_link/network/dtls/mbedtls/mbedtls-2.16.2/include/mbedtls\ssl_internal.h ****    (the lesser of both sizes, if they are unequal.)
 178:c:/Users/lenovo/Desktop/AIoT/first_day/firstday_afternoon/LiteOS_Lab_STM32_IoT/iot_link/network/dtls/mbedtls/mbedtls-2.16.2/include/mbedtls\ssl_internal.h ****  */
 179:c:/Users/lenovo/Desktop/AIoT/first_day/firstday_afternoon/LiteOS_Lab_STM32_IoT/iot_link/network/dtls/mbedtls/mbedtls-2.16.2/include/mbedtls\ssl_internal.h **** #define MBEDTLS_TLS_EXT_ADV_CONTENT_LEN (                            \
 180:c:/Users/lenovo/Desktop/AIoT/first_day/firstday_afternoon/LiteOS_Lab_STM32_IoT/iot_link/network/dtls/mbedtls/mbedtls-2.16.2/include/mbedtls\ssl_internal.h ****         (MBEDTLS_SSL_IN_CONTENT_LEN > MBEDTLS_SSL_OUT_CONTENT_LEN)   \
 181:c:/Users/lenovo/Desktop/AIoT/first_day/firstday_afternoon/LiteOS_Lab_STM32_IoT/iot_link/network/dtls/mbedtls/mbedtls-2.16.2/include/mbedtls\ssl_internal.h ****         ? ( MBEDTLS_SSL_OUT_CONTENT_LEN )                            \
 182:c:/Users/lenovo/Desktop/AIoT/first_day/firstday_afternoon/LiteOS_Lab_STM32_IoT/iot_link/network/dtls/mbedtls/mbedtls-2.16.2/include/mbedtls\ssl_internal.h ****         : ( MBEDTLS_SSL_IN_CONTENT_LEN )                             \
 183:c:/Users/lenovo/Desktop/AIoT/first_day/firstday_afternoon/LiteOS_Lab_STM32_IoT/iot_link/network/dtls/mbedtls/mbedtls-2.16.2/include/mbedtls\ssl_internal.h ****         )
 184:c:/Users/lenovo/Desktop/AIoT/first_day/firstday_afternoon/LiteOS_Lab_STM32_IoT/iot_link/network/dtls/mbedtls/mbedtls-2.16.2/include/mbedtls\ssl_internal.h **** 
 185:c:/Users/lenovo/Desktop/AIoT/first_day/firstday_afternoon/LiteOS_Lab_STM32_IoT/iot_link/network/dtls/mbedtls/mbedtls-2.16.2/include/mbedtls\ssl_internal.h **** /*
 186:c:/Users/lenovo/Desktop/AIoT/first_day/firstday_afternoon/LiteOS_Lab_STM32_IoT/iot_link/network/dtls/mbedtls/mbedtls-2.16.2/include/mbedtls\ssl_internal.h ****  * Check that we obey the standard's message size bounds
 187:c:/Users/lenovo/Desktop/AIoT/first_day/firstday_afternoon/LiteOS_Lab_STM32_IoT/iot_link/network/dtls/mbedtls/mbedtls-2.16.2/include/mbedtls\ssl_internal.h ****  */
 188:c:/Users/lenovo/Desktop/AIoT/first_day/firstday_afternoon/LiteOS_Lab_STM32_IoT/iot_link/network/dtls/mbedtls/mbedtls-2.16.2/include/mbedtls\ssl_internal.h **** 
 189:c:/Users/lenovo/Desktop/AIoT/first_day/firstday_afternoon/LiteOS_Lab_STM32_IoT/iot_link/network/dtls/mbedtls/mbedtls-2.16.2/include/mbedtls\ssl_internal.h **** #if MBEDTLS_SSL_MAX_CONTENT_LEN > 16384
 190:c:/Users/lenovo/Desktop/AIoT/first_day/firstday_afternoon/LiteOS_Lab_STM32_IoT/iot_link/network/dtls/mbedtls/mbedtls-2.16.2/include/mbedtls\ssl_internal.h **** #error "Bad configuration - record content too large."
 191:c:/Users/lenovo/Desktop/AIoT/first_day/firstday_afternoon/LiteOS_Lab_STM32_IoT/iot_link/network/dtls/mbedtls/mbedtls-2.16.2/include/mbedtls\ssl_internal.h **** #endif
 192:c:/Users/lenovo/Desktop/AIoT/first_day/firstday_afternoon/LiteOS_Lab_STM32_IoT/iot_link/network/dtls/mbedtls/mbedtls-2.16.2/include/mbedtls\ssl_internal.h **** 
 193:c:/Users/lenovo/Desktop/AIoT/first_day/firstday_afternoon/LiteOS_Lab_STM32_IoT/iot_link/network/dtls/mbedtls/mbedtls-2.16.2/include/mbedtls\ssl_internal.h **** #if MBEDTLS_SSL_IN_CONTENT_LEN > MBEDTLS_SSL_MAX_CONTENT_LEN
 194:c:/Users/lenovo/Desktop/AIoT/first_day/firstday_afternoon/LiteOS_Lab_STM32_IoT/iot_link/network/dtls/mbedtls/mbedtls-2.16.2/include/mbedtls\ssl_internal.h **** #error "Bad configuration - incoming record content should not be larger than MBEDTLS_SSL_MAX_CONTE
 195:c:/Users/lenovo/Desktop/AIoT/first_day/firstday_afternoon/LiteOS_Lab_STM32_IoT/iot_link/network/dtls/mbedtls/mbedtls-2.16.2/include/mbedtls\ssl_internal.h **** #endif
 196:c:/Users/lenovo/Desktop/AIoT/first_day/firstday_afternoon/LiteOS_Lab_STM32_IoT/iot_link/network/dtls/mbedtls/mbedtls-2.16.2/include/mbedtls\ssl_internal.h **** 
 197:c:/Users/lenovo/Desktop/AIoT/first_day/firstday_afternoon/LiteOS_Lab_STM32_IoT/iot_link/network/dtls/mbedtls/mbedtls-2.16.2/include/mbedtls\ssl_internal.h **** #if MBEDTLS_SSL_OUT_CONTENT_LEN > MBEDTLS_SSL_MAX_CONTENT_LEN
 198:c:/Users/lenovo/Desktop/AIoT/first_day/firstday_afternoon/LiteOS_Lab_STM32_IoT/iot_link/network/dtls/mbedtls/mbedtls-2.16.2/include/mbedtls\ssl_internal.h **** #error "Bad configuration - outgoing record content should not be larger than MBEDTLS_SSL_MAX_CONTE
 199:c:/Users/lenovo/Desktop/AIoT/first_day/firstday_afternoon/LiteOS_Lab_STM32_IoT/iot_link/network/dtls/mbedtls/mbedtls-2.16.2/include/mbedtls\ssl_internal.h **** #endif
 200:c:/Users/lenovo/Desktop/AIoT/first_day/firstday_afternoon/LiteOS_Lab_STM32_IoT/iot_link/network/dtls/mbedtls/mbedtls-2.16.2/include/mbedtls\ssl_internal.h **** 
 201:c:/Users/lenovo/Desktop/AIoT/first_day/firstday_afternoon/LiteOS_Lab_STM32_IoT/iot_link/network/dtls/mbedtls/mbedtls-2.16.2/include/mbedtls\ssl_internal.h **** #if MBEDTLS_SSL_IN_PAYLOAD_LEN > MBEDTLS_SSL_MAX_CONTENT_LEN + 2048
 202:c:/Users/lenovo/Desktop/AIoT/first_day/firstday_afternoon/LiteOS_Lab_STM32_IoT/iot_link/network/dtls/mbedtls/mbedtls-2.16.2/include/mbedtls\ssl_internal.h **** #error "Bad configuration - incoming protected record payload too large."
 203:c:/Users/lenovo/Desktop/AIoT/first_day/firstday_afternoon/LiteOS_Lab_STM32_IoT/iot_link/network/dtls/mbedtls/mbedtls-2.16.2/include/mbedtls\ssl_internal.h **** #endif
 204:c:/Users/lenovo/Desktop/AIoT/first_day/firstday_afternoon/LiteOS_Lab_STM32_IoT/iot_link/network/dtls/mbedtls/mbedtls-2.16.2/include/mbedtls\ssl_internal.h **** 
 205:c:/Users/lenovo/Desktop/AIoT/first_day/firstday_afternoon/LiteOS_Lab_STM32_IoT/iot_link/network/dtls/mbedtls/mbedtls-2.16.2/include/mbedtls\ssl_internal.h **** #if MBEDTLS_SSL_OUT_PAYLOAD_LEN > MBEDTLS_SSL_MAX_CONTENT_LEN + 2048
ARM GAS  C:\Users\lenovo\AppData\Local\Temp\ccSoL50u.s 			page 15


 206:c:/Users/lenovo/Desktop/AIoT/first_day/firstday_afternoon/LiteOS_Lab_STM32_IoT/iot_link/network/dtls/mbedtls/mbedtls-2.16.2/include/mbedtls\ssl_internal.h **** #error "Bad configuration - outgoing protected record payload too large."
 207:c:/Users/lenovo/Desktop/AIoT/first_day/firstday_afternoon/LiteOS_Lab_STM32_IoT/iot_link/network/dtls/mbedtls/mbedtls-2.16.2/include/mbedtls\ssl_internal.h **** #endif
 208:c:/Users/lenovo/Desktop/AIoT/first_day/firstday_afternoon/LiteOS_Lab_STM32_IoT/iot_link/network/dtls/mbedtls/mbedtls-2.16.2/include/mbedtls\ssl_internal.h **** 
 209:c:/Users/lenovo/Desktop/AIoT/first_day/firstday_afternoon/LiteOS_Lab_STM32_IoT/iot_link/network/dtls/mbedtls/mbedtls-2.16.2/include/mbedtls\ssl_internal.h **** /* Calculate buffer sizes */
 210:c:/Users/lenovo/Desktop/AIoT/first_day/firstday_afternoon/LiteOS_Lab_STM32_IoT/iot_link/network/dtls/mbedtls/mbedtls-2.16.2/include/mbedtls\ssl_internal.h **** 
 211:c:/Users/lenovo/Desktop/AIoT/first_day/firstday_afternoon/LiteOS_Lab_STM32_IoT/iot_link/network/dtls/mbedtls/mbedtls-2.16.2/include/mbedtls\ssl_internal.h **** /* Note: Even though the TLS record header is only 5 bytes
 212:c:/Users/lenovo/Desktop/AIoT/first_day/firstday_afternoon/LiteOS_Lab_STM32_IoT/iot_link/network/dtls/mbedtls/mbedtls-2.16.2/include/mbedtls\ssl_internal.h ****    long, we're internally using 8 bytes to store the
 213:c:/Users/lenovo/Desktop/AIoT/first_day/firstday_afternoon/LiteOS_Lab_STM32_IoT/iot_link/network/dtls/mbedtls/mbedtls-2.16.2/include/mbedtls\ssl_internal.h ****    implicit sequence number. */
 214:c:/Users/lenovo/Desktop/AIoT/first_day/firstday_afternoon/LiteOS_Lab_STM32_IoT/iot_link/network/dtls/mbedtls/mbedtls-2.16.2/include/mbedtls\ssl_internal.h **** #define MBEDTLS_SSL_HEADER_LEN 13
 215:c:/Users/lenovo/Desktop/AIoT/first_day/firstday_afternoon/LiteOS_Lab_STM32_IoT/iot_link/network/dtls/mbedtls/mbedtls-2.16.2/include/mbedtls\ssl_internal.h **** 
 216:c:/Users/lenovo/Desktop/AIoT/first_day/firstday_afternoon/LiteOS_Lab_STM32_IoT/iot_link/network/dtls/mbedtls/mbedtls-2.16.2/include/mbedtls\ssl_internal.h **** #define MBEDTLS_SSL_IN_BUFFER_LEN  \
 217:c:/Users/lenovo/Desktop/AIoT/first_day/firstday_afternoon/LiteOS_Lab_STM32_IoT/iot_link/network/dtls/mbedtls/mbedtls-2.16.2/include/mbedtls\ssl_internal.h ****     ( ( MBEDTLS_SSL_HEADER_LEN ) + ( MBEDTLS_SSL_IN_PAYLOAD_LEN ) )
 218:c:/Users/lenovo/Desktop/AIoT/first_day/firstday_afternoon/LiteOS_Lab_STM32_IoT/iot_link/network/dtls/mbedtls/mbedtls-2.16.2/include/mbedtls\ssl_internal.h **** 
 219:c:/Users/lenovo/Desktop/AIoT/first_day/firstday_afternoon/LiteOS_Lab_STM32_IoT/iot_link/network/dtls/mbedtls/mbedtls-2.16.2/include/mbedtls\ssl_internal.h **** #define MBEDTLS_SSL_OUT_BUFFER_LEN  \
 220:c:/Users/lenovo/Desktop/AIoT/first_day/firstday_afternoon/LiteOS_Lab_STM32_IoT/iot_link/network/dtls/mbedtls/mbedtls-2.16.2/include/mbedtls\ssl_internal.h ****     ( ( MBEDTLS_SSL_HEADER_LEN ) + ( MBEDTLS_SSL_OUT_PAYLOAD_LEN ) )
 221:c:/Users/lenovo/Desktop/AIoT/first_day/firstday_afternoon/LiteOS_Lab_STM32_IoT/iot_link/network/dtls/mbedtls/mbedtls-2.16.2/include/mbedtls\ssl_internal.h **** 
 222:c:/Users/lenovo/Desktop/AIoT/first_day/firstday_afternoon/LiteOS_Lab_STM32_IoT/iot_link/network/dtls/mbedtls/mbedtls-2.16.2/include/mbedtls\ssl_internal.h **** #ifdef MBEDTLS_ZLIB_SUPPORT
 223:c:/Users/lenovo/Desktop/AIoT/first_day/firstday_afternoon/LiteOS_Lab_STM32_IoT/iot_link/network/dtls/mbedtls/mbedtls-2.16.2/include/mbedtls\ssl_internal.h **** /* Compression buffer holds both IN and OUT buffers, so should be size of the larger */
 224:c:/Users/lenovo/Desktop/AIoT/first_day/firstday_afternoon/LiteOS_Lab_STM32_IoT/iot_link/network/dtls/mbedtls/mbedtls-2.16.2/include/mbedtls\ssl_internal.h **** #define MBEDTLS_SSL_COMPRESS_BUFFER_LEN (                               \
 225:c:/Users/lenovo/Desktop/AIoT/first_day/firstday_afternoon/LiteOS_Lab_STM32_IoT/iot_link/network/dtls/mbedtls/mbedtls-2.16.2/include/mbedtls\ssl_internal.h ****         ( MBEDTLS_SSL_IN_BUFFER_LEN > MBEDTLS_SSL_OUT_BUFFER_LEN )      \
 226:c:/Users/lenovo/Desktop/AIoT/first_day/firstday_afternoon/LiteOS_Lab_STM32_IoT/iot_link/network/dtls/mbedtls/mbedtls-2.16.2/include/mbedtls\ssl_internal.h ****         ? MBEDTLS_SSL_IN_BUFFER_LEN                                     \
 227:c:/Users/lenovo/Desktop/AIoT/first_day/firstday_afternoon/LiteOS_Lab_STM32_IoT/iot_link/network/dtls/mbedtls/mbedtls-2.16.2/include/mbedtls\ssl_internal.h ****         : MBEDTLS_SSL_OUT_BUFFER_LEN                                    \
 228:c:/Users/lenovo/Desktop/AIoT/first_day/firstday_afternoon/LiteOS_Lab_STM32_IoT/iot_link/network/dtls/mbedtls/mbedtls-2.16.2/include/mbedtls\ssl_internal.h ****         )
 229:c:/Users/lenovo/Desktop/AIoT/first_day/firstday_afternoon/LiteOS_Lab_STM32_IoT/iot_link/network/dtls/mbedtls/mbedtls-2.16.2/include/mbedtls\ssl_internal.h **** #endif
 230:c:/Users/lenovo/Desktop/AIoT/first_day/firstday_afternoon/LiteOS_Lab_STM32_IoT/iot_link/network/dtls/mbedtls/mbedtls-2.16.2/include/mbedtls\ssl_internal.h **** 
 231:c:/Users/lenovo/Desktop/AIoT/first_day/firstday_afternoon/LiteOS_Lab_STM32_IoT/iot_link/network/dtls/mbedtls/mbedtls-2.16.2/include/mbedtls\ssl_internal.h **** /*
 232:c:/Users/lenovo/Desktop/AIoT/first_day/firstday_afternoon/LiteOS_Lab_STM32_IoT/iot_link/network/dtls/mbedtls/mbedtls-2.16.2/include/mbedtls\ssl_internal.h ****  * TLS extension flags (for extensions with outgoing ServerHello content
 233:c:/Users/lenovo/Desktop/AIoT/first_day/firstday_afternoon/LiteOS_Lab_STM32_IoT/iot_link/network/dtls/mbedtls/mbedtls-2.16.2/include/mbedtls\ssl_internal.h ****  * that need it (e.g. for RENEGOTIATION_INFO the server already knows because
 234:c:/Users/lenovo/Desktop/AIoT/first_day/firstday_afternoon/LiteOS_Lab_STM32_IoT/iot_link/network/dtls/mbedtls/mbedtls-2.16.2/include/mbedtls\ssl_internal.h ****  * of state of the renegotiation flag, so no indicator is required)
 235:c:/Users/lenovo/Desktop/AIoT/first_day/firstday_afternoon/LiteOS_Lab_STM32_IoT/iot_link/network/dtls/mbedtls/mbedtls-2.16.2/include/mbedtls\ssl_internal.h ****  */
 236:c:/Users/lenovo/Desktop/AIoT/first_day/firstday_afternoon/LiteOS_Lab_STM32_IoT/iot_link/network/dtls/mbedtls/mbedtls-2.16.2/include/mbedtls\ssl_internal.h **** #define MBEDTLS_TLS_EXT_SUPPORTED_POINT_FORMATS_PRESENT (1 << 0)
 237:c:/Users/lenovo/Desktop/AIoT/first_day/firstday_afternoon/LiteOS_Lab_STM32_IoT/iot_link/network/dtls/mbedtls/mbedtls-2.16.2/include/mbedtls\ssl_internal.h **** #define MBEDTLS_TLS_EXT_ECJPAKE_KKPP_OK                 (1 << 1)
 238:c:/Users/lenovo/Desktop/AIoT/first_day/firstday_afternoon/LiteOS_Lab_STM32_IoT/iot_link/network/dtls/mbedtls/mbedtls-2.16.2/include/mbedtls\ssl_internal.h **** 
 239:c:/Users/lenovo/Desktop/AIoT/first_day/firstday_afternoon/LiteOS_Lab_STM32_IoT/iot_link/network/dtls/mbedtls/mbedtls-2.16.2/include/mbedtls\ssl_internal.h **** #ifdef __cplusplus
 240:c:/Users/lenovo/Desktop/AIoT/first_day/firstday_afternoon/LiteOS_Lab_STM32_IoT/iot_link/network/dtls/mbedtls/mbedtls-2.16.2/include/mbedtls\ssl_internal.h **** extern "C" {
 241:c:/Users/lenovo/Desktop/AIoT/first_day/firstday_afternoon/LiteOS_Lab_STM32_IoT/iot_link/network/dtls/mbedtls/mbedtls-2.16.2/include/mbedtls\ssl_internal.h **** #endif
 242:c:/Users/lenovo/Desktop/AIoT/first_day/firstday_afternoon/LiteOS_Lab_STM32_IoT/iot_link/network/dtls/mbedtls/mbedtls-2.16.2/include/mbedtls\ssl_internal.h **** 
 243:c:/Users/lenovo/Desktop/AIoT/first_day/firstday_afternoon/LiteOS_Lab_STM32_IoT/iot_link/network/dtls/mbedtls/mbedtls-2.16.2/include/mbedtls\ssl_internal.h **** #if defined(MBEDTLS_SSL_PROTO_TLS1_2) && \
 244:c:/Users/lenovo/Desktop/AIoT/first_day/firstday_afternoon/LiteOS_Lab_STM32_IoT/iot_link/network/dtls/mbedtls/mbedtls-2.16.2/include/mbedtls\ssl_internal.h ****     defined(MBEDTLS_KEY_EXCHANGE__WITH_CERT__ENABLED)
 245:c:/Users/lenovo/Desktop/AIoT/first_day/firstday_afternoon/LiteOS_Lab_STM32_IoT/iot_link/network/dtls/mbedtls/mbedtls-2.16.2/include/mbedtls\ssl_internal.h **** /*
 246:c:/Users/lenovo/Desktop/AIoT/first_day/firstday_afternoon/LiteOS_Lab_STM32_IoT/iot_link/network/dtls/mbedtls/mbedtls-2.16.2/include/mbedtls\ssl_internal.h ****  * Abstraction for a grid of allowed signature-hash-algorithm pairs.
 247:c:/Users/lenovo/Desktop/AIoT/first_day/firstday_afternoon/LiteOS_Lab_STM32_IoT/iot_link/network/dtls/mbedtls/mbedtls-2.16.2/include/mbedtls\ssl_internal.h ****  */
 248:c:/Users/lenovo/Desktop/AIoT/first_day/firstday_afternoon/LiteOS_Lab_STM32_IoT/iot_link/network/dtls/mbedtls/mbedtls-2.16.2/include/mbedtls\ssl_internal.h **** struct mbedtls_ssl_sig_hash_set_t
 249:c:/Users/lenovo/Desktop/AIoT/first_day/firstday_afternoon/LiteOS_Lab_STM32_IoT/iot_link/network/dtls/mbedtls/mbedtls-2.16.2/include/mbedtls\ssl_internal.h **** {
 250:c:/Users/lenovo/Desktop/AIoT/first_day/firstday_afternoon/LiteOS_Lab_STM32_IoT/iot_link/network/dtls/mbedtls/mbedtls-2.16.2/include/mbedtls\ssl_internal.h ****     /* At the moment, we only need to remember a single suitable
 251:c:/Users/lenovo/Desktop/AIoT/first_day/firstday_afternoon/LiteOS_Lab_STM32_IoT/iot_link/network/dtls/mbedtls/mbedtls-2.16.2/include/mbedtls\ssl_internal.h ****      * hash algorithm per signature algorithm. As long as that's
 252:c:/Users/lenovo/Desktop/AIoT/first_day/firstday_afternoon/LiteOS_Lab_STM32_IoT/iot_link/network/dtls/mbedtls/mbedtls-2.16.2/include/mbedtls\ssl_internal.h ****      * the case - and we don't need a general lookup function -
 253:c:/Users/lenovo/Desktop/AIoT/first_day/firstday_afternoon/LiteOS_Lab_STM32_IoT/iot_link/network/dtls/mbedtls/mbedtls-2.16.2/include/mbedtls\ssl_internal.h ****      * we can implement the sig-hash-set as a map from signatures
 254:c:/Users/lenovo/Desktop/AIoT/first_day/firstday_afternoon/LiteOS_Lab_STM32_IoT/iot_link/network/dtls/mbedtls/mbedtls-2.16.2/include/mbedtls\ssl_internal.h ****      * to hash algorithms. */
 255:c:/Users/lenovo/Desktop/AIoT/first_day/firstday_afternoon/LiteOS_Lab_STM32_IoT/iot_link/network/dtls/mbedtls/mbedtls-2.16.2/include/mbedtls\ssl_internal.h ****     mbedtls_md_type_t rsa;
 256:c:/Users/lenovo/Desktop/AIoT/first_day/firstday_afternoon/LiteOS_Lab_STM32_IoT/iot_link/network/dtls/mbedtls/mbedtls-2.16.2/include/mbedtls\ssl_internal.h ****     mbedtls_md_type_t ecdsa;
 257:c:/Users/lenovo/Desktop/AIoT/first_day/firstday_afternoon/LiteOS_Lab_STM32_IoT/iot_link/network/dtls/mbedtls/mbedtls-2.16.2/include/mbedtls\ssl_internal.h **** };
 258:c:/Users/lenovo/Desktop/AIoT/first_day/firstday_afternoon/LiteOS_Lab_STM32_IoT/iot_link/network/dtls/mbedtls/mbedtls-2.16.2/include/mbedtls\ssl_internal.h **** #endif /* MBEDTLS_SSL_PROTO_TLS1_2 &&
 259:c:/Users/lenovo/Desktop/AIoT/first_day/firstday_afternoon/LiteOS_Lab_STM32_IoT/iot_link/network/dtls/mbedtls/mbedtls-2.16.2/include/mbedtls\ssl_internal.h ****           MBEDTLS_KEY_EXCHANGE__WITH_CERT__ENABLED */
 260:c:/Users/lenovo/Desktop/AIoT/first_day/firstday_afternoon/LiteOS_Lab_STM32_IoT/iot_link/network/dtls/mbedtls/mbedtls-2.16.2/include/mbedtls\ssl_internal.h **** 
 261:c:/Users/lenovo/Desktop/AIoT/first_day/firstday_afternoon/LiteOS_Lab_STM32_IoT/iot_link/network/dtls/mbedtls/mbedtls-2.16.2/include/mbedtls\ssl_internal.h **** /*
 262:c:/Users/lenovo/Desktop/AIoT/first_day/firstday_afternoon/LiteOS_Lab_STM32_IoT/iot_link/network/dtls/mbedtls/mbedtls-2.16.2/include/mbedtls\ssl_internal.h ****  * This structure contains the parameters only needed during handshake.
ARM GAS  C:\Users\lenovo\AppData\Local\Temp\ccSoL50u.s 			page 16


 263:c:/Users/lenovo/Desktop/AIoT/first_day/firstday_afternoon/LiteOS_Lab_STM32_IoT/iot_link/network/dtls/mbedtls/mbedtls-2.16.2/include/mbedtls\ssl_internal.h ****  */
 264:c:/Users/lenovo/Desktop/AIoT/first_day/firstday_afternoon/LiteOS_Lab_STM32_IoT/iot_link/network/dtls/mbedtls/mbedtls-2.16.2/include/mbedtls\ssl_internal.h **** struct mbedtls_ssl_handshake_params
 265:c:/Users/lenovo/Desktop/AIoT/first_day/firstday_afternoon/LiteOS_Lab_STM32_IoT/iot_link/network/dtls/mbedtls/mbedtls-2.16.2/include/mbedtls\ssl_internal.h **** {
 266:c:/Users/lenovo/Desktop/AIoT/first_day/firstday_afternoon/LiteOS_Lab_STM32_IoT/iot_link/network/dtls/mbedtls/mbedtls-2.16.2/include/mbedtls\ssl_internal.h ****     /*
 267:c:/Users/lenovo/Desktop/AIoT/first_day/firstday_afternoon/LiteOS_Lab_STM32_IoT/iot_link/network/dtls/mbedtls/mbedtls-2.16.2/include/mbedtls\ssl_internal.h ****      * Handshake specific crypto variables
 268:c:/Users/lenovo/Desktop/AIoT/first_day/firstday_afternoon/LiteOS_Lab_STM32_IoT/iot_link/network/dtls/mbedtls/mbedtls-2.16.2/include/mbedtls\ssl_internal.h ****      */
 269:c:/Users/lenovo/Desktop/AIoT/first_day/firstday_afternoon/LiteOS_Lab_STM32_IoT/iot_link/network/dtls/mbedtls/mbedtls-2.16.2/include/mbedtls\ssl_internal.h **** 
 270:c:/Users/lenovo/Desktop/AIoT/first_day/firstday_afternoon/LiteOS_Lab_STM32_IoT/iot_link/network/dtls/mbedtls/mbedtls-2.16.2/include/mbedtls\ssl_internal.h **** #if defined(MBEDTLS_SSL_PROTO_TLS1_2) && \
 271:c:/Users/lenovo/Desktop/AIoT/first_day/firstday_afternoon/LiteOS_Lab_STM32_IoT/iot_link/network/dtls/mbedtls/mbedtls-2.16.2/include/mbedtls\ssl_internal.h ****     defined(MBEDTLS_KEY_EXCHANGE__WITH_CERT__ENABLED)
 272:c:/Users/lenovo/Desktop/AIoT/first_day/firstday_afternoon/LiteOS_Lab_STM32_IoT/iot_link/network/dtls/mbedtls/mbedtls-2.16.2/include/mbedtls\ssl_internal.h ****     mbedtls_ssl_sig_hash_set_t hash_algs;             /*!<  Set of suitable sig-hash pairs */
 273:c:/Users/lenovo/Desktop/AIoT/first_day/firstday_afternoon/LiteOS_Lab_STM32_IoT/iot_link/network/dtls/mbedtls/mbedtls-2.16.2/include/mbedtls\ssl_internal.h **** #endif
 274:c:/Users/lenovo/Desktop/AIoT/first_day/firstday_afternoon/LiteOS_Lab_STM32_IoT/iot_link/network/dtls/mbedtls/mbedtls-2.16.2/include/mbedtls\ssl_internal.h **** #if defined(MBEDTLS_DHM_C)
 275:c:/Users/lenovo/Desktop/AIoT/first_day/firstday_afternoon/LiteOS_Lab_STM32_IoT/iot_link/network/dtls/mbedtls/mbedtls-2.16.2/include/mbedtls\ssl_internal.h ****     mbedtls_dhm_context dhm_ctx;                /*!<  DHM key exchange        */
 276:c:/Users/lenovo/Desktop/AIoT/first_day/firstday_afternoon/LiteOS_Lab_STM32_IoT/iot_link/network/dtls/mbedtls/mbedtls-2.16.2/include/mbedtls\ssl_internal.h **** #endif
 277:c:/Users/lenovo/Desktop/AIoT/first_day/firstday_afternoon/LiteOS_Lab_STM32_IoT/iot_link/network/dtls/mbedtls/mbedtls-2.16.2/include/mbedtls\ssl_internal.h **** #if defined(MBEDTLS_ECDH_C)
 278:c:/Users/lenovo/Desktop/AIoT/first_day/firstday_afternoon/LiteOS_Lab_STM32_IoT/iot_link/network/dtls/mbedtls/mbedtls-2.16.2/include/mbedtls\ssl_internal.h ****     mbedtls_ecdh_context ecdh_ctx;              /*!<  ECDH key exchange       */
 279:c:/Users/lenovo/Desktop/AIoT/first_day/firstday_afternoon/LiteOS_Lab_STM32_IoT/iot_link/network/dtls/mbedtls/mbedtls-2.16.2/include/mbedtls\ssl_internal.h **** #endif
 280:c:/Users/lenovo/Desktop/AIoT/first_day/firstday_afternoon/LiteOS_Lab_STM32_IoT/iot_link/network/dtls/mbedtls/mbedtls-2.16.2/include/mbedtls\ssl_internal.h **** #if defined(MBEDTLS_KEY_EXCHANGE_ECJPAKE_ENABLED)
 281:c:/Users/lenovo/Desktop/AIoT/first_day/firstday_afternoon/LiteOS_Lab_STM32_IoT/iot_link/network/dtls/mbedtls/mbedtls-2.16.2/include/mbedtls\ssl_internal.h ****     mbedtls_ecjpake_context ecjpake_ctx;        /*!< EC J-PAKE key exchange */
 282:c:/Users/lenovo/Desktop/AIoT/first_day/firstday_afternoon/LiteOS_Lab_STM32_IoT/iot_link/network/dtls/mbedtls/mbedtls-2.16.2/include/mbedtls\ssl_internal.h **** #if defined(MBEDTLS_SSL_CLI_C)
 283:c:/Users/lenovo/Desktop/AIoT/first_day/firstday_afternoon/LiteOS_Lab_STM32_IoT/iot_link/network/dtls/mbedtls/mbedtls-2.16.2/include/mbedtls\ssl_internal.h ****     unsigned char *ecjpake_cache;               /*!< Cache for ClientHello ext */
 284:c:/Users/lenovo/Desktop/AIoT/first_day/firstday_afternoon/LiteOS_Lab_STM32_IoT/iot_link/network/dtls/mbedtls/mbedtls-2.16.2/include/mbedtls\ssl_internal.h ****     size_t ecjpake_cache_len;                   /*!< Length of cached data */
 285:c:/Users/lenovo/Desktop/AIoT/first_day/firstday_afternoon/LiteOS_Lab_STM32_IoT/iot_link/network/dtls/mbedtls/mbedtls-2.16.2/include/mbedtls\ssl_internal.h **** #endif
 286:c:/Users/lenovo/Desktop/AIoT/first_day/firstday_afternoon/LiteOS_Lab_STM32_IoT/iot_link/network/dtls/mbedtls/mbedtls-2.16.2/include/mbedtls\ssl_internal.h **** #endif /* MBEDTLS_KEY_EXCHANGE_ECJPAKE_ENABLED */
 287:c:/Users/lenovo/Desktop/AIoT/first_day/firstday_afternoon/LiteOS_Lab_STM32_IoT/iot_link/network/dtls/mbedtls/mbedtls-2.16.2/include/mbedtls\ssl_internal.h **** #if defined(MBEDTLS_ECDH_C) || defined(MBEDTLS_ECDSA_C) || \
 288:c:/Users/lenovo/Desktop/AIoT/first_day/firstday_afternoon/LiteOS_Lab_STM32_IoT/iot_link/network/dtls/mbedtls/mbedtls-2.16.2/include/mbedtls\ssl_internal.h ****     defined(MBEDTLS_KEY_EXCHANGE_ECJPAKE_ENABLED)
 289:c:/Users/lenovo/Desktop/AIoT/first_day/firstday_afternoon/LiteOS_Lab_STM32_IoT/iot_link/network/dtls/mbedtls/mbedtls-2.16.2/include/mbedtls\ssl_internal.h ****     const mbedtls_ecp_curve_info **curves;      /*!<  Supported elliptic curves */
 290:c:/Users/lenovo/Desktop/AIoT/first_day/firstday_afternoon/LiteOS_Lab_STM32_IoT/iot_link/network/dtls/mbedtls/mbedtls-2.16.2/include/mbedtls\ssl_internal.h **** #endif
 291:c:/Users/lenovo/Desktop/AIoT/first_day/firstday_afternoon/LiteOS_Lab_STM32_IoT/iot_link/network/dtls/mbedtls/mbedtls-2.16.2/include/mbedtls\ssl_internal.h **** #if defined(MBEDTLS_KEY_EXCHANGE__SOME__PSK_ENABLED)
 292:c:/Users/lenovo/Desktop/AIoT/first_day/firstday_afternoon/LiteOS_Lab_STM32_IoT/iot_link/network/dtls/mbedtls/mbedtls-2.16.2/include/mbedtls\ssl_internal.h ****     unsigned char *psk;                 /*!<  PSK from the callback         */
 293:c:/Users/lenovo/Desktop/AIoT/first_day/firstday_afternoon/LiteOS_Lab_STM32_IoT/iot_link/network/dtls/mbedtls/mbedtls-2.16.2/include/mbedtls\ssl_internal.h ****     size_t psk_len;                     /*!<  Length of PSK from callback   */
 294:c:/Users/lenovo/Desktop/AIoT/first_day/firstday_afternoon/LiteOS_Lab_STM32_IoT/iot_link/network/dtls/mbedtls/mbedtls-2.16.2/include/mbedtls\ssl_internal.h **** #endif
 295:c:/Users/lenovo/Desktop/AIoT/first_day/firstday_afternoon/LiteOS_Lab_STM32_IoT/iot_link/network/dtls/mbedtls/mbedtls-2.16.2/include/mbedtls\ssl_internal.h **** #if defined(MBEDTLS_X509_CRT_PARSE_C)
 296:c:/Users/lenovo/Desktop/AIoT/first_day/firstday_afternoon/LiteOS_Lab_STM32_IoT/iot_link/network/dtls/mbedtls/mbedtls-2.16.2/include/mbedtls\ssl_internal.h ****     mbedtls_ssl_key_cert *key_cert;     /*!< chosen key/cert pair (server)  */
 297:c:/Users/lenovo/Desktop/AIoT/first_day/firstday_afternoon/LiteOS_Lab_STM32_IoT/iot_link/network/dtls/mbedtls/mbedtls-2.16.2/include/mbedtls\ssl_internal.h **** #if defined(MBEDTLS_SSL_SERVER_NAME_INDICATION)
 298:c:/Users/lenovo/Desktop/AIoT/first_day/firstday_afternoon/LiteOS_Lab_STM32_IoT/iot_link/network/dtls/mbedtls/mbedtls-2.16.2/include/mbedtls\ssl_internal.h ****     int sni_authmode;                   /*!< authmode from SNI callback     */
 299:c:/Users/lenovo/Desktop/AIoT/first_day/firstday_afternoon/LiteOS_Lab_STM32_IoT/iot_link/network/dtls/mbedtls/mbedtls-2.16.2/include/mbedtls\ssl_internal.h ****     mbedtls_ssl_key_cert *sni_key_cert; /*!< key/cert list from SNI         */
 300:c:/Users/lenovo/Desktop/AIoT/first_day/firstday_afternoon/LiteOS_Lab_STM32_IoT/iot_link/network/dtls/mbedtls/mbedtls-2.16.2/include/mbedtls\ssl_internal.h ****     mbedtls_x509_crt *sni_ca_chain;     /*!< trusted CAs from SNI callback  */
 301:c:/Users/lenovo/Desktop/AIoT/first_day/firstday_afternoon/LiteOS_Lab_STM32_IoT/iot_link/network/dtls/mbedtls/mbedtls-2.16.2/include/mbedtls\ssl_internal.h ****     mbedtls_x509_crl *sni_ca_crl;       /*!< trusted CAs CRLs from SNI      */
 302:c:/Users/lenovo/Desktop/AIoT/first_day/firstday_afternoon/LiteOS_Lab_STM32_IoT/iot_link/network/dtls/mbedtls/mbedtls-2.16.2/include/mbedtls\ssl_internal.h **** #endif /* MBEDTLS_SSL_SERVER_NAME_INDICATION */
 303:c:/Users/lenovo/Desktop/AIoT/first_day/firstday_afternoon/LiteOS_Lab_STM32_IoT/iot_link/network/dtls/mbedtls/mbedtls-2.16.2/include/mbedtls\ssl_internal.h **** #endif /* MBEDTLS_X509_CRT_PARSE_C */
 304:c:/Users/lenovo/Desktop/AIoT/first_day/firstday_afternoon/LiteOS_Lab_STM32_IoT/iot_link/network/dtls/mbedtls/mbedtls-2.16.2/include/mbedtls\ssl_internal.h **** #if defined(MBEDTLS_SSL__ECP_RESTARTABLE)
 305:c:/Users/lenovo/Desktop/AIoT/first_day/firstday_afternoon/LiteOS_Lab_STM32_IoT/iot_link/network/dtls/mbedtls/mbedtls-2.16.2/include/mbedtls\ssl_internal.h ****     int ecrs_enabled;                   /*!< Handshake supports EC restart? */
 306:c:/Users/lenovo/Desktop/AIoT/first_day/firstday_afternoon/LiteOS_Lab_STM32_IoT/iot_link/network/dtls/mbedtls/mbedtls-2.16.2/include/mbedtls\ssl_internal.h ****     mbedtls_x509_crt_restart_ctx ecrs_ctx;  /*!< restart context            */
 307:c:/Users/lenovo/Desktop/AIoT/first_day/firstday_afternoon/LiteOS_Lab_STM32_IoT/iot_link/network/dtls/mbedtls/mbedtls-2.16.2/include/mbedtls\ssl_internal.h ****     enum { /* this complements ssl->state with info on intra-state operations */
 308:c:/Users/lenovo/Desktop/AIoT/first_day/firstday_afternoon/LiteOS_Lab_STM32_IoT/iot_link/network/dtls/mbedtls/mbedtls-2.16.2/include/mbedtls\ssl_internal.h ****         ssl_ecrs_none = 0,              /*!< nothing going on (yet)         */
 309:c:/Users/lenovo/Desktop/AIoT/first_day/firstday_afternoon/LiteOS_Lab_STM32_IoT/iot_link/network/dtls/mbedtls/mbedtls-2.16.2/include/mbedtls\ssl_internal.h ****         ssl_ecrs_crt_verify,            /*!< Certificate: crt_verify()      */
 310:c:/Users/lenovo/Desktop/AIoT/first_day/firstday_afternoon/LiteOS_Lab_STM32_IoT/iot_link/network/dtls/mbedtls/mbedtls-2.16.2/include/mbedtls\ssl_internal.h ****         ssl_ecrs_ske_start_processing,  /*!< ServerKeyExchange: pk_verify() */
 311:c:/Users/lenovo/Desktop/AIoT/first_day/firstday_afternoon/LiteOS_Lab_STM32_IoT/iot_link/network/dtls/mbedtls/mbedtls-2.16.2/include/mbedtls\ssl_internal.h ****         ssl_ecrs_cke_ecdh_calc_secret,  /*!< ClientKeyExchange: ECDH step 2 */
 312:c:/Users/lenovo/Desktop/AIoT/first_day/firstday_afternoon/LiteOS_Lab_STM32_IoT/iot_link/network/dtls/mbedtls/mbedtls-2.16.2/include/mbedtls\ssl_internal.h ****         ssl_ecrs_crt_vrfy_sign,         /*!< CertificateVerify: pk_sign()   */
 313:c:/Users/lenovo/Desktop/AIoT/first_day/firstday_afternoon/LiteOS_Lab_STM32_IoT/iot_link/network/dtls/mbedtls/mbedtls-2.16.2/include/mbedtls\ssl_internal.h ****     } ecrs_state;                       /*!< current (or last) operation    */
 314:c:/Users/lenovo/Desktop/AIoT/first_day/firstday_afternoon/LiteOS_Lab_STM32_IoT/iot_link/network/dtls/mbedtls/mbedtls-2.16.2/include/mbedtls\ssl_internal.h ****     size_t ecrs_n;                      /*!< place for saving a length      */
 315:c:/Users/lenovo/Desktop/AIoT/first_day/firstday_afternoon/LiteOS_Lab_STM32_IoT/iot_link/network/dtls/mbedtls/mbedtls-2.16.2/include/mbedtls\ssl_internal.h **** #endif
 316:c:/Users/lenovo/Desktop/AIoT/first_day/firstday_afternoon/LiteOS_Lab_STM32_IoT/iot_link/network/dtls/mbedtls/mbedtls-2.16.2/include/mbedtls\ssl_internal.h **** #if defined(MBEDTLS_SSL_PROTO_DTLS)
 317:c:/Users/lenovo/Desktop/AIoT/first_day/firstday_afternoon/LiteOS_Lab_STM32_IoT/iot_link/network/dtls/mbedtls/mbedtls-2.16.2/include/mbedtls\ssl_internal.h ****     unsigned int out_msg_seq;           /*!<  Outgoing handshake sequence number */
 318:c:/Users/lenovo/Desktop/AIoT/first_day/firstday_afternoon/LiteOS_Lab_STM32_IoT/iot_link/network/dtls/mbedtls/mbedtls-2.16.2/include/mbedtls\ssl_internal.h ****     unsigned int in_msg_seq;            /*!<  Incoming handshake sequence number */
 319:c:/Users/lenovo/Desktop/AIoT/first_day/firstday_afternoon/LiteOS_Lab_STM32_IoT/iot_link/network/dtls/mbedtls/mbedtls-2.16.2/include/mbedtls\ssl_internal.h **** 
ARM GAS  C:\Users\lenovo\AppData\Local\Temp\ccSoL50u.s 			page 17


 320:c:/Users/lenovo/Desktop/AIoT/first_day/firstday_afternoon/LiteOS_Lab_STM32_IoT/iot_link/network/dtls/mbedtls/mbedtls-2.16.2/include/mbedtls\ssl_internal.h ****     unsigned char *verify_cookie;       /*!<  Cli: HelloVerifyRequest cookie
 321:c:/Users/lenovo/Desktop/AIoT/first_day/firstday_afternoon/LiteOS_Lab_STM32_IoT/iot_link/network/dtls/mbedtls/mbedtls-2.16.2/include/mbedtls\ssl_internal.h ****                                               Srv: unused                    */
 322:c:/Users/lenovo/Desktop/AIoT/first_day/firstday_afternoon/LiteOS_Lab_STM32_IoT/iot_link/network/dtls/mbedtls/mbedtls-2.16.2/include/mbedtls\ssl_internal.h ****     unsigned char verify_cookie_len;    /*!<  Cli: cookie length
 323:c:/Users/lenovo/Desktop/AIoT/first_day/firstday_afternoon/LiteOS_Lab_STM32_IoT/iot_link/network/dtls/mbedtls/mbedtls-2.16.2/include/mbedtls\ssl_internal.h ****                                               Srv: flag for sending a cookie */
 324:c:/Users/lenovo/Desktop/AIoT/first_day/firstday_afternoon/LiteOS_Lab_STM32_IoT/iot_link/network/dtls/mbedtls/mbedtls-2.16.2/include/mbedtls\ssl_internal.h **** 
 325:c:/Users/lenovo/Desktop/AIoT/first_day/firstday_afternoon/LiteOS_Lab_STM32_IoT/iot_link/network/dtls/mbedtls/mbedtls-2.16.2/include/mbedtls\ssl_internal.h ****     uint32_t retransmit_timeout;        /*!<  Current value of timeout       */
 326:c:/Users/lenovo/Desktop/AIoT/first_day/firstday_afternoon/LiteOS_Lab_STM32_IoT/iot_link/network/dtls/mbedtls/mbedtls-2.16.2/include/mbedtls\ssl_internal.h ****     unsigned char retransmit_state;     /*!<  Retransmission state           */
 327:c:/Users/lenovo/Desktop/AIoT/first_day/firstday_afternoon/LiteOS_Lab_STM32_IoT/iot_link/network/dtls/mbedtls/mbedtls-2.16.2/include/mbedtls\ssl_internal.h ****     mbedtls_ssl_flight_item *flight;    /*!<  Current outgoing flight        */
 328:c:/Users/lenovo/Desktop/AIoT/first_day/firstday_afternoon/LiteOS_Lab_STM32_IoT/iot_link/network/dtls/mbedtls/mbedtls-2.16.2/include/mbedtls\ssl_internal.h ****     mbedtls_ssl_flight_item *cur_msg;   /*!<  Current message in flight      */
 329:c:/Users/lenovo/Desktop/AIoT/first_day/firstday_afternoon/LiteOS_Lab_STM32_IoT/iot_link/network/dtls/mbedtls/mbedtls-2.16.2/include/mbedtls\ssl_internal.h ****     unsigned char *cur_msg_p;           /*!<  Position in current message    */
 330:c:/Users/lenovo/Desktop/AIoT/first_day/firstday_afternoon/LiteOS_Lab_STM32_IoT/iot_link/network/dtls/mbedtls/mbedtls-2.16.2/include/mbedtls\ssl_internal.h ****     unsigned int in_flight_start_seq;   /*!<  Minimum message sequence in the
 331:c:/Users/lenovo/Desktop/AIoT/first_day/firstday_afternoon/LiteOS_Lab_STM32_IoT/iot_link/network/dtls/mbedtls/mbedtls-2.16.2/include/mbedtls\ssl_internal.h ****                                               flight being received          */
 332:c:/Users/lenovo/Desktop/AIoT/first_day/firstday_afternoon/LiteOS_Lab_STM32_IoT/iot_link/network/dtls/mbedtls/mbedtls-2.16.2/include/mbedtls\ssl_internal.h ****     mbedtls_ssl_transform *alt_transform_out;   /*!<  Alternative transform for
 333:c:/Users/lenovo/Desktop/AIoT/first_day/firstday_afternoon/LiteOS_Lab_STM32_IoT/iot_link/network/dtls/mbedtls/mbedtls-2.16.2/include/mbedtls\ssl_internal.h ****                                               resending messages             */
 334:c:/Users/lenovo/Desktop/AIoT/first_day/firstday_afternoon/LiteOS_Lab_STM32_IoT/iot_link/network/dtls/mbedtls/mbedtls-2.16.2/include/mbedtls\ssl_internal.h ****     unsigned char alt_out_ctr[8];       /*!<  Alternative record epoch/counter
 335:c:/Users/lenovo/Desktop/AIoT/first_day/firstday_afternoon/LiteOS_Lab_STM32_IoT/iot_link/network/dtls/mbedtls/mbedtls-2.16.2/include/mbedtls\ssl_internal.h ****                                               for resending messages         */
 336:c:/Users/lenovo/Desktop/AIoT/first_day/firstday_afternoon/LiteOS_Lab_STM32_IoT/iot_link/network/dtls/mbedtls/mbedtls-2.16.2/include/mbedtls\ssl_internal.h **** 
 337:c:/Users/lenovo/Desktop/AIoT/first_day/firstday_afternoon/LiteOS_Lab_STM32_IoT/iot_link/network/dtls/mbedtls/mbedtls-2.16.2/include/mbedtls\ssl_internal.h ****     struct
 338:c:/Users/lenovo/Desktop/AIoT/first_day/firstday_afternoon/LiteOS_Lab_STM32_IoT/iot_link/network/dtls/mbedtls/mbedtls-2.16.2/include/mbedtls\ssl_internal.h ****     {
 339:c:/Users/lenovo/Desktop/AIoT/first_day/firstday_afternoon/LiteOS_Lab_STM32_IoT/iot_link/network/dtls/mbedtls/mbedtls-2.16.2/include/mbedtls\ssl_internal.h ****         size_t total_bytes_buffered; /*!< Cumulative size of heap allocated
 340:c:/Users/lenovo/Desktop/AIoT/first_day/firstday_afternoon/LiteOS_Lab_STM32_IoT/iot_link/network/dtls/mbedtls/mbedtls-2.16.2/include/mbedtls\ssl_internal.h ****                                       *   buffers used for message buffering. */
 341:c:/Users/lenovo/Desktop/AIoT/first_day/firstday_afternoon/LiteOS_Lab_STM32_IoT/iot_link/network/dtls/mbedtls/mbedtls-2.16.2/include/mbedtls\ssl_internal.h **** 
 342:c:/Users/lenovo/Desktop/AIoT/first_day/firstday_afternoon/LiteOS_Lab_STM32_IoT/iot_link/network/dtls/mbedtls/mbedtls-2.16.2/include/mbedtls\ssl_internal.h ****         uint8_t seen_ccs;               /*!< Indicates if a CCS message has
 343:c:/Users/lenovo/Desktop/AIoT/first_day/firstday_afternoon/LiteOS_Lab_STM32_IoT/iot_link/network/dtls/mbedtls/mbedtls-2.16.2/include/mbedtls\ssl_internal.h ****                                          *   been seen in the current flight. */
 344:c:/Users/lenovo/Desktop/AIoT/first_day/firstday_afternoon/LiteOS_Lab_STM32_IoT/iot_link/network/dtls/mbedtls/mbedtls-2.16.2/include/mbedtls\ssl_internal.h **** 
 345:c:/Users/lenovo/Desktop/AIoT/first_day/firstday_afternoon/LiteOS_Lab_STM32_IoT/iot_link/network/dtls/mbedtls/mbedtls-2.16.2/include/mbedtls\ssl_internal.h ****         struct mbedtls_ssl_hs_buffer
 346:c:/Users/lenovo/Desktop/AIoT/first_day/firstday_afternoon/LiteOS_Lab_STM32_IoT/iot_link/network/dtls/mbedtls/mbedtls-2.16.2/include/mbedtls\ssl_internal.h ****         {
 347:c:/Users/lenovo/Desktop/AIoT/first_day/firstday_afternoon/LiteOS_Lab_STM32_IoT/iot_link/network/dtls/mbedtls/mbedtls-2.16.2/include/mbedtls\ssl_internal.h ****             unsigned is_valid      : 1;
 348:c:/Users/lenovo/Desktop/AIoT/first_day/firstday_afternoon/LiteOS_Lab_STM32_IoT/iot_link/network/dtls/mbedtls/mbedtls-2.16.2/include/mbedtls\ssl_internal.h ****             unsigned is_fragmented : 1;
 349:c:/Users/lenovo/Desktop/AIoT/first_day/firstday_afternoon/LiteOS_Lab_STM32_IoT/iot_link/network/dtls/mbedtls/mbedtls-2.16.2/include/mbedtls\ssl_internal.h ****             unsigned is_complete   : 1;
 350:c:/Users/lenovo/Desktop/AIoT/first_day/firstday_afternoon/LiteOS_Lab_STM32_IoT/iot_link/network/dtls/mbedtls/mbedtls-2.16.2/include/mbedtls\ssl_internal.h ****             unsigned char *data;
 351:c:/Users/lenovo/Desktop/AIoT/first_day/firstday_afternoon/LiteOS_Lab_STM32_IoT/iot_link/network/dtls/mbedtls/mbedtls-2.16.2/include/mbedtls\ssl_internal.h ****             size_t data_len;
 352:c:/Users/lenovo/Desktop/AIoT/first_day/firstday_afternoon/LiteOS_Lab_STM32_IoT/iot_link/network/dtls/mbedtls/mbedtls-2.16.2/include/mbedtls\ssl_internal.h ****         } hs[MBEDTLS_SSL_MAX_BUFFERED_HS];
 353:c:/Users/lenovo/Desktop/AIoT/first_day/firstday_afternoon/LiteOS_Lab_STM32_IoT/iot_link/network/dtls/mbedtls/mbedtls-2.16.2/include/mbedtls\ssl_internal.h **** 
 354:c:/Users/lenovo/Desktop/AIoT/first_day/firstday_afternoon/LiteOS_Lab_STM32_IoT/iot_link/network/dtls/mbedtls/mbedtls-2.16.2/include/mbedtls\ssl_internal.h ****         struct
 355:c:/Users/lenovo/Desktop/AIoT/first_day/firstday_afternoon/LiteOS_Lab_STM32_IoT/iot_link/network/dtls/mbedtls/mbedtls-2.16.2/include/mbedtls\ssl_internal.h ****         {
 356:c:/Users/lenovo/Desktop/AIoT/first_day/firstday_afternoon/LiteOS_Lab_STM32_IoT/iot_link/network/dtls/mbedtls/mbedtls-2.16.2/include/mbedtls\ssl_internal.h ****             unsigned char *data;
 357:c:/Users/lenovo/Desktop/AIoT/first_day/firstday_afternoon/LiteOS_Lab_STM32_IoT/iot_link/network/dtls/mbedtls/mbedtls-2.16.2/include/mbedtls\ssl_internal.h ****             size_t len;
 358:c:/Users/lenovo/Desktop/AIoT/first_day/firstday_afternoon/LiteOS_Lab_STM32_IoT/iot_link/network/dtls/mbedtls/mbedtls-2.16.2/include/mbedtls\ssl_internal.h ****             unsigned epoch;
 359:c:/Users/lenovo/Desktop/AIoT/first_day/firstday_afternoon/LiteOS_Lab_STM32_IoT/iot_link/network/dtls/mbedtls/mbedtls-2.16.2/include/mbedtls\ssl_internal.h ****         } future_record;
 360:c:/Users/lenovo/Desktop/AIoT/first_day/firstday_afternoon/LiteOS_Lab_STM32_IoT/iot_link/network/dtls/mbedtls/mbedtls-2.16.2/include/mbedtls\ssl_internal.h **** 
 361:c:/Users/lenovo/Desktop/AIoT/first_day/firstday_afternoon/LiteOS_Lab_STM32_IoT/iot_link/network/dtls/mbedtls/mbedtls-2.16.2/include/mbedtls\ssl_internal.h ****     } buffering;
 362:c:/Users/lenovo/Desktop/AIoT/first_day/firstday_afternoon/LiteOS_Lab_STM32_IoT/iot_link/network/dtls/mbedtls/mbedtls-2.16.2/include/mbedtls\ssl_internal.h **** 
 363:c:/Users/lenovo/Desktop/AIoT/first_day/firstday_afternoon/LiteOS_Lab_STM32_IoT/iot_link/network/dtls/mbedtls/mbedtls-2.16.2/include/mbedtls\ssl_internal.h ****     uint16_t mtu;                       /*!<  Handshake mtu, used to fragment outgoing messages */
 364:c:/Users/lenovo/Desktop/AIoT/first_day/firstday_afternoon/LiteOS_Lab_STM32_IoT/iot_link/network/dtls/mbedtls/mbedtls-2.16.2/include/mbedtls\ssl_internal.h **** #endif /* MBEDTLS_SSL_PROTO_DTLS */
 365:c:/Users/lenovo/Desktop/AIoT/first_day/firstday_afternoon/LiteOS_Lab_STM32_IoT/iot_link/network/dtls/mbedtls/mbedtls-2.16.2/include/mbedtls\ssl_internal.h **** 
 366:c:/Users/lenovo/Desktop/AIoT/first_day/firstday_afternoon/LiteOS_Lab_STM32_IoT/iot_link/network/dtls/mbedtls/mbedtls-2.16.2/include/mbedtls\ssl_internal.h ****     /*
 367:c:/Users/lenovo/Desktop/AIoT/first_day/firstday_afternoon/LiteOS_Lab_STM32_IoT/iot_link/network/dtls/mbedtls/mbedtls-2.16.2/include/mbedtls\ssl_internal.h ****      * Checksum contexts
 368:c:/Users/lenovo/Desktop/AIoT/first_day/firstday_afternoon/LiteOS_Lab_STM32_IoT/iot_link/network/dtls/mbedtls/mbedtls-2.16.2/include/mbedtls\ssl_internal.h ****      */
 369:c:/Users/lenovo/Desktop/AIoT/first_day/firstday_afternoon/LiteOS_Lab_STM32_IoT/iot_link/network/dtls/mbedtls/mbedtls-2.16.2/include/mbedtls\ssl_internal.h **** #if defined(MBEDTLS_SSL_PROTO_SSL3) || defined(MBEDTLS_SSL_PROTO_TLS1) || \
 370:c:/Users/lenovo/Desktop/AIoT/first_day/firstday_afternoon/LiteOS_Lab_STM32_IoT/iot_link/network/dtls/mbedtls/mbedtls-2.16.2/include/mbedtls\ssl_internal.h ****     defined(MBEDTLS_SSL_PROTO_TLS1_1)
 371:c:/Users/lenovo/Desktop/AIoT/first_day/firstday_afternoon/LiteOS_Lab_STM32_IoT/iot_link/network/dtls/mbedtls/mbedtls-2.16.2/include/mbedtls\ssl_internal.h ****        mbedtls_md5_context fin_md5;
 372:c:/Users/lenovo/Desktop/AIoT/first_day/firstday_afternoon/LiteOS_Lab_STM32_IoT/iot_link/network/dtls/mbedtls/mbedtls-2.16.2/include/mbedtls\ssl_internal.h ****       mbedtls_sha1_context fin_sha1;
 373:c:/Users/lenovo/Desktop/AIoT/first_day/firstday_afternoon/LiteOS_Lab_STM32_IoT/iot_link/network/dtls/mbedtls/mbedtls-2.16.2/include/mbedtls\ssl_internal.h **** #endif
 374:c:/Users/lenovo/Desktop/AIoT/first_day/firstday_afternoon/LiteOS_Lab_STM32_IoT/iot_link/network/dtls/mbedtls/mbedtls-2.16.2/include/mbedtls\ssl_internal.h **** #if defined(MBEDTLS_SSL_PROTO_TLS1_2)
 375:c:/Users/lenovo/Desktop/AIoT/first_day/firstday_afternoon/LiteOS_Lab_STM32_IoT/iot_link/network/dtls/mbedtls/mbedtls-2.16.2/include/mbedtls\ssl_internal.h **** #if defined(MBEDTLS_SHA256_C)
 376:c:/Users/lenovo/Desktop/AIoT/first_day/firstday_afternoon/LiteOS_Lab_STM32_IoT/iot_link/network/dtls/mbedtls/mbedtls-2.16.2/include/mbedtls\ssl_internal.h ****     mbedtls_sha256_context fin_sha256;
ARM GAS  C:\Users\lenovo\AppData\Local\Temp\ccSoL50u.s 			page 18


 377:c:/Users/lenovo/Desktop/AIoT/first_day/firstday_afternoon/LiteOS_Lab_STM32_IoT/iot_link/network/dtls/mbedtls/mbedtls-2.16.2/include/mbedtls\ssl_internal.h **** #endif
 378:c:/Users/lenovo/Desktop/AIoT/first_day/firstday_afternoon/LiteOS_Lab_STM32_IoT/iot_link/network/dtls/mbedtls/mbedtls-2.16.2/include/mbedtls\ssl_internal.h **** #if defined(MBEDTLS_SHA512_C)
 379:c:/Users/lenovo/Desktop/AIoT/first_day/firstday_afternoon/LiteOS_Lab_STM32_IoT/iot_link/network/dtls/mbedtls/mbedtls-2.16.2/include/mbedtls\ssl_internal.h ****     mbedtls_sha512_context fin_sha512;
 380:c:/Users/lenovo/Desktop/AIoT/first_day/firstday_afternoon/LiteOS_Lab_STM32_IoT/iot_link/network/dtls/mbedtls/mbedtls-2.16.2/include/mbedtls\ssl_internal.h **** #endif
 381:c:/Users/lenovo/Desktop/AIoT/first_day/firstday_afternoon/LiteOS_Lab_STM32_IoT/iot_link/network/dtls/mbedtls/mbedtls-2.16.2/include/mbedtls\ssl_internal.h **** #endif /* MBEDTLS_SSL_PROTO_TLS1_2 */
 382:c:/Users/lenovo/Desktop/AIoT/first_day/firstday_afternoon/LiteOS_Lab_STM32_IoT/iot_link/network/dtls/mbedtls/mbedtls-2.16.2/include/mbedtls\ssl_internal.h **** 
 383:c:/Users/lenovo/Desktop/AIoT/first_day/firstday_afternoon/LiteOS_Lab_STM32_IoT/iot_link/network/dtls/mbedtls/mbedtls-2.16.2/include/mbedtls\ssl_internal.h ****     void (*update_checksum)(mbedtls_ssl_context *, const unsigned char *, size_t);
 384:c:/Users/lenovo/Desktop/AIoT/first_day/firstday_afternoon/LiteOS_Lab_STM32_IoT/iot_link/network/dtls/mbedtls/mbedtls-2.16.2/include/mbedtls\ssl_internal.h ****     void (*calc_verify)(mbedtls_ssl_context *, unsigned char *);
 385:c:/Users/lenovo/Desktop/AIoT/first_day/firstday_afternoon/LiteOS_Lab_STM32_IoT/iot_link/network/dtls/mbedtls/mbedtls-2.16.2/include/mbedtls\ssl_internal.h ****     void (*calc_finished)(mbedtls_ssl_context *, unsigned char *, int);
 386:c:/Users/lenovo/Desktop/AIoT/first_day/firstday_afternoon/LiteOS_Lab_STM32_IoT/iot_link/network/dtls/mbedtls/mbedtls-2.16.2/include/mbedtls\ssl_internal.h ****     int  (*tls_prf)(const unsigned char *, size_t, const char *,
 387:c:/Users/lenovo/Desktop/AIoT/first_day/firstday_afternoon/LiteOS_Lab_STM32_IoT/iot_link/network/dtls/mbedtls/mbedtls-2.16.2/include/mbedtls\ssl_internal.h ****                     const unsigned char *, size_t,
 388:c:/Users/lenovo/Desktop/AIoT/first_day/firstday_afternoon/LiteOS_Lab_STM32_IoT/iot_link/network/dtls/mbedtls/mbedtls-2.16.2/include/mbedtls\ssl_internal.h ****                     unsigned char *, size_t);
 389:c:/Users/lenovo/Desktop/AIoT/first_day/firstday_afternoon/LiteOS_Lab_STM32_IoT/iot_link/network/dtls/mbedtls/mbedtls-2.16.2/include/mbedtls\ssl_internal.h **** 
 390:c:/Users/lenovo/Desktop/AIoT/first_day/firstday_afternoon/LiteOS_Lab_STM32_IoT/iot_link/network/dtls/mbedtls/mbedtls-2.16.2/include/mbedtls\ssl_internal.h ****     size_t pmslen;                      /*!<  premaster length        */
 391:c:/Users/lenovo/Desktop/AIoT/first_day/firstday_afternoon/LiteOS_Lab_STM32_IoT/iot_link/network/dtls/mbedtls/mbedtls-2.16.2/include/mbedtls\ssl_internal.h **** 
 392:c:/Users/lenovo/Desktop/AIoT/first_day/firstday_afternoon/LiteOS_Lab_STM32_IoT/iot_link/network/dtls/mbedtls/mbedtls-2.16.2/include/mbedtls\ssl_internal.h ****     unsigned char randbytes[64];        /*!<  random bytes            */
 393:c:/Users/lenovo/Desktop/AIoT/first_day/firstday_afternoon/LiteOS_Lab_STM32_IoT/iot_link/network/dtls/mbedtls/mbedtls-2.16.2/include/mbedtls\ssl_internal.h ****     unsigned char premaster[MBEDTLS_PREMASTER_SIZE];
 394:c:/Users/lenovo/Desktop/AIoT/first_day/firstday_afternoon/LiteOS_Lab_STM32_IoT/iot_link/network/dtls/mbedtls/mbedtls-2.16.2/include/mbedtls\ssl_internal.h ****                                         /*!<  premaster secret        */
 395:c:/Users/lenovo/Desktop/AIoT/first_day/firstday_afternoon/LiteOS_Lab_STM32_IoT/iot_link/network/dtls/mbedtls/mbedtls-2.16.2/include/mbedtls\ssl_internal.h **** 
 396:c:/Users/lenovo/Desktop/AIoT/first_day/firstday_afternoon/LiteOS_Lab_STM32_IoT/iot_link/network/dtls/mbedtls/mbedtls-2.16.2/include/mbedtls\ssl_internal.h ****     int resume;                         /*!<  session resume indicator*/
 397:c:/Users/lenovo/Desktop/AIoT/first_day/firstday_afternoon/LiteOS_Lab_STM32_IoT/iot_link/network/dtls/mbedtls/mbedtls-2.16.2/include/mbedtls\ssl_internal.h ****     int max_major_ver;                  /*!< max. major version client*/
 398:c:/Users/lenovo/Desktop/AIoT/first_day/firstday_afternoon/LiteOS_Lab_STM32_IoT/iot_link/network/dtls/mbedtls/mbedtls-2.16.2/include/mbedtls\ssl_internal.h ****     int max_minor_ver;                  /*!< max. minor version client*/
 399:c:/Users/lenovo/Desktop/AIoT/first_day/firstday_afternoon/LiteOS_Lab_STM32_IoT/iot_link/network/dtls/mbedtls/mbedtls-2.16.2/include/mbedtls\ssl_internal.h ****     int cli_exts;                       /*!< client extension presence*/
 400:c:/Users/lenovo/Desktop/AIoT/first_day/firstday_afternoon/LiteOS_Lab_STM32_IoT/iot_link/network/dtls/mbedtls/mbedtls-2.16.2/include/mbedtls\ssl_internal.h **** 
 401:c:/Users/lenovo/Desktop/AIoT/first_day/firstday_afternoon/LiteOS_Lab_STM32_IoT/iot_link/network/dtls/mbedtls/mbedtls-2.16.2/include/mbedtls\ssl_internal.h **** #if defined(MBEDTLS_SSL_SESSION_TICKETS)
 402:c:/Users/lenovo/Desktop/AIoT/first_day/firstday_afternoon/LiteOS_Lab_STM32_IoT/iot_link/network/dtls/mbedtls/mbedtls-2.16.2/include/mbedtls\ssl_internal.h ****     int new_session_ticket;             /*!< use NewSessionTicket?    */
 403:c:/Users/lenovo/Desktop/AIoT/first_day/firstday_afternoon/LiteOS_Lab_STM32_IoT/iot_link/network/dtls/mbedtls/mbedtls-2.16.2/include/mbedtls\ssl_internal.h **** #endif /* MBEDTLS_SSL_SESSION_TICKETS */
 404:c:/Users/lenovo/Desktop/AIoT/first_day/firstday_afternoon/LiteOS_Lab_STM32_IoT/iot_link/network/dtls/mbedtls/mbedtls-2.16.2/include/mbedtls\ssl_internal.h **** #if defined(MBEDTLS_SSL_EXTENDED_MASTER_SECRET)
 405:c:/Users/lenovo/Desktop/AIoT/first_day/firstday_afternoon/LiteOS_Lab_STM32_IoT/iot_link/network/dtls/mbedtls/mbedtls-2.16.2/include/mbedtls\ssl_internal.h ****     int extended_ms;                    /*!< use Extended Master Secret? */
 406:c:/Users/lenovo/Desktop/AIoT/first_day/firstday_afternoon/LiteOS_Lab_STM32_IoT/iot_link/network/dtls/mbedtls/mbedtls-2.16.2/include/mbedtls\ssl_internal.h **** #endif
 407:c:/Users/lenovo/Desktop/AIoT/first_day/firstday_afternoon/LiteOS_Lab_STM32_IoT/iot_link/network/dtls/mbedtls/mbedtls-2.16.2/include/mbedtls\ssl_internal.h **** 
 408:c:/Users/lenovo/Desktop/AIoT/first_day/firstday_afternoon/LiteOS_Lab_STM32_IoT/iot_link/network/dtls/mbedtls/mbedtls-2.16.2/include/mbedtls\ssl_internal.h **** #if defined(MBEDTLS_SSL_ASYNC_PRIVATE)
 409:c:/Users/lenovo/Desktop/AIoT/first_day/firstday_afternoon/LiteOS_Lab_STM32_IoT/iot_link/network/dtls/mbedtls/mbedtls-2.16.2/include/mbedtls\ssl_internal.h ****     unsigned int async_in_progress : 1; /*!< an asynchronous operation is in progress */
 410:c:/Users/lenovo/Desktop/AIoT/first_day/firstday_afternoon/LiteOS_Lab_STM32_IoT/iot_link/network/dtls/mbedtls/mbedtls-2.16.2/include/mbedtls\ssl_internal.h **** #endif /* MBEDTLS_SSL_ASYNC_PRIVATE */
 411:c:/Users/lenovo/Desktop/AIoT/first_day/firstday_afternoon/LiteOS_Lab_STM32_IoT/iot_link/network/dtls/mbedtls/mbedtls-2.16.2/include/mbedtls\ssl_internal.h **** 
 412:c:/Users/lenovo/Desktop/AIoT/first_day/firstday_afternoon/LiteOS_Lab_STM32_IoT/iot_link/network/dtls/mbedtls/mbedtls-2.16.2/include/mbedtls\ssl_internal.h **** #if defined(MBEDTLS_SSL_ASYNC_PRIVATE)
 413:c:/Users/lenovo/Desktop/AIoT/first_day/firstday_afternoon/LiteOS_Lab_STM32_IoT/iot_link/network/dtls/mbedtls/mbedtls-2.16.2/include/mbedtls\ssl_internal.h ****     /** Asynchronous operation context. This field is meant for use by the
 414:c:/Users/lenovo/Desktop/AIoT/first_day/firstday_afternoon/LiteOS_Lab_STM32_IoT/iot_link/network/dtls/mbedtls/mbedtls-2.16.2/include/mbedtls\ssl_internal.h ****      * asynchronous operation callbacks (mbedtls_ssl_config::f_async_sign_start,
 415:c:/Users/lenovo/Desktop/AIoT/first_day/firstday_afternoon/LiteOS_Lab_STM32_IoT/iot_link/network/dtls/mbedtls/mbedtls-2.16.2/include/mbedtls\ssl_internal.h ****      * mbedtls_ssl_config::f_async_decrypt_start,
 416:c:/Users/lenovo/Desktop/AIoT/first_day/firstday_afternoon/LiteOS_Lab_STM32_IoT/iot_link/network/dtls/mbedtls/mbedtls-2.16.2/include/mbedtls\ssl_internal.h ****      * mbedtls_ssl_config::f_async_resume, mbedtls_ssl_config::f_async_cancel).
 417:c:/Users/lenovo/Desktop/AIoT/first_day/firstday_afternoon/LiteOS_Lab_STM32_IoT/iot_link/network/dtls/mbedtls/mbedtls-2.16.2/include/mbedtls\ssl_internal.h ****      * The library does not use it internally. */
 418:c:/Users/lenovo/Desktop/AIoT/first_day/firstday_afternoon/LiteOS_Lab_STM32_IoT/iot_link/network/dtls/mbedtls/mbedtls-2.16.2/include/mbedtls\ssl_internal.h ****     void *user_async_ctx;
 419:c:/Users/lenovo/Desktop/AIoT/first_day/firstday_afternoon/LiteOS_Lab_STM32_IoT/iot_link/network/dtls/mbedtls/mbedtls-2.16.2/include/mbedtls\ssl_internal.h **** #endif /* MBEDTLS_SSL_ASYNC_PRIVATE */
 420:c:/Users/lenovo/Desktop/AIoT/first_day/firstday_afternoon/LiteOS_Lab_STM32_IoT/iot_link/network/dtls/mbedtls/mbedtls-2.16.2/include/mbedtls\ssl_internal.h **** };
 421:c:/Users/lenovo/Desktop/AIoT/first_day/firstday_afternoon/LiteOS_Lab_STM32_IoT/iot_link/network/dtls/mbedtls/mbedtls-2.16.2/include/mbedtls\ssl_internal.h **** 
 422:c:/Users/lenovo/Desktop/AIoT/first_day/firstday_afternoon/LiteOS_Lab_STM32_IoT/iot_link/network/dtls/mbedtls/mbedtls-2.16.2/include/mbedtls\ssl_internal.h **** typedef struct mbedtls_ssl_hs_buffer mbedtls_ssl_hs_buffer;
 423:c:/Users/lenovo/Desktop/AIoT/first_day/firstday_afternoon/LiteOS_Lab_STM32_IoT/iot_link/network/dtls/mbedtls/mbedtls-2.16.2/include/mbedtls\ssl_internal.h **** 
 424:c:/Users/lenovo/Desktop/AIoT/first_day/firstday_afternoon/LiteOS_Lab_STM32_IoT/iot_link/network/dtls/mbedtls/mbedtls-2.16.2/include/mbedtls\ssl_internal.h **** /*
 425:c:/Users/lenovo/Desktop/AIoT/first_day/firstday_afternoon/LiteOS_Lab_STM32_IoT/iot_link/network/dtls/mbedtls/mbedtls-2.16.2/include/mbedtls\ssl_internal.h ****  * This structure contains a full set of runtime transform parameters
 426:c:/Users/lenovo/Desktop/AIoT/first_day/firstday_afternoon/LiteOS_Lab_STM32_IoT/iot_link/network/dtls/mbedtls/mbedtls-2.16.2/include/mbedtls\ssl_internal.h ****  * either in negotiation or active.
 427:c:/Users/lenovo/Desktop/AIoT/first_day/firstday_afternoon/LiteOS_Lab_STM32_IoT/iot_link/network/dtls/mbedtls/mbedtls-2.16.2/include/mbedtls\ssl_internal.h ****  */
 428:c:/Users/lenovo/Desktop/AIoT/first_day/firstday_afternoon/LiteOS_Lab_STM32_IoT/iot_link/network/dtls/mbedtls/mbedtls-2.16.2/include/mbedtls\ssl_internal.h **** struct mbedtls_ssl_transform
 429:c:/Users/lenovo/Desktop/AIoT/first_day/firstday_afternoon/LiteOS_Lab_STM32_IoT/iot_link/network/dtls/mbedtls/mbedtls-2.16.2/include/mbedtls\ssl_internal.h **** {
 430:c:/Users/lenovo/Desktop/AIoT/first_day/firstday_afternoon/LiteOS_Lab_STM32_IoT/iot_link/network/dtls/mbedtls/mbedtls-2.16.2/include/mbedtls\ssl_internal.h ****     /*
 431:c:/Users/lenovo/Desktop/AIoT/first_day/firstday_afternoon/LiteOS_Lab_STM32_IoT/iot_link/network/dtls/mbedtls/mbedtls-2.16.2/include/mbedtls\ssl_internal.h ****      * Session specific crypto layer
 432:c:/Users/lenovo/Desktop/AIoT/first_day/firstday_afternoon/LiteOS_Lab_STM32_IoT/iot_link/network/dtls/mbedtls/mbedtls-2.16.2/include/mbedtls\ssl_internal.h ****      */
 433:c:/Users/lenovo/Desktop/AIoT/first_day/firstday_afternoon/LiteOS_Lab_STM32_IoT/iot_link/network/dtls/mbedtls/mbedtls-2.16.2/include/mbedtls\ssl_internal.h ****     const mbedtls_ssl_ciphersuite_t *ciphersuite_info;
ARM GAS  C:\Users\lenovo\AppData\Local\Temp\ccSoL50u.s 			page 19


 434:c:/Users/lenovo/Desktop/AIoT/first_day/firstday_afternoon/LiteOS_Lab_STM32_IoT/iot_link/network/dtls/mbedtls/mbedtls-2.16.2/include/mbedtls\ssl_internal.h ****                                         /*!<  Chosen cipersuite_info  */
 435:c:/Users/lenovo/Desktop/AIoT/first_day/firstday_afternoon/LiteOS_Lab_STM32_IoT/iot_link/network/dtls/mbedtls/mbedtls-2.16.2/include/mbedtls\ssl_internal.h ****     unsigned int keylen;                /*!<  symmetric key length (bytes)  */
 436:c:/Users/lenovo/Desktop/AIoT/first_day/firstday_afternoon/LiteOS_Lab_STM32_IoT/iot_link/network/dtls/mbedtls/mbedtls-2.16.2/include/mbedtls\ssl_internal.h ****     size_t minlen;                      /*!<  min. ciphertext length  */
 437:c:/Users/lenovo/Desktop/AIoT/first_day/firstday_afternoon/LiteOS_Lab_STM32_IoT/iot_link/network/dtls/mbedtls/mbedtls-2.16.2/include/mbedtls\ssl_internal.h ****     size_t ivlen;                       /*!<  IV length               */
 438:c:/Users/lenovo/Desktop/AIoT/first_day/firstday_afternoon/LiteOS_Lab_STM32_IoT/iot_link/network/dtls/mbedtls/mbedtls-2.16.2/include/mbedtls\ssl_internal.h ****     size_t fixed_ivlen;                 /*!<  Fixed part of IV (AEAD) */
 439:c:/Users/lenovo/Desktop/AIoT/first_day/firstday_afternoon/LiteOS_Lab_STM32_IoT/iot_link/network/dtls/mbedtls/mbedtls-2.16.2/include/mbedtls\ssl_internal.h ****     size_t maclen;                      /*!<  MAC length              */
 440:c:/Users/lenovo/Desktop/AIoT/first_day/firstday_afternoon/LiteOS_Lab_STM32_IoT/iot_link/network/dtls/mbedtls/mbedtls-2.16.2/include/mbedtls\ssl_internal.h **** 
 441:c:/Users/lenovo/Desktop/AIoT/first_day/firstday_afternoon/LiteOS_Lab_STM32_IoT/iot_link/network/dtls/mbedtls/mbedtls-2.16.2/include/mbedtls\ssl_internal.h ****     unsigned char iv_enc[16];           /*!<  IV (encryption)         */
 442:c:/Users/lenovo/Desktop/AIoT/first_day/firstday_afternoon/LiteOS_Lab_STM32_IoT/iot_link/network/dtls/mbedtls/mbedtls-2.16.2/include/mbedtls\ssl_internal.h ****     unsigned char iv_dec[16];           /*!<  IV (decryption)         */
 443:c:/Users/lenovo/Desktop/AIoT/first_day/firstday_afternoon/LiteOS_Lab_STM32_IoT/iot_link/network/dtls/mbedtls/mbedtls-2.16.2/include/mbedtls\ssl_internal.h **** 
 444:c:/Users/lenovo/Desktop/AIoT/first_day/firstday_afternoon/LiteOS_Lab_STM32_IoT/iot_link/network/dtls/mbedtls/mbedtls-2.16.2/include/mbedtls\ssl_internal.h **** #if defined(MBEDTLS_SSL_PROTO_SSL3)
 445:c:/Users/lenovo/Desktop/AIoT/first_day/firstday_afternoon/LiteOS_Lab_STM32_IoT/iot_link/network/dtls/mbedtls/mbedtls-2.16.2/include/mbedtls\ssl_internal.h ****     /* Needed only for SSL v3.0 secret */
 446:c:/Users/lenovo/Desktop/AIoT/first_day/firstday_afternoon/LiteOS_Lab_STM32_IoT/iot_link/network/dtls/mbedtls/mbedtls-2.16.2/include/mbedtls\ssl_internal.h ****     unsigned char mac_enc[20];          /*!<  SSL v3.0 secret (enc)   */
 447:c:/Users/lenovo/Desktop/AIoT/first_day/firstday_afternoon/LiteOS_Lab_STM32_IoT/iot_link/network/dtls/mbedtls/mbedtls-2.16.2/include/mbedtls\ssl_internal.h ****     unsigned char mac_dec[20];          /*!<  SSL v3.0 secret (dec)   */
 448:c:/Users/lenovo/Desktop/AIoT/first_day/firstday_afternoon/LiteOS_Lab_STM32_IoT/iot_link/network/dtls/mbedtls/mbedtls-2.16.2/include/mbedtls\ssl_internal.h **** #endif /* MBEDTLS_SSL_PROTO_SSL3 */
 449:c:/Users/lenovo/Desktop/AIoT/first_day/firstday_afternoon/LiteOS_Lab_STM32_IoT/iot_link/network/dtls/mbedtls/mbedtls-2.16.2/include/mbedtls\ssl_internal.h **** 
 450:c:/Users/lenovo/Desktop/AIoT/first_day/firstday_afternoon/LiteOS_Lab_STM32_IoT/iot_link/network/dtls/mbedtls/mbedtls-2.16.2/include/mbedtls\ssl_internal.h ****     mbedtls_md_context_t md_ctx_enc;            /*!<  MAC (encryption)        */
 451:c:/Users/lenovo/Desktop/AIoT/first_day/firstday_afternoon/LiteOS_Lab_STM32_IoT/iot_link/network/dtls/mbedtls/mbedtls-2.16.2/include/mbedtls\ssl_internal.h ****     mbedtls_md_context_t md_ctx_dec;            /*!<  MAC (decryption)        */
 452:c:/Users/lenovo/Desktop/AIoT/first_day/firstday_afternoon/LiteOS_Lab_STM32_IoT/iot_link/network/dtls/mbedtls/mbedtls-2.16.2/include/mbedtls\ssl_internal.h **** 
 453:c:/Users/lenovo/Desktop/AIoT/first_day/firstday_afternoon/LiteOS_Lab_STM32_IoT/iot_link/network/dtls/mbedtls/mbedtls-2.16.2/include/mbedtls\ssl_internal.h ****     mbedtls_cipher_context_t cipher_ctx_enc;    /*!<  encryption context      */
 454:c:/Users/lenovo/Desktop/AIoT/first_day/firstday_afternoon/LiteOS_Lab_STM32_IoT/iot_link/network/dtls/mbedtls/mbedtls-2.16.2/include/mbedtls\ssl_internal.h ****     mbedtls_cipher_context_t cipher_ctx_dec;    /*!<  decryption context      */
 455:c:/Users/lenovo/Desktop/AIoT/first_day/firstday_afternoon/LiteOS_Lab_STM32_IoT/iot_link/network/dtls/mbedtls/mbedtls-2.16.2/include/mbedtls\ssl_internal.h **** 
 456:c:/Users/lenovo/Desktop/AIoT/first_day/firstday_afternoon/LiteOS_Lab_STM32_IoT/iot_link/network/dtls/mbedtls/mbedtls-2.16.2/include/mbedtls\ssl_internal.h ****     /*
 457:c:/Users/lenovo/Desktop/AIoT/first_day/firstday_afternoon/LiteOS_Lab_STM32_IoT/iot_link/network/dtls/mbedtls/mbedtls-2.16.2/include/mbedtls\ssl_internal.h ****      * Session specific compression layer
 458:c:/Users/lenovo/Desktop/AIoT/first_day/firstday_afternoon/LiteOS_Lab_STM32_IoT/iot_link/network/dtls/mbedtls/mbedtls-2.16.2/include/mbedtls\ssl_internal.h ****      */
 459:c:/Users/lenovo/Desktop/AIoT/first_day/firstday_afternoon/LiteOS_Lab_STM32_IoT/iot_link/network/dtls/mbedtls/mbedtls-2.16.2/include/mbedtls\ssl_internal.h **** #if defined(MBEDTLS_ZLIB_SUPPORT)
 460:c:/Users/lenovo/Desktop/AIoT/first_day/firstday_afternoon/LiteOS_Lab_STM32_IoT/iot_link/network/dtls/mbedtls/mbedtls-2.16.2/include/mbedtls\ssl_internal.h ****     z_stream ctx_deflate;               /*!<  compression context     */
 461:c:/Users/lenovo/Desktop/AIoT/first_day/firstday_afternoon/LiteOS_Lab_STM32_IoT/iot_link/network/dtls/mbedtls/mbedtls-2.16.2/include/mbedtls\ssl_internal.h ****     z_stream ctx_inflate;               /*!<  decompression context   */
 462:c:/Users/lenovo/Desktop/AIoT/first_day/firstday_afternoon/LiteOS_Lab_STM32_IoT/iot_link/network/dtls/mbedtls/mbedtls-2.16.2/include/mbedtls\ssl_internal.h **** #endif
 463:c:/Users/lenovo/Desktop/AIoT/first_day/firstday_afternoon/LiteOS_Lab_STM32_IoT/iot_link/network/dtls/mbedtls/mbedtls-2.16.2/include/mbedtls\ssl_internal.h **** };
 464:c:/Users/lenovo/Desktop/AIoT/first_day/firstday_afternoon/LiteOS_Lab_STM32_IoT/iot_link/network/dtls/mbedtls/mbedtls-2.16.2/include/mbedtls\ssl_internal.h **** 
 465:c:/Users/lenovo/Desktop/AIoT/first_day/firstday_afternoon/LiteOS_Lab_STM32_IoT/iot_link/network/dtls/mbedtls/mbedtls-2.16.2/include/mbedtls\ssl_internal.h **** #if defined(MBEDTLS_X509_CRT_PARSE_C)
 466:c:/Users/lenovo/Desktop/AIoT/first_day/firstday_afternoon/LiteOS_Lab_STM32_IoT/iot_link/network/dtls/mbedtls/mbedtls-2.16.2/include/mbedtls\ssl_internal.h **** /*
 467:c:/Users/lenovo/Desktop/AIoT/first_day/firstday_afternoon/LiteOS_Lab_STM32_IoT/iot_link/network/dtls/mbedtls/mbedtls-2.16.2/include/mbedtls\ssl_internal.h ****  * List of certificate + private key pairs
 468:c:/Users/lenovo/Desktop/AIoT/first_day/firstday_afternoon/LiteOS_Lab_STM32_IoT/iot_link/network/dtls/mbedtls/mbedtls-2.16.2/include/mbedtls\ssl_internal.h ****  */
 469:c:/Users/lenovo/Desktop/AIoT/first_day/firstday_afternoon/LiteOS_Lab_STM32_IoT/iot_link/network/dtls/mbedtls/mbedtls-2.16.2/include/mbedtls\ssl_internal.h **** struct mbedtls_ssl_key_cert
 470:c:/Users/lenovo/Desktop/AIoT/first_day/firstday_afternoon/LiteOS_Lab_STM32_IoT/iot_link/network/dtls/mbedtls/mbedtls-2.16.2/include/mbedtls\ssl_internal.h **** {
 471:c:/Users/lenovo/Desktop/AIoT/first_day/firstday_afternoon/LiteOS_Lab_STM32_IoT/iot_link/network/dtls/mbedtls/mbedtls-2.16.2/include/mbedtls\ssl_internal.h ****     mbedtls_x509_crt *cert;                 /*!< cert                       */
 472:c:/Users/lenovo/Desktop/AIoT/first_day/firstday_afternoon/LiteOS_Lab_STM32_IoT/iot_link/network/dtls/mbedtls/mbedtls-2.16.2/include/mbedtls\ssl_internal.h ****     mbedtls_pk_context *key;                /*!< private key                */
 473:c:/Users/lenovo/Desktop/AIoT/first_day/firstday_afternoon/LiteOS_Lab_STM32_IoT/iot_link/network/dtls/mbedtls/mbedtls-2.16.2/include/mbedtls\ssl_internal.h ****     mbedtls_ssl_key_cert *next;             /*!< next key/cert pair         */
 474:c:/Users/lenovo/Desktop/AIoT/first_day/firstday_afternoon/LiteOS_Lab_STM32_IoT/iot_link/network/dtls/mbedtls/mbedtls-2.16.2/include/mbedtls\ssl_internal.h **** };
 475:c:/Users/lenovo/Desktop/AIoT/first_day/firstday_afternoon/LiteOS_Lab_STM32_IoT/iot_link/network/dtls/mbedtls/mbedtls-2.16.2/include/mbedtls\ssl_internal.h **** #endif /* MBEDTLS_X509_CRT_PARSE_C */
 476:c:/Users/lenovo/Desktop/AIoT/first_day/firstday_afternoon/LiteOS_Lab_STM32_IoT/iot_link/network/dtls/mbedtls/mbedtls-2.16.2/include/mbedtls\ssl_internal.h **** 
 477:c:/Users/lenovo/Desktop/AIoT/first_day/firstday_afternoon/LiteOS_Lab_STM32_IoT/iot_link/network/dtls/mbedtls/mbedtls-2.16.2/include/mbedtls\ssl_internal.h **** #if defined(MBEDTLS_SSL_PROTO_DTLS)
 478:c:/Users/lenovo/Desktop/AIoT/first_day/firstday_afternoon/LiteOS_Lab_STM32_IoT/iot_link/network/dtls/mbedtls/mbedtls-2.16.2/include/mbedtls\ssl_internal.h **** /*
 479:c:/Users/lenovo/Desktop/AIoT/first_day/firstday_afternoon/LiteOS_Lab_STM32_IoT/iot_link/network/dtls/mbedtls/mbedtls-2.16.2/include/mbedtls\ssl_internal.h ****  * List of handshake messages kept around for resending
 480:c:/Users/lenovo/Desktop/AIoT/first_day/firstday_afternoon/LiteOS_Lab_STM32_IoT/iot_link/network/dtls/mbedtls/mbedtls-2.16.2/include/mbedtls\ssl_internal.h ****  */
 481:c:/Users/lenovo/Desktop/AIoT/first_day/firstday_afternoon/LiteOS_Lab_STM32_IoT/iot_link/network/dtls/mbedtls/mbedtls-2.16.2/include/mbedtls\ssl_internal.h **** struct mbedtls_ssl_flight_item
 482:c:/Users/lenovo/Desktop/AIoT/first_day/firstday_afternoon/LiteOS_Lab_STM32_IoT/iot_link/network/dtls/mbedtls/mbedtls-2.16.2/include/mbedtls\ssl_internal.h **** {
 483:c:/Users/lenovo/Desktop/AIoT/first_day/firstday_afternoon/LiteOS_Lab_STM32_IoT/iot_link/network/dtls/mbedtls/mbedtls-2.16.2/include/mbedtls\ssl_internal.h ****     unsigned char *p;       /*!< message, including handshake headers   */
 484:c:/Users/lenovo/Desktop/AIoT/first_day/firstday_afternoon/LiteOS_Lab_STM32_IoT/iot_link/network/dtls/mbedtls/mbedtls-2.16.2/include/mbedtls\ssl_internal.h ****     size_t len;             /*!< length of p                            */
 485:c:/Users/lenovo/Desktop/AIoT/first_day/firstday_afternoon/LiteOS_Lab_STM32_IoT/iot_link/network/dtls/mbedtls/mbedtls-2.16.2/include/mbedtls\ssl_internal.h ****     unsigned char type;     /*!< type of the message: handshake or CCS  */
 486:c:/Users/lenovo/Desktop/AIoT/first_day/firstday_afternoon/LiteOS_Lab_STM32_IoT/iot_link/network/dtls/mbedtls/mbedtls-2.16.2/include/mbedtls\ssl_internal.h ****     mbedtls_ssl_flight_item *next;  /*!< next handshake message(s)              */
 487:c:/Users/lenovo/Desktop/AIoT/first_day/firstday_afternoon/LiteOS_Lab_STM32_IoT/iot_link/network/dtls/mbedtls/mbedtls-2.16.2/include/mbedtls\ssl_internal.h **** };
 488:c:/Users/lenovo/Desktop/AIoT/first_day/firstday_afternoon/LiteOS_Lab_STM32_IoT/iot_link/network/dtls/mbedtls/mbedtls-2.16.2/include/mbedtls\ssl_internal.h **** #endif /* MBEDTLS_SSL_PROTO_DTLS */
 489:c:/Users/lenovo/Desktop/AIoT/first_day/firstday_afternoon/LiteOS_Lab_STM32_IoT/iot_link/network/dtls/mbedtls/mbedtls-2.16.2/include/mbedtls\ssl_internal.h **** 
 490:c:/Users/lenovo/Desktop/AIoT/first_day/firstday_afternoon/LiteOS_Lab_STM32_IoT/iot_link/network/dtls/mbedtls/mbedtls-2.16.2/include/mbedtls\ssl_internal.h **** #if defined(MBEDTLS_SSL_PROTO_TLS1_2) && \
ARM GAS  C:\Users\lenovo\AppData\Local\Temp\ccSoL50u.s 			page 20


 491:c:/Users/lenovo/Desktop/AIoT/first_day/firstday_afternoon/LiteOS_Lab_STM32_IoT/iot_link/network/dtls/mbedtls/mbedtls-2.16.2/include/mbedtls\ssl_internal.h ****     defined(MBEDTLS_KEY_EXCHANGE__WITH_CERT__ENABLED)
 492:c:/Users/lenovo/Desktop/AIoT/first_day/firstday_afternoon/LiteOS_Lab_STM32_IoT/iot_link/network/dtls/mbedtls/mbedtls-2.16.2/include/mbedtls\ssl_internal.h **** 
 493:c:/Users/lenovo/Desktop/AIoT/first_day/firstday_afternoon/LiteOS_Lab_STM32_IoT/iot_link/network/dtls/mbedtls/mbedtls-2.16.2/include/mbedtls\ssl_internal.h **** /* Find an entry in a signature-hash set matching a given hash algorithm. */
 494:c:/Users/lenovo/Desktop/AIoT/first_day/firstday_afternoon/LiteOS_Lab_STM32_IoT/iot_link/network/dtls/mbedtls/mbedtls-2.16.2/include/mbedtls\ssl_internal.h **** mbedtls_md_type_t mbedtls_ssl_sig_hash_set_find( mbedtls_ssl_sig_hash_set_t *set,
 495:c:/Users/lenovo/Desktop/AIoT/first_day/firstday_afternoon/LiteOS_Lab_STM32_IoT/iot_link/network/dtls/mbedtls/mbedtls-2.16.2/include/mbedtls\ssl_internal.h ****                                                  mbedtls_pk_type_t sig_alg );
 496:c:/Users/lenovo/Desktop/AIoT/first_day/firstday_afternoon/LiteOS_Lab_STM32_IoT/iot_link/network/dtls/mbedtls/mbedtls-2.16.2/include/mbedtls\ssl_internal.h **** /* Add a signature-hash-pair to a signature-hash set */
 497:c:/Users/lenovo/Desktop/AIoT/first_day/firstday_afternoon/LiteOS_Lab_STM32_IoT/iot_link/network/dtls/mbedtls/mbedtls-2.16.2/include/mbedtls\ssl_internal.h **** void mbedtls_ssl_sig_hash_set_add( mbedtls_ssl_sig_hash_set_t *set,
 498:c:/Users/lenovo/Desktop/AIoT/first_day/firstday_afternoon/LiteOS_Lab_STM32_IoT/iot_link/network/dtls/mbedtls/mbedtls-2.16.2/include/mbedtls\ssl_internal.h ****                                    mbedtls_pk_type_t sig_alg,
 499:c:/Users/lenovo/Desktop/AIoT/first_day/firstday_afternoon/LiteOS_Lab_STM32_IoT/iot_link/network/dtls/mbedtls/mbedtls-2.16.2/include/mbedtls\ssl_internal.h ****                                    mbedtls_md_type_t md_alg );
 500:c:/Users/lenovo/Desktop/AIoT/first_day/firstday_afternoon/LiteOS_Lab_STM32_IoT/iot_link/network/dtls/mbedtls/mbedtls-2.16.2/include/mbedtls\ssl_internal.h **** /* Allow exactly one hash algorithm for each signature. */
 501:c:/Users/lenovo/Desktop/AIoT/first_day/firstday_afternoon/LiteOS_Lab_STM32_IoT/iot_link/network/dtls/mbedtls/mbedtls-2.16.2/include/mbedtls\ssl_internal.h **** void mbedtls_ssl_sig_hash_set_const_hash( mbedtls_ssl_sig_hash_set_t *set,
 502:c:/Users/lenovo/Desktop/AIoT/first_day/firstday_afternoon/LiteOS_Lab_STM32_IoT/iot_link/network/dtls/mbedtls/mbedtls-2.16.2/include/mbedtls\ssl_internal.h ****                                           mbedtls_md_type_t md_alg );
 503:c:/Users/lenovo/Desktop/AIoT/first_day/firstday_afternoon/LiteOS_Lab_STM32_IoT/iot_link/network/dtls/mbedtls/mbedtls-2.16.2/include/mbedtls\ssl_internal.h **** 
 504:c:/Users/lenovo/Desktop/AIoT/first_day/firstday_afternoon/LiteOS_Lab_STM32_IoT/iot_link/network/dtls/mbedtls/mbedtls-2.16.2/include/mbedtls\ssl_internal.h **** /* Setup an empty signature-hash set */
 505:c:/Users/lenovo/Desktop/AIoT/first_day/firstday_afternoon/LiteOS_Lab_STM32_IoT/iot_link/network/dtls/mbedtls/mbedtls-2.16.2/include/mbedtls\ssl_internal.h **** static inline void mbedtls_ssl_sig_hash_set_init( mbedtls_ssl_sig_hash_set_t *set )
 506:c:/Users/lenovo/Desktop/AIoT/first_day/firstday_afternoon/LiteOS_Lab_STM32_IoT/iot_link/network/dtls/mbedtls/mbedtls-2.16.2/include/mbedtls\ssl_internal.h **** {
 507:c:/Users/lenovo/Desktop/AIoT/first_day/firstday_afternoon/LiteOS_Lab_STM32_IoT/iot_link/network/dtls/mbedtls/mbedtls-2.16.2/include/mbedtls\ssl_internal.h ****     mbedtls_ssl_sig_hash_set_const_hash( set, MBEDTLS_MD_NONE );
 508:c:/Users/lenovo/Desktop/AIoT/first_day/firstday_afternoon/LiteOS_Lab_STM32_IoT/iot_link/network/dtls/mbedtls/mbedtls-2.16.2/include/mbedtls\ssl_internal.h **** }
 509:c:/Users/lenovo/Desktop/AIoT/first_day/firstday_afternoon/LiteOS_Lab_STM32_IoT/iot_link/network/dtls/mbedtls/mbedtls-2.16.2/include/mbedtls\ssl_internal.h **** 
 510:c:/Users/lenovo/Desktop/AIoT/first_day/firstday_afternoon/LiteOS_Lab_STM32_IoT/iot_link/network/dtls/mbedtls/mbedtls-2.16.2/include/mbedtls\ssl_internal.h **** #endif /* MBEDTLS_SSL_PROTO_TLS1_2) &&
 511:c:/Users/lenovo/Desktop/AIoT/first_day/firstday_afternoon/LiteOS_Lab_STM32_IoT/iot_link/network/dtls/mbedtls/mbedtls-2.16.2/include/mbedtls\ssl_internal.h ****           MBEDTLS_KEY_EXCHANGE__WITH_CERT__ENABLED */
 512:c:/Users/lenovo/Desktop/AIoT/first_day/firstday_afternoon/LiteOS_Lab_STM32_IoT/iot_link/network/dtls/mbedtls/mbedtls-2.16.2/include/mbedtls\ssl_internal.h **** 
 513:c:/Users/lenovo/Desktop/AIoT/first_day/firstday_afternoon/LiteOS_Lab_STM32_IoT/iot_link/network/dtls/mbedtls/mbedtls-2.16.2/include/mbedtls\ssl_internal.h **** /**
 514:c:/Users/lenovo/Desktop/AIoT/first_day/firstday_afternoon/LiteOS_Lab_STM32_IoT/iot_link/network/dtls/mbedtls/mbedtls-2.16.2/include/mbedtls\ssl_internal.h ****  * \brief           Free referenced items in an SSL transform context and clear
 515:c:/Users/lenovo/Desktop/AIoT/first_day/firstday_afternoon/LiteOS_Lab_STM32_IoT/iot_link/network/dtls/mbedtls/mbedtls-2.16.2/include/mbedtls\ssl_internal.h ****  *                  memory
 516:c:/Users/lenovo/Desktop/AIoT/first_day/firstday_afternoon/LiteOS_Lab_STM32_IoT/iot_link/network/dtls/mbedtls/mbedtls-2.16.2/include/mbedtls\ssl_internal.h ****  *
 517:c:/Users/lenovo/Desktop/AIoT/first_day/firstday_afternoon/LiteOS_Lab_STM32_IoT/iot_link/network/dtls/mbedtls/mbedtls-2.16.2/include/mbedtls\ssl_internal.h ****  * \param transform SSL transform context
 518:c:/Users/lenovo/Desktop/AIoT/first_day/firstday_afternoon/LiteOS_Lab_STM32_IoT/iot_link/network/dtls/mbedtls/mbedtls-2.16.2/include/mbedtls\ssl_internal.h ****  */
 519:c:/Users/lenovo/Desktop/AIoT/first_day/firstday_afternoon/LiteOS_Lab_STM32_IoT/iot_link/network/dtls/mbedtls/mbedtls-2.16.2/include/mbedtls\ssl_internal.h **** void mbedtls_ssl_transform_free( mbedtls_ssl_transform *transform );
 520:c:/Users/lenovo/Desktop/AIoT/first_day/firstday_afternoon/LiteOS_Lab_STM32_IoT/iot_link/network/dtls/mbedtls/mbedtls-2.16.2/include/mbedtls\ssl_internal.h **** 
 521:c:/Users/lenovo/Desktop/AIoT/first_day/firstday_afternoon/LiteOS_Lab_STM32_IoT/iot_link/network/dtls/mbedtls/mbedtls-2.16.2/include/mbedtls\ssl_internal.h **** /**
 522:c:/Users/lenovo/Desktop/AIoT/first_day/firstday_afternoon/LiteOS_Lab_STM32_IoT/iot_link/network/dtls/mbedtls/mbedtls-2.16.2/include/mbedtls\ssl_internal.h ****  * \brief           Free referenced items in an SSL handshake context and clear
 523:c:/Users/lenovo/Desktop/AIoT/first_day/firstday_afternoon/LiteOS_Lab_STM32_IoT/iot_link/network/dtls/mbedtls/mbedtls-2.16.2/include/mbedtls\ssl_internal.h ****  *                  memory
 524:c:/Users/lenovo/Desktop/AIoT/first_day/firstday_afternoon/LiteOS_Lab_STM32_IoT/iot_link/network/dtls/mbedtls/mbedtls-2.16.2/include/mbedtls\ssl_internal.h ****  *
 525:c:/Users/lenovo/Desktop/AIoT/first_day/firstday_afternoon/LiteOS_Lab_STM32_IoT/iot_link/network/dtls/mbedtls/mbedtls-2.16.2/include/mbedtls\ssl_internal.h ****  * \param ssl       SSL context
 526:c:/Users/lenovo/Desktop/AIoT/first_day/firstday_afternoon/LiteOS_Lab_STM32_IoT/iot_link/network/dtls/mbedtls/mbedtls-2.16.2/include/mbedtls\ssl_internal.h ****  */
 527:c:/Users/lenovo/Desktop/AIoT/first_day/firstday_afternoon/LiteOS_Lab_STM32_IoT/iot_link/network/dtls/mbedtls/mbedtls-2.16.2/include/mbedtls\ssl_internal.h **** void mbedtls_ssl_handshake_free( mbedtls_ssl_context *ssl );
 528:c:/Users/lenovo/Desktop/AIoT/first_day/firstday_afternoon/LiteOS_Lab_STM32_IoT/iot_link/network/dtls/mbedtls/mbedtls-2.16.2/include/mbedtls\ssl_internal.h **** 
 529:c:/Users/lenovo/Desktop/AIoT/first_day/firstday_afternoon/LiteOS_Lab_STM32_IoT/iot_link/network/dtls/mbedtls/mbedtls-2.16.2/include/mbedtls\ssl_internal.h **** int mbedtls_ssl_handshake_client_step( mbedtls_ssl_context *ssl );
 530:c:/Users/lenovo/Desktop/AIoT/first_day/firstday_afternoon/LiteOS_Lab_STM32_IoT/iot_link/network/dtls/mbedtls/mbedtls-2.16.2/include/mbedtls\ssl_internal.h **** int mbedtls_ssl_handshake_server_step( mbedtls_ssl_context *ssl );
 531:c:/Users/lenovo/Desktop/AIoT/first_day/firstday_afternoon/LiteOS_Lab_STM32_IoT/iot_link/network/dtls/mbedtls/mbedtls-2.16.2/include/mbedtls\ssl_internal.h **** void mbedtls_ssl_handshake_wrapup( mbedtls_ssl_context *ssl );
 532:c:/Users/lenovo/Desktop/AIoT/first_day/firstday_afternoon/LiteOS_Lab_STM32_IoT/iot_link/network/dtls/mbedtls/mbedtls-2.16.2/include/mbedtls\ssl_internal.h **** 
 533:c:/Users/lenovo/Desktop/AIoT/first_day/firstday_afternoon/LiteOS_Lab_STM32_IoT/iot_link/network/dtls/mbedtls/mbedtls-2.16.2/include/mbedtls\ssl_internal.h **** int mbedtls_ssl_send_fatal_handshake_failure( mbedtls_ssl_context *ssl );
 534:c:/Users/lenovo/Desktop/AIoT/first_day/firstday_afternoon/LiteOS_Lab_STM32_IoT/iot_link/network/dtls/mbedtls/mbedtls-2.16.2/include/mbedtls\ssl_internal.h **** 
 535:c:/Users/lenovo/Desktop/AIoT/first_day/firstday_afternoon/LiteOS_Lab_STM32_IoT/iot_link/network/dtls/mbedtls/mbedtls-2.16.2/include/mbedtls\ssl_internal.h **** void mbedtls_ssl_reset_checksum( mbedtls_ssl_context *ssl );
 536:c:/Users/lenovo/Desktop/AIoT/first_day/firstday_afternoon/LiteOS_Lab_STM32_IoT/iot_link/network/dtls/mbedtls/mbedtls-2.16.2/include/mbedtls\ssl_internal.h **** int mbedtls_ssl_derive_keys( mbedtls_ssl_context *ssl );
 537:c:/Users/lenovo/Desktop/AIoT/first_day/firstday_afternoon/LiteOS_Lab_STM32_IoT/iot_link/network/dtls/mbedtls/mbedtls-2.16.2/include/mbedtls\ssl_internal.h **** 
 538:c:/Users/lenovo/Desktop/AIoT/first_day/firstday_afternoon/LiteOS_Lab_STM32_IoT/iot_link/network/dtls/mbedtls/mbedtls-2.16.2/include/mbedtls\ssl_internal.h **** int mbedtls_ssl_handle_message_type( mbedtls_ssl_context *ssl );
 539:c:/Users/lenovo/Desktop/AIoT/first_day/firstday_afternoon/LiteOS_Lab_STM32_IoT/iot_link/network/dtls/mbedtls/mbedtls-2.16.2/include/mbedtls\ssl_internal.h **** int mbedtls_ssl_prepare_handshake_record( mbedtls_ssl_context *ssl );
 540:c:/Users/lenovo/Desktop/AIoT/first_day/firstday_afternoon/LiteOS_Lab_STM32_IoT/iot_link/network/dtls/mbedtls/mbedtls-2.16.2/include/mbedtls\ssl_internal.h **** void mbedtls_ssl_update_handshake_status( mbedtls_ssl_context *ssl );
 541:c:/Users/lenovo/Desktop/AIoT/first_day/firstday_afternoon/LiteOS_Lab_STM32_IoT/iot_link/network/dtls/mbedtls/mbedtls-2.16.2/include/mbedtls\ssl_internal.h **** 
 542:c:/Users/lenovo/Desktop/AIoT/first_day/firstday_afternoon/LiteOS_Lab_STM32_IoT/iot_link/network/dtls/mbedtls/mbedtls-2.16.2/include/mbedtls\ssl_internal.h **** /**
 543:c:/Users/lenovo/Desktop/AIoT/first_day/firstday_afternoon/LiteOS_Lab_STM32_IoT/iot_link/network/dtls/mbedtls/mbedtls-2.16.2/include/mbedtls\ssl_internal.h ****  * \brief       Update record layer
 544:c:/Users/lenovo/Desktop/AIoT/first_day/firstday_afternoon/LiteOS_Lab_STM32_IoT/iot_link/network/dtls/mbedtls/mbedtls-2.16.2/include/mbedtls\ssl_internal.h ****  *
 545:c:/Users/lenovo/Desktop/AIoT/first_day/firstday_afternoon/LiteOS_Lab_STM32_IoT/iot_link/network/dtls/mbedtls/mbedtls-2.16.2/include/mbedtls\ssl_internal.h ****  *              This function roughly separates the implementation
 546:c:/Users/lenovo/Desktop/AIoT/first_day/firstday_afternoon/LiteOS_Lab_STM32_IoT/iot_link/network/dtls/mbedtls/mbedtls-2.16.2/include/mbedtls\ssl_internal.h ****  *              of the logic of (D)TLS from the implementation
 547:c:/Users/lenovo/Desktop/AIoT/first_day/firstday_afternoon/LiteOS_Lab_STM32_IoT/iot_link/network/dtls/mbedtls/mbedtls-2.16.2/include/mbedtls\ssl_internal.h ****  *              of the secure transport.
ARM GAS  C:\Users\lenovo\AppData\Local\Temp\ccSoL50u.s 			page 21


 548:c:/Users/lenovo/Desktop/AIoT/first_day/firstday_afternoon/LiteOS_Lab_STM32_IoT/iot_link/network/dtls/mbedtls/mbedtls-2.16.2/include/mbedtls\ssl_internal.h ****  *
 549:c:/Users/lenovo/Desktop/AIoT/first_day/firstday_afternoon/LiteOS_Lab_STM32_IoT/iot_link/network/dtls/mbedtls/mbedtls-2.16.2/include/mbedtls\ssl_internal.h ****  * \param  ssl              The SSL context to use.
 550:c:/Users/lenovo/Desktop/AIoT/first_day/firstday_afternoon/LiteOS_Lab_STM32_IoT/iot_link/network/dtls/mbedtls/mbedtls-2.16.2/include/mbedtls\ssl_internal.h ****  * \param  update_hs_digest This indicates if the handshake digest
 551:c:/Users/lenovo/Desktop/AIoT/first_day/firstday_afternoon/LiteOS_Lab_STM32_IoT/iot_link/network/dtls/mbedtls/mbedtls-2.16.2/include/mbedtls\ssl_internal.h ****  *                          should be automatically updated in case
 552:c:/Users/lenovo/Desktop/AIoT/first_day/firstday_afternoon/LiteOS_Lab_STM32_IoT/iot_link/network/dtls/mbedtls/mbedtls-2.16.2/include/mbedtls\ssl_internal.h ****  *                          a handshake message is found.
 553:c:/Users/lenovo/Desktop/AIoT/first_day/firstday_afternoon/LiteOS_Lab_STM32_IoT/iot_link/network/dtls/mbedtls/mbedtls-2.16.2/include/mbedtls\ssl_internal.h ****  *
 554:c:/Users/lenovo/Desktop/AIoT/first_day/firstday_afternoon/LiteOS_Lab_STM32_IoT/iot_link/network/dtls/mbedtls/mbedtls-2.16.2/include/mbedtls\ssl_internal.h ****  * \return      0 or non-zero error code.
 555:c:/Users/lenovo/Desktop/AIoT/first_day/firstday_afternoon/LiteOS_Lab_STM32_IoT/iot_link/network/dtls/mbedtls/mbedtls-2.16.2/include/mbedtls\ssl_internal.h ****  *
 556:c:/Users/lenovo/Desktop/AIoT/first_day/firstday_afternoon/LiteOS_Lab_STM32_IoT/iot_link/network/dtls/mbedtls/mbedtls-2.16.2/include/mbedtls\ssl_internal.h ****  * \note        A clarification on what is called 'record layer' here
 557:c:/Users/lenovo/Desktop/AIoT/first_day/firstday_afternoon/LiteOS_Lab_STM32_IoT/iot_link/network/dtls/mbedtls/mbedtls-2.16.2/include/mbedtls\ssl_internal.h ****  *              is in order, as many sensible definitions are possible:
 558:c:/Users/lenovo/Desktop/AIoT/first_day/firstday_afternoon/LiteOS_Lab_STM32_IoT/iot_link/network/dtls/mbedtls/mbedtls-2.16.2/include/mbedtls\ssl_internal.h ****  *
 559:c:/Users/lenovo/Desktop/AIoT/first_day/firstday_afternoon/LiteOS_Lab_STM32_IoT/iot_link/network/dtls/mbedtls/mbedtls-2.16.2/include/mbedtls\ssl_internal.h ****  *              The record layer takes as input an untrusted underlying
 560:c:/Users/lenovo/Desktop/AIoT/first_day/firstday_afternoon/LiteOS_Lab_STM32_IoT/iot_link/network/dtls/mbedtls/mbedtls-2.16.2/include/mbedtls\ssl_internal.h ****  *              transport (stream or datagram) and transforms it into
 561:c:/Users/lenovo/Desktop/AIoT/first_day/firstday_afternoon/LiteOS_Lab_STM32_IoT/iot_link/network/dtls/mbedtls/mbedtls-2.16.2/include/mbedtls\ssl_internal.h ****  *              a serially multiplexed, secure transport, which
 562:c:/Users/lenovo/Desktop/AIoT/first_day/firstday_afternoon/LiteOS_Lab_STM32_IoT/iot_link/network/dtls/mbedtls/mbedtls-2.16.2/include/mbedtls\ssl_internal.h ****  *              conceptually provides the following:
 563:c:/Users/lenovo/Desktop/AIoT/first_day/firstday_afternoon/LiteOS_Lab_STM32_IoT/iot_link/network/dtls/mbedtls/mbedtls-2.16.2/include/mbedtls\ssl_internal.h ****  *
 564:c:/Users/lenovo/Desktop/AIoT/first_day/firstday_afternoon/LiteOS_Lab_STM32_IoT/iot_link/network/dtls/mbedtls/mbedtls-2.16.2/include/mbedtls\ssl_internal.h ****  *              (1) Three datagram based, content-agnostic transports
 565:c:/Users/lenovo/Desktop/AIoT/first_day/firstday_afternoon/LiteOS_Lab_STM32_IoT/iot_link/network/dtls/mbedtls/mbedtls-2.16.2/include/mbedtls\ssl_internal.h ****  *                  for handshake, alert and CCS messages.
 566:c:/Users/lenovo/Desktop/AIoT/first_day/firstday_afternoon/LiteOS_Lab_STM32_IoT/iot_link/network/dtls/mbedtls/mbedtls-2.16.2/include/mbedtls\ssl_internal.h ****  *              (2) One stream- or datagram-based transport
 567:c:/Users/lenovo/Desktop/AIoT/first_day/firstday_afternoon/LiteOS_Lab_STM32_IoT/iot_link/network/dtls/mbedtls/mbedtls-2.16.2/include/mbedtls\ssl_internal.h ****  *                  for application data.
 568:c:/Users/lenovo/Desktop/AIoT/first_day/firstday_afternoon/LiteOS_Lab_STM32_IoT/iot_link/network/dtls/mbedtls/mbedtls-2.16.2/include/mbedtls\ssl_internal.h ****  *              (3) Functionality for changing the underlying transform
 569:c:/Users/lenovo/Desktop/AIoT/first_day/firstday_afternoon/LiteOS_Lab_STM32_IoT/iot_link/network/dtls/mbedtls/mbedtls-2.16.2/include/mbedtls\ssl_internal.h ****  *                  securing the contents.
 570:c:/Users/lenovo/Desktop/AIoT/first_day/firstday_afternoon/LiteOS_Lab_STM32_IoT/iot_link/network/dtls/mbedtls/mbedtls-2.16.2/include/mbedtls\ssl_internal.h ****  *
 571:c:/Users/lenovo/Desktop/AIoT/first_day/firstday_afternoon/LiteOS_Lab_STM32_IoT/iot_link/network/dtls/mbedtls/mbedtls-2.16.2/include/mbedtls\ssl_internal.h ****  *              The interface to this functionality is given as follows:
 572:c:/Users/lenovo/Desktop/AIoT/first_day/firstday_afternoon/LiteOS_Lab_STM32_IoT/iot_link/network/dtls/mbedtls/mbedtls-2.16.2/include/mbedtls\ssl_internal.h ****  *
 573:c:/Users/lenovo/Desktop/AIoT/first_day/firstday_afternoon/LiteOS_Lab_STM32_IoT/iot_link/network/dtls/mbedtls/mbedtls-2.16.2/include/mbedtls\ssl_internal.h ****  *              a Updating
 574:c:/Users/lenovo/Desktop/AIoT/first_day/firstday_afternoon/LiteOS_Lab_STM32_IoT/iot_link/network/dtls/mbedtls/mbedtls-2.16.2/include/mbedtls\ssl_internal.h ****  *                [Currently implemented by mbedtls_ssl_read_record]
 575:c:/Users/lenovo/Desktop/AIoT/first_day/firstday_afternoon/LiteOS_Lab_STM32_IoT/iot_link/network/dtls/mbedtls/mbedtls-2.16.2/include/mbedtls\ssl_internal.h ****  *
 576:c:/Users/lenovo/Desktop/AIoT/first_day/firstday_afternoon/LiteOS_Lab_STM32_IoT/iot_link/network/dtls/mbedtls/mbedtls-2.16.2/include/mbedtls\ssl_internal.h ****  *                Check if and on which of the four 'ports' data is pending:
 577:c:/Users/lenovo/Desktop/AIoT/first_day/firstday_afternoon/LiteOS_Lab_STM32_IoT/iot_link/network/dtls/mbedtls/mbedtls-2.16.2/include/mbedtls\ssl_internal.h ****  *                Nothing, a controlling datagram of type (1), or application
 578:c:/Users/lenovo/Desktop/AIoT/first_day/firstday_afternoon/LiteOS_Lab_STM32_IoT/iot_link/network/dtls/mbedtls/mbedtls-2.16.2/include/mbedtls\ssl_internal.h ****  *                data (2). In any case data is present, internal buffers
 579:c:/Users/lenovo/Desktop/AIoT/first_day/firstday_afternoon/LiteOS_Lab_STM32_IoT/iot_link/network/dtls/mbedtls/mbedtls-2.16.2/include/mbedtls\ssl_internal.h ****  *                provide access to the data for the user to process it.
 580:c:/Users/lenovo/Desktop/AIoT/first_day/firstday_afternoon/LiteOS_Lab_STM32_IoT/iot_link/network/dtls/mbedtls/mbedtls-2.16.2/include/mbedtls\ssl_internal.h ****  *                Consumption of type (1) datagrams is done automatically
 581:c:/Users/lenovo/Desktop/AIoT/first_day/firstday_afternoon/LiteOS_Lab_STM32_IoT/iot_link/network/dtls/mbedtls/mbedtls-2.16.2/include/mbedtls\ssl_internal.h ****  *                on the next update, invalidating that the internal buffers
 582:c:/Users/lenovo/Desktop/AIoT/first_day/firstday_afternoon/LiteOS_Lab_STM32_IoT/iot_link/network/dtls/mbedtls/mbedtls-2.16.2/include/mbedtls\ssl_internal.h ****  *                for previous datagrams, while consumption of application
 583:c:/Users/lenovo/Desktop/AIoT/first_day/firstday_afternoon/LiteOS_Lab_STM32_IoT/iot_link/network/dtls/mbedtls/mbedtls-2.16.2/include/mbedtls\ssl_internal.h ****  *                data (2) is user-controlled.
 584:c:/Users/lenovo/Desktop/AIoT/first_day/firstday_afternoon/LiteOS_Lab_STM32_IoT/iot_link/network/dtls/mbedtls/mbedtls-2.16.2/include/mbedtls\ssl_internal.h ****  *
 585:c:/Users/lenovo/Desktop/AIoT/first_day/firstday_afternoon/LiteOS_Lab_STM32_IoT/iot_link/network/dtls/mbedtls/mbedtls-2.16.2/include/mbedtls\ssl_internal.h ****  *              b Reading of application data
 586:c:/Users/lenovo/Desktop/AIoT/first_day/firstday_afternoon/LiteOS_Lab_STM32_IoT/iot_link/network/dtls/mbedtls/mbedtls-2.16.2/include/mbedtls\ssl_internal.h ****  *                [Currently manual adaption of ssl->in_offt pointer]
 587:c:/Users/lenovo/Desktop/AIoT/first_day/firstday_afternoon/LiteOS_Lab_STM32_IoT/iot_link/network/dtls/mbedtls/mbedtls-2.16.2/include/mbedtls\ssl_internal.h ****  *
 588:c:/Users/lenovo/Desktop/AIoT/first_day/firstday_afternoon/LiteOS_Lab_STM32_IoT/iot_link/network/dtls/mbedtls/mbedtls-2.16.2/include/mbedtls\ssl_internal.h ****  *                As mentioned in the last paragraph, consumption of data
 589:c:/Users/lenovo/Desktop/AIoT/first_day/firstday_afternoon/LiteOS_Lab_STM32_IoT/iot_link/network/dtls/mbedtls/mbedtls-2.16.2/include/mbedtls\ssl_internal.h ****  *                is different from the automatic consumption of control
 590:c:/Users/lenovo/Desktop/AIoT/first_day/firstday_afternoon/LiteOS_Lab_STM32_IoT/iot_link/network/dtls/mbedtls/mbedtls-2.16.2/include/mbedtls\ssl_internal.h ****  *                datagrams (1) because application data is treated as a stream.
 591:c:/Users/lenovo/Desktop/AIoT/first_day/firstday_afternoon/LiteOS_Lab_STM32_IoT/iot_link/network/dtls/mbedtls/mbedtls-2.16.2/include/mbedtls\ssl_internal.h ****  *
 592:c:/Users/lenovo/Desktop/AIoT/first_day/firstday_afternoon/LiteOS_Lab_STM32_IoT/iot_link/network/dtls/mbedtls/mbedtls-2.16.2/include/mbedtls\ssl_internal.h ****  *              c Tracking availability of application data
 593:c:/Users/lenovo/Desktop/AIoT/first_day/firstday_afternoon/LiteOS_Lab_STM32_IoT/iot_link/network/dtls/mbedtls/mbedtls-2.16.2/include/mbedtls\ssl_internal.h ****  *                [Currently manually through decreasing ssl->in_msglen]
 594:c:/Users/lenovo/Desktop/AIoT/first_day/firstday_afternoon/LiteOS_Lab_STM32_IoT/iot_link/network/dtls/mbedtls/mbedtls-2.16.2/include/mbedtls\ssl_internal.h ****  *
 595:c:/Users/lenovo/Desktop/AIoT/first_day/firstday_afternoon/LiteOS_Lab_STM32_IoT/iot_link/network/dtls/mbedtls/mbedtls-2.16.2/include/mbedtls\ssl_internal.h ****  *                For efficiency and to retain datagram semantics for
 596:c:/Users/lenovo/Desktop/AIoT/first_day/firstday_afternoon/LiteOS_Lab_STM32_IoT/iot_link/network/dtls/mbedtls/mbedtls-2.16.2/include/mbedtls\ssl_internal.h ****  *                application data in case of DTLS, the record layer
 597:c:/Users/lenovo/Desktop/AIoT/first_day/firstday_afternoon/LiteOS_Lab_STM32_IoT/iot_link/network/dtls/mbedtls/mbedtls-2.16.2/include/mbedtls\ssl_internal.h ****  *                provides functionality for checking how much application
 598:c:/Users/lenovo/Desktop/AIoT/first_day/firstday_afternoon/LiteOS_Lab_STM32_IoT/iot_link/network/dtls/mbedtls/mbedtls-2.16.2/include/mbedtls\ssl_internal.h ****  *                data is still available in the internal buffer.
 599:c:/Users/lenovo/Desktop/AIoT/first_day/firstday_afternoon/LiteOS_Lab_STM32_IoT/iot_link/network/dtls/mbedtls/mbedtls-2.16.2/include/mbedtls\ssl_internal.h ****  *
 600:c:/Users/lenovo/Desktop/AIoT/first_day/firstday_afternoon/LiteOS_Lab_STM32_IoT/iot_link/network/dtls/mbedtls/mbedtls-2.16.2/include/mbedtls\ssl_internal.h ****  *              d Changing the transformation securing the communication.
 601:c:/Users/lenovo/Desktop/AIoT/first_day/firstday_afternoon/LiteOS_Lab_STM32_IoT/iot_link/network/dtls/mbedtls/mbedtls-2.16.2/include/mbedtls\ssl_internal.h ****  *
 602:c:/Users/lenovo/Desktop/AIoT/first_day/firstday_afternoon/LiteOS_Lab_STM32_IoT/iot_link/network/dtls/mbedtls/mbedtls-2.16.2/include/mbedtls\ssl_internal.h ****  *              Given an opaque implementation of the record layer in the
 603:c:/Users/lenovo/Desktop/AIoT/first_day/firstday_afternoon/LiteOS_Lab_STM32_IoT/iot_link/network/dtls/mbedtls/mbedtls-2.16.2/include/mbedtls\ssl_internal.h ****  *              above sense, it should be possible to implement the logic
 604:c:/Users/lenovo/Desktop/AIoT/first_day/firstday_afternoon/LiteOS_Lab_STM32_IoT/iot_link/network/dtls/mbedtls/mbedtls-2.16.2/include/mbedtls\ssl_internal.h ****  *              of (D)TLS on top of it without the need to know anything
ARM GAS  C:\Users\lenovo\AppData\Local\Temp\ccSoL50u.s 			page 22


 605:c:/Users/lenovo/Desktop/AIoT/first_day/firstday_afternoon/LiteOS_Lab_STM32_IoT/iot_link/network/dtls/mbedtls/mbedtls-2.16.2/include/mbedtls\ssl_internal.h ****  *              about the record layer's internals. This is done e.g.
 606:c:/Users/lenovo/Desktop/AIoT/first_day/firstday_afternoon/LiteOS_Lab_STM32_IoT/iot_link/network/dtls/mbedtls/mbedtls-2.16.2/include/mbedtls\ssl_internal.h ****  *              in all the handshake handling functions, and in the
 607:c:/Users/lenovo/Desktop/AIoT/first_day/firstday_afternoon/LiteOS_Lab_STM32_IoT/iot_link/network/dtls/mbedtls/mbedtls-2.16.2/include/mbedtls\ssl_internal.h ****  *              application data reading function mbedtls_ssl_read.
 608:c:/Users/lenovo/Desktop/AIoT/first_day/firstday_afternoon/LiteOS_Lab_STM32_IoT/iot_link/network/dtls/mbedtls/mbedtls-2.16.2/include/mbedtls\ssl_internal.h ****  *
 609:c:/Users/lenovo/Desktop/AIoT/first_day/firstday_afternoon/LiteOS_Lab_STM32_IoT/iot_link/network/dtls/mbedtls/mbedtls-2.16.2/include/mbedtls\ssl_internal.h ****  * \note        The above tries to give a conceptual picture of the
 610:c:/Users/lenovo/Desktop/AIoT/first_day/firstday_afternoon/LiteOS_Lab_STM32_IoT/iot_link/network/dtls/mbedtls/mbedtls-2.16.2/include/mbedtls\ssl_internal.h ****  *              record layer, but the current implementation deviates
 611:c:/Users/lenovo/Desktop/AIoT/first_day/firstday_afternoon/LiteOS_Lab_STM32_IoT/iot_link/network/dtls/mbedtls/mbedtls-2.16.2/include/mbedtls\ssl_internal.h ****  *              from it in some places. For example, our implementation of
 612:c:/Users/lenovo/Desktop/AIoT/first_day/firstday_afternoon/LiteOS_Lab_STM32_IoT/iot_link/network/dtls/mbedtls/mbedtls-2.16.2/include/mbedtls\ssl_internal.h ****  *              the update functionality through mbedtls_ssl_read_record
 613:c:/Users/lenovo/Desktop/AIoT/first_day/firstday_afternoon/LiteOS_Lab_STM32_IoT/iot_link/network/dtls/mbedtls/mbedtls-2.16.2/include/mbedtls\ssl_internal.h ****  *              discards datagrams depending on the current state, which
 614:c:/Users/lenovo/Desktop/AIoT/first_day/firstday_afternoon/LiteOS_Lab_STM32_IoT/iot_link/network/dtls/mbedtls/mbedtls-2.16.2/include/mbedtls\ssl_internal.h ****  *              wouldn't fall under the record layer's responsibility
 615:c:/Users/lenovo/Desktop/AIoT/first_day/firstday_afternoon/LiteOS_Lab_STM32_IoT/iot_link/network/dtls/mbedtls/mbedtls-2.16.2/include/mbedtls\ssl_internal.h ****  *              following the above definition.
 616:c:/Users/lenovo/Desktop/AIoT/first_day/firstday_afternoon/LiteOS_Lab_STM32_IoT/iot_link/network/dtls/mbedtls/mbedtls-2.16.2/include/mbedtls\ssl_internal.h ****  *
 617:c:/Users/lenovo/Desktop/AIoT/first_day/firstday_afternoon/LiteOS_Lab_STM32_IoT/iot_link/network/dtls/mbedtls/mbedtls-2.16.2/include/mbedtls\ssl_internal.h ****  */
 618:c:/Users/lenovo/Desktop/AIoT/first_day/firstday_afternoon/LiteOS_Lab_STM32_IoT/iot_link/network/dtls/mbedtls/mbedtls-2.16.2/include/mbedtls\ssl_internal.h **** int mbedtls_ssl_read_record( mbedtls_ssl_context *ssl,
 619:c:/Users/lenovo/Desktop/AIoT/first_day/firstday_afternoon/LiteOS_Lab_STM32_IoT/iot_link/network/dtls/mbedtls/mbedtls-2.16.2/include/mbedtls\ssl_internal.h ****                              unsigned update_hs_digest );
 620:c:/Users/lenovo/Desktop/AIoT/first_day/firstday_afternoon/LiteOS_Lab_STM32_IoT/iot_link/network/dtls/mbedtls/mbedtls-2.16.2/include/mbedtls\ssl_internal.h **** int mbedtls_ssl_fetch_input( mbedtls_ssl_context *ssl, size_t nb_want );
 621:c:/Users/lenovo/Desktop/AIoT/first_day/firstday_afternoon/LiteOS_Lab_STM32_IoT/iot_link/network/dtls/mbedtls/mbedtls-2.16.2/include/mbedtls\ssl_internal.h **** 
 622:c:/Users/lenovo/Desktop/AIoT/first_day/firstday_afternoon/LiteOS_Lab_STM32_IoT/iot_link/network/dtls/mbedtls/mbedtls-2.16.2/include/mbedtls\ssl_internal.h **** int mbedtls_ssl_write_handshake_msg( mbedtls_ssl_context *ssl );
 623:c:/Users/lenovo/Desktop/AIoT/first_day/firstday_afternoon/LiteOS_Lab_STM32_IoT/iot_link/network/dtls/mbedtls/mbedtls-2.16.2/include/mbedtls\ssl_internal.h **** int mbedtls_ssl_write_record( mbedtls_ssl_context *ssl, uint8_t force_flush );
 624:c:/Users/lenovo/Desktop/AIoT/first_day/firstday_afternoon/LiteOS_Lab_STM32_IoT/iot_link/network/dtls/mbedtls/mbedtls-2.16.2/include/mbedtls\ssl_internal.h **** int mbedtls_ssl_flush_output( mbedtls_ssl_context *ssl );
 625:c:/Users/lenovo/Desktop/AIoT/first_day/firstday_afternoon/LiteOS_Lab_STM32_IoT/iot_link/network/dtls/mbedtls/mbedtls-2.16.2/include/mbedtls\ssl_internal.h **** 
 626:c:/Users/lenovo/Desktop/AIoT/first_day/firstday_afternoon/LiteOS_Lab_STM32_IoT/iot_link/network/dtls/mbedtls/mbedtls-2.16.2/include/mbedtls\ssl_internal.h **** int mbedtls_ssl_parse_certificate( mbedtls_ssl_context *ssl );
 627:c:/Users/lenovo/Desktop/AIoT/first_day/firstday_afternoon/LiteOS_Lab_STM32_IoT/iot_link/network/dtls/mbedtls/mbedtls-2.16.2/include/mbedtls\ssl_internal.h **** int mbedtls_ssl_write_certificate( mbedtls_ssl_context *ssl );
 628:c:/Users/lenovo/Desktop/AIoT/first_day/firstday_afternoon/LiteOS_Lab_STM32_IoT/iot_link/network/dtls/mbedtls/mbedtls-2.16.2/include/mbedtls\ssl_internal.h **** 
 629:c:/Users/lenovo/Desktop/AIoT/first_day/firstday_afternoon/LiteOS_Lab_STM32_IoT/iot_link/network/dtls/mbedtls/mbedtls-2.16.2/include/mbedtls\ssl_internal.h **** int mbedtls_ssl_parse_change_cipher_spec( mbedtls_ssl_context *ssl );
 630:c:/Users/lenovo/Desktop/AIoT/first_day/firstday_afternoon/LiteOS_Lab_STM32_IoT/iot_link/network/dtls/mbedtls/mbedtls-2.16.2/include/mbedtls\ssl_internal.h **** int mbedtls_ssl_write_change_cipher_spec( mbedtls_ssl_context *ssl );
 631:c:/Users/lenovo/Desktop/AIoT/first_day/firstday_afternoon/LiteOS_Lab_STM32_IoT/iot_link/network/dtls/mbedtls/mbedtls-2.16.2/include/mbedtls\ssl_internal.h **** 
 632:c:/Users/lenovo/Desktop/AIoT/first_day/firstday_afternoon/LiteOS_Lab_STM32_IoT/iot_link/network/dtls/mbedtls/mbedtls-2.16.2/include/mbedtls\ssl_internal.h **** int mbedtls_ssl_parse_finished( mbedtls_ssl_context *ssl );
 633:c:/Users/lenovo/Desktop/AIoT/first_day/firstday_afternoon/LiteOS_Lab_STM32_IoT/iot_link/network/dtls/mbedtls/mbedtls-2.16.2/include/mbedtls\ssl_internal.h **** int mbedtls_ssl_write_finished( mbedtls_ssl_context *ssl );
 634:c:/Users/lenovo/Desktop/AIoT/first_day/firstday_afternoon/LiteOS_Lab_STM32_IoT/iot_link/network/dtls/mbedtls/mbedtls-2.16.2/include/mbedtls\ssl_internal.h **** 
 635:c:/Users/lenovo/Desktop/AIoT/first_day/firstday_afternoon/LiteOS_Lab_STM32_IoT/iot_link/network/dtls/mbedtls/mbedtls-2.16.2/include/mbedtls\ssl_internal.h **** void mbedtls_ssl_optimize_checksum( mbedtls_ssl_context *ssl,
 636:c:/Users/lenovo/Desktop/AIoT/first_day/firstday_afternoon/LiteOS_Lab_STM32_IoT/iot_link/network/dtls/mbedtls/mbedtls-2.16.2/include/mbedtls\ssl_internal.h ****                             const mbedtls_ssl_ciphersuite_t *ciphersuite_info );
 637:c:/Users/lenovo/Desktop/AIoT/first_day/firstday_afternoon/LiteOS_Lab_STM32_IoT/iot_link/network/dtls/mbedtls/mbedtls-2.16.2/include/mbedtls\ssl_internal.h **** 
 638:c:/Users/lenovo/Desktop/AIoT/first_day/firstday_afternoon/LiteOS_Lab_STM32_IoT/iot_link/network/dtls/mbedtls/mbedtls-2.16.2/include/mbedtls\ssl_internal.h **** #if defined(MBEDTLS_KEY_EXCHANGE__SOME__PSK_ENABLED)
 639:c:/Users/lenovo/Desktop/AIoT/first_day/firstday_afternoon/LiteOS_Lab_STM32_IoT/iot_link/network/dtls/mbedtls/mbedtls-2.16.2/include/mbedtls\ssl_internal.h **** int mbedtls_ssl_psk_derive_premaster( mbedtls_ssl_context *ssl, mbedtls_key_exchange_type_t key_ex 
 640:c:/Users/lenovo/Desktop/AIoT/first_day/firstday_afternoon/LiteOS_Lab_STM32_IoT/iot_link/network/dtls/mbedtls/mbedtls-2.16.2/include/mbedtls\ssl_internal.h **** #endif
 641:c:/Users/lenovo/Desktop/AIoT/first_day/firstday_afternoon/LiteOS_Lab_STM32_IoT/iot_link/network/dtls/mbedtls/mbedtls-2.16.2/include/mbedtls\ssl_internal.h **** 
 642:c:/Users/lenovo/Desktop/AIoT/first_day/firstday_afternoon/LiteOS_Lab_STM32_IoT/iot_link/network/dtls/mbedtls/mbedtls-2.16.2/include/mbedtls\ssl_internal.h **** #if defined(MBEDTLS_PK_C)
 643:c:/Users/lenovo/Desktop/AIoT/first_day/firstday_afternoon/LiteOS_Lab_STM32_IoT/iot_link/network/dtls/mbedtls/mbedtls-2.16.2/include/mbedtls\ssl_internal.h **** unsigned char mbedtls_ssl_sig_from_pk( mbedtls_pk_context *pk );
 644:c:/Users/lenovo/Desktop/AIoT/first_day/firstday_afternoon/LiteOS_Lab_STM32_IoT/iot_link/network/dtls/mbedtls/mbedtls-2.16.2/include/mbedtls\ssl_internal.h **** unsigned char mbedtls_ssl_sig_from_pk_alg( mbedtls_pk_type_t type );
 645:c:/Users/lenovo/Desktop/AIoT/first_day/firstday_afternoon/LiteOS_Lab_STM32_IoT/iot_link/network/dtls/mbedtls/mbedtls-2.16.2/include/mbedtls\ssl_internal.h **** mbedtls_pk_type_t mbedtls_ssl_pk_alg_from_sig( unsigned char sig );
 646:c:/Users/lenovo/Desktop/AIoT/first_day/firstday_afternoon/LiteOS_Lab_STM32_IoT/iot_link/network/dtls/mbedtls/mbedtls-2.16.2/include/mbedtls\ssl_internal.h **** #endif
 647:c:/Users/lenovo/Desktop/AIoT/first_day/firstday_afternoon/LiteOS_Lab_STM32_IoT/iot_link/network/dtls/mbedtls/mbedtls-2.16.2/include/mbedtls\ssl_internal.h **** 
 648:c:/Users/lenovo/Desktop/AIoT/first_day/firstday_afternoon/LiteOS_Lab_STM32_IoT/iot_link/network/dtls/mbedtls/mbedtls-2.16.2/include/mbedtls\ssl_internal.h **** mbedtls_md_type_t mbedtls_ssl_md_alg_from_hash( unsigned char hash );
 649:c:/Users/lenovo/Desktop/AIoT/first_day/firstday_afternoon/LiteOS_Lab_STM32_IoT/iot_link/network/dtls/mbedtls/mbedtls-2.16.2/include/mbedtls\ssl_internal.h **** unsigned char mbedtls_ssl_hash_from_md_alg( int md );
 650:c:/Users/lenovo/Desktop/AIoT/first_day/firstday_afternoon/LiteOS_Lab_STM32_IoT/iot_link/network/dtls/mbedtls/mbedtls-2.16.2/include/mbedtls\ssl_internal.h **** int mbedtls_ssl_set_calc_verify_md( mbedtls_ssl_context *ssl, int md );
 651:c:/Users/lenovo/Desktop/AIoT/first_day/firstday_afternoon/LiteOS_Lab_STM32_IoT/iot_link/network/dtls/mbedtls/mbedtls-2.16.2/include/mbedtls\ssl_internal.h **** 
 652:c:/Users/lenovo/Desktop/AIoT/first_day/firstday_afternoon/LiteOS_Lab_STM32_IoT/iot_link/network/dtls/mbedtls/mbedtls-2.16.2/include/mbedtls\ssl_internal.h **** #if defined(MBEDTLS_ECP_C)
 653:c:/Users/lenovo/Desktop/AIoT/first_day/firstday_afternoon/LiteOS_Lab_STM32_IoT/iot_link/network/dtls/mbedtls/mbedtls-2.16.2/include/mbedtls\ssl_internal.h **** int mbedtls_ssl_check_curve( const mbedtls_ssl_context *ssl, mbedtls_ecp_group_id grp_id );
 654:c:/Users/lenovo/Desktop/AIoT/first_day/firstday_afternoon/LiteOS_Lab_STM32_IoT/iot_link/network/dtls/mbedtls/mbedtls-2.16.2/include/mbedtls\ssl_internal.h **** #endif
 655:c:/Users/lenovo/Desktop/AIoT/first_day/firstday_afternoon/LiteOS_Lab_STM32_IoT/iot_link/network/dtls/mbedtls/mbedtls-2.16.2/include/mbedtls\ssl_internal.h **** 
 656:c:/Users/lenovo/Desktop/AIoT/first_day/firstday_afternoon/LiteOS_Lab_STM32_IoT/iot_link/network/dtls/mbedtls/mbedtls-2.16.2/include/mbedtls\ssl_internal.h **** #if defined(MBEDTLS_KEY_EXCHANGE__WITH_CERT__ENABLED)
 657:c:/Users/lenovo/Desktop/AIoT/first_day/firstday_afternoon/LiteOS_Lab_STM32_IoT/iot_link/network/dtls/mbedtls/mbedtls-2.16.2/include/mbedtls\ssl_internal.h **** int mbedtls_ssl_check_sig_hash( const mbedtls_ssl_context *ssl,
 658:c:/Users/lenovo/Desktop/AIoT/first_day/firstday_afternoon/LiteOS_Lab_STM32_IoT/iot_link/network/dtls/mbedtls/mbedtls-2.16.2/include/mbedtls\ssl_internal.h ****                                 mbedtls_md_type_t md );
 659:c:/Users/lenovo/Desktop/AIoT/first_day/firstday_afternoon/LiteOS_Lab_STM32_IoT/iot_link/network/dtls/mbedtls/mbedtls-2.16.2/include/mbedtls\ssl_internal.h **** #endif
 660:c:/Users/lenovo/Desktop/AIoT/first_day/firstday_afternoon/LiteOS_Lab_STM32_IoT/iot_link/network/dtls/mbedtls/mbedtls-2.16.2/include/mbedtls\ssl_internal.h **** 
 661:c:/Users/lenovo/Desktop/AIoT/first_day/firstday_afternoon/LiteOS_Lab_STM32_IoT/iot_link/network/dtls/mbedtls/mbedtls-2.16.2/include/mbedtls\ssl_internal.h **** #if defined(MBEDTLS_X509_CRT_PARSE_C)
ARM GAS  C:\Users\lenovo\AppData\Local\Temp\ccSoL50u.s 			page 23


 662:c:/Users/lenovo/Desktop/AIoT/first_day/firstday_afternoon/LiteOS_Lab_STM32_IoT/iot_link/network/dtls/mbedtls/mbedtls-2.16.2/include/mbedtls\ssl_internal.h **** static inline mbedtls_pk_context *mbedtls_ssl_own_key( mbedtls_ssl_context *ssl )
 663:c:/Users/lenovo/Desktop/AIoT/first_day/firstday_afternoon/LiteOS_Lab_STM32_IoT/iot_link/network/dtls/mbedtls/mbedtls-2.16.2/include/mbedtls\ssl_internal.h **** {
 664:c:/Users/lenovo/Desktop/AIoT/first_day/firstday_afternoon/LiteOS_Lab_STM32_IoT/iot_link/network/dtls/mbedtls/mbedtls-2.16.2/include/mbedtls\ssl_internal.h ****     mbedtls_ssl_key_cert *key_cert;
 665:c:/Users/lenovo/Desktop/AIoT/first_day/firstday_afternoon/LiteOS_Lab_STM32_IoT/iot_link/network/dtls/mbedtls/mbedtls-2.16.2/include/mbedtls\ssl_internal.h **** 
 666:c:/Users/lenovo/Desktop/AIoT/first_day/firstday_afternoon/LiteOS_Lab_STM32_IoT/iot_link/network/dtls/mbedtls/mbedtls-2.16.2/include/mbedtls\ssl_internal.h ****     if( ssl->handshake != NULL && ssl->handshake->key_cert != NULL )
 667:c:/Users/lenovo/Desktop/AIoT/first_day/firstday_afternoon/LiteOS_Lab_STM32_IoT/iot_link/network/dtls/mbedtls/mbedtls-2.16.2/include/mbedtls\ssl_internal.h ****         key_cert = ssl->handshake->key_cert;
 668:c:/Users/lenovo/Desktop/AIoT/first_day/firstday_afternoon/LiteOS_Lab_STM32_IoT/iot_link/network/dtls/mbedtls/mbedtls-2.16.2/include/mbedtls\ssl_internal.h ****     else
 669:c:/Users/lenovo/Desktop/AIoT/first_day/firstday_afternoon/LiteOS_Lab_STM32_IoT/iot_link/network/dtls/mbedtls/mbedtls-2.16.2/include/mbedtls\ssl_internal.h ****         key_cert = ssl->conf->key_cert;
 670:c:/Users/lenovo/Desktop/AIoT/first_day/firstday_afternoon/LiteOS_Lab_STM32_IoT/iot_link/network/dtls/mbedtls/mbedtls-2.16.2/include/mbedtls\ssl_internal.h **** 
 671:c:/Users/lenovo/Desktop/AIoT/first_day/firstday_afternoon/LiteOS_Lab_STM32_IoT/iot_link/network/dtls/mbedtls/mbedtls-2.16.2/include/mbedtls\ssl_internal.h ****     return( key_cert == NULL ? NULL : key_cert->key );
 672:c:/Users/lenovo/Desktop/AIoT/first_day/firstday_afternoon/LiteOS_Lab_STM32_IoT/iot_link/network/dtls/mbedtls/mbedtls-2.16.2/include/mbedtls\ssl_internal.h **** }
 673:c:/Users/lenovo/Desktop/AIoT/first_day/firstday_afternoon/LiteOS_Lab_STM32_IoT/iot_link/network/dtls/mbedtls/mbedtls-2.16.2/include/mbedtls\ssl_internal.h **** 
 674:c:/Users/lenovo/Desktop/AIoT/first_day/firstday_afternoon/LiteOS_Lab_STM32_IoT/iot_link/network/dtls/mbedtls/mbedtls-2.16.2/include/mbedtls\ssl_internal.h **** static inline mbedtls_x509_crt *mbedtls_ssl_own_cert( mbedtls_ssl_context *ssl )
 675:c:/Users/lenovo/Desktop/AIoT/first_day/firstday_afternoon/LiteOS_Lab_STM32_IoT/iot_link/network/dtls/mbedtls/mbedtls-2.16.2/include/mbedtls\ssl_internal.h **** {
 676:c:/Users/lenovo/Desktop/AIoT/first_day/firstday_afternoon/LiteOS_Lab_STM32_IoT/iot_link/network/dtls/mbedtls/mbedtls-2.16.2/include/mbedtls\ssl_internal.h ****     mbedtls_ssl_key_cert *key_cert;
 677:c:/Users/lenovo/Desktop/AIoT/first_day/firstday_afternoon/LiteOS_Lab_STM32_IoT/iot_link/network/dtls/mbedtls/mbedtls-2.16.2/include/mbedtls\ssl_internal.h **** 
 678:c:/Users/lenovo/Desktop/AIoT/first_day/firstday_afternoon/LiteOS_Lab_STM32_IoT/iot_link/network/dtls/mbedtls/mbedtls-2.16.2/include/mbedtls\ssl_internal.h ****     if( ssl->handshake != NULL && ssl->handshake->key_cert != NULL )
 679:c:/Users/lenovo/Desktop/AIoT/first_day/firstday_afternoon/LiteOS_Lab_STM32_IoT/iot_link/network/dtls/mbedtls/mbedtls-2.16.2/include/mbedtls\ssl_internal.h ****         key_cert = ssl->handshake->key_cert;
 680:c:/Users/lenovo/Desktop/AIoT/first_day/firstday_afternoon/LiteOS_Lab_STM32_IoT/iot_link/network/dtls/mbedtls/mbedtls-2.16.2/include/mbedtls\ssl_internal.h ****     else
 681:c:/Users/lenovo/Desktop/AIoT/first_day/firstday_afternoon/LiteOS_Lab_STM32_IoT/iot_link/network/dtls/mbedtls/mbedtls-2.16.2/include/mbedtls\ssl_internal.h ****         key_cert = ssl->conf->key_cert;
 682:c:/Users/lenovo/Desktop/AIoT/first_day/firstday_afternoon/LiteOS_Lab_STM32_IoT/iot_link/network/dtls/mbedtls/mbedtls-2.16.2/include/mbedtls\ssl_internal.h **** 
 683:c:/Users/lenovo/Desktop/AIoT/first_day/firstday_afternoon/LiteOS_Lab_STM32_IoT/iot_link/network/dtls/mbedtls/mbedtls-2.16.2/include/mbedtls\ssl_internal.h ****     return( key_cert == NULL ? NULL : key_cert->cert );
 684:c:/Users/lenovo/Desktop/AIoT/first_day/firstday_afternoon/LiteOS_Lab_STM32_IoT/iot_link/network/dtls/mbedtls/mbedtls-2.16.2/include/mbedtls\ssl_internal.h **** }
 685:c:/Users/lenovo/Desktop/AIoT/first_day/firstday_afternoon/LiteOS_Lab_STM32_IoT/iot_link/network/dtls/mbedtls/mbedtls-2.16.2/include/mbedtls\ssl_internal.h **** 
 686:c:/Users/lenovo/Desktop/AIoT/first_day/firstday_afternoon/LiteOS_Lab_STM32_IoT/iot_link/network/dtls/mbedtls/mbedtls-2.16.2/include/mbedtls\ssl_internal.h **** /*
 687:c:/Users/lenovo/Desktop/AIoT/first_day/firstday_afternoon/LiteOS_Lab_STM32_IoT/iot_link/network/dtls/mbedtls/mbedtls-2.16.2/include/mbedtls\ssl_internal.h ****  * Check usage of a certificate wrt extensions:
 688:c:/Users/lenovo/Desktop/AIoT/first_day/firstday_afternoon/LiteOS_Lab_STM32_IoT/iot_link/network/dtls/mbedtls/mbedtls-2.16.2/include/mbedtls\ssl_internal.h ****  * keyUsage, extendedKeyUsage (later), and nSCertType (later).
 689:c:/Users/lenovo/Desktop/AIoT/first_day/firstday_afternoon/LiteOS_Lab_STM32_IoT/iot_link/network/dtls/mbedtls/mbedtls-2.16.2/include/mbedtls\ssl_internal.h ****  *
 690:c:/Users/lenovo/Desktop/AIoT/first_day/firstday_afternoon/LiteOS_Lab_STM32_IoT/iot_link/network/dtls/mbedtls/mbedtls-2.16.2/include/mbedtls\ssl_internal.h ****  * Warning: cert_endpoint is the endpoint of the cert (ie, of our peer when we
 691:c:/Users/lenovo/Desktop/AIoT/first_day/firstday_afternoon/LiteOS_Lab_STM32_IoT/iot_link/network/dtls/mbedtls/mbedtls-2.16.2/include/mbedtls\ssl_internal.h ****  * check a cert we received from them)!
 692:c:/Users/lenovo/Desktop/AIoT/first_day/firstday_afternoon/LiteOS_Lab_STM32_IoT/iot_link/network/dtls/mbedtls/mbedtls-2.16.2/include/mbedtls\ssl_internal.h ****  *
 693:c:/Users/lenovo/Desktop/AIoT/first_day/firstday_afternoon/LiteOS_Lab_STM32_IoT/iot_link/network/dtls/mbedtls/mbedtls-2.16.2/include/mbedtls\ssl_internal.h ****  * Return 0 if everything is OK, -1 if not.
 694:c:/Users/lenovo/Desktop/AIoT/first_day/firstday_afternoon/LiteOS_Lab_STM32_IoT/iot_link/network/dtls/mbedtls/mbedtls-2.16.2/include/mbedtls\ssl_internal.h ****  */
 695:c:/Users/lenovo/Desktop/AIoT/first_day/firstday_afternoon/LiteOS_Lab_STM32_IoT/iot_link/network/dtls/mbedtls/mbedtls-2.16.2/include/mbedtls\ssl_internal.h **** int mbedtls_ssl_check_cert_usage( const mbedtls_x509_crt *cert,
 696:c:/Users/lenovo/Desktop/AIoT/first_day/firstday_afternoon/LiteOS_Lab_STM32_IoT/iot_link/network/dtls/mbedtls/mbedtls-2.16.2/include/mbedtls\ssl_internal.h ****                           const mbedtls_ssl_ciphersuite_t *ciphersuite,
 697:c:/Users/lenovo/Desktop/AIoT/first_day/firstday_afternoon/LiteOS_Lab_STM32_IoT/iot_link/network/dtls/mbedtls/mbedtls-2.16.2/include/mbedtls\ssl_internal.h ****                           int cert_endpoint,
 698:c:/Users/lenovo/Desktop/AIoT/first_day/firstday_afternoon/LiteOS_Lab_STM32_IoT/iot_link/network/dtls/mbedtls/mbedtls-2.16.2/include/mbedtls\ssl_internal.h ****                           uint32_t *flags );
 699:c:/Users/lenovo/Desktop/AIoT/first_day/firstday_afternoon/LiteOS_Lab_STM32_IoT/iot_link/network/dtls/mbedtls/mbedtls-2.16.2/include/mbedtls\ssl_internal.h **** #endif /* MBEDTLS_X509_CRT_PARSE_C */
 700:c:/Users/lenovo/Desktop/AIoT/first_day/firstday_afternoon/LiteOS_Lab_STM32_IoT/iot_link/network/dtls/mbedtls/mbedtls-2.16.2/include/mbedtls\ssl_internal.h **** 
 701:c:/Users/lenovo/Desktop/AIoT/first_day/firstday_afternoon/LiteOS_Lab_STM32_IoT/iot_link/network/dtls/mbedtls/mbedtls-2.16.2/include/mbedtls\ssl_internal.h **** void mbedtls_ssl_write_version( int major, int minor, int transport,
 702:c:/Users/lenovo/Desktop/AIoT/first_day/firstday_afternoon/LiteOS_Lab_STM32_IoT/iot_link/network/dtls/mbedtls/mbedtls-2.16.2/include/mbedtls\ssl_internal.h ****                         unsigned char ver[2] );
 703:c:/Users/lenovo/Desktop/AIoT/first_day/firstday_afternoon/LiteOS_Lab_STM32_IoT/iot_link/network/dtls/mbedtls/mbedtls-2.16.2/include/mbedtls\ssl_internal.h **** void mbedtls_ssl_read_version( int *major, int *minor, int transport,
 704:c:/Users/lenovo/Desktop/AIoT/first_day/firstday_afternoon/LiteOS_Lab_STM32_IoT/iot_link/network/dtls/mbedtls/mbedtls-2.16.2/include/mbedtls\ssl_internal.h ****                        const unsigned char ver[2] );
 705:c:/Users/lenovo/Desktop/AIoT/first_day/firstday_afternoon/LiteOS_Lab_STM32_IoT/iot_link/network/dtls/mbedtls/mbedtls-2.16.2/include/mbedtls\ssl_internal.h **** 
 706:c:/Users/lenovo/Desktop/AIoT/first_day/firstday_afternoon/LiteOS_Lab_STM32_IoT/iot_link/network/dtls/mbedtls/mbedtls-2.16.2/include/mbedtls\ssl_internal.h **** static inline size_t mbedtls_ssl_hdr_len( const mbedtls_ssl_context *ssl )
 707:c:/Users/lenovo/Desktop/AIoT/first_day/firstday_afternoon/LiteOS_Lab_STM32_IoT/iot_link/network/dtls/mbedtls/mbedtls-2.16.2/include/mbedtls\ssl_internal.h **** {
 145              		.loc 2 707 1
 146              		.cfi_startproc
 147              		@ args = 0, pretend = 0, frame = 8
 148              		@ frame_needed = 1, uses_anonymous_args = 0
 149              		@ link register save eliminated.
 150 0000 80B4     		push	{r7}
 151              	.LCFI12:
 152              		.cfi_def_cfa_offset 4
 153              		.cfi_offset 7, -4
 154 0002 83B0     		sub	sp, sp, #12
 155              	.LCFI13:
ARM GAS  C:\Users\lenovo\AppData\Local\Temp\ccSoL50u.s 			page 24


 156              		.cfi_def_cfa_offset 16
 157 0004 00AF     		add	r7, sp, #0
 158              	.LCFI14:
 159              		.cfi_def_cfa_register 7
 160 0006 7860     		str	r0, [r7, #4]
 708:c:/Users/lenovo/Desktop/AIoT/first_day/firstday_afternoon/LiteOS_Lab_STM32_IoT/iot_link/network/dtls/mbedtls/mbedtls-2.16.2/include/mbedtls\ssl_internal.h **** #if defined(MBEDTLS_SSL_PROTO_DTLS)
 709:c:/Users/lenovo/Desktop/AIoT/first_day/firstday_afternoon/LiteOS_Lab_STM32_IoT/iot_link/network/dtls/mbedtls/mbedtls-2.16.2/include/mbedtls\ssl_internal.h ****     if( ssl->conf->transport == MBEDTLS_SSL_TRANSPORT_DATAGRAM )
 161              		.loc 2 709 12
 162 0008 7B68     		ldr	r3, [r7, #4]
 163 000a 1B68     		ldr	r3, [r3]
 164              		.loc 2 709 30
 165 000c 93F86C30 		ldrb	r3, [r3, #108]	@ zero_extendqisi2
 166 0010 03F00203 		and	r3, r3, #2
 167 0014 DBB2     		uxtb	r3, r3
 168              		.loc 2 709 7
 169 0016 002B     		cmp	r3, #0
 170 0018 01D0     		beq	.L8
 710:c:/Users/lenovo/Desktop/AIoT/first_day/firstday_afternoon/LiteOS_Lab_STM32_IoT/iot_link/network/dtls/mbedtls/mbedtls-2.16.2/include/mbedtls\ssl_internal.h ****         return( 13 );
 171              		.loc 2 710 15
 172 001a 0D23     		movs	r3, #13
 173 001c 00E0     		b	.L9
 174              	.L8:
 711:c:/Users/lenovo/Desktop/AIoT/first_day/firstday_afternoon/LiteOS_Lab_STM32_IoT/iot_link/network/dtls/mbedtls/mbedtls-2.16.2/include/mbedtls\ssl_internal.h **** #else
 712:c:/Users/lenovo/Desktop/AIoT/first_day/firstday_afternoon/LiteOS_Lab_STM32_IoT/iot_link/network/dtls/mbedtls/mbedtls-2.16.2/include/mbedtls\ssl_internal.h ****     ((void) ssl);
 713:c:/Users/lenovo/Desktop/AIoT/first_day/firstday_afternoon/LiteOS_Lab_STM32_IoT/iot_link/network/dtls/mbedtls/mbedtls-2.16.2/include/mbedtls\ssl_internal.h **** #endif
 714:c:/Users/lenovo/Desktop/AIoT/first_day/firstday_afternoon/LiteOS_Lab_STM32_IoT/iot_link/network/dtls/mbedtls/mbedtls-2.16.2/include/mbedtls\ssl_internal.h ****     return( 5 );
 175              		.loc 2 714 11
 176 001e 0523     		movs	r3, #5
 177              	.L9:
 715:c:/Users/lenovo/Desktop/AIoT/first_day/firstday_afternoon/LiteOS_Lab_STM32_IoT/iot_link/network/dtls/mbedtls/mbedtls-2.16.2/include/mbedtls\ssl_internal.h **** }
 178              		.loc 2 715 1
 179 0020 1846     		mov	r0, r3
 180 0022 0C37     		adds	r7, r7, #12
 181              	.LCFI15:
 182              		.cfi_def_cfa_offset 4
 183 0024 BD46     		mov	sp, r7
 184              	.LCFI16:
 185              		.cfi_def_cfa_register 13
 186              		@ sp needed
 187 0026 5DF8047B 		ldr	r7, [sp], #4
 188              	.LCFI17:
 189              		.cfi_restore 7
 190              		.cfi_def_cfa_offset 0
 191 002a 7047     		bx	lr
 192              		.cfi_endproc
 193              	.LFE13:
 195              		.section	.text.mbedtls_ssl_hs_hdr_len,"ax",%progbits
 196              		.align	1
 197              		.syntax unified
 198              		.thumb
 199              		.thumb_func
 200              		.fpu fpv4-sp-d16
 202              	mbedtls_ssl_hs_hdr_len:
 203              	.LFB14:
 716:c:/Users/lenovo/Desktop/AIoT/first_day/firstday_afternoon/LiteOS_Lab_STM32_IoT/iot_link/network/dtls/mbedtls/mbedtls-2.16.2/include/mbedtls\ssl_internal.h **** 
 717:c:/Users/lenovo/Desktop/AIoT/first_day/firstday_afternoon/LiteOS_Lab_STM32_IoT/iot_link/network/dtls/mbedtls/mbedtls-2.16.2/include/mbedtls\ssl_internal.h **** static inline size_t mbedtls_ssl_hs_hdr_len( const mbedtls_ssl_context *ssl )
 718:c:/Users/lenovo/Desktop/AIoT/first_day/firstday_afternoon/LiteOS_Lab_STM32_IoT/iot_link/network/dtls/mbedtls/mbedtls-2.16.2/include/mbedtls\ssl_internal.h **** {
ARM GAS  C:\Users\lenovo\AppData\Local\Temp\ccSoL50u.s 			page 25


 204              		.loc 2 718 1
 205              		.cfi_startproc
 206              		@ args = 0, pretend = 0, frame = 8
 207              		@ frame_needed = 1, uses_anonymous_args = 0
 208              		@ link register save eliminated.
 209 0000 80B4     		push	{r7}
 210              	.LCFI18:
 211              		.cfi_def_cfa_offset 4
 212              		.cfi_offset 7, -4
 213 0002 83B0     		sub	sp, sp, #12
 214              	.LCFI19:
 215              		.cfi_def_cfa_offset 16
 216 0004 00AF     		add	r7, sp, #0
 217              	.LCFI20:
 218              		.cfi_def_cfa_register 7
 219 0006 7860     		str	r0, [r7, #4]
 719:c:/Users/lenovo/Desktop/AIoT/first_day/firstday_afternoon/LiteOS_Lab_STM32_IoT/iot_link/network/dtls/mbedtls/mbedtls-2.16.2/include/mbedtls\ssl_internal.h **** #if defined(MBEDTLS_SSL_PROTO_DTLS)
 720:c:/Users/lenovo/Desktop/AIoT/first_day/firstday_afternoon/LiteOS_Lab_STM32_IoT/iot_link/network/dtls/mbedtls/mbedtls-2.16.2/include/mbedtls\ssl_internal.h ****     if( ssl->conf->transport == MBEDTLS_SSL_TRANSPORT_DATAGRAM )
 220              		.loc 2 720 12
 221 0008 7B68     		ldr	r3, [r7, #4]
 222 000a 1B68     		ldr	r3, [r3]
 223              		.loc 2 720 30
 224 000c 93F86C30 		ldrb	r3, [r3, #108]	@ zero_extendqisi2
 225 0010 03F00203 		and	r3, r3, #2
 226 0014 DBB2     		uxtb	r3, r3
 227              		.loc 2 720 7
 228 0016 002B     		cmp	r3, #0
 229 0018 01D0     		beq	.L11
 721:c:/Users/lenovo/Desktop/AIoT/first_day/firstday_afternoon/LiteOS_Lab_STM32_IoT/iot_link/network/dtls/mbedtls/mbedtls-2.16.2/include/mbedtls\ssl_internal.h ****         return( 12 );
 230              		.loc 2 721 15
 231 001a 0C23     		movs	r3, #12
