ARM GAS  C:\Users\lenovo\AppData\Local\Temp\ccEGFOni.s 			page 1


   1              		.cpu cortex-m4
   2              		.eabi_attribute 27, 1
   3              		.eabi_attribute 28, 1
   4              		.eabi_attribute 20, 1
   5              		.eabi_attribute 21, 1
   6              		.eabi_attribute 23, 3
   7              		.eabi_attribute 24, 1
   8              		.eabi_attribute 25, 1
   9              		.eabi_attribute 26, 1
  10              		.eabi_attribute 30, 6
  11              		.eabi_attribute 34, 1
  12              		.eabi_attribute 18, 4
  13              		.file	"usart.c"
  14              		.text
  15              	.Ltext0:
  16              		.cfi_sections	.debug_frame
  17              		.comm	hlpuart1,120,4
  18              		.comm	huart1,120,4
  19              		.comm	huart2,120,4
  20              		.comm	huart3,120,4
  21              		.section	.rodata
  22              		.align	2
  23              	.LC0:
  24 0000 633A2F55 		.ascii	"c:/Users/lenovo/Desktop/AIoT/first_day/firstday_aft"
  24      73657273 
  24      2F6C656E 
  24      6F766F2F 
  24      4465736B 
  25 0033 65726E6F 		.ascii	"ernoon/LiteOS_Lab_STM32_IoT/targets/STM32L431_BearP"
  25      6F6E2F4C 
  25      6974654F 
  25      535F4C61 
  25      625F5354 
  26 0066 692F5372 		.ascii	"i/Src/usart.c\000"
  26      632F7573 
  26      6172742E 
  26      6300
  27              		.section	.text.MX_LPUART1_UART_Init,"ax",%progbits
  28              		.align	1
  29              		.global	MX_LPUART1_UART_Init
  30              		.arch armv7e-m
  31              		.syntax unified
  32              		.thumb
  33              		.thumb_func
  34              		.fpu fpv4-sp-d16
  36              	MX_LPUART1_UART_Init:
  37              	.LFB287:
  38              		.file 1 "c:/Users/lenovo/Desktop/AIoT/first_day/firstday_afternoon/LiteOS_Lab_STM32_IoT/targets/ST
   1:c:/Users/lenovo/Desktop/AIoT/first_day/firstday_afternoon/LiteOS_Lab_STM32_IoT/targets/STM32L431_BearPi/Src\usart.c **** /**
   2:c:/Users/lenovo/Desktop/AIoT/first_day/firstday_afternoon/LiteOS_Lab_STM32_IoT/targets/STM32L431_BearPi/Src\usart.c ****   ******************************************************************************
   3:c:/Users/lenovo/Desktop/AIoT/first_day/firstday_afternoon/LiteOS_Lab_STM32_IoT/targets/STM32L431_BearPi/Src\usart.c ****   * File Name          : USART.c
   4:c:/Users/lenovo/Desktop/AIoT/first_day/firstday_afternoon/LiteOS_Lab_STM32_IoT/targets/STM32L431_BearPi/Src\usart.c ****   * Description        : This file provides code for the configuration
   5:c:/Users/lenovo/Desktop/AIoT/first_day/firstday_afternoon/LiteOS_Lab_STM32_IoT/targets/STM32L431_BearPi/Src\usart.c ****   *                      of the USART instances.
   6:c:/Users/lenovo/Desktop/AIoT/first_day/firstday_afternoon/LiteOS_Lab_STM32_IoT/targets/STM32L431_BearPi/Src\usart.c ****   ******************************************************************************
   7:c:/Users/lenovo/Desktop/AIoT/first_day/firstday_afternoon/LiteOS_Lab_STM32_IoT/targets/STM32L431_BearPi/Src\usart.c ****   ** This notice applies to any and all portions of this file
   8:c:/Users/lenovo/Desktop/AIoT/first_day/firstday_afternoon/LiteOS_Lab_STM32_IoT/targets/STM32L431_BearPi/Src\usart.c ****   * that are not between comment pairs USER CODE BEGIN and
   9:c:/Users/lenovo/Desktop/AIoT/first_day/firstday_afternoon/LiteOS_Lab_STM32_IoT/targets/STM32L431_BearPi/Src\usart.c ****   * USER CODE END. Other portions of this file, whether 
ARM GAS  C:\Users\lenovo\AppData\Local\Temp\ccEGFOni.s 			page 2


  10:c:/Users/lenovo/Desktop/AIoT/first_day/firstday_afternoon/LiteOS_Lab_STM32_IoT/targets/STM32L431_BearPi/Src\usart.c ****   * inserted by the user or by software development tools
  11:c:/Users/lenovo/Desktop/AIoT/first_day/firstday_afternoon/LiteOS_Lab_STM32_IoT/targets/STM32L431_BearPi/Src\usart.c ****   * are owned by their respective copyright owners.
  12:c:/Users/lenovo/Desktop/AIoT/first_day/firstday_afternoon/LiteOS_Lab_STM32_IoT/targets/STM32L431_BearPi/Src\usart.c ****   *
  13:c:/Users/lenovo/Desktop/AIoT/first_day/firstday_afternoon/LiteOS_Lab_STM32_IoT/targets/STM32L431_BearPi/Src\usart.c ****   * COPYRIGHT(c) 2018 STMicroelectronics
  14:c:/Users/lenovo/Desktop/AIoT/first_day/firstday_afternoon/LiteOS_Lab_STM32_IoT/targets/STM32L431_BearPi/Src\usart.c ****   *
  15:c:/Users/lenovo/Desktop/AIoT/first_day/firstday_afternoon/LiteOS_Lab_STM32_IoT/targets/STM32L431_BearPi/Src\usart.c ****   * Redistribution and use in source and binary forms, with or without modification,
  16:c:/Users/lenovo/Desktop/AIoT/first_day/firstday_afternoon/LiteOS_Lab_STM32_IoT/targets/STM32L431_BearPi/Src\usart.c ****   * are permitted provided that the following conditions are met:
  17:c:/Users/lenovo/Desktop/AIoT/first_day/firstday_afternoon/LiteOS_Lab_STM32_IoT/targets/STM32L431_BearPi/Src\usart.c ****   *   1. Redistributions of source code must retain the above copyright notice,
  18:c:/Users/lenovo/Desktop/AIoT/first_day/firstday_afternoon/LiteOS_Lab_STM32_IoT/targets/STM32L431_BearPi/Src\usart.c ****   *      this list of conditions and the following disclaimer.
  19:c:/Users/lenovo/Desktop/AIoT/first_day/firstday_afternoon/LiteOS_Lab_STM32_IoT/targets/STM32L431_BearPi/Src\usart.c ****   *   2. Redistributions in binary form must reproduce the above copyright notice,
  20:c:/Users/lenovo/Desktop/AIoT/first_day/firstday_afternoon/LiteOS_Lab_STM32_IoT/targets/STM32L431_BearPi/Src\usart.c ****   *      this list of conditions and the following disclaimer in the documentation
  21:c:/Users/lenovo/Desktop/AIoT/first_day/firstday_afternoon/LiteOS_Lab_STM32_IoT/targets/STM32L431_BearPi/Src\usart.c ****   *      and/or other materials provided with the distribution.
  22:c:/Users/lenovo/Desktop/AIoT/first_day/firstday_afternoon/LiteOS_Lab_STM32_IoT/targets/STM32L431_BearPi/Src\usart.c ****   *   3. Neither the name of STMicroelectronics nor the names of its contributors
  23:c:/Users/lenovo/Desktop/AIoT/first_day/firstday_afternoon/LiteOS_Lab_STM32_IoT/targets/STM32L431_BearPi/Src\usart.c ****   *      may be used to endorse or promote products derived from this software
  24:c:/Users/lenovo/Desktop/AIoT/first_day/firstday_afternoon/LiteOS_Lab_STM32_IoT/targets/STM32L431_BearPi/Src\usart.c ****   *      without specific prior written permission.
  25:c:/Users/lenovo/Desktop/AIoT/first_day/firstday_afternoon/LiteOS_Lab_STM32_IoT/targets/STM32L431_BearPi/Src\usart.c ****   *
  26:c:/Users/lenovo/Desktop/AIoT/first_day/firstday_afternoon/LiteOS_Lab_STM32_IoT/targets/STM32L431_BearPi/Src\usart.c ****   * THIS SOFTWARE IS PROVIDED BY THE COPYRIGHT HOLDERS AND CONTRIBUTORS "AS IS"
  27:c:/Users/lenovo/Desktop/AIoT/first_day/firstday_afternoon/LiteOS_Lab_STM32_IoT/targets/STM32L431_BearPi/Src\usart.c ****   * AND ANY EXPRESS OR IMPLIED WARRANTIES, INCLUDING, BUT NOT LIMITED TO, THE
  28:c:/Users/lenovo/Desktop/AIoT/first_day/firstday_afternoon/LiteOS_Lab_STM32_IoT/targets/STM32L431_BearPi/Src\usart.c ****   * IMPLIED WARRANTIES OF MERCHANTABILITY AND FITNESS FOR A PARTICULAR PURPOSE ARE
  29:c:/Users/lenovo/Desktop/AIoT/first_day/firstday_afternoon/LiteOS_Lab_STM32_IoT/targets/STM32L431_BearPi/Src\usart.c ****   * DISCLAIMED. IN NO EVENT SHALL THE COPYRIGHT HOLDER OR CONTRIBUTORS BE LIABLE
  30:c:/Users/lenovo/Desktop/AIoT/first_day/firstday_afternoon/LiteOS_Lab_STM32_IoT/targets/STM32L431_BearPi/Src\usart.c ****   * FOR ANY DIRECT, INDIRECT, INCIDENTAL, SPECIAL, EXEMPLARY, OR CONSEQUENTIAL
  31:c:/Users/lenovo/Desktop/AIoT/first_day/firstday_afternoon/LiteOS_Lab_STM32_IoT/targets/STM32L431_BearPi/Src\usart.c ****   * DAMAGES (INCLUDING, BUT NOT LIMITED TO, PROCUREMENT OF SUBSTITUTE GOODS OR
  32:c:/Users/lenovo/Desktop/AIoT/first_day/firstday_afternoon/LiteOS_Lab_STM32_IoT/targets/STM32L431_BearPi/Src\usart.c ****   * SERVICES; LOSS OF USE, DATA, OR PROFITS; OR BUSINESS INTERRUPTION) HOWEVER
  33:c:/Users/lenovo/Desktop/AIoT/first_day/firstday_afternoon/LiteOS_Lab_STM32_IoT/targets/STM32L431_BearPi/Src\usart.c ****   * CAUSED AND ON ANY THEORY OF LIABILITY, WHETHER IN CONTRACT, STRICT LIABILITY,
  34:c:/Users/lenovo/Desktop/AIoT/first_day/firstday_afternoon/LiteOS_Lab_STM32_IoT/targets/STM32L431_BearPi/Src\usart.c ****   * OR TORT (INCLUDING NEGLIGENCE OR OTHERWISE) ARISING IN ANY WAY OUT OF THE USE
  35:c:/Users/lenovo/Desktop/AIoT/first_day/firstday_afternoon/LiteOS_Lab_STM32_IoT/targets/STM32L431_BearPi/Src\usart.c ****   * OF THIS SOFTWARE, EVEN IF ADVISED OF THE POSSIBILITY OF SUCH DAMAGE.
  36:c:/Users/lenovo/Desktop/AIoT/first_day/firstday_afternoon/LiteOS_Lab_STM32_IoT/targets/STM32L431_BearPi/Src\usart.c ****   *
  37:c:/Users/lenovo/Desktop/AIoT/first_day/firstday_afternoon/LiteOS_Lab_STM32_IoT/targets/STM32L431_BearPi/Src\usart.c ****   ******************************************************************************
  38:c:/Users/lenovo/Desktop/AIoT/first_day/firstday_afternoon/LiteOS_Lab_STM32_IoT/targets/STM32L431_BearPi/Src\usart.c ****   */
  39:c:/Users/lenovo/Desktop/AIoT/first_day/firstday_afternoon/LiteOS_Lab_STM32_IoT/targets/STM32L431_BearPi/Src\usart.c **** 
  40:c:/Users/lenovo/Desktop/AIoT/first_day/firstday_afternoon/LiteOS_Lab_STM32_IoT/targets/STM32L431_BearPi/Src\usart.c **** /* Includes ------------------------------------------------------------------*/
  41:c:/Users/lenovo/Desktop/AIoT/first_day/firstday_afternoon/LiteOS_Lab_STM32_IoT/targets/STM32L431_BearPi/Src\usart.c **** #include "usart.h"
  42:c:/Users/lenovo/Desktop/AIoT/first_day/firstday_afternoon/LiteOS_Lab_STM32_IoT/targets/STM32L431_BearPi/Src\usart.c **** 
  43:c:/Users/lenovo/Desktop/AIoT/first_day/firstday_afternoon/LiteOS_Lab_STM32_IoT/targets/STM32L431_BearPi/Src\usart.c **** #include "gpio.h"
  44:c:/Users/lenovo/Desktop/AIoT/first_day/firstday_afternoon/LiteOS_Lab_STM32_IoT/targets/STM32L431_BearPi/Src\usart.c **** 
  45:c:/Users/lenovo/Desktop/AIoT/first_day/firstday_afternoon/LiteOS_Lab_STM32_IoT/targets/STM32L431_BearPi/Src\usart.c **** /* USER CODE BEGIN 0 */
  46:c:/Users/lenovo/Desktop/AIoT/first_day/firstday_afternoon/LiteOS_Lab_STM32_IoT/targets/STM32L431_BearPi/Src\usart.c **** 
  47:c:/Users/lenovo/Desktop/AIoT/first_day/firstday_afternoon/LiteOS_Lab_STM32_IoT/targets/STM32L431_BearPi/Src\usart.c **** /* USER CODE END 0 */
  48:c:/Users/lenovo/Desktop/AIoT/first_day/firstday_afternoon/LiteOS_Lab_STM32_IoT/targets/STM32L431_BearPi/Src\usart.c **** 
  49:c:/Users/lenovo/Desktop/AIoT/first_day/firstday_afternoon/LiteOS_Lab_STM32_IoT/targets/STM32L431_BearPi/Src\usart.c **** UART_HandleTypeDef hlpuart1;
  50:c:/Users/lenovo/Desktop/AIoT/first_day/firstday_afternoon/LiteOS_Lab_STM32_IoT/targets/STM32L431_BearPi/Src\usart.c **** UART_HandleTypeDef huart1;
  51:c:/Users/lenovo/Desktop/AIoT/first_day/firstday_afternoon/LiteOS_Lab_STM32_IoT/targets/STM32L431_BearPi/Src\usart.c **** UART_HandleTypeDef huart2;
  52:c:/Users/lenovo/Desktop/AIoT/first_day/firstday_afternoon/LiteOS_Lab_STM32_IoT/targets/STM32L431_BearPi/Src\usart.c **** UART_HandleTypeDef huart3;
  53:c:/Users/lenovo/Desktop/AIoT/first_day/firstday_afternoon/LiteOS_Lab_STM32_IoT/targets/STM32L431_BearPi/Src\usart.c **** /* LPUART1 init function */
  54:c:/Users/lenovo/Desktop/AIoT/first_day/firstday_afternoon/LiteOS_Lab_STM32_IoT/targets/STM32L431_BearPi/Src\usart.c **** 
  55:c:/Users/lenovo/Desktop/AIoT/first_day/firstday_afternoon/LiteOS_Lab_STM32_IoT/targets/STM32L431_BearPi/Src\usart.c **** void MX_LPUART1_UART_Init(void)
  56:c:/Users/lenovo/Desktop/AIoT/first_day/firstday_afternoon/LiteOS_Lab_STM32_IoT/targets/STM32L431_BearPi/Src\usart.c **** {
  39              		.loc 1 56 1
  40              		.cfi_startproc
  41              		@ args = 0, pretend = 0, frame = 0
  42              		@ frame_needed = 1, uses_anonymous_args = 0
  43 0000 80B5     		push	{r7, lr}
  44              	.LCFI0:
  45              		.cfi_def_cfa_offset 8
  46              		.cfi_offset 7, -8
  47              		.cfi_offset 14, -4
  48 0002 00AF     		add	r7, sp, #0
ARM GAS  C:\Users\lenovo\AppData\Local\Temp\ccEGFOni.s 			page 3


  49              	.LCFI1:
  50              		.cfi_def_cfa_register 7
  57:c:/Users/lenovo/Desktop/AIoT/first_day/firstday_afternoon/LiteOS_Lab_STM32_IoT/targets/STM32L431_BearPi/Src\usart.c **** 
  58:c:/Users/lenovo/Desktop/AIoT/first_day/firstday_afternoon/LiteOS_Lab_STM32_IoT/targets/STM32L431_BearPi/Src\usart.c ****   hlpuart1.Instance = LPUART1;
  51              		.loc 1 58 21
  52 0004 134B     		ldr	r3, .L4
  53 0006 144A     		ldr	r2, .L4+4
  54 0008 1A60     		str	r2, [r3]
  59:c:/Users/lenovo/Desktop/AIoT/first_day/firstday_afternoon/LiteOS_Lab_STM32_IoT/targets/STM32L431_BearPi/Src\usart.c ****   hlpuart1.Init.BaudRate = 9600;
  55              		.loc 1 59 26
  56 000a 124B     		ldr	r3, .L4
  57 000c 4FF41652 		mov	r2, #9600
  58 0010 5A60     		str	r2, [r3, #4]
  60:c:/Users/lenovo/Desktop/AIoT/first_day/firstday_afternoon/LiteOS_Lab_STM32_IoT/targets/STM32L431_BearPi/Src\usart.c ****   hlpuart1.Init.WordLength = UART_WORDLENGTH_8B;
  59              		.loc 1 60 28
  60 0012 104B     		ldr	r3, .L4
  61 0014 0022     		movs	r2, #0
  62 0016 9A60     		str	r2, [r3, #8]
  61:c:/Users/lenovo/Desktop/AIoT/first_day/firstday_afternoon/LiteOS_Lab_STM32_IoT/targets/STM32L431_BearPi/Src\usart.c ****   hlpuart1.Init.StopBits = UART_STOPBITS_1;
  63              		.loc 1 61 26
  64 0018 0E4B     		ldr	r3, .L4
  65 001a 0022     		movs	r2, #0
  66 001c DA60     		str	r2, [r3, #12]
  62:c:/Users/lenovo/Desktop/AIoT/first_day/firstday_afternoon/LiteOS_Lab_STM32_IoT/targets/STM32L431_BearPi/Src\usart.c ****   hlpuart1.Init.Parity = UART_PARITY_NONE;
  67              		.loc 1 62 24
  68 001e 0D4B     		ldr	r3, .L4
  69 0020 0022     		movs	r2, #0
  70 0022 1A61     		str	r2, [r3, #16]
  63:c:/Users/lenovo/Desktop/AIoT/first_day/firstday_afternoon/LiteOS_Lab_STM32_IoT/targets/STM32L431_BearPi/Src\usart.c ****   hlpuart1.Init.Mode = UART_MODE_TX_RX;
  71              		.loc 1 63 22
  72 0024 0B4B     		ldr	r3, .L4
  73 0026 0C22     		movs	r2, #12
  74 0028 5A61     		str	r2, [r3, #20]
  64:c:/Users/lenovo/Desktop/AIoT/first_day/firstday_afternoon/LiteOS_Lab_STM32_IoT/targets/STM32L431_BearPi/Src\usart.c ****   hlpuart1.Init.HwFlowCtl = UART_HWCONTROL_NONE;
  75              		.loc 1 64 27
  76 002a 0A4B     		ldr	r3, .L4
  77 002c 0022     		movs	r2, #0
  78 002e 9A61     		str	r2, [r3, #24]
  65:c:/Users/lenovo/Desktop/AIoT/first_day/firstday_afternoon/LiteOS_Lab_STM32_IoT/targets/STM32L431_BearPi/Src\usart.c ****   hlpuart1.Init.OneBitSampling = UART_ONE_BIT_SAMPLE_DISABLE;
  79              		.loc 1 65 32
  80 0030 084B     		ldr	r3, .L4
  81 0032 0022     		movs	r2, #0
  82 0034 1A62     		str	r2, [r3, #32]
  66:c:/Users/lenovo/Desktop/AIoT/first_day/firstday_afternoon/LiteOS_Lab_STM32_IoT/targets/STM32L431_BearPi/Src\usart.c ****   hlpuart1.AdvancedInit.AdvFeatureInit = UART_ADVFEATURE_NO_INIT;
  83              		.loc 1 66 40
  84 0036 074B     		ldr	r3, .L4
  85 0038 0022     		movs	r2, #0
  86 003a 5A62     		str	r2, [r3, #36]
  67:c:/Users/lenovo/Desktop/AIoT/first_day/firstday_afternoon/LiteOS_Lab_STM32_IoT/targets/STM32L431_BearPi/Src\usart.c ****   if (HAL_UART_Init(&hlpuart1) != HAL_OK)
  87              		.loc 1 67 7
  88 003c 0548     		ldr	r0, .L4
  89 003e FFF7FEFF 		bl	HAL_UART_Init
  90 0042 0346     		mov	r3, r0
  91              		.loc 1 67 6
  92 0044 002B     		cmp	r3, #0
  93 0046 03D0     		beq	.L3
  68:c:/Users/lenovo/Desktop/AIoT/first_day/firstday_afternoon/LiteOS_Lab_STM32_IoT/targets/STM32L431_BearPi/Src\usart.c ****   {
ARM GAS  C:\Users\lenovo\AppData\Local\Temp\ccEGFOni.s 			page 4


  69:c:/Users/lenovo/Desktop/AIoT/first_day/firstday_afternoon/LiteOS_Lab_STM32_IoT/targets/STM32L431_BearPi/Src\usart.c ****     _Error_Handler(__FILE__, __LINE__);
  94              		.loc 1 69 5
  95 0048 4521     		movs	r1, #69
  96 004a 0448     		ldr	r0, .L4+8
  97 004c FFF7FEFF 		bl	_Error_Handler
  98              	.L3:
  70:c:/Users/lenovo/Desktop/AIoT/first_day/firstday_afternoon/LiteOS_Lab_STM32_IoT/targets/STM32L431_BearPi/Src\usart.c ****   }
  71:c:/Users/lenovo/Desktop/AIoT/first_day/firstday_afternoon/LiteOS_Lab_STM32_IoT/targets/STM32L431_BearPi/Src\usart.c **** 
  72:c:/Users/lenovo/Desktop/AIoT/first_day/firstday_afternoon/LiteOS_Lab_STM32_IoT/targets/STM32L431_BearPi/Src\usart.c **** }
  99              		.loc 1 72 1
 100 0050 00BF     		nop
 101 0052 80BD     		pop	{r7, pc}
 102              	.L5:
 103              		.align	2
 104              	.L4:
 105 0054 00000000 		.word	hlpuart1
 106 0058 00800040 		.word	1073774592
 107 005c 00000000 		.word	.LC0
 108              		.cfi_endproc
 109              	.LFE287:
 111              		.section	.text.MX_USART1_UART_Init,"ax",%progbits
 112              		.align	1
 113              		.global	MX_USART1_UART_Init
 114              		.syntax unified
 115              		.thumb
 116              		.thumb_func
 117              		.fpu fpv4-sp-d16
 119              	MX_USART1_UART_Init:
 120              	.LFB288:
  73:c:/Users/lenovo/Desktop/AIoT/first_day/firstday_afternoon/LiteOS_Lab_STM32_IoT/targets/STM32L431_BearPi/Src\usart.c **** 
  74:c:/Users/lenovo/Desktop/AIoT/first_day/firstday_afternoon/LiteOS_Lab_STM32_IoT/targets/STM32L431_BearPi/Src\usart.c **** /* USART1 init function */
  75:c:/Users/lenovo/Desktop/AIoT/first_day/firstday_afternoon/LiteOS_Lab_STM32_IoT/targets/STM32L431_BearPi/Src\usart.c **** 
  76:c:/Users/lenovo/Desktop/AIoT/first_day/firstday_afternoon/LiteOS_Lab_STM32_IoT/targets/STM32L431_BearPi/Src\usart.c **** void MX_USART1_UART_Init(void)
  77:c:/Users/lenovo/Desktop/AIoT/first_day/firstday_afternoon/LiteOS_Lab_STM32_IoT/targets/STM32L431_BearPi/Src\usart.c **** {
 121              		.loc 1 77 1
 122              		.cfi_startproc
 123              		@ args = 0, pretend = 0, frame = 0
 124              		@ frame_needed = 1, uses_anonymous_args = 0
 125 0000 80B5     		push	{r7, lr}
 126              	.LCFI2:
 127              		.cfi_def_cfa_offset 8
 128              		.cfi_offset 7, -8
 129              		.cfi_offset 14, -4
 130 0002 00AF     		add	r7, sp, #0
 131              	.LCFI3:
 132              		.cfi_def_cfa_register 7
  78:c:/Users/lenovo/Desktop/AIoT/first_day/firstday_afternoon/LiteOS_Lab_STM32_IoT/targets/STM32L431_BearPi/Src\usart.c **** 
  79:c:/Users/lenovo/Desktop/AIoT/first_day/firstday_afternoon/LiteOS_Lab_STM32_IoT/targets/STM32L431_BearPi/Src\usart.c ****   huart1.Instance = USART1;
 133              		.loc 1 79 19
 134 0004 154B     		ldr	r3, .L9
 135 0006 164A     		ldr	r2, .L9+4
 136 0008 1A60     		str	r2, [r3]
  80:c:/Users/lenovo/Desktop/AIoT/first_day/firstday_afternoon/LiteOS_Lab_STM32_IoT/targets/STM32L431_BearPi/Src\usart.c ****   huart1.Init.BaudRate = 115200;
 137              		.loc 1 80 24
 138 000a 144B     		ldr	r3, .L9
 139 000c 4FF4E132 		mov	r2, #115200
 140 0010 5A60     		str	r2, [r3, #4]
ARM GAS  C:\Users\lenovo\AppData\Local\Temp\ccEGFOni.s 			page 5


  81:c:/Users/lenovo/Desktop/AIoT/first_day/firstday_afternoon/LiteOS_Lab_STM32_IoT/targets/STM32L431_BearPi/Src\usart.c ****   huart1.Init.WordLength = UART_WORDLENGTH_8B;
 141              		.loc 1 81 26
 142 0012 124B     		ldr	r3, .L9
 143 0014 0022     		movs	r2, #0
 144 0016 9A60     		str	r2, [r3, #8]
  82:c:/Users/lenovo/Desktop/AIoT/first_day/firstday_afternoon/LiteOS_Lab_STM32_IoT/targets/STM32L431_BearPi/Src\usart.c ****   huart1.Init.StopBits = UART_STOPBITS_1;
 145              		.loc 1 82 24
 146 0018 104B     		ldr	r3, .L9
 147 001a 0022     		movs	r2, #0
 148 001c DA60     		str	r2, [r3, #12]
  83:c:/Users/lenovo/Desktop/AIoT/first_day/firstday_afternoon/LiteOS_Lab_STM32_IoT/targets/STM32L431_BearPi/Src\usart.c ****   huart1.Init.Parity = UART_PARITY_NONE;
 149              		.loc 1 83 22
 150 001e 0F4B     		ldr	r3, .L9
 151 0020 0022     		movs	r2, #0
 152 0022 1A61     		str	r2, [r3, #16]
  84:c:/Users/lenovo/Desktop/AIoT/first_day/firstday_afternoon/LiteOS_Lab_STM32_IoT/targets/STM32L431_BearPi/Src\usart.c ****   huart1.Init.Mode = UART_MODE_TX_RX;
 153              		.loc 1 84 20
 154 0024 0D4B     		ldr	r3, .L9
 155 0026 0C22     		movs	r2, #12
 156 0028 5A61     		str	r2, [r3, #20]
  85:c:/Users/lenovo/Desktop/AIoT/first_day/firstday_afternoon/LiteOS_Lab_STM32_IoT/targets/STM32L431_BearPi/Src\usart.c ****   huart1.Init.HwFlowCtl = UART_HWCONTROL_NONE;
 157              		.loc 1 85 25
 158 002a 0C4B     		ldr	r3, .L9
 159 002c 0022     		movs	r2, #0
 160 002e 9A61     		str	r2, [r3, #24]
  86:c:/Users/lenovo/Desktop/AIoT/first_day/firstday_afternoon/LiteOS_Lab_STM32_IoT/targets/STM32L431_BearPi/Src\usart.c ****   huart1.Init.OverSampling = UART_OVERSAMPLING_16;
 161              		.loc 1 86 28
 162 0030 0A4B     		ldr	r3, .L9
 163 0032 0022     		movs	r2, #0
 164 0034 DA61     		str	r2, [r3, #28]
  87:c:/Users/lenovo/Desktop/AIoT/first_day/firstday_afternoon/LiteOS_Lab_STM32_IoT/targets/STM32L431_BearPi/Src\usart.c ****   huart1.Init.OneBitSampling = UART_ONE_BIT_SAMPLE_DISABLE;
 165              		.loc 1 87 30
 166 0036 094B     		ldr	r3, .L9
 167 0038 0022     		movs	r2, #0
 168 003a 1A62     		str	r2, [r3, #32]
  88:c:/Users/lenovo/Desktop/AIoT/first_day/firstday_afternoon/LiteOS_Lab_STM32_IoT/targets/STM32L431_BearPi/Src\usart.c ****   huart1.AdvancedInit.AdvFeatureInit = UART_ADVFEATURE_NO_INIT;
 169              		.loc 1 88 38
 170 003c 074B     		ldr	r3, .L9
 171 003e 0022     		movs	r2, #0
 172 0040 5A62     		str	r2, [r3, #36]
  89:c:/Users/lenovo/Desktop/AIoT/first_day/firstday_afternoon/LiteOS_Lab_STM32_IoT/targets/STM32L431_BearPi/Src\usart.c ****   if (HAL_UART_Init(&huart1) != HAL_OK)
 173              		.loc 1 89 7
 174 0042 0648     		ldr	r0, .L9
 175 0044 FFF7FEFF 		bl	HAL_UART_Init
 176 0048 0346     		mov	r3, r0
 177              		.loc 1 89 6
 178 004a 002B     		cmp	r3, #0
 179 004c 03D0     		beq	.L8
  90:c:/Users/lenovo/Desktop/AIoT/first_day/firstday_afternoon/LiteOS_Lab_STM32_IoT/targets/STM32L431_BearPi/Src\usart.c ****   {
  91:c:/Users/lenovo/Desktop/AIoT/first_day/firstday_afternoon/LiteOS_Lab_STM32_IoT/targets/STM32L431_BearPi/Src\usart.c ****     _Error_Handler(__FILE__, __LINE__);
 180              		.loc 1 91 5
 181 004e 5B21     		movs	r1, #91
 182 0050 0448     		ldr	r0, .L9+8
 183 0052 FFF7FEFF 		bl	_Error_Handler
 184              	.L8:
  92:c:/Users/lenovo/Desktop/AIoT/first_day/firstday_afternoon/LiteOS_Lab_STM32_IoT/targets/STM32L431_BearPi/Src\usart.c ****   }
  93:c:/Users/lenovo/Desktop/AIoT/first_day/firstday_afternoon/LiteOS_Lab_STM32_IoT/targets/STM32L431_BearPi/Src\usart.c **** 
ARM GAS  C:\Users\lenovo\AppData\Local\Temp\ccEGFOni.s 			page 6


  94:c:/Users/lenovo/Desktop/AIoT/first_day/firstday_afternoon/LiteOS_Lab_STM32_IoT/targets/STM32L431_BearPi/Src\usart.c **** }
 185              		.loc 1 94 1
 186 0056 00BF     		nop
 187 0058 80BD     		pop	{r7, pc}
 188              	.L10:
 189 005a 00BF     		.align	2
 190              	.L9:
 191 005c 00000000 		.word	huart1
 192 0060 00380140 		.word	1073821696
 193 0064 00000000 		.word	.LC0
 194              		.cfi_endproc
 195              	.LFE288:
 197              		.section	.text.MX_USART2_UART_Init,"ax",%progbits
 198              		.align	1
 199              		.global	MX_USART2_UART_Init
 200              		.syntax unified
 201              		.thumb
 202              		.thumb_func
 203              		.fpu fpv4-sp-d16
 205              	MX_USART2_UART_Init:
 206              	.LFB289:
  95:c:/Users/lenovo/Desktop/AIoT/first_day/firstday_afternoon/LiteOS_Lab_STM32_IoT/targets/STM32L431_BearPi/Src\usart.c **** /* USART2 init function */
  96:c:/Users/lenovo/Desktop/AIoT/first_day/firstday_afternoon/LiteOS_Lab_STM32_IoT/targets/STM32L431_BearPi/Src\usart.c **** 
  97:c:/Users/lenovo/Desktop/AIoT/first_day/firstday_afternoon/LiteOS_Lab_STM32_IoT/targets/STM32L431_BearPi/Src\usart.c **** void MX_USART2_UART_Init(void)
  98:c:/Users/lenovo/Desktop/AIoT/first_day/firstday_afternoon/LiteOS_Lab_STM32_IoT/targets/STM32L431_BearPi/Src\usart.c **** {
 207              		.loc 1 98 1
 208              		.cfi_startproc
 209              		@ args = 0, pretend = 0, frame = 0
 210              		@ frame_needed = 1, uses_anonymous_args = 0
 211 0000 80B5     		push	{r7, lr}
 212              	.LCFI4:
 213              		.cfi_def_cfa_offset 8
 214              		.cfi_offset 7, -8
 215              		.cfi_offset 14, -4
 216 0002 00AF     		add	r7, sp, #0
 217              	.LCFI5:
 218              		.cfi_def_cfa_register 7
  99:c:/Users/lenovo/Desktop/AIoT/first_day/firstday_afternoon/LiteOS_Lab_STM32_IoT/targets/STM32L431_BearPi/Src\usart.c **** 
 100:c:/Users/lenovo/Desktop/AIoT/first_day/firstday_afternoon/LiteOS_Lab_STM32_IoT/targets/STM32L431_BearPi/Src\usart.c ****   huart2.Instance = USART2;
 219              		.loc 1 100 19
 220 0004 154B     		ldr	r3, .L14
 221 0006 164A     		ldr	r2, .L14+4
 222 0008 1A60     		str	r2, [r3]
 101:c:/Users/lenovo/Desktop/AIoT/first_day/firstday_afternoon/LiteOS_Lab_STM32_IoT/targets/STM32L431_BearPi/Src\usart.c ****   huart2.Init.BaudRate = 9600;
 223              		.loc 1 101 24
 224 000a 144B     		ldr	r3, .L14
 225 000c 4FF41652 		mov	r2, #9600
 226 0010 5A60     		str	r2, [r3, #4]
 102:c:/Users/lenovo/Desktop/AIoT/first_day/firstday_afternoon/LiteOS_Lab_STM32_IoT/targets/STM32L431_BearPi/Src\usart.c ****   huart2.Init.WordLength = UART_WORDLENGTH_8B;
 227              		.loc 1 102 26
 228 0012 124B     		ldr	r3, .L14
 229 0014 0022     		movs	r2, #0
 230 0016 9A60     		str	r2, [r3, #8]
 103:c:/Users/lenovo/Desktop/AIoT/first_day/firstday_afternoon/LiteOS_Lab_STM32_IoT/targets/STM32L431_BearPi/Src\usart.c ****   huart2.Init.StopBits = UART_STOPBITS_1;
 231              		.loc 1 103 24
 232 0018 104B     		ldr	r3, .L14
 233 001a 0022     		movs	r2, #0
ARM GAS  C:\Users\lenovo\AppData\Local\Temp\ccEGFOni.s 			page 7


 234 001c DA60     		str	r2, [r3, #12]
 104:c:/Users/lenovo/Desktop/AIoT/first_day/firstday_afternoon/LiteOS_Lab_STM32_IoT/targets/STM32L431_BearPi/Src\usart.c ****   huart2.Init.Parity = UART_PARITY_NONE;
 235              		.loc 1 104 22
 236 001e 0F4B     		ldr	r3, .L14
 237 0020 0022     		movs	r2, #0
 238 0022 1A61     		str	r2, [r3, #16]
 105:c:/Users/lenovo/Desktop/AIoT/first_day/firstday_afternoon/LiteOS_Lab_STM32_IoT/targets/STM32L431_BearPi/Src\usart.c ****   huart2.Init.Mode = UART_MODE_TX_RX;
 239              		.loc 1 105 20
 240 0024 0D4B     		ldr	r3, .L14
 241 0026 0C22     		movs	r2, #12
 242 0028 5A61     		str	r2, [r3, #20]
 106:c:/Users/lenovo/Desktop/AIoT/first_day/firstday_afternoon/LiteOS_Lab_STM32_IoT/targets/STM32L431_BearPi/Src\usart.c ****   huart2.Init.HwFlowCtl = UART_HWCONTROL_NONE;
 243              		.loc 1 106 25
 244 002a 0C4B     		ldr	r3, .L14
 245 002c 0022     		movs	r2, #0
 246 002e 9A61     		str	r2, [r3, #24]
 107:c:/Users/lenovo/Desktop/AIoT/first_day/firstday_afternoon/LiteOS_Lab_STM32_IoT/targets/STM32L431_BearPi/Src\usart.c ****   huart2.Init.OverSampling = UART_OVERSAMPLING_16;
 247              		.loc 1 107 28
 248 0030 0A4B     		ldr	r3, .L14
 249 0032 0022     		movs	r2, #0
 250 0034 DA61     		str	r2, [r3, #28]
 108:c:/Users/lenovo/Desktop/AIoT/first_day/firstday_afternoon/LiteOS_Lab_STM32_IoT/targets/STM32L431_BearPi/Src\usart.c ****   huart2.Init.OneBitSampling = UART_ONE_BIT_SAMPLE_DISABLE;
 251              		.loc 1 108 30
 252 0036 094B     		ldr	r3, .L14
 253 0038 0022     		movs	r2, #0
 254 003a 1A62     		str	r2, [r3, #32]
 109:c:/Users/lenovo/Desktop/AIoT/first_day/firstday_afternoon/LiteOS_Lab_STM32_IoT/targets/STM32L431_BearPi/Src\usart.c ****   huart2.AdvancedInit.AdvFeatureInit = UART_ADVFEATURE_NO_INIT;
 255              		.loc 1 109 38
 256 003c 074B     		ldr	r3, .L14
 257 003e 0022     		movs	r2, #0
 258 0040 5A62     		str	r2, [r3, #36]
 110:c:/Users/lenovo/Desktop/AIoT/first_day/firstday_afternoon/LiteOS_Lab_STM32_IoT/targets/STM32L431_BearPi/Src\usart.c ****   if (HAL_UART_Init(&huart2) != HAL_OK)
 259              		.loc 1 110 7
 260 0042 0648     		ldr	r0, .L14
 261 0044 FFF7FEFF 		bl	HAL_UART_Init
 262 0048 0346     		mov	r3, r0
 263              		.loc 1 110 6
 264 004a 002B     		cmp	r3, #0
 265 004c 03D0     		beq	.L13
 111:c:/Users/lenovo/Desktop/AIoT/first_day/firstday_afternoon/LiteOS_Lab_STM32_IoT/targets/STM32L431_BearPi/Src\usart.c ****   {
 112:c:/Users/lenovo/Desktop/AIoT/first_day/firstday_afternoon/LiteOS_Lab_STM32_IoT/targets/STM32L431_BearPi/Src\usart.c ****     _Error_Handler(__FILE__, __LINE__);
 266              		.loc 1 112 5
 267 004e 7021     		movs	r1, #112
 268 0050 0448     		ldr	r0, .L14+8
 269 0052 FFF7FEFF 		bl	_Error_Handler
 270              	.L13:
 113:c:/Users/lenovo/Desktop/AIoT/first_day/firstday_afternoon/LiteOS_Lab_STM32_IoT/targets/STM32L431_BearPi/Src\usart.c ****   }
 114:c:/Users/lenovo/Desktop/AIoT/first_day/firstday_afternoon/LiteOS_Lab_STM32_IoT/targets/STM32L431_BearPi/Src\usart.c **** 
 115:c:/Users/lenovo/Desktop/AIoT/first_day/firstday_afternoon/LiteOS_Lab_STM32_IoT/targets/STM32L431_BearPi/Src\usart.c **** }
 271              		.loc 1 115 1
 272 0056 00BF     		nop
 273 0058 80BD     		pop	{r7, pc}
 274              	.L15:
 275 005a 00BF     		.align	2
 276              	.L14:
 277 005c 00000000 		.word	huart2
 278 0060 00440040 		.word	1073759232
ARM GAS  C:\Users\lenovo\AppData\Local\Temp\ccEGFOni.s 			page 8


 279 0064 00000000 		.word	.LC0
 280              		.cfi_endproc
 281              	.LFE289:
 283              		.section	.text.MX_USART3_UART_Init,"ax",%progbits
 284              		.align	1
 285              		.global	MX_USART3_UART_Init
 286              		.syntax unified
 287              		.thumb
 288              		.thumb_func
 289              		.fpu fpv4-sp-d16
 291              	MX_USART3_UART_Init:
 292              	.LFB290:
 116:c:/Users/lenovo/Desktop/AIoT/first_day/firstday_afternoon/LiteOS_Lab_STM32_IoT/targets/STM32L431_BearPi/Src\usart.c **** 
 117:c:/Users/lenovo/Desktop/AIoT/first_day/firstday_afternoon/LiteOS_Lab_STM32_IoT/targets/STM32L431_BearPi/Src\usart.c **** /* USART3 init function */
 118:c:/Users/lenovo/Desktop/AIoT/first_day/firstday_afternoon/LiteOS_Lab_STM32_IoT/targets/STM32L431_BearPi/Src\usart.c **** 
 119:c:/Users/lenovo/Desktop/AIoT/first_day/firstday_afternoon/LiteOS_Lab_STM32_IoT/targets/STM32L431_BearPi/Src\usart.c **** void MX_USART3_UART_Init(void)
 120:c:/Users/lenovo/Desktop/AIoT/first_day/firstday_afternoon/LiteOS_Lab_STM32_IoT/targets/STM32L431_BearPi/Src\usart.c **** {
 293              		.loc 1 120 1
 294              		.cfi_startproc
 295              		@ args = 0, pretend = 0, frame = 0
 296              		@ frame_needed = 1, uses_anonymous_args = 0
 297 0000 80B5     		push	{r7, lr}
 298              	.LCFI6:
 299              		.cfi_def_cfa_offset 8
 300              		.cfi_offset 7, -8
 301              		.cfi_offset 14, -4
 302 0002 00AF     		add	r7, sp, #0
 303              	.LCFI7:
 304              		.cfi_def_cfa_register 7
 121:c:/Users/lenovo/Desktop/AIoT/first_day/firstday_afternoon/LiteOS_Lab_STM32_IoT/targets/STM32L431_BearPi/Src\usart.c **** 
 122:c:/Users/lenovo/Desktop/AIoT/first_day/firstday_afternoon/LiteOS_Lab_STM32_IoT/targets/STM32L431_BearPi/Src\usart.c ****   huart3.Instance = USART3;
 305              		.loc 1 122 19
 306 0004 154B     		ldr	r3, .L19
 307 0006 164A     		ldr	r2, .L19+4
 308 0008 1A60     		str	r2, [r3]
 123:c:/Users/lenovo/Desktop/AIoT/first_day/firstday_afternoon/LiteOS_Lab_STM32_IoT/targets/STM32L431_BearPi/Src\usart.c ****   huart3.Init.BaudRate = 9600;
 309              		.loc 1 123 24
 310 000a 144B     		ldr	r3, .L19
 311 000c 4FF41652 		mov	r2, #9600
 312 0010 5A60     		str	r2, [r3, #4]
 124:c:/Users/lenovo/Desktop/AIoT/first_day/firstday_afternoon/LiteOS_Lab_STM32_IoT/targets/STM32L431_BearPi/Src\usart.c ****   huart3.Init.WordLength = UART_WORDLENGTH_8B;
 313              		.loc 1 124 26
 314 0012 124B     		ldr	r3, .L19
 315 0014 0022     		movs	r2, #0
 316 0016 9A60     		str	r2, [r3, #8]
 125:c:/Users/lenovo/Desktop/AIoT/first_day/firstday_afternoon/LiteOS_Lab_STM32_IoT/targets/STM32L431_BearPi/Src\usart.c ****   huart3.Init.StopBits = UART_STOPBITS_1;
 317              		.loc 1 125 24
 318 0018 104B     		ldr	r3, .L19
 319 001a 0022     		movs	r2, #0
 320 001c DA60     		str	r2, [r3, #12]
 126:c:/Users/lenovo/Desktop/AIoT/first_day/firstday_afternoon/LiteOS_Lab_STM32_IoT/targets/STM32L431_BearPi/Src\usart.c ****   huart3.Init.Parity = UART_PARITY_NONE;
 321              		.loc 1 126 22
 322 001e 0F4B     		ldr	r3, .L19
 323 0020 0022     		movs	r2, #0
 324 0022 1A61     		str	r2, [r3, #16]
 127:c:/Users/lenovo/Desktop/AIoT/first_day/firstday_afternoon/LiteOS_Lab_STM32_IoT/targets/STM32L431_BearPi/Src\usart.c ****   huart3.Init.Mode = UART_MODE_TX_RX;
 325              		.loc 1 127 20
ARM GAS  C:\Users\lenovo\AppData\Local\Temp\ccEGFOni.s 			page 9


 326 0024 0D4B     		ldr	r3, .L19
 327 0026 0C22     		movs	r2, #12
 328 0028 5A61     		str	r2, [r3, #20]
 128:c:/Users/lenovo/Desktop/AIoT/first_day/firstday_afternoon/LiteOS_Lab_STM32_IoT/targets/STM32L431_BearPi/Src\usart.c ****   huart3.Init.HwFlowCtl = UART_HWCONTROL_NONE;
 329              		.loc 1 128 25
 330 002a 0C4B     		ldr	r3, .L19
 331 002c 0022     		movs	r2, #0
 332 002e 9A61     		str	r2, [r3, #24]
 129:c:/Users/lenovo/Desktop/AIoT/first_day/firstday_afternoon/LiteOS_Lab_STM32_IoT/targets/STM32L431_BearPi/Src\usart.c ****   huart3.Init.OverSampling = UART_OVERSAMPLING_16;
 333              		.loc 1 129 28
 334 0030 0A4B     		ldr	r3, .L19
 335 0032 0022     		movs	r2, #0
 336 0034 DA61     		str	r2, [r3, #28]
 130:c:/Users/lenovo/Desktop/AIoT/first_day/firstday_afternoon/LiteOS_Lab_STM32_IoT/targets/STM32L431_BearPi/Src\usart.c ****   huart3.Init.OneBitSampling = UART_ONE_BIT_SAMPLE_DISABLE;
 337              		.loc 1 130 30
 338 0036 094B     		ldr	r3, .L19
 339 0038 0022     		movs	r2, #0
 340 003a 1A62     		str	r2, [r3, #32]
 131:c:/Users/lenovo/Desktop/AIoT/first_day/firstday_afternoon/LiteOS_Lab_STM32_IoT/targets/STM32L431_BearPi/Src\usart.c ****   huart3.AdvancedInit.AdvFeatureInit = UART_ADVFEATURE_NO_INIT;
 341              		.loc 1 131 38
 342 003c 074B     		ldr	r3, .L19
 343 003e 0022     		movs	r2, #0
 344 0040 5A62     		str	r2, [r3, #36]
 132:c:/Users/lenovo/Desktop/AIoT/first_day/firstday_afternoon/LiteOS_Lab_STM32_IoT/targets/STM32L431_BearPi/Src\usart.c ****   if (HAL_UART_Init(&huart3) != HAL_OK)
 345              		.loc 1 132 7
 346 0042 0648     		ldr	r0, .L19
 347 0044 FFF7FEFF 		bl	HAL_UART_Init
 348 0048 0346     		mov	r3, r0
 349              		.loc 1 132 6
 350 004a 002B     		cmp	r3, #0
 351 004c 03D0     		beq	.L18
 133:c:/Users/lenovo/Desktop/AIoT/first_day/firstday_afternoon/LiteOS_Lab_STM32_IoT/targets/STM32L431_BearPi/Src\usart.c ****   {
 134:c:/Users/lenovo/Desktop/AIoT/first_day/firstday_afternoon/LiteOS_Lab_STM32_IoT/targets/STM32L431_BearPi/Src\usart.c ****     _Error_Handler(__FILE__, __LINE__);
 352              		.loc 1 134 5
 353 004e 8621     		movs	r1, #134
 354 0050 0448     		ldr	r0, .L19+8
 355 0052 FFF7FEFF 		bl	_Error_Handler
 356              	.L18:
 135:c:/Users/lenovo/Desktop/AIoT/first_day/firstday_afternoon/LiteOS_Lab_STM32_IoT/targets/STM32L431_BearPi/Src\usart.c ****   }
 136:c:/Users/lenovo/Desktop/AIoT/first_day/firstday_afternoon/LiteOS_Lab_STM32_IoT/targets/STM32L431_BearPi/Src\usart.c **** 
 137:c:/Users/lenovo/Desktop/AIoT/first_day/firstday_afternoon/LiteOS_Lab_STM32_IoT/targets/STM32L431_BearPi/Src\usart.c **** }
 357              		.loc 1 137 1
 358 0056 00BF     		nop
 359 0058 80BD     		pop	{r7, pc}
 360              	.L20:
 361 005a 00BF     		.align	2
 362              	.L19:
 363 005c 00000000 		.word	huart3
 364 0060 00480040 		.word	1073760256
 365 0064 00000000 		.word	.LC0
 366              		.cfi_endproc
 367              	.LFE290:
 369              		.section	.text.HAL_UART_MspInit,"ax",%progbits
 370              		.align	1
 371              		.global	HAL_UART_MspInit
 372              		.syntax unified
 373              		.thumb
ARM GAS  C:\Users\lenovo\AppData\Local\Temp\ccEGFOni.s 			page 10


 374              		.thumb_func
 375              		.fpu fpv4-sp-d16
 377              	HAL_UART_MspInit:
 378              	.LFB291:
 138:c:/Users/lenovo/Desktop/AIoT/first_day/firstday_afternoon/LiteOS_Lab_STM32_IoT/targets/STM32L431_BearPi/Src\usart.c **** void HAL_UART_MspInit(UART_HandleTypeDef* uartHandle)
 139:c:/Users/lenovo/Desktop/AIoT/first_day/firstday_afternoon/LiteOS_Lab_STM32_IoT/targets/STM32L431_BearPi/Src\usart.c **** {
 379              		.loc 1 139 1
 380              		.cfi_startproc
 381              		@ args = 0, pretend = 0, frame = 48
 382              		@ frame_needed = 1, uses_anonymous_args = 0
 383 0000 80B5     		push	{r7, lr}
 384              	.LCFI8:
 385              		.cfi_def_cfa_offset 8
 386              		.cfi_offset 7, -8
 387              		.cfi_offset 14, -4
 388 0002 8CB0     		sub	sp, sp, #48
 389              	.LCFI9:
 390              		.cfi_def_cfa_offset 56
 391 0004 00AF     		add	r7, sp, #0
 392              	.LCFI10:
 393              		.cfi_def_cfa_register 7
 394 0006 7860     		str	r0, [r7, #4]
 140:c:/Users/lenovo/Desktop/AIoT/first_day/firstday_afternoon/LiteOS_Lab_STM32_IoT/targets/STM32L431_BearPi/Src\usart.c **** 
 141:c:/Users/lenovo/Desktop/AIoT/first_day/firstday_afternoon/LiteOS_Lab_STM32_IoT/targets/STM32L431_BearPi/Src\usart.c ****   GPIO_InitTypeDef GPIO_InitStruct;
 142:c:/Users/lenovo/Desktop/AIoT/first_day/firstday_afternoon/LiteOS_Lab_STM32_IoT/targets/STM32L431_BearPi/Src\usart.c ****   if(uartHandle->Instance==LPUART1)
 395              		.loc 1 142 16
 396 0008 7B68     		ldr	r3, [r7, #4]
 397 000a 1B68     		ldr	r3, [r3]
 398              		.loc 1 142 5
 399 000c 554A     		ldr	r2, .L27
 400 000e 9342     		cmp	r3, r2
 401 0010 24D1     		bne	.L22
 402              	.LBB2:
 143:c:/Users/lenovo/Desktop/AIoT/first_day/firstday_afternoon/LiteOS_Lab_STM32_IoT/targets/STM32L431_BearPi/Src\usart.c ****   {
 144:c:/Users/lenovo/Desktop/AIoT/first_day/firstday_afternoon/LiteOS_Lab_STM32_IoT/targets/STM32L431_BearPi/Src\usart.c ****   /* USER CODE BEGIN LPUART1_MspInit 0 */
 145:c:/Users/lenovo/Desktop/AIoT/first_day/firstday_afternoon/LiteOS_Lab_STM32_IoT/targets/STM32L431_BearPi/Src\usart.c **** 
 146:c:/Users/lenovo/Desktop/AIoT/first_day/firstday_afternoon/LiteOS_Lab_STM32_IoT/targets/STM32L431_BearPi/Src\usart.c ****   /* USER CODE END LPUART1_MspInit 0 */
 147:c:/Users/lenovo/Desktop/AIoT/first_day/firstday_afternoon/LiteOS_Lab_STM32_IoT/targets/STM32L431_BearPi/Src\usart.c ****     /* LPUART1 clock enable */
 148:c:/Users/lenovo/Desktop/AIoT/first_day/firstday_afternoon/LiteOS_Lab_STM32_IoT/targets/STM32L431_BearPi/Src\usart.c ****     __HAL_RCC_LPUART1_CLK_ENABLE();
 403              		.loc 1 148 5
 404 0012 554B     		ldr	r3, .L27+4
 405 0014 DB6D     		ldr	r3, [r3, #92]
 406 0016 544A     		ldr	r2, .L27+4
 407 0018 43F00103 		orr	r3, r3, #1
 408 001c D365     		str	r3, [r2, #92]
 409 001e 524B     		ldr	r3, .L27+4
 410 0020 DB6D     		ldr	r3, [r3, #92]
 411 0022 03F00103 		and	r3, r3, #1
 412 0026 BB61     		str	r3, [r7, #24]
 413 0028 BB69     		ldr	r3, [r7, #24]
 414              	.LBE2:
 149:c:/Users/lenovo/Desktop/AIoT/first_day/firstday_afternoon/LiteOS_Lab_STM32_IoT/targets/STM32L431_BearPi/Src\usart.c ****   
 150:c:/Users/lenovo/Desktop/AIoT/first_day/firstday_afternoon/LiteOS_Lab_STM32_IoT/targets/STM32L431_BearPi/Src\usart.c ****     /**LPUART1 GPIO Configuration    
 151:c:/Users/lenovo/Desktop/AIoT/first_day/firstday_afternoon/LiteOS_Lab_STM32_IoT/targets/STM32L431_BearPi/Src\usart.c ****     PC0     ------> LPUART1_RX
 152:c:/Users/lenovo/Desktop/AIoT/first_day/firstday_afternoon/LiteOS_Lab_STM32_IoT/targets/STM32L431_BearPi/Src\usart.c ****     PC1     ------> LPUART1_TX 
 153:c:/Users/lenovo/Desktop/AIoT/first_day/firstday_afternoon/LiteOS_Lab_STM32_IoT/targets/STM32L431_BearPi/Src\usart.c ****     */
 154:c:/Users/lenovo/Desktop/AIoT/first_day/firstday_afternoon/LiteOS_Lab_STM32_IoT/targets/STM32L431_BearPi/Src\usart.c ****     GPIO_InitStruct.Pin = GPIO_PIN_0|GPIO_PIN_1;
ARM GAS  C:\Users\lenovo\AppData\Local\Temp\ccEGFOni.s 			page 11


 415              		.loc 1 154 25
 416 002a 0323     		movs	r3, #3
 417 002c FB61     		str	r3, [r7, #28]
 155:c:/Users/lenovo/Desktop/AIoT/first_day/firstday_afternoon/LiteOS_Lab_STM32_IoT/targets/STM32L431_BearPi/Src\usart.c ****     GPIO_InitStruct.Mode = GPIO_MODE_AF_PP;
 418              		.loc 1 155 26
 419 002e 0223     		movs	r3, #2
 420 0030 3B62     		str	r3, [r7, #32]
 156:c:/Users/lenovo/Desktop/AIoT/first_day/firstday_afternoon/LiteOS_Lab_STM32_IoT/targets/STM32L431_BearPi/Src\usart.c ****     GPIO_InitStruct.Pull = GPIO_NOPULL;
 421              		.loc 1 156 26
 422 0032 0023     		movs	r3, #0
 423 0034 7B62     		str	r3, [r7, #36]
 157:c:/Users/lenovo/Desktop/AIoT/first_day/firstday_afternoon/LiteOS_Lab_STM32_IoT/targets/STM32L431_BearPi/Src\usart.c ****     GPIO_InitStruct.Speed = GPIO_SPEED_FREQ_VERY_HIGH;
 424              		.loc 1 157 27
 425 0036 0323     		movs	r3, #3
 426 0038 BB62     		str	r3, [r7, #40]
 158:c:/Users/lenovo/Desktop/AIoT/first_day/firstday_afternoon/LiteOS_Lab_STM32_IoT/targets/STM32L431_BearPi/Src\usart.c ****     GPIO_InitStruct.Alternate = GPIO_AF8_LPUART1;
 427              		.loc 1 158 31
 428 003a 0823     		movs	r3, #8
 429 003c FB62     		str	r3, [r7, #44]
 159:c:/Users/lenovo/Desktop/AIoT/first_day/firstday_afternoon/LiteOS_Lab_STM32_IoT/targets/STM32L431_BearPi/Src\usart.c ****     HAL_GPIO_Init(GPIOC, &GPIO_InitStruct);
 430              		.loc 1 159 5
 431 003e 07F11C03 		add	r3, r7, #28
 432 0042 1946     		mov	r1, r3
 433 0044 4948     		ldr	r0, .L27+8
 434 0046 FFF7FEFF 		bl	HAL_GPIO_Init
 160:c:/Users/lenovo/Desktop/AIoT/first_day/firstday_afternoon/LiteOS_Lab_STM32_IoT/targets/STM32L431_BearPi/Src\usart.c **** 		
 161:c:/Users/lenovo/Desktop/AIoT/first_day/firstday_afternoon/LiteOS_Lab_STM32_IoT/targets/STM32L431_BearPi/Src\usart.c ****   /* LPUART1 interrupt Init */
 162:c:/Users/lenovo/Desktop/AIoT/first_day/firstday_afternoon/LiteOS_Lab_STM32_IoT/targets/STM32L431_BearPi/Src\usart.c ****     HAL_NVIC_SetPriority(LPUART1_IRQn, 0, 0);
 435              		.loc 1 162 5
 436 004a 0022     		movs	r2, #0
 437 004c 0021     		movs	r1, #0
 438 004e 4620     		movs	r0, #70
 439 0050 FFF7FEFF 		bl	HAL_NVIC_SetPriority
 163:c:/Users/lenovo/Desktop/AIoT/first_day/firstday_afternoon/LiteOS_Lab_STM32_IoT/targets/STM32L431_BearPi/Src\usart.c ****     HAL_NVIC_EnableIRQ(LPUART1_IRQn);
 440              		.loc 1 163 5
 441 0054 4620     		movs	r0, #70
 442 0056 FFF7FEFF 		bl	HAL_NVIC_EnableIRQ
 164:c:/Users/lenovo/Desktop/AIoT/first_day/firstday_afternoon/LiteOS_Lab_STM32_IoT/targets/STM32L431_BearPi/Src\usart.c ****   /* USER CODE BEGIN LPUART1_MspInit 1 */
 165:c:/Users/lenovo/Desktop/AIoT/first_day/firstday_afternoon/LiteOS_Lab_STM32_IoT/targets/STM32L431_BearPi/Src\usart.c **** 
 166:c:/Users/lenovo/Desktop/AIoT/first_day/firstday_afternoon/LiteOS_Lab_STM32_IoT/targets/STM32L431_BearPi/Src\usart.c ****   /* USER CODE END LPUART1_MspInit 1 */
 167:c:/Users/lenovo/Desktop/AIoT/first_day/firstday_afternoon/LiteOS_Lab_STM32_IoT/targets/STM32L431_BearPi/Src\usart.c ****   }
 168:c:/Users/lenovo/Desktop/AIoT/first_day/firstday_afternoon/LiteOS_Lab_STM32_IoT/targets/STM32L431_BearPi/Src\usart.c **** 	else if(uartHandle->Instance==USART1)
 169:c:/Users/lenovo/Desktop/AIoT/first_day/firstday_afternoon/LiteOS_Lab_STM32_IoT/targets/STM32L431_BearPi/Src\usart.c ****   {
 170:c:/Users/lenovo/Desktop/AIoT/first_day/firstday_afternoon/LiteOS_Lab_STM32_IoT/targets/STM32L431_BearPi/Src\usart.c ****   /* USER CODE BEGIN USART1_MspInit 0 */
 171:c:/Users/lenovo/Desktop/AIoT/first_day/firstday_afternoon/LiteOS_Lab_STM32_IoT/targets/STM32L431_BearPi/Src\usart.c **** 
 172:c:/Users/lenovo/Desktop/AIoT/first_day/firstday_afternoon/LiteOS_Lab_STM32_IoT/targets/STM32L431_BearPi/Src\usart.c ****   /* USER CODE END USART1_MspInit 0 */
 173:c:/Users/lenovo/Desktop/AIoT/first_day/firstday_afternoon/LiteOS_Lab_STM32_IoT/targets/STM32L431_BearPi/Src\usart.c ****     /* USART1 clock enable */
 174:c:/Users/lenovo/Desktop/AIoT/first_day/firstday_afternoon/LiteOS_Lab_STM32_IoT/targets/STM32L431_BearPi/Src\usart.c ****     __HAL_RCC_USART1_CLK_ENABLE();
 175:c:/Users/lenovo/Desktop/AIoT/first_day/firstday_afternoon/LiteOS_Lab_STM32_IoT/targets/STM32L431_BearPi/Src\usart.c ****   
 176:c:/Users/lenovo/Desktop/AIoT/first_day/firstday_afternoon/LiteOS_Lab_STM32_IoT/targets/STM32L431_BearPi/Src\usart.c ****     /**USART1 GPIO Configuration    
 177:c:/Users/lenovo/Desktop/AIoT/first_day/firstday_afternoon/LiteOS_Lab_STM32_IoT/targets/STM32L431_BearPi/Src\usart.c ****     PA9     ------> USART1_TX
 178:c:/Users/lenovo/Desktop/AIoT/first_day/firstday_afternoon/LiteOS_Lab_STM32_IoT/targets/STM32L431_BearPi/Src\usart.c ****     PA10     ------> USART1_RX 
 179:c:/Users/lenovo/Desktop/AIoT/first_day/firstday_afternoon/LiteOS_Lab_STM32_IoT/targets/STM32L431_BearPi/Src\usart.c ****     */
 180:c:/Users/lenovo/Desktop/AIoT/first_day/firstday_afternoon/LiteOS_Lab_STM32_IoT/targets/STM32L431_BearPi/Src\usart.c ****     GPIO_InitStruct.Pin = GPIO_PIN_9|GPIO_PIN_10;
 181:c:/Users/lenovo/Desktop/AIoT/first_day/firstday_afternoon/LiteOS_Lab_STM32_IoT/targets/STM32L431_BearPi/Src\usart.c ****     GPIO_InitStruct.Mode = GPIO_MODE_AF_PP;
 182:c:/Users/lenovo/Desktop/AIoT/first_day/firstday_afternoon/LiteOS_Lab_STM32_IoT/targets/STM32L431_BearPi/Src\usart.c ****     GPIO_InitStruct.Pull = GPIO_NOPULL;
 183:c:/Users/lenovo/Desktop/AIoT/first_day/firstday_afternoon/LiteOS_Lab_STM32_IoT/targets/STM32L431_BearPi/Src\usart.c ****     GPIO_InitStruct.Speed = GPIO_SPEED_FREQ_VERY_HIGH;
ARM GAS  C:\Users\lenovo\AppData\Local\Temp\ccEGFOni.s 			page 12


 184:c:/Users/lenovo/Desktop/AIoT/first_day/firstday_afternoon/LiteOS_Lab_STM32_IoT/targets/STM32L431_BearPi/Src\usart.c ****     GPIO_InitStruct.Alternate = GPIO_AF7_USART1;
 185:c:/Users/lenovo/Desktop/AIoT/first_day/firstday_afternoon/LiteOS_Lab_STM32_IoT/targets/STM32L431_BearPi/Src\usart.c ****     HAL_GPIO_Init(GPIOA, &GPIO_InitStruct);
 186:c:/Users/lenovo/Desktop/AIoT/first_day/firstday_afternoon/LiteOS_Lab_STM32_IoT/targets/STM32L431_BearPi/Src\usart.c **** 
 187:c:/Users/lenovo/Desktop/AIoT/first_day/firstday_afternoon/LiteOS_Lab_STM32_IoT/targets/STM32L431_BearPi/Src\usart.c ****     /* USART1 interrupt Init */
 188:c:/Users/lenovo/Desktop/AIoT/first_day/firstday_afternoon/LiteOS_Lab_STM32_IoT/targets/STM32L431_BearPi/Src\usart.c ****     HAL_NVIC_SetPriority(USART1_IRQn, 0, 0);
 189:c:/Users/lenovo/Desktop/AIoT/first_day/firstday_afternoon/LiteOS_Lab_STM32_IoT/targets/STM32L431_BearPi/Src\usart.c ****     HAL_NVIC_EnableIRQ(USART1_IRQn);
 190:c:/Users/lenovo/Desktop/AIoT/first_day/firstday_afternoon/LiteOS_Lab_STM32_IoT/targets/STM32L431_BearPi/Src\usart.c ****   /* USER CODE BEGIN USART1_MspInit 1 */
 191:c:/Users/lenovo/Desktop/AIoT/first_day/firstday_afternoon/LiteOS_Lab_STM32_IoT/targets/STM32L431_BearPi/Src\usart.c **** 
 192:c:/Users/lenovo/Desktop/AIoT/first_day/firstday_afternoon/LiteOS_Lab_STM32_IoT/targets/STM32L431_BearPi/Src\usart.c ****   /* USER CODE END USART1_MspInit 1 */
 193:c:/Users/lenovo/Desktop/AIoT/first_day/firstday_afternoon/LiteOS_Lab_STM32_IoT/targets/STM32L431_BearPi/Src\usart.c ****   }
 194:c:/Users/lenovo/Desktop/AIoT/first_day/firstday_afternoon/LiteOS_Lab_STM32_IoT/targets/STM32L431_BearPi/Src\usart.c ****   else if(uartHandle->Instance==USART2)
 195:c:/Users/lenovo/Desktop/AIoT/first_day/firstday_afternoon/LiteOS_Lab_STM32_IoT/targets/STM32L431_BearPi/Src\usart.c ****   {
 196:c:/Users/lenovo/Desktop/AIoT/first_day/firstday_afternoon/LiteOS_Lab_STM32_IoT/targets/STM32L431_BearPi/Src\usart.c ****   /* USER CODE BEGIN USART2_MspInit 0 */
 197:c:/Users/lenovo/Desktop/AIoT/first_day/firstday_afternoon/LiteOS_Lab_STM32_IoT/targets/STM32L431_BearPi/Src\usart.c **** 
 198:c:/Users/lenovo/Desktop/AIoT/first_day/firstday_afternoon/LiteOS_Lab_STM32_IoT/targets/STM32L431_BearPi/Src\usart.c ****   /* USER CODE END USART2_MspInit 0 */
 199:c:/Users/lenovo/Desktop/AIoT/first_day/firstday_afternoon/LiteOS_Lab_STM32_IoT/targets/STM32L431_BearPi/Src\usart.c ****     /* USART2 clock enable */
 200:c:/Users/lenovo/Desktop/AIoT/first_day/firstday_afternoon/LiteOS_Lab_STM32_IoT/targets/STM32L431_BearPi/Src\usart.c ****     __HAL_RCC_USART2_CLK_ENABLE();
 201:c:/Users/lenovo/Desktop/AIoT/first_day/firstday_afternoon/LiteOS_Lab_STM32_IoT/targets/STM32L431_BearPi/Src\usart.c ****   
 202:c:/Users/lenovo/Desktop/AIoT/first_day/firstday_afternoon/LiteOS_Lab_STM32_IoT/targets/STM32L431_BearPi/Src\usart.c ****     /**USART2 GPIO Configuration    
 203:c:/Users/lenovo/Desktop/AIoT/first_day/firstday_afternoon/LiteOS_Lab_STM32_IoT/targets/STM32L431_BearPi/Src\usart.c ****     PA2     ------> USART2_TX
 204:c:/Users/lenovo/Desktop/AIoT/first_day/firstday_afternoon/LiteOS_Lab_STM32_IoT/targets/STM32L431_BearPi/Src\usart.c ****     PA3     ------> USART2_RX 
 205:c:/Users/lenovo/Desktop/AIoT/first_day/firstday_afternoon/LiteOS_Lab_STM32_IoT/targets/STM32L431_BearPi/Src\usart.c ****     */
 206:c:/Users/lenovo/Desktop/AIoT/first_day/firstday_afternoon/LiteOS_Lab_STM32_IoT/targets/STM32L431_BearPi/Src\usart.c ****     GPIO_InitStruct.Pin = GPIO_PIN_2|GPIO_PIN_3;
 207:c:/Users/lenovo/Desktop/AIoT/first_day/firstday_afternoon/LiteOS_Lab_STM32_IoT/targets/STM32L431_BearPi/Src\usart.c ****     GPIO_InitStruct.Mode = GPIO_MODE_AF_PP;
 208:c:/Users/lenovo/Desktop/AIoT/first_day/firstday_afternoon/LiteOS_Lab_STM32_IoT/targets/STM32L431_BearPi/Src\usart.c ****     GPIO_InitStruct.Pull = GPIO_NOPULL;
 209:c:/Users/lenovo/Desktop/AIoT/first_day/firstday_afternoon/LiteOS_Lab_STM32_IoT/targets/STM32L431_BearPi/Src\usart.c ****     GPIO_InitStruct.Speed = GPIO_SPEED_FREQ_VERY_HIGH;
 210:c:/Users/lenovo/Desktop/AIoT/first_day/firstday_afternoon/LiteOS_Lab_STM32_IoT/targets/STM32L431_BearPi/Src\usart.c ****     GPIO_InitStruct.Alternate = GPIO_AF7_USART2;
 211:c:/Users/lenovo/Desktop/AIoT/first_day/firstday_afternoon/LiteOS_Lab_STM32_IoT/targets/STM32L431_BearPi/Src\usart.c ****     HAL_GPIO_Init(GPIOA, &GPIO_InitStruct);
 212:c:/Users/lenovo/Desktop/AIoT/first_day/firstday_afternoon/LiteOS_Lab_STM32_IoT/targets/STM32L431_BearPi/Src\usart.c **** 
 213:c:/Users/lenovo/Desktop/AIoT/first_day/firstday_afternoon/LiteOS_Lab_STM32_IoT/targets/STM32L431_BearPi/Src\usart.c ****     /* USART2 interrupt Init */
 214:c:/Users/lenovo/Desktop/AIoT/first_day/firstday_afternoon/LiteOS_Lab_STM32_IoT/targets/STM32L431_BearPi/Src\usart.c ****     HAL_NVIC_SetPriority(USART2_IRQn, 0, 0);
 215:c:/Users/lenovo/Desktop/AIoT/first_day/firstday_afternoon/LiteOS_Lab_STM32_IoT/targets/STM32L431_BearPi/Src\usart.c ****     HAL_NVIC_EnableIRQ(USART2_IRQn);
 216:c:/Users/lenovo/Desktop/AIoT/first_day/firstday_afternoon/LiteOS_Lab_STM32_IoT/targets/STM32L431_BearPi/Src\usart.c ****   /* USER CODE BEGIN USART2_MspInit 1 */
 217:c:/Users/lenovo/Desktop/AIoT/first_day/firstday_afternoon/LiteOS_Lab_STM32_IoT/targets/STM32L431_BearPi/Src\usart.c **** 
 218:c:/Users/lenovo/Desktop/AIoT/first_day/firstday_afternoon/LiteOS_Lab_STM32_IoT/targets/STM32L431_BearPi/Src\usart.c ****   /* USER CODE END USART2_MspInit 1 */
 219:c:/Users/lenovo/Desktop/AIoT/first_day/firstday_afternoon/LiteOS_Lab_STM32_IoT/targets/STM32L431_BearPi/Src\usart.c ****   }
 220:c:/Users/lenovo/Desktop/AIoT/first_day/firstday_afternoon/LiteOS_Lab_STM32_IoT/targets/STM32L431_BearPi/Src\usart.c ****   else if(uartHandle->Instance==USART3)
 221:c:/Users/lenovo/Desktop/AIoT/first_day/firstday_afternoon/LiteOS_Lab_STM32_IoT/targets/STM32L431_BearPi/Src\usart.c ****   {
 222:c:/Users/lenovo/Desktop/AIoT/first_day/firstday_afternoon/LiteOS_Lab_STM32_IoT/targets/STM32L431_BearPi/Src\usart.c ****   /* USER CODE BEGIN USART3_MspInit 0 */
 223:c:/Users/lenovo/Desktop/AIoT/first_day/firstday_afternoon/LiteOS_Lab_STM32_IoT/targets/STM32L431_BearPi/Src\usart.c **** 
 224:c:/Users/lenovo/Desktop/AIoT/first_day/firstday_afternoon/LiteOS_Lab_STM32_IoT/targets/STM32L431_BearPi/Src\usart.c ****   /* USER CODE END USART3_MspInit 0 */
 225:c:/Users/lenovo/Desktop/AIoT/first_day/firstday_afternoon/LiteOS_Lab_STM32_IoT/targets/STM32L431_BearPi/Src\usart.c ****     /* USART3 clock enable */
 226:c:/Users/lenovo/Desktop/AIoT/first_day/firstday_afternoon/LiteOS_Lab_STM32_IoT/targets/STM32L431_BearPi/Src\usart.c ****     __HAL_RCC_USART3_CLK_ENABLE();
 227:c:/Users/lenovo/Desktop/AIoT/first_day/firstday_afternoon/LiteOS_Lab_STM32_IoT/targets/STM32L431_BearPi/Src\usart.c ****   
 228:c:/Users/lenovo/Desktop/AIoT/first_day/firstday_afternoon/LiteOS_Lab_STM32_IoT/targets/STM32L431_BearPi/Src\usart.c ****     /**USART3 GPIO Configuration    
 229:c:/Users/lenovo/Desktop/AIoT/first_day/firstday_afternoon/LiteOS_Lab_STM32_IoT/targets/STM32L431_BearPi/Src\usart.c ****     PC4     ------> USART3_TX
 230:c:/Users/lenovo/Desktop/AIoT/first_day/firstday_afternoon/LiteOS_Lab_STM32_IoT/targets/STM32L431_BearPi/Src\usart.c ****     PC5     ------> USART3_RX 
 231:c:/Users/lenovo/Desktop/AIoT/first_day/firstday_afternoon/LiteOS_Lab_STM32_IoT/targets/STM32L431_BearPi/Src\usart.c ****     */
 232:c:/Users/lenovo/Desktop/AIoT/first_day/firstday_afternoon/LiteOS_Lab_STM32_IoT/targets/STM32L431_BearPi/Src\usart.c ****     GPIO_InitStruct.Pin = GPIO_PIN_4|GPIO_PIN_5;
 233:c:/Users/lenovo/Desktop/AIoT/first_day/firstday_afternoon/LiteOS_Lab_STM32_IoT/targets/STM32L431_BearPi/Src\usart.c ****     GPIO_InitStruct.Mode = GPIO_MODE_AF_PP;
 234:c:/Users/lenovo/Desktop/AIoT/first_day/firstday_afternoon/LiteOS_Lab_STM32_IoT/targets/STM32L431_BearPi/Src\usart.c ****     GPIO_InitStruct.Pull = GPIO_NOPULL;
 235:c:/Users/lenovo/Desktop/AIoT/first_day/firstday_afternoon/LiteOS_Lab_STM32_IoT/targets/STM32L431_BearPi/Src\usart.c ****     GPIO_InitStruct.Speed = GPIO_SPEED_FREQ_VERY_HIGH;
 236:c:/Users/lenovo/Desktop/AIoT/first_day/firstday_afternoon/LiteOS_Lab_STM32_IoT/targets/STM32L431_BearPi/Src\usart.c ****     GPIO_InitStruct.Alternate = GPIO_AF7_USART3;
 237:c:/Users/lenovo/Desktop/AIoT/first_day/firstday_afternoon/LiteOS_Lab_STM32_IoT/targets/STM32L431_BearPi/Src\usart.c ****     HAL_GPIO_Init(GPIOC, &GPIO_InitStruct);
 238:c:/Users/lenovo/Desktop/AIoT/first_day/firstday_afternoon/LiteOS_Lab_STM32_IoT/targets/STM32L431_BearPi/Src\usart.c **** 
 239:c:/Users/lenovo/Desktop/AIoT/first_day/firstday_afternoon/LiteOS_Lab_STM32_IoT/targets/STM32L431_BearPi/Src\usart.c ****     /* USART3 interrupt Init */
 240:c:/Users/lenovo/Desktop/AIoT/first_day/firstday_afternoon/LiteOS_Lab_STM32_IoT/targets/STM32L431_BearPi/Src\usart.c ****     HAL_NVIC_SetPriority(USART3_IRQn, 0, 0);
ARM GAS  C:\Users\lenovo\AppData\Local\Temp\ccEGFOni.s 			page 13


 241:c:/Users/lenovo/Desktop/AIoT/first_day/firstday_afternoon/LiteOS_Lab_STM32_IoT/targets/STM32L431_BearPi/Src\usart.c ****     HAL_NVIC_EnableIRQ(USART3_IRQn);
 242:c:/Users/lenovo/Desktop/AIoT/first_day/firstday_afternoon/LiteOS_Lab_STM32_IoT/targets/STM32L431_BearPi/Src\usart.c ****   /* USER CODE BEGIN USART3_MspInit 1 */
 243:c:/Users/lenovo/Desktop/AIoT/first_day/firstday_afternoon/LiteOS_Lab_STM32_IoT/targets/STM32L431_BearPi/Src\usart.c **** 
 244:c:/Users/lenovo/Desktop/AIoT/first_day/firstday_afternoon/LiteOS_Lab_STM32_IoT/targets/STM32L431_BearPi/Src\usart.c ****   /* USER CODE END USART3_MspInit 1 */
 245:c:/Users/lenovo/Desktop/AIoT/first_day/firstday_afternoon/LiteOS_Lab_STM32_IoT/targets/STM32L431_BearPi/Src\usart.c ****   }
 246:c:/Users/lenovo/Desktop/AIoT/first_day/firstday_afternoon/LiteOS_Lab_STM32_IoT/targets/STM32L431_BearPi/Src\usart.c **** }
 443              		.loc 1 246 1
 444 005a 7FE0     		b	.L26
 445              	.L22:
 168:c:/Users/lenovo/Desktop/AIoT/first_day/firstday_afternoon/LiteOS_Lab_STM32_IoT/targets/STM32L431_BearPi/Src\usart.c ****   {
 446              		.loc 1 168 20
 447 005c 7B68     		ldr	r3, [r7, #4]
 448 005e 1B68     		ldr	r3, [r3]
 168:c:/Users/lenovo/Desktop/AIoT/first_day/firstday_afternoon/LiteOS_Lab_STM32_IoT/targets/STM32L431_BearPi/Src\usart.c ****   {
 449              		.loc 1 168 9
 450 0060 434A     		ldr	r2, .L27+12
 451 0062 9342     		cmp	r3, r2
 452 0064 26D1     		bne	.L24
 453              	.LBB3:
 174:c:/Users/lenovo/Desktop/AIoT/first_day/firstday_afternoon/LiteOS_Lab_STM32_IoT/targets/STM32L431_BearPi/Src\usart.c ****   
 454              		.loc 1 174 5
 455 0066 404B     		ldr	r3, .L27+4
 456 0068 1B6E     		ldr	r3, [r3, #96]
 457 006a 3F4A     		ldr	r2, .L27+4
 458 006c 43F48043 		orr	r3, r3, #16384
 459 0070 1366     		str	r3, [r2, #96]
 460 0072 3D4B     		ldr	r3, .L27+4
 461 0074 1B6E     		ldr	r3, [r3, #96]
 462 0076 03F48043 		and	r3, r3, #16384
 463 007a 7B61     		str	r3, [r7, #20]
 464 007c 7B69     		ldr	r3, [r7, #20]
 465              	.LBE3:
 180:c:/Users/lenovo/Desktop/AIoT/first_day/firstday_afternoon/LiteOS_Lab_STM32_IoT/targets/STM32L431_BearPi/Src\usart.c ****     GPIO_InitStruct.Mode = GPIO_MODE_AF_PP;
 466              		.loc 1 180 25
 467 007e 4FF4C063 		mov	r3, #1536
 468 0082 FB61     		str	r3, [r7, #28]
 181:c:/Users/lenovo/Desktop/AIoT/first_day/firstday_afternoon/LiteOS_Lab_STM32_IoT/targets/STM32L431_BearPi/Src\usart.c ****     GPIO_InitStruct.Pull = GPIO_NOPULL;
 469              		.loc 1 181 26
 470 0084 0223     		movs	r3, #2
 471 0086 3B62     		str	r3, [r7, #32]
 182:c:/Users/lenovo/Desktop/AIoT/first_day/firstday_afternoon/LiteOS_Lab_STM32_IoT/targets/STM32L431_BearPi/Src\usart.c ****     GPIO_InitStruct.Speed = GPIO_SPEED_FREQ_VERY_HIGH;
 472              		.loc 1 182 26
 473 0088 0023     		movs	r3, #0
 474 008a 7B62     		str	r3, [r7, #36]
 183:c:/Users/lenovo/Desktop/AIoT/first_day/firstday_afternoon/LiteOS_Lab_STM32_IoT/targets/STM32L431_BearPi/Src\usart.c ****     GPIO_InitStruct.Alternate = GPIO_AF7_USART1;
 475              		.loc 1 183 27
 476 008c 0323     		movs	r3, #3
 477 008e BB62     		str	r3, [r7, #40]
 184:c:/Users/lenovo/Desktop/AIoT/first_day/firstday_afternoon/LiteOS_Lab_STM32_IoT/targets/STM32L431_BearPi/Src\usart.c ****     HAL_GPIO_Init(GPIOA, &GPIO_InitStruct);
 478              		.loc 1 184 31
 479 0090 0723     		movs	r3, #7
 480 0092 FB62     		str	r3, [r7, #44]
 185:c:/Users/lenovo/Desktop/AIoT/first_day/firstday_afternoon/LiteOS_Lab_STM32_IoT/targets/STM32L431_BearPi/Src\usart.c **** 
 481              		.loc 1 185 5
 482 0094 07F11C03 		add	r3, r7, #28
 483 0098 1946     		mov	r1, r3
 484 009a 4FF09040 		mov	r0, #1207959552
ARM GAS  C:\Users\lenovo\AppData\Local\Temp\ccEGFOni.s 			page 14


 485 009e FFF7FEFF 		bl	HAL_GPIO_Init
 188:c:/Users/lenovo/Desktop/AIoT/first_day/firstday_afternoon/LiteOS_Lab_STM32_IoT/targets/STM32L431_BearPi/Src\usart.c ****     HAL_NVIC_EnableIRQ(USART1_IRQn);
 486              		.loc 1 188 5
 487 00a2 0022     		movs	r2, #0
 488 00a4 0021     		movs	r1, #0
 489 00a6 2520     		movs	r0, #37
 490 00a8 FFF7FEFF 		bl	HAL_NVIC_SetPriority
 189:c:/Users/lenovo/Desktop/AIoT/first_day/firstday_afternoon/LiteOS_Lab_STM32_IoT/targets/STM32L431_BearPi/Src\usart.c ****   /* USER CODE BEGIN USART1_MspInit 1 */
 491              		.loc 1 189 5
 492 00ac 2520     		movs	r0, #37
 493 00ae FFF7FEFF 		bl	HAL_NVIC_EnableIRQ
 494              		.loc 1 246 1
 495 00b2 53E0     		b	.L26
 496              	.L24:
 194:c:/Users/lenovo/Desktop/AIoT/first_day/firstday_afternoon/LiteOS_Lab_STM32_IoT/targets/STM32L431_BearPi/Src\usart.c ****   {
 497              		.loc 1 194 21
 498 00b4 7B68     		ldr	r3, [r7, #4]
 499 00b6 1B68     		ldr	r3, [r3]
 194:c:/Users/lenovo/Desktop/AIoT/first_day/firstday_afternoon/LiteOS_Lab_STM32_IoT/targets/STM32L431_BearPi/Src\usart.c ****   {
 500              		.loc 1 194 10
 501 00b8 2E4A     		ldr	r2, .L27+16
 502 00ba 9342     		cmp	r3, r2
 503 00bc 25D1     		bne	.L25
 504              	.LBB4:
 200:c:/Users/lenovo/Desktop/AIoT/first_day/firstday_afternoon/LiteOS_Lab_STM32_IoT/targets/STM32L431_BearPi/Src\usart.c ****   
 505              		.loc 1 200 5
 506 00be 2A4B     		ldr	r3, .L27+4
 507 00c0 9B6D     		ldr	r3, [r3, #88]
 508 00c2 294A     		ldr	r2, .L27+4
 509 00c4 43F40033 		orr	r3, r3, #131072
 510 00c8 9365     		str	r3, [r2, #88]
 511 00ca 274B     		ldr	r3, .L27+4
 512 00cc 9B6D     		ldr	r3, [r3, #88]
 513 00ce 03F40033 		and	r3, r3, #131072
 514 00d2 3B61     		str	r3, [r7, #16]
 515 00d4 3B69     		ldr	r3, [r7, #16]
 516              	.LBE4:
 206:c:/Users/lenovo/Desktop/AIoT/first_day/firstday_afternoon/LiteOS_Lab_STM32_IoT/targets/STM32L431_BearPi/Src\usart.c ****     GPIO_InitStruct.Mode = GPIO_MODE_AF_PP;
 517              		.loc 1 206 25
 518 00d6 0C23     		movs	r3, #12
 519 00d8 FB61     		str	r3, [r7, #28]
 207:c:/Users/lenovo/Desktop/AIoT/first_day/firstday_afternoon/LiteOS_Lab_STM32_IoT/targets/STM32L431_BearPi/Src\usart.c ****     GPIO_InitStruct.Pull = GPIO_NOPULL;
 520              		.loc 1 207 26
 521 00da 0223     		movs	r3, #2
 522 00dc 3B62     		str	r3, [r7, #32]
 208:c:/Users/lenovo/Desktop/AIoT/first_day/firstday_afternoon/LiteOS_Lab_STM32_IoT/targets/STM32L431_BearPi/Src\usart.c ****     GPIO_InitStruct.Speed = GPIO_SPEED_FREQ_VERY_HIGH;
 523              		.loc 1 208 26
 524 00de 0023     		movs	r3, #0
 525 00e0 7B62     		str	r3, [r7, #36]
 209:c:/Users/lenovo/Desktop/AIoT/first_day/firstday_afternoon/LiteOS_Lab_STM32_IoT/targets/STM32L431_BearPi/Src\usart.c ****     GPIO_InitStruct.Alternate = GPIO_AF7_USART2;
 526              		.loc 1 209 27
 527 00e2 0323     		movs	r3, #3
 528 00e4 BB62     		str	r3, [r7, #40]
 210:c:/Users/lenovo/Desktop/AIoT/first_day/firstday_afternoon/LiteOS_Lab_STM32_IoT/targets/STM32L431_BearPi/Src\usart.c ****     HAL_GPIO_Init(GPIOA, &GPIO_InitStruct);
 529              		.loc 1 210 31
 530 00e6 0723     		movs	r3, #7
 531 00e8 FB62     		str	r3, [r7, #44]
ARM GAS  C:\Users\lenovo\AppData\Local\Temp\ccEGFOni.s 			page 15


 211:c:/Users/lenovo/Desktop/AIoT/first_day/firstday_afternoon/LiteOS_Lab_STM32_IoT/targets/STM32L431_BearPi/Src\usart.c **** 
 532              		.loc 1 211 5
 533 00ea 07F11C03 		add	r3, r7, #28
 534 00ee 1946     		mov	r1, r3
 535 00f0 4FF09040 		mov	r0, #1207959552
 536 00f4 FFF7FEFF 		bl	HAL_GPIO_Init
 214:c:/Users/lenovo/Desktop/AIoT/first_day/firstday_afternoon/LiteOS_Lab_STM32_IoT/targets/STM32L431_BearPi/Src\usart.c ****     HAL_NVIC_EnableIRQ(USART2_IRQn);
 537              		.loc 1 214 5
 538 00f8 0022     		movs	r2, #0
 539 00fa 0021     		movs	r1, #0
 540 00fc 2620     		movs	r0, #38
 541 00fe FFF7FEFF 		bl	HAL_NVIC_SetPriority
 215:c:/Users/lenovo/Desktop/AIoT/first_day/firstday_afternoon/LiteOS_Lab_STM32_IoT/targets/STM32L431_BearPi/Src\usart.c ****   /* USER CODE BEGIN USART2_MspInit 1 */
 542              		.loc 1 215 5
 543 0102 2620     		movs	r0, #38
 544 0104 FFF7FEFF 		bl	HAL_NVIC_EnableIRQ
 545              		.loc 1 246 1
 546 0108 28E0     		b	.L26
 547              	.L25:
 220:c:/Users/lenovo/Desktop/AIoT/first_day/firstday_afternoon/LiteOS_Lab_STM32_IoT/targets/STM32L431_BearPi/Src\usart.c ****   {
 548              		.loc 1 220 21
 549 010a 7B68     		ldr	r3, [r7, #4]
 550 010c 1B68     		ldr	r3, [r3]
 220:c:/Users/lenovo/Desktop/AIoT/first_day/firstday_afternoon/LiteOS_Lab_STM32_IoT/targets/STM32L431_BearPi/Src\usart.c ****   {
 551              		.loc 1 220 10
 552 010e 1A4A     		ldr	r2, .L27+20
 553 0110 9342     		cmp	r3, r2
 554 0112 23D1     		bne	.L26
 555              	.LBB5:
 226:c:/Users/lenovo/Desktop/AIoT/first_day/firstday_afternoon/LiteOS_Lab_STM32_IoT/targets/STM32L431_BearPi/Src\usart.c ****   
 556              		.loc 1 226 5
 557 0114 144B     		ldr	r3, .L27+4
 558 0116 9B6D     		ldr	r3, [r3, #88]
 559 0118 134A     		ldr	r2, .L27+4
 560 011a 43F48023 		orr	r3, r3, #262144
 561 011e 9365     		str	r3, [r2, #88]
 562 0120 114B     		ldr	r3, .L27+4
 563 0122 9B6D     		ldr	r3, [r3, #88]
 564 0124 03F48023 		and	r3, r3, #262144
 565 0128 FB60     		str	r3, [r7, #12]
 566 012a FB68     		ldr	r3, [r7, #12]
 567              	.LBE5:
 232:c:/Users/lenovo/Desktop/AIoT/first_day/firstday_afternoon/LiteOS_Lab_STM32_IoT/targets/STM32L431_BearPi/Src\usart.c ****     GPIO_InitStruct.Mode = GPIO_MODE_AF_PP;
 568              		.loc 1 232 25
 569 012c 3023     		movs	r3, #48
 570 012e FB61     		str	r3, [r7, #28]
 233:c:/Users/lenovo/Desktop/AIoT/first_day/firstday_afternoon/LiteOS_Lab_STM32_IoT/targets/STM32L431_BearPi/Src\usart.c ****     GPIO_InitStruct.Pull = GPIO_NOPULL;
 571              		.loc 1 233 26
 572 0130 0223     		movs	r3, #2
 573 0132 3B62     		str	r3, [r7, #32]
 234:c:/Users/lenovo/Desktop/AIoT/first_day/firstday_afternoon/LiteOS_Lab_STM32_IoT/targets/STM32L431_BearPi/Src\usart.c ****     GPIO_InitStruct.Speed = GPIO_SPEED_FREQ_VERY_HIGH;
 574              		.loc 1 234 26
 575 0134 0023     		movs	r3, #0
 576 0136 7B62     		str	r3, [r7, #36]
 235:c:/Users/lenovo/Desktop/AIoT/first_day/firstday_afternoon/LiteOS_Lab_STM32_IoT/targets/STM32L431_BearPi/Src\usart.c ****     GPIO_InitStruct.Alternate = GPIO_AF7_USART3;
 577              		.loc 1 235 27
 578 0138 0323     		movs	r3, #3
ARM GAS  C:\Users\lenovo\AppData\Local\Temp\ccEGFOni.s 			page 16


 579 013a BB62     		str	r3, [r7, #40]
 236:c:/Users/lenovo/Desktop/AIoT/first_day/firstday_afternoon/LiteOS_Lab_STM32_IoT/targets/STM32L431_BearPi/Src\usart.c ****     HAL_GPIO_Init(GPIOC, &GPIO_InitStruct);
 580              		.loc 1 236 31
 581 013c 0723     		movs	r3, #7
 582 013e FB62     		str	r3, [r7, #44]
 237:c:/Users/lenovo/Desktop/AIoT/first_day/firstday_afternoon/LiteOS_Lab_STM32_IoT/targets/STM32L431_BearPi/Src\usart.c **** 
 583              		.loc 1 237 5
 584 0140 07F11C03 		add	r3, r7, #28
 585 0144 1946     		mov	r1, r3
 586 0146 0948     		ldr	r0, .L27+8
 587 0148 FFF7FEFF 		bl	HAL_GPIO_Init
 240:c:/Users/lenovo/Desktop/AIoT/first_day/firstday_afternoon/LiteOS_Lab_STM32_IoT/targets/STM32L431_BearPi/Src\usart.c ****     HAL_NVIC_EnableIRQ(USART3_IRQn);
 588              		.loc 1 240 5
 589 014c 0022     		movs	r2, #0
 590 014e 0021     		movs	r1, #0
 591 0150 2720     		movs	r0, #39
 592 0152 FFF7FEFF 		bl	HAL_NVIC_SetPriority
 241:c:/Users/lenovo/Desktop/AIoT/first_day/firstday_afternoon/LiteOS_Lab_STM32_IoT/targets/STM32L431_BearPi/Src\usart.c ****   /* USER CODE BEGIN USART3_MspInit 1 */
 593              		.loc 1 241 5
 594 0156 2720     		movs	r0, #39
 595 0158 FFF7FEFF 		bl	HAL_NVIC_EnableIRQ
 596              	.L26:
 597              		.loc 1 246 1
 598 015c 00BF     		nop
 599 015e 3037     		adds	r7, r7, #48
 600              	.LCFI11:
 601              		.cfi_def_cfa_offset 8
 602 0160 BD46     		mov	sp, r7
 603              	.LCFI12:
 604              		.cfi_def_cfa_register 13
 605              		@ sp needed
 606 0162 80BD     		pop	{r7, pc}
 607              	.L28:
 608              		.align	2
 609              	.L27:
 610 0164 00800040 		.word	1073774592
 611 0168 00100240 		.word	1073876992
 612 016c 00080048 		.word	1207961600
 613 0170 00380140 		.word	1073821696
 614 0174 00440040 		.word	1073759232
 615 0178 00480040 		.word	1073760256
 616              		.cfi_endproc
 617              	.LFE291:
 619              		.section	.text.HAL_UART_MspDeInit,"ax",%progbits
 620              		.align	1
 621              		.global	HAL_UART_MspDeInit
 622              		.syntax unified
 623              		.thumb
 624              		.thumb_func
 625              		.fpu fpv4-sp-d16
 627              	HAL_UART_MspDeInit:
 628              	.LFB292:
 247:c:/Users/lenovo/Desktop/AIoT/first_day/firstday_afternoon/LiteOS_Lab_STM32_IoT/targets/STM32L431_BearPi/Src\usart.c **** 
 248:c:/Users/lenovo/Desktop/AIoT/first_day/firstday_afternoon/LiteOS_Lab_STM32_IoT/targets/STM32L431_BearPi/Src\usart.c **** void HAL_UART_MspDeInit(UART_HandleTypeDef* uartHandle)
 249:c:/Users/lenovo/Desktop/AIoT/first_day/firstday_afternoon/LiteOS_Lab_STM32_IoT/targets/STM32L431_BearPi/Src\usart.c **** {
 629              		.loc 1 249 1
 630              		.cfi_startproc
ARM GAS  C:\Users\lenovo\AppData\Local\Temp\ccEGFOni.s 			page 17


 631              		@ args = 0, pretend = 0, frame = 8
 632              		@ frame_needed = 1, uses_anonymous_args = 0
 633 0000 80B5     		push	{r7, lr}
 634              	.LCFI13:
 635              		.cfi_def_cfa_offset 8
 636              		.cfi_offset 7, -8
 637              		.cfi_offset 14, -4
 638 0002 82B0     		sub	sp, sp, #8
 639              	.LCFI14:
 640              		.cfi_def_cfa_offset 16
 641 0004 00AF     		add	r7, sp, #0
 642              	.LCFI15:
 643              		.cfi_def_cfa_register 7
 644 0006 7860     		str	r0, [r7, #4]
 250:c:/Users/lenovo/Desktop/AIoT/first_day/firstday_afternoon/LiteOS_Lab_STM32_IoT/targets/STM32L431_BearPi/Src\usart.c **** 
 251:c:/Users/lenovo/Desktop/AIoT/first_day/firstday_afternoon/LiteOS_Lab_STM32_IoT/targets/STM32L431_BearPi/Src\usart.c ****   if(uartHandle->Instance==LPUART1)
 645              		.loc 1 251 16
 646 0008 7B68     		ldr	r3, [r7, #4]
 647 000a 1B68     		ldr	r3, [r3]
 648              		.loc 1 251 5
 649 000c 274A     		ldr	r2, .L35
 650 000e 9342     		cmp	r3, r2
 651 0010 0DD1     		bne	.L30
 252:c:/Users/lenovo/Desktop/AIoT/first_day/firstday_afternoon/LiteOS_Lab_STM32_IoT/targets/STM32L431_BearPi/Src\usart.c ****   {
 253:c:/Users/lenovo/Desktop/AIoT/first_day/firstday_afternoon/LiteOS_Lab_STM32_IoT/targets/STM32L431_BearPi/Src\usart.c ****   /* USER CODE BEGIN LPUART1_MspDeInit 0 */
 254:c:/Users/lenovo/Desktop/AIoT/first_day/firstday_afternoon/LiteOS_Lab_STM32_IoT/targets/STM32L431_BearPi/Src\usart.c **** 
 255:c:/Users/lenovo/Desktop/AIoT/first_day/firstday_afternoon/LiteOS_Lab_STM32_IoT/targets/STM32L431_BearPi/Src\usart.c ****   /* USER CODE END LPUART1_MspDeInit 0 */
 256:c:/Users/lenovo/Desktop/AIoT/first_day/firstday_afternoon/LiteOS_Lab_STM32_IoT/targets/STM32L431_BearPi/Src\usart.c ****     /* Peripheral clock disable */
 257:c:/Users/lenovo/Desktop/AIoT/first_day/firstday_afternoon/LiteOS_Lab_STM32_IoT/targets/STM32L431_BearPi/Src\usart.c ****     __HAL_RCC_LPUART1_CLK_DISABLE();
 652              		.loc 1 257 5
 653 0012 274B     		ldr	r3, .L35+4
 654 0014 DB6D     		ldr	r3, [r3, #92]
 655 0016 264A     		ldr	r2, .L35+4
 656 0018 23F00103 		bic	r3, r3, #1
 657 001c D365     		str	r3, [r2, #92]
 258:c:/Users/lenovo/Desktop/AIoT/first_day/firstday_afternoon/LiteOS_Lab_STM32_IoT/targets/STM32L431_BearPi/Src\usart.c ****   
 259:c:/Users/lenovo/Desktop/AIoT/first_day/firstday_afternoon/LiteOS_Lab_STM32_IoT/targets/STM32L431_BearPi/Src\usart.c ****     /**LPUART1 GPIO Configuration    
 260:c:/Users/lenovo/Desktop/AIoT/first_day/firstday_afternoon/LiteOS_Lab_STM32_IoT/targets/STM32L431_BearPi/Src\usart.c ****     PC0     ------> LPUART1_RX
 261:c:/Users/lenovo/Desktop/AIoT/first_day/firstday_afternoon/LiteOS_Lab_STM32_IoT/targets/STM32L431_BearPi/Src\usart.c ****     PC1     ------> LPUART1_TX 
 262:c:/Users/lenovo/Desktop/AIoT/first_day/firstday_afternoon/LiteOS_Lab_STM32_IoT/targets/STM32L431_BearPi/Src\usart.c ****     */
 263:c:/Users/lenovo/Desktop/AIoT/first_day/firstday_afternoon/LiteOS_Lab_STM32_IoT/targets/STM32L431_BearPi/Src\usart.c ****     HAL_GPIO_DeInit(GPIOC, GPIO_PIN_0|GPIO_PIN_1);
 658              		.loc 1 263 5
 659 001e 0321     		movs	r1, #3
 660 0020 2448     		ldr	r0, .L35+8
 661 0022 FFF7FEFF 		bl	HAL_GPIO_DeInit
 264:c:/Users/lenovo/Desktop/AIoT/first_day/firstday_afternoon/LiteOS_Lab_STM32_IoT/targets/STM32L431_BearPi/Src\usart.c **** 		
 265:c:/Users/lenovo/Desktop/AIoT/first_day/firstday_afternoon/LiteOS_Lab_STM32_IoT/targets/STM32L431_BearPi/Src\usart.c **** 	/* LPUART1 interrupt Deinit */
 266:c:/Users/lenovo/Desktop/AIoT/first_day/firstday_afternoon/LiteOS_Lab_STM32_IoT/targets/STM32L431_BearPi/Src\usart.c **** 		HAL_NVIC_DisableIRQ(LPUART1_IRQn);
 662              		.loc 1 266 3
 663 0026 4620     		movs	r0, #70
 664 0028 FFF7FEFF 		bl	HAL_NVIC_DisableIRQ
 267:c:/Users/lenovo/Desktop/AIoT/first_day/firstday_afternoon/LiteOS_Lab_STM32_IoT/targets/STM32L431_BearPi/Src\usart.c ****   /* USER CODE BEGIN LPUART1_MspDeInit 1 */
 268:c:/Users/lenovo/Desktop/AIoT/first_day/firstday_afternoon/LiteOS_Lab_STM32_IoT/targets/STM32L431_BearPi/Src\usart.c **** 
 269:c:/Users/lenovo/Desktop/AIoT/first_day/firstday_afternoon/LiteOS_Lab_STM32_IoT/targets/STM32L431_BearPi/Src\usart.c ****   /* USER CODE END LPUART1_MspDeInit 1 */
 270:c:/Users/lenovo/Desktop/AIoT/first_day/firstday_afternoon/LiteOS_Lab_STM32_IoT/targets/STM32L431_BearPi/Src\usart.c ****   }
 271:c:/Users/lenovo/Desktop/AIoT/first_day/firstday_afternoon/LiteOS_Lab_STM32_IoT/targets/STM32L431_BearPi/Src\usart.c ****   else if(uartHandle->Instance==USART1)
 272:c:/Users/lenovo/Desktop/AIoT/first_day/firstday_afternoon/LiteOS_Lab_STM32_IoT/targets/STM32L431_BearPi/Src\usart.c ****   {
ARM GAS  C:\Users\lenovo\AppData\Local\Temp\ccEGFOni.s 			page 18


 273:c:/Users/lenovo/Desktop/AIoT/first_day/firstday_afternoon/LiteOS_Lab_STM32_IoT/targets/STM32L431_BearPi/Src\usart.c ****   /* USER CODE BEGIN USART1_MspDeInit 0 */
 274:c:/Users/lenovo/Desktop/AIoT/first_day/firstday_afternoon/LiteOS_Lab_STM32_IoT/targets/STM32L431_BearPi/Src\usart.c **** 
 275:c:/Users/lenovo/Desktop/AIoT/first_day/firstday_afternoon/LiteOS_Lab_STM32_IoT/targets/STM32L431_BearPi/Src\usart.c ****   /* USER CODE END USART1_MspDeInit 0 */
 276:c:/Users/lenovo/Desktop/AIoT/first_day/firstday_afternoon/LiteOS_Lab_STM32_IoT/targets/STM32L431_BearPi/Src\usart.c ****     /* Peripheral clock disable */
 277:c:/Users/lenovo/Desktop/AIoT/first_day/firstday_afternoon/LiteOS_Lab_STM32_IoT/targets/STM32L431_BearPi/Src\usart.c ****     __HAL_RCC_USART1_CLK_DISABLE();
 278:c:/Users/lenovo/Desktop/AIoT/first_day/firstday_afternoon/LiteOS_Lab_STM32_IoT/targets/STM32L431_BearPi/Src\usart.c ****   
 279:c:/Users/lenovo/Desktop/AIoT/first_day/firstday_afternoon/LiteOS_Lab_STM32_IoT/targets/STM32L431_BearPi/Src\usart.c ****     /**USART1 GPIO Configuration    
 280:c:/Users/lenovo/Desktop/AIoT/first_day/firstday_afternoon/LiteOS_Lab_STM32_IoT/targets/STM32L431_BearPi/Src\usart.c ****     PA9     ------> USART1_TX
 281:c:/Users/lenovo/Desktop/AIoT/first_day/firstday_afternoon/LiteOS_Lab_STM32_IoT/targets/STM32L431_BearPi/Src\usart.c ****     PA10     ------> USART1_RX 
 282:c:/Users/lenovo/Desktop/AIoT/first_day/firstday_afternoon/LiteOS_Lab_STM32_IoT/targets/STM32L431_BearPi/Src\usart.c ****     */
 283:c:/Users/lenovo/Desktop/AIoT/first_day/firstday_afternoon/LiteOS_Lab_STM32_IoT/targets/STM32L431_BearPi/Src\usart.c ****     HAL_GPIO_DeInit(GPIOA, GPIO_PIN_9|GPIO_PIN_10);
 284:c:/Users/lenovo/Desktop/AIoT/first_day/firstday_afternoon/LiteOS_Lab_STM32_IoT/targets/STM32L431_BearPi/Src\usart.c **** 
 285:c:/Users/lenovo/Desktop/AIoT/first_day/firstday_afternoon/LiteOS_Lab_STM32_IoT/targets/STM32L431_BearPi/Src\usart.c ****     /* USART1 interrupt Deinit */
 286:c:/Users/lenovo/Desktop/AIoT/first_day/firstday_afternoon/LiteOS_Lab_STM32_IoT/targets/STM32L431_BearPi/Src\usart.c ****     HAL_NVIC_DisableIRQ(USART1_IRQn);
 287:c:/Users/lenovo/Desktop/AIoT/first_day/firstday_afternoon/LiteOS_Lab_STM32_IoT/targets/STM32L431_BearPi/Src\usart.c ****   /* USER CODE BEGIN USART1_MspDeInit 1 */
 288:c:/Users/lenovo/Desktop/AIoT/first_day/firstday_afternoon/LiteOS_Lab_STM32_IoT/targets/STM32L431_BearPi/Src\usart.c **** 
 289:c:/Users/lenovo/Desktop/AIoT/first_day/firstday_afternoon/LiteOS_Lab_STM32_IoT/targets/STM32L431_BearPi/Src\usart.c ****   /* USER CODE END USART1_MspDeInit 1 */
 290:c:/Users/lenovo/Desktop/AIoT/first_day/firstday_afternoon/LiteOS_Lab_STM32_IoT/targets/STM32L431_BearPi/Src\usart.c ****   }
 291:c:/Users/lenovo/Desktop/AIoT/first_day/firstday_afternoon/LiteOS_Lab_STM32_IoT/targets/STM32L431_BearPi/Src\usart.c ****   else if(uartHandle->Instance==USART2)
 292:c:/Users/lenovo/Desktop/AIoT/first_day/firstday_afternoon/LiteOS_Lab_STM32_IoT/targets/STM32L431_BearPi/Src\usart.c ****   {
 293:c:/Users/lenovo/Desktop/AIoT/first_day/firstday_afternoon/LiteOS_Lab_STM32_IoT/targets/STM32L431_BearPi/Src\usart.c ****   /* USER CODE BEGIN USART2_MspDeInit 0 */
 294:c:/Users/lenovo/Desktop/AIoT/first_day/firstday_afternoon/LiteOS_Lab_STM32_IoT/targets/STM32L431_BearPi/Src\usart.c **** 
 295:c:/Users/lenovo/Desktop/AIoT/first_day/firstday_afternoon/LiteOS_Lab_STM32_IoT/targets/STM32L431_BearPi/Src\usart.c ****   /* USER CODE END USART2_MspDeInit 0 */
 296:c:/Users/lenovo/Desktop/AIoT/first_day/firstday_afternoon/LiteOS_Lab_STM32_IoT/targets/STM32L431_BearPi/Src\usart.c ****     /* Peripheral clock disable */
 297:c:/Users/lenovo/Desktop/AIoT/first_day/firstday_afternoon/LiteOS_Lab_STM32_IoT/targets/STM32L431_BearPi/Src\usart.c ****     __HAL_RCC_USART2_CLK_DISABLE();
 298:c:/Users/lenovo/Desktop/AIoT/first_day/firstday_afternoon/LiteOS_Lab_STM32_IoT/targets/STM32L431_BearPi/Src\usart.c ****   
 299:c:/Users/lenovo/Desktop/AIoT/first_day/firstday_afternoon/LiteOS_Lab_STM32_IoT/targets/STM32L431_BearPi/Src\usart.c ****     /**USART2 GPIO Configuration    
 300:c:/Users/lenovo/Desktop/AIoT/first_day/firstday_afternoon/LiteOS_Lab_STM32_IoT/targets/STM32L431_BearPi/Src\usart.c ****     PA2     ------> USART2_TX
 301:c:/Users/lenovo/Desktop/AIoT/first_day/firstday_afternoon/LiteOS_Lab_STM32_IoT/targets/STM32L431_BearPi/Src\usart.c ****     PA3     ------> USART2_RX 
 302:c:/Users/lenovo/Desktop/AIoT/first_day/firstday_afternoon/LiteOS_Lab_STM32_IoT/targets/STM32L431_BearPi/Src\usart.c ****     */
 303:c:/Users/lenovo/Desktop/AIoT/first_day/firstday_afternoon/LiteOS_Lab_STM32_IoT/targets/STM32L431_BearPi/Src\usart.c ****     HAL_GPIO_DeInit(GPIOA, GPIO_PIN_2|GPIO_PIN_3);
 304:c:/Users/lenovo/Desktop/AIoT/first_day/firstday_afternoon/LiteOS_Lab_STM32_IoT/targets/STM32L431_BearPi/Src\usart.c **** 
 305:c:/Users/lenovo/Desktop/AIoT/first_day/firstday_afternoon/LiteOS_Lab_STM32_IoT/targets/STM32L431_BearPi/Src\usart.c ****     /* USART2 interrupt Deinit */
 306:c:/Users/lenovo/Desktop/AIoT/first_day/firstday_afternoon/LiteOS_Lab_STM32_IoT/targets/STM32L431_BearPi/Src\usart.c ****     HAL_NVIC_DisableIRQ(USART2_IRQn);
 307:c:/Users/lenovo/Desktop/AIoT/first_day/firstday_afternoon/LiteOS_Lab_STM32_IoT/targets/STM32L431_BearPi/Src\usart.c ****   /* USER CODE BEGIN USART2_MspDeInit 1 */
 308:c:/Users/lenovo/Desktop/AIoT/first_day/firstday_afternoon/LiteOS_Lab_STM32_IoT/targets/STM32L431_BearPi/Src\usart.c **** 
 309:c:/Users/lenovo/Desktop/AIoT/first_day/firstday_afternoon/LiteOS_Lab_STM32_IoT/targets/STM32L431_BearPi/Src\usart.c ****   /* USER CODE END USART2_MspDeInit 1 */
 310:c:/Users/lenovo/Desktop/AIoT/first_day/firstday_afternoon/LiteOS_Lab_STM32_IoT/targets/STM32L431_BearPi/Src\usart.c ****   }
 311:c:/Users/lenovo/Desktop/AIoT/first_day/firstday_afternoon/LiteOS_Lab_STM32_IoT/targets/STM32L431_BearPi/Src\usart.c ****   else if(uartHandle->Instance==USART3)
 312:c:/Users/lenovo/Desktop/AIoT/first_day/firstday_afternoon/LiteOS_Lab_STM32_IoT/targets/STM32L431_BearPi/Src\usart.c ****   {
 313:c:/Users/lenovo/Desktop/AIoT/first_day/firstday_afternoon/LiteOS_Lab_STM32_IoT/targets/STM32L431_BearPi/Src\usart.c ****   /* USER CODE BEGIN USART3_MspDeInit 0 */
 314:c:/Users/lenovo/Desktop/AIoT/first_day/firstday_afternoon/LiteOS_Lab_STM32_IoT/targets/STM32L431_BearPi/Src\usart.c **** 
 315:c:/Users/lenovo/Desktop/AIoT/first_day/firstday_afternoon/LiteOS_Lab_STM32_IoT/targets/STM32L431_BearPi/Src\usart.c ****   /* USER CODE END USART3_MspDeInit 0 */
 316:c:/Users/lenovo/Desktop/AIoT/first_day/firstday_afternoon/LiteOS_Lab_STM32_IoT/targets/STM32L431_BearPi/Src\usart.c ****     /* Peripheral clock disable */
 317:c:/Users/lenovo/Desktop/AIoT/first_day/firstday_afternoon/LiteOS_Lab_STM32_IoT/targets/STM32L431_BearPi/Src\usart.c ****     __HAL_RCC_USART3_CLK_DISABLE();
 318:c:/Users/lenovo/Desktop/AIoT/first_day/firstday_afternoon/LiteOS_Lab_STM32_IoT/targets/STM32L431_BearPi/Src\usart.c ****   
 319:c:/Users/lenovo/Desktop/AIoT/first_day/firstday_afternoon/LiteOS_Lab_STM32_IoT/targets/STM32L431_BearPi/Src\usart.c ****     /**USART3 GPIO Configuration    
 320:c:/Users/lenovo/Desktop/AIoT/first_day/firstday_afternoon/LiteOS_Lab_STM32_IoT/targets/STM32L431_BearPi/Src\usart.c ****     PC4     ------> USART3_TX
 321:c:/Users/lenovo/Desktop/AIoT/first_day/firstday_afternoon/LiteOS_Lab_STM32_IoT/targets/STM32L431_BearPi/Src\usart.c ****     PC5     ------> USART3_RX 
 322:c:/Users/lenovo/Desktop/AIoT/first_day/firstday_afternoon/LiteOS_Lab_STM32_IoT/targets/STM32L431_BearPi/Src\usart.c ****     */
 323:c:/Users/lenovo/Desktop/AIoT/first_day/firstday_afternoon/LiteOS_Lab_STM32_IoT/targets/STM32L431_BearPi/Src\usart.c ****     HAL_GPIO_DeInit(GPIOC, GPIO_PIN_4|GPIO_PIN_5);
 324:c:/Users/lenovo/Desktop/AIoT/first_day/firstday_afternoon/LiteOS_Lab_STM32_IoT/targets/STM32L431_BearPi/Src\usart.c **** 
 325:c:/Users/lenovo/Desktop/AIoT/first_day/firstday_afternoon/LiteOS_Lab_STM32_IoT/targets/STM32L431_BearPi/Src\usart.c ****     /* USART3 interrupt Deinit */
 326:c:/Users/lenovo/Desktop/AIoT/first_day/firstday_afternoon/LiteOS_Lab_STM32_IoT/targets/STM32L431_BearPi/Src\usart.c ****     HAL_NVIC_DisableIRQ(USART3_IRQn);
 327:c:/Users/lenovo/Desktop/AIoT/first_day/firstday_afternoon/LiteOS_Lab_STM32_IoT/targets/STM32L431_BearPi/Src\usart.c ****   /* USER CODE BEGIN USART3_MspDeInit 1 */
 328:c:/Users/lenovo/Desktop/AIoT/first_day/firstday_afternoon/LiteOS_Lab_STM32_IoT/targets/STM32L431_BearPi/Src\usart.c **** 
 329:c:/Users/lenovo/Desktop/AIoT/first_day/firstday_afternoon/LiteOS_Lab_STM32_IoT/targets/STM32L431_BearPi/Src\usart.c ****   /* USER CODE END USART3_MspDeInit 1 */
ARM GAS  C:\Users\lenovo\AppData\Local\Temp\ccEGFOni.s 			page 19


 330:c:/Users/lenovo/Desktop/AIoT/first_day/firstday_afternoon/LiteOS_Lab_STM32_IoT/targets/STM32L431_BearPi/Src\usart.c ****   }
 331:c:/Users/lenovo/Desktop/AIoT/first_day/firstday_afternoon/LiteOS_Lab_STM32_IoT/targets/STM32L431_BearPi/Src\usart.c **** }
 665              		.loc 1 331 1
 666 002c 3AE0     		b	.L34
 667              	.L30:
 271:c:/Users/lenovo/Desktop/AIoT/first_day/firstday_afternoon/LiteOS_Lab_STM32_IoT/targets/STM32L431_BearPi/Src\usart.c ****   {
 668              		.loc 1 271 21
 669 002e 7B68     		ldr	r3, [r7, #4]
 670 0030 1B68     		ldr	r3, [r3]
 271:c:/Users/lenovo/Desktop/AIoT/first_day/firstday_afternoon/LiteOS_Lab_STM32_IoT/targets/STM32L431_BearPi/Src\usart.c ****   {
 671              		.loc 1 271 10
 672 0032 214A     		ldr	r2, .L35+12
 673 0034 9342     		cmp	r3, r2
 674 0036 0FD1     		bne	.L32
 277:c:/Users/lenovo/Desktop/AIoT/first_day/firstday_afternoon/LiteOS_Lab_STM32_IoT/targets/STM32L431_BearPi/Src\usart.c ****   
 675              		.loc 1 277 5
 676 0038 1D4B     		ldr	r3, .L35+4
 677 003a 1B6E     		ldr	r3, [r3, #96]
 678 003c 1C4A     		ldr	r2, .L35+4
 679 003e 23F48043 		bic	r3, r3, #16384
 680 0042 1366     		str	r3, [r2, #96]
 283:c:/Users/lenovo/Desktop/AIoT/first_day/firstday_afternoon/LiteOS_Lab_STM32_IoT/targets/STM32L431_BearPi/Src\usart.c **** 
 681              		.loc 1 283 5
 682 0044 4FF4C061 		mov	r1, #1536
 683 0048 4FF09040 		mov	r0, #1207959552
 684 004c FFF7FEFF 		bl	HAL_GPIO_DeInit
 286:c:/Users/lenovo/Desktop/AIoT/first_day/firstday_afternoon/LiteOS_Lab_STM32_IoT/targets/STM32L431_BearPi/Src\usart.c ****   /* USER CODE BEGIN USART1_MspDeInit 1 */
 685              		.loc 1 286 5
 686 0050 2520     		movs	r0, #37
 687 0052 FFF7FEFF 		bl	HAL_NVIC_DisableIRQ
 688              		.loc 1 331 1
 689 0056 25E0     		b	.L34
 690              	.L32:
 291:c:/Users/lenovo/Desktop/AIoT/first_day/firstday_afternoon/LiteOS_Lab_STM32_IoT/targets/STM32L431_BearPi/Src\usart.c ****   {
 691              		.loc 1 291 21
 692 0058 7B68     		ldr	r3, [r7, #4]
 693 005a 1B68     		ldr	r3, [r3]
 291:c:/Users/lenovo/Desktop/AIoT/first_day/firstday_afternoon/LiteOS_Lab_STM32_IoT/targets/STM32L431_BearPi/Src\usart.c ****   {
 694              		.loc 1 291 10
 695 005c 174A     		ldr	r2, .L35+16
 696 005e 9342     		cmp	r3, r2
 697 0060 0ED1     		bne	.L33
 297:c:/Users/lenovo/Desktop/AIoT/first_day/firstday_afternoon/LiteOS_Lab_STM32_IoT/targets/STM32L431_BearPi/Src\usart.c ****   
 698              		.loc 1 297 5
 699 0062 134B     		ldr	r3, .L35+4
 700 0064 9B6D     		ldr	r3, [r3, #88]
 701 0066 124A     		ldr	r2, .L35+4
 702 0068 23F40033 		bic	r3, r3, #131072
 703 006c 9365     		str	r3, [r2, #88]
 303:c:/Users/lenovo/Desktop/AIoT/first_day/firstday_afternoon/LiteOS_Lab_STM32_IoT/targets/STM32L431_BearPi/Src\usart.c **** 
 704              		.loc 1 303 5
 705 006e 0C21     		movs	r1, #12
 706 0070 4FF09040 		mov	r0, #1207959552
 707 0074 FFF7FEFF 		bl	HAL_GPIO_DeInit
 306:c:/Users/lenovo/Desktop/AIoT/first_day/firstday_afternoon/LiteOS_Lab_STM32_IoT/targets/STM32L431_BearPi/Src\usart.c ****   /* USER CODE BEGIN USART2_MspDeInit 1 */
 708              		.loc 1 306 5
 709 0078 2620     		movs	r0, #38
ARM GAS  C:\Users\lenovo\AppData\Local\Temp\ccEGFOni.s 			page 20


 710 007a FFF7FEFF 		bl	HAL_NVIC_DisableIRQ
 711              		.loc 1 331 1
 712 007e 11E0     		b	.L34
 713              	.L33:
 311:c:/Users/lenovo/Desktop/AIoT/first_day/firstday_afternoon/LiteOS_Lab_STM32_IoT/targets/STM32L431_BearPi/Src\usart.c ****   {
 714              		.loc 1 311 21
 715 0080 7B68     		ldr	r3, [r7, #4]
 716 0082 1B68     		ldr	r3, [r3]
 311:c:/Users/lenovo/Desktop/AIoT/first_day/firstday_afternoon/LiteOS_Lab_STM32_IoT/targets/STM32L431_BearPi/Src\usart.c ****   {
 717              		.loc 1 311 10
 718 0084 0E4A     		ldr	r2, .L35+20
 719 0086 9342     		cmp	r3, r2
 720 0088 0CD1     		bne	.L34
 317:c:/Users/lenovo/Desktop/AIoT/first_day/firstday_afternoon/LiteOS_Lab_STM32_IoT/targets/STM32L431_BearPi/Src\usart.c ****   
 721              		.loc 1 317 5
 722 008a 094B     		ldr	r3, .L35+4
 723 008c 9B6D     		ldr	r3, [r3, #88]
 724 008e 084A     		ldr	r2, .L35+4
 725 0090 23F48023 		bic	r3, r3, #262144
 726 0094 9365     		str	r3, [r2, #88]
 323:c:/Users/lenovo/Desktop/AIoT/first_day/firstday_afternoon/LiteOS_Lab_STM32_IoT/targets/STM32L431_BearPi/Src\usart.c **** 
 727              		.loc 1 323 5
 728 0096 3021     		movs	r1, #48
 729 0098 0648     		ldr	r0, .L35+8
 730 009a FFF7FEFF 		bl	HAL_GPIO_DeInit
 326:c:/Users/lenovo/Desktop/AIoT/first_day/firstday_afternoon/LiteOS_Lab_STM32_IoT/targets/STM32L431_BearPi/Src\usart.c ****   /* USER CODE BEGIN USART3_MspDeInit 1 */
 731              		.loc 1 326 5
 732 009e 2720     		movs	r0, #39
 733 00a0 FFF7FEFF 		bl	HAL_NVIC_DisableIRQ
 734              	.L34:
 735              		.loc 1 331 1
 736 00a4 00BF     		nop
 737 00a6 0837     		adds	r7, r7, #8
 738              	.LCFI16:
 739              		.cfi_def_cfa_offset 8
 740 00a8 BD46     		mov	sp, r7
 741              	.LCFI17:
 742              		.cfi_def_cfa_register 13
 743              		@ sp needed
 744 00aa 80BD     		pop	{r7, pc}
 745              	.L36:
 746              		.align	2
 747              	.L35:
 748 00ac 00800040 		.word	1073774592
 749 00b0 00100240 		.word	1073876992
 750 00b4 00080048 		.word	1207961600
 751 00b8 00380140 		.word	1073821696
 752 00bc 00440040 		.word	1073759232
 753 00c0 00480040 		.word	1073760256
 754              		.cfi_endproc
 755              	.LFE292:
 757              		.text
 758              	.Letext0:
 759              		.file 2 "c:\\users\\lenovo\\.iotlink\\tools\\gcc-arm-none-eabi\\arm-none-eabi\\include\\machine\\_
 760              		.file 3 "c:\\users\\lenovo\\.iotlink\\tools\\gcc-arm-none-eabi\\arm-none-eabi\\include\\sys\\lock.
 761              		.file 4 "c:\\users\\lenovo\\.iotlink\\tools\\gcc-arm-none-eabi\\arm-none-eabi\\include\\sys\\_type
 762              		.file 5 "c:\\users\\lenovo\\.iotlink\\tools\\gcc-arm-none-eabi\\lib\\gcc\\arm-none-eabi\\9.2.1\\in
ARM GAS  C:\Users\lenovo\AppData\Local\Temp\ccEGFOni.s 			page 21


 763              		.file 6 "c:\\users\\lenovo\\.iotlink\\tools\\gcc-arm-none-eabi\\arm-none-eabi\\include\\sys\\reent
 764              		.file 7 "c:/Users/lenovo/Desktop/AIoT/first_day/firstday_afternoon/LiteOS_Lab_STM32_IoT/iot_link/o
 765              		.file 8 "c:\\users\\lenovo\\.iotlink\\tools\\gcc-arm-none-eabi\\arm-none-eabi\\include\\sys\\_stdi
 766              		.file 9 "c:/Users/lenovo/Desktop/AIoT/first_day/firstday_afternoon/LiteOS_Lab_STM32_IoT/iot_link/o
 767              		.file 10 "c:/Users/lenovo/Desktop/AIoT/first_day/firstday_afternoon/LiteOS_Lab_STM32_IoT/targets/S
 768              		.file 11 "c:/Users/lenovo/Desktop/AIoT/first_day/firstday_afternoon/LiteOS_Lab_STM32_IoT/targets/S
 769              		.file 12 "c:/Users/lenovo/Desktop/AIoT/first_day/firstday_afternoon/LiteOS_Lab_STM32_IoT/iot_link/
 770              		.file 13 "c:/Users/lenovo/Desktop/AIoT/first_day/firstday_afternoon/LiteOS_Lab_STM32_IoT/iot_link/
 771              		.file 14 "c:/Users/lenovo/Desktop/AIoT/first_day/firstday_afternoon/LiteOS_Lab_STM32_IoT/iot_link/
 772              		.file 15 "c:/Users/lenovo/Desktop/AIoT/first_day/firstday_afternoon/LiteOS_Lab_STM32_IoT/drivers/t
 773              		.file 16 "c:/Users/lenovo/Desktop/AIoT/first_day/firstday_afternoon/LiteOS_Lab_STM32_IoT/drivers/t
 774              		.file 17 "c:/Users/lenovo/Desktop/AIoT/first_day/firstday_afternoon/LiteOS_Lab_STM32_IoT/drivers/t
 775              		.file 18 "c:/Users/lenovo/Desktop/AIoT/first_day/firstday_afternoon/LiteOS_Lab_STM32_IoT/drivers/t
 776              		.file 19 "c:/Users/lenovo/Desktop/AIoT/first_day/firstday_afternoon/LiteOS_Lab_STM32_IoT/targets/S
ARM GAS  C:\Users\lenovo\AppData\Local\Temp\ccEGFOni.s 			page 22

